ARM GAS  C:\Users\NATHAN~1\AppData\Local\Temp\cc90iGN6.s 			page 1


   1              		.cpu cortex-m4
   2              		.arch armv7e-m
   3              		.fpu softvfp
   4              		.eabi_attribute 20, 1
   5              		.eabi_attribute 21, 1
   6              		.eabi_attribute 23, 3
   7              		.eabi_attribute 24, 1
   8              		.eabi_attribute 25, 1
   9              		.eabi_attribute 26, 1
  10              		.eabi_attribute 30, 1
  11              		.eabi_attribute 34, 1
  12              		.eabi_attribute 18, 4
  13              		.file	"radio.c"
  14              		.text
  15              	.Ltext0:
  16              		.cfi_sections	.debug_frame
  17              		.section	.text.RadioCheckRfFrequency,"ax",%progbits
  18              		.align	1
  19              		.syntax unified
  20              		.thumb
  21              		.thumb_func
  23              	RadioCheckRfFrequency:
  24              	.LVL0:
  25              	.LFB999:
  26              		.file 1 "Middlewares/Third_Party/SubGHz_Phy/stm32_radio_driver/radio.c"
   1:Middlewares/Third_Party/SubGHz_Phy/stm32_radio_driver/radio.c **** /*!
   2:Middlewares/Third_Party/SubGHz_Phy/stm32_radio_driver/radio.c ****  * \file      radio.c
   3:Middlewares/Third_Party/SubGHz_Phy/stm32_radio_driver/radio.c ****  *
   4:Middlewares/Third_Party/SubGHz_Phy/stm32_radio_driver/radio.c ****  * \brief     Radio driver API definition
   5:Middlewares/Third_Party/SubGHz_Phy/stm32_radio_driver/radio.c ****  *
   6:Middlewares/Third_Party/SubGHz_Phy/stm32_radio_driver/radio.c ****  * \copyright Revised BSD License, see section \ref LICENSE.
   7:Middlewares/Third_Party/SubGHz_Phy/stm32_radio_driver/radio.c ****  *
   8:Middlewares/Third_Party/SubGHz_Phy/stm32_radio_driver/radio.c ****  * \code
   9:Middlewares/Third_Party/SubGHz_Phy/stm32_radio_driver/radio.c ****  *                ______                              _
  10:Middlewares/Third_Party/SubGHz_Phy/stm32_radio_driver/radio.c ****  *               / _____)             _              | |
  11:Middlewares/Third_Party/SubGHz_Phy/stm32_radio_driver/radio.c ****  *              ( (____  _____ ____ _| |_ _____  ____| |__
  12:Middlewares/Third_Party/SubGHz_Phy/stm32_radio_driver/radio.c ****  *               \____ \| ___ |    (_   _) ___ |/ ___)  _ \
  13:Middlewares/Third_Party/SubGHz_Phy/stm32_radio_driver/radio.c ****  *               _____) ) ____| | | || |_| ____( (___| | | |
  14:Middlewares/Third_Party/SubGHz_Phy/stm32_radio_driver/radio.c ****  *              (______/|_____)_|_|_| \__)_____)\____)_| |_|
  15:Middlewares/Third_Party/SubGHz_Phy/stm32_radio_driver/radio.c ****  *              (C)2013-2017 Semtech
  16:Middlewares/Third_Party/SubGHz_Phy/stm32_radio_driver/radio.c ****  *
  17:Middlewares/Third_Party/SubGHz_Phy/stm32_radio_driver/radio.c ****  * \endcode
  18:Middlewares/Third_Party/SubGHz_Phy/stm32_radio_driver/radio.c ****  *
  19:Middlewares/Third_Party/SubGHz_Phy/stm32_radio_driver/radio.c ****  * \author    Miguel Luis ( Semtech )
  20:Middlewares/Third_Party/SubGHz_Phy/stm32_radio_driver/radio.c ****  *
  21:Middlewares/Third_Party/SubGHz_Phy/stm32_radio_driver/radio.c ****  * \author    Gregory Cristian ( Semtech )
  22:Middlewares/Third_Party/SubGHz_Phy/stm32_radio_driver/radio.c ****  */
  23:Middlewares/Third_Party/SubGHz_Phy/stm32_radio_driver/radio.c **** /**
  24:Middlewares/Third_Party/SubGHz_Phy/stm32_radio_driver/radio.c ****   ******************************************************************************
  25:Middlewares/Third_Party/SubGHz_Phy/stm32_radio_driver/radio.c ****   *
  26:Middlewares/Third_Party/SubGHz_Phy/stm32_radio_driver/radio.c ****   *          Portions COPYRIGHT 2020 STMicroelectronics
  27:Middlewares/Third_Party/SubGHz_Phy/stm32_radio_driver/radio.c ****   *
  28:Middlewares/Third_Party/SubGHz_Phy/stm32_radio_driver/radio.c ****   * @file    radio.c
  29:Middlewares/Third_Party/SubGHz_Phy/stm32_radio_driver/radio.c ****   * @author  MCD Application Team
  30:Middlewares/Third_Party/SubGHz_Phy/stm32_radio_driver/radio.c ****   * @brief   Radio driver API definition
  31:Middlewares/Third_Party/SubGHz_Phy/stm32_radio_driver/radio.c ****   ******************************************************************************
  32:Middlewares/Third_Party/SubGHz_Phy/stm32_radio_driver/radio.c ****   */
ARM GAS  C:\Users\NATHAN~1\AppData\Local\Temp\cc90iGN6.s 			page 2


  33:Middlewares/Third_Party/SubGHz_Phy/stm32_radio_driver/radio.c **** /* Includes ------------------------------------------------------------------*/
  34:Middlewares/Third_Party/SubGHz_Phy/stm32_radio_driver/radio.c **** #include <math.h>
  35:Middlewares/Third_Party/SubGHz_Phy/stm32_radio_driver/radio.c **** #include "timer.h"
  36:Middlewares/Third_Party/SubGHz_Phy/stm32_radio_driver/radio.c **** #include "radio.h"
  37:Middlewares/Third_Party/SubGHz_Phy/stm32_radio_driver/radio.c **** #include "radio_fw.h"
  38:Middlewares/Third_Party/SubGHz_Phy/stm32_radio_driver/radio.c **** #include "radio_driver.h"
  39:Middlewares/Third_Party/SubGHz_Phy/stm32_radio_driver/radio.c **** #include "radio_conf.h"
  40:Middlewares/Third_Party/SubGHz_Phy/stm32_radio_driver/radio.c **** #include "mw_log_conf.h"
  41:Middlewares/Third_Party/SubGHz_Phy/stm32_radio_driver/radio.c **** 
  42:Middlewares/Third_Party/SubGHz_Phy/stm32_radio_driver/radio.c **** /* Private typedef -----------------------------------------------------------*/
  43:Middlewares/Third_Party/SubGHz_Phy/stm32_radio_driver/radio.c **** /* ST_WORKAROUND_BEGIN: Replace global variables by typedef struct */
  44:Middlewares/Third_Party/SubGHz_Phy/stm32_radio_driver/radio.c **** /*!
  45:Middlewares/Third_Party/SubGHz_Phy/stm32_radio_driver/radio.c ****  * Radio hardware and global parameters
  46:Middlewares/Third_Party/SubGHz_Phy/stm32_radio_driver/radio.c ****  */
  47:Middlewares/Third_Party/SubGHz_Phy/stm32_radio_driver/radio.c **** typedef struct SubgRf_s
  48:Middlewares/Third_Party/SubGHz_Phy/stm32_radio_driver/radio.c **** {
  49:Middlewares/Third_Party/SubGHz_Phy/stm32_radio_driver/radio.c ****     RadioModems_t Modem;
  50:Middlewares/Third_Party/SubGHz_Phy/stm32_radio_driver/radio.c ****     bool RxContinuous;
  51:Middlewares/Third_Party/SubGHz_Phy/stm32_radio_driver/radio.c ****     uint32_t TxTimeout;
  52:Middlewares/Third_Party/SubGHz_Phy/stm32_radio_driver/radio.c ****     uint32_t RxTimeout;
  53:Middlewares/Third_Party/SubGHz_Phy/stm32_radio_driver/radio.c ****     struct
  54:Middlewares/Third_Party/SubGHz_Phy/stm32_radio_driver/radio.c ****     {
  55:Middlewares/Third_Party/SubGHz_Phy/stm32_radio_driver/radio.c ****         bool Previous;
  56:Middlewares/Third_Party/SubGHz_Phy/stm32_radio_driver/radio.c ****         bool Current;
  57:Middlewares/Third_Party/SubGHz_Phy/stm32_radio_driver/radio.c ****     } PublicNetwork;
  58:Middlewares/Third_Party/SubGHz_Phy/stm32_radio_driver/radio.c ****     PacketParams_t PacketParams;
  59:Middlewares/Third_Party/SubGHz_Phy/stm32_radio_driver/radio.c ****     PacketStatus_t PacketStatus;
  60:Middlewares/Third_Party/SubGHz_Phy/stm32_radio_driver/radio.c ****     ModulationParams_t ModulationParams;
  61:Middlewares/Third_Party/SubGHz_Phy/stm32_radio_driver/radio.c ****     RadioIrqMasks_t RadioIrq;
  62:Middlewares/Third_Party/SubGHz_Phy/stm32_radio_driver/radio.c ****     uint8_t AntSwitchPaSelect;
  63:Middlewares/Third_Party/SubGHz_Phy/stm32_radio_driver/radio.c **** } SubgRf_t;
  64:Middlewares/Third_Party/SubGHz_Phy/stm32_radio_driver/radio.c **** /* ST_WORKAROUND_END */
  65:Middlewares/Third_Party/SubGHz_Phy/stm32_radio_driver/radio.c **** 
  66:Middlewares/Third_Party/SubGHz_Phy/stm32_radio_driver/radio.c **** /* Private macro -------------------------------------------------------------*/
  67:Middlewares/Third_Party/SubGHz_Phy/stm32_radio_driver/radio.c **** /* ST_WORKAROUND_BEGIN: Add utilities macro to prevent missing header file */
  68:Middlewares/Third_Party/SubGHz_Phy/stm32_radio_driver/radio.c **** #define RADIO_BIT_MASK(__n)  (~(1<<__n))
  69:Middlewares/Third_Party/SubGHz_Phy/stm32_radio_driver/radio.c **** 
  70:Middlewares/Third_Party/SubGHz_Phy/stm32_radio_driver/radio.c **** /**
  71:Middlewares/Third_Party/SubGHz_Phy/stm32_radio_driver/radio.c ****   * \brief Calculates ceiling division of ( X / N )
  72:Middlewares/Third_Party/SubGHz_Phy/stm32_radio_driver/radio.c ****   *
  73:Middlewares/Third_Party/SubGHz_Phy/stm32_radio_driver/radio.c ****   * \param [IN] X numerator
  74:Middlewares/Third_Party/SubGHz_Phy/stm32_radio_driver/radio.c ****   * \param [IN] N denominator
  75:Middlewares/Third_Party/SubGHz_Phy/stm32_radio_driver/radio.c ****   *
  76:Middlewares/Third_Party/SubGHz_Phy/stm32_radio_driver/radio.c ****   */
  77:Middlewares/Third_Party/SubGHz_Phy/stm32_radio_driver/radio.c **** #ifndef DIVC
  78:Middlewares/Third_Party/SubGHz_Phy/stm32_radio_driver/radio.c **** #define DIVC( X, N )                ( ( ( X ) + ( N ) - 1 ) / ( N ) )
  79:Middlewares/Third_Party/SubGHz_Phy/stm32_radio_driver/radio.c **** #endif
  80:Middlewares/Third_Party/SubGHz_Phy/stm32_radio_driver/radio.c **** 
  81:Middlewares/Third_Party/SubGHz_Phy/stm32_radio_driver/radio.c **** /**
  82:Middlewares/Third_Party/SubGHz_Phy/stm32_radio_driver/radio.c ****   * \brief Calculates rounding division of ( X / N )
  83:Middlewares/Third_Party/SubGHz_Phy/stm32_radio_driver/radio.c ****   *
  84:Middlewares/Third_Party/SubGHz_Phy/stm32_radio_driver/radio.c ****   * \param [IN] X numerator
  85:Middlewares/Third_Party/SubGHz_Phy/stm32_radio_driver/radio.c ****   * \param [IN] N denominator
  86:Middlewares/Third_Party/SubGHz_Phy/stm32_radio_driver/radio.c ****   *
  87:Middlewares/Third_Party/SubGHz_Phy/stm32_radio_driver/radio.c ****   */
  88:Middlewares/Third_Party/SubGHz_Phy/stm32_radio_driver/radio.c **** #ifndef DIVR
  89:Middlewares/Third_Party/SubGHz_Phy/stm32_radio_driver/radio.c **** #define DIVR( X, N )                ( ( ( X ) + ( ((X)>0?(N):(N))>>1 ) ) / ( N ) )
ARM GAS  C:\Users\NATHAN~1\AppData\Local\Temp\cc90iGN6.s 			page 3


  90:Middlewares/Third_Party/SubGHz_Phy/stm32_radio_driver/radio.c **** #endif
  91:Middlewares/Third_Party/SubGHz_Phy/stm32_radio_driver/radio.c **** /* ST_WORKAROUND_END */
  92:Middlewares/Third_Party/SubGHz_Phy/stm32_radio_driver/radio.c **** 
  93:Middlewares/Third_Party/SubGHz_Phy/stm32_radio_driver/radio.c **** /* Private define ------------------------------------------------------------*/
  94:Middlewares/Third_Party/SubGHz_Phy/stm32_radio_driver/radio.c **** /* ST_WORKAROUND_BEGIN: Add radio defines to prevent missing header file */
  95:Middlewares/Third_Party/SubGHz_Phy/stm32_radio_driver/radio.c **** /*can be overridden in radio_conf.h*/
  96:Middlewares/Third_Party/SubGHz_Phy/stm32_radio_driver/radio.c **** #ifndef XTAL_FREQ
  97:Middlewares/Third_Party/SubGHz_Phy/stm32_radio_driver/radio.c **** #define XTAL_FREQ                                   32000000UL
  98:Middlewares/Third_Party/SubGHz_Phy/stm32_radio_driver/radio.c **** #endif
  99:Middlewares/Third_Party/SubGHz_Phy/stm32_radio_driver/radio.c **** /*can be overridden in radio_conf.h*/
 100:Middlewares/Third_Party/SubGHz_Phy/stm32_radio_driver/radio.c **** #ifndef RADIO_IRQ_PROCESS_INIT
 101:Middlewares/Third_Party/SubGHz_Phy/stm32_radio_driver/radio.c **** #define RADIO_IRQ_PROCESS_INIT()
 102:Middlewares/Third_Party/SubGHz_Phy/stm32_radio_driver/radio.c **** #endif
 103:Middlewares/Third_Party/SubGHz_Phy/stm32_radio_driver/radio.c **** /*can be overridden in radio_conf.h*/
 104:Middlewares/Third_Party/SubGHz_Phy/stm32_radio_driver/radio.c **** #ifndef RADIO_IRQ_PROCESS
 105:Middlewares/Third_Party/SubGHz_Phy/stm32_radio_driver/radio.c **** #define RADIO_IRQ_PROCESS()        RadioIrqProcess()
 106:Middlewares/Third_Party/SubGHz_Phy/stm32_radio_driver/radio.c **** #endif
 107:Middlewares/Third_Party/SubGHz_Phy/stm32_radio_driver/radio.c **** /*can be overridden in radio_conf.h*/
 108:Middlewares/Third_Party/SubGHz_Phy/stm32_radio_driver/radio.c **** #ifndef RADIO_RX_TIMEOUT_PROCESS
 109:Middlewares/Third_Party/SubGHz_Phy/stm32_radio_driver/radio.c **** #define RADIO_RX_TIMEOUT_PROCESS() RadioOnRxTimeoutProcess()
 110:Middlewares/Third_Party/SubGHz_Phy/stm32_radio_driver/radio.c **** #endif
 111:Middlewares/Third_Party/SubGHz_Phy/stm32_radio_driver/radio.c **** /*can be overridden in radio_conf.h*/
 112:Middlewares/Third_Party/SubGHz_Phy/stm32_radio_driver/radio.c **** #ifndef RADIO_TX_TIMEOUT_PROCESS
 113:Middlewares/Third_Party/SubGHz_Phy/stm32_radio_driver/radio.c **** #define RADIO_TX_TIMEOUT_PROCESS() RadioOnTxTimeoutProcess()
 114:Middlewares/Third_Party/SubGHz_Phy/stm32_radio_driver/radio.c **** #endif
 115:Middlewares/Third_Party/SubGHz_Phy/stm32_radio_driver/radio.c **** 
 116:Middlewares/Third_Party/SubGHz_Phy/stm32_radio_driver/radio.c **** #ifndef IRQ_TX_DBG
 117:Middlewares/Third_Party/SubGHz_Phy/stm32_radio_driver/radio.c **** #define IRQ_TX_DBG ((uint16_t) 0)
 118:Middlewares/Third_Party/SubGHz_Phy/stm32_radio_driver/radio.c **** #endif
 119:Middlewares/Third_Party/SubGHz_Phy/stm32_radio_driver/radio.c **** 
 120:Middlewares/Third_Party/SubGHz_Phy/stm32_radio_driver/radio.c **** #ifndef IRQ_RX_DBG
 121:Middlewares/Third_Party/SubGHz_Phy/stm32_radio_driver/radio.c **** #define IRQ_RX_DBG ((uint16_t) 0)
 122:Middlewares/Third_Party/SubGHz_Phy/stm32_radio_driver/radio.c **** #endif
 123:Middlewares/Third_Party/SubGHz_Phy/stm32_radio_driver/radio.c **** 
 124:Middlewares/Third_Party/SubGHz_Phy/stm32_radio_driver/radio.c **** #define RADIO_BUF_SIZE 255
 125:Middlewares/Third_Party/SubGHz_Phy/stm32_radio_driver/radio.c **** /* ST_WORKAROUND_END */
 126:Middlewares/Third_Party/SubGHz_Phy/stm32_radio_driver/radio.c **** 
 127:Middlewares/Third_Party/SubGHz_Phy/stm32_radio_driver/radio.c **** /* Private function prototypes -----------------------------------------------*/
 128:Middlewares/Third_Party/SubGHz_Phy/stm32_radio_driver/radio.c **** /*!
 129:Middlewares/Third_Party/SubGHz_Phy/stm32_radio_driver/radio.c ****  * \brief Initializes the radio
 130:Middlewares/Third_Party/SubGHz_Phy/stm32_radio_driver/radio.c ****  *
 131:Middlewares/Third_Party/SubGHz_Phy/stm32_radio_driver/radio.c ****  * \param [IN] events Structure containing the driver callback functions
 132:Middlewares/Third_Party/SubGHz_Phy/stm32_radio_driver/radio.c ****  */
 133:Middlewares/Third_Party/SubGHz_Phy/stm32_radio_driver/radio.c **** static void RadioInit( RadioEvents_t *events );
 134:Middlewares/Third_Party/SubGHz_Phy/stm32_radio_driver/radio.c **** 
 135:Middlewares/Third_Party/SubGHz_Phy/stm32_radio_driver/radio.c **** /*!
 136:Middlewares/Third_Party/SubGHz_Phy/stm32_radio_driver/radio.c ****  * Return current radio status
 137:Middlewares/Third_Party/SubGHz_Phy/stm32_radio_driver/radio.c ****  *
 138:Middlewares/Third_Party/SubGHz_Phy/stm32_radio_driver/radio.c ****  * \param status Radio status.[RF_IDLE, RF_RX_RUNNING, RF_TX_RUNNING]
 139:Middlewares/Third_Party/SubGHz_Phy/stm32_radio_driver/radio.c ****  */
 140:Middlewares/Third_Party/SubGHz_Phy/stm32_radio_driver/radio.c **** static RadioState_t RadioGetStatus( void );
 141:Middlewares/Third_Party/SubGHz_Phy/stm32_radio_driver/radio.c **** 
 142:Middlewares/Third_Party/SubGHz_Phy/stm32_radio_driver/radio.c **** /*!
 143:Middlewares/Third_Party/SubGHz_Phy/stm32_radio_driver/radio.c ****  * \brief Configures the radio with the given modem
 144:Middlewares/Third_Party/SubGHz_Phy/stm32_radio_driver/radio.c ****  *
 145:Middlewares/Third_Party/SubGHz_Phy/stm32_radio_driver/radio.c ****  * \param [IN] modem Modem to be used [0: FSK, 1: LoRa]
 146:Middlewares/Third_Party/SubGHz_Phy/stm32_radio_driver/radio.c ****  */
ARM GAS  C:\Users\NATHAN~1\AppData\Local\Temp\cc90iGN6.s 			page 4


 147:Middlewares/Third_Party/SubGHz_Phy/stm32_radio_driver/radio.c **** static void RadioSetModem( RadioModems_t modem );
 148:Middlewares/Third_Party/SubGHz_Phy/stm32_radio_driver/radio.c **** 
 149:Middlewares/Third_Party/SubGHz_Phy/stm32_radio_driver/radio.c **** /*!
 150:Middlewares/Third_Party/SubGHz_Phy/stm32_radio_driver/radio.c ****  * \brief Sets the channel frequency
 151:Middlewares/Third_Party/SubGHz_Phy/stm32_radio_driver/radio.c ****  *
 152:Middlewares/Third_Party/SubGHz_Phy/stm32_radio_driver/radio.c ****  * \param [IN] freq         Channel RF frequency
 153:Middlewares/Third_Party/SubGHz_Phy/stm32_radio_driver/radio.c ****  */
 154:Middlewares/Third_Party/SubGHz_Phy/stm32_radio_driver/radio.c **** static void RadioSetChannel( uint32_t freq );
 155:Middlewares/Third_Party/SubGHz_Phy/stm32_radio_driver/radio.c **** 
 156:Middlewares/Third_Party/SubGHz_Phy/stm32_radio_driver/radio.c **** /*!
 157:Middlewares/Third_Party/SubGHz_Phy/stm32_radio_driver/radio.c ****  * \brief Checks if the channel is free for the given time
 158:Middlewares/Third_Party/SubGHz_Phy/stm32_radio_driver/radio.c ****  *
 159:Middlewares/Third_Party/SubGHz_Phy/stm32_radio_driver/radio.c ****  * \remark The FSK modem is always used for this task as we can select the Rx bandwidth at will.
 160:Middlewares/Third_Party/SubGHz_Phy/stm32_radio_driver/radio.c ****  *
 161:Middlewares/Third_Party/SubGHz_Phy/stm32_radio_driver/radio.c ****  * \param [IN] freq                Channel RF frequency in Hertz
 162:Middlewares/Third_Party/SubGHz_Phy/stm32_radio_driver/radio.c ****  * \param [IN] rxBandwidth         Rx bandwidth in Hertz
 163:Middlewares/Third_Party/SubGHz_Phy/stm32_radio_driver/radio.c ****  * \param [IN] rssiThresh          RSSI threshold in dBm
 164:Middlewares/Third_Party/SubGHz_Phy/stm32_radio_driver/radio.c ****  * \param [IN] maxCarrierSenseTime Max time in milliseconds while the RSSI is measured
 165:Middlewares/Third_Party/SubGHz_Phy/stm32_radio_driver/radio.c ****  *
 166:Middlewares/Third_Party/SubGHz_Phy/stm32_radio_driver/radio.c ****  * \retval isFree         [true: Channel is free, false: Channel is not free]
 167:Middlewares/Third_Party/SubGHz_Phy/stm32_radio_driver/radio.c ****  */
 168:Middlewares/Third_Party/SubGHz_Phy/stm32_radio_driver/radio.c **** static bool RadioIsChannelFree( uint32_t freq, uint32_t rxBandwidth, int16_t rssiThresh, uint32_t m
 169:Middlewares/Third_Party/SubGHz_Phy/stm32_radio_driver/radio.c **** 
 170:Middlewares/Third_Party/SubGHz_Phy/stm32_radio_driver/radio.c **** /*!
 171:Middlewares/Third_Party/SubGHz_Phy/stm32_radio_driver/radio.c ****  * \brief Generates a 32 bits random value based on the RSSI readings
 172:Middlewares/Third_Party/SubGHz_Phy/stm32_radio_driver/radio.c ****  *
 173:Middlewares/Third_Party/SubGHz_Phy/stm32_radio_driver/radio.c ****  * \remark This function sets the radio in LoRa modem mode and disables
 174:Middlewares/Third_Party/SubGHz_Phy/stm32_radio_driver/radio.c ****  *         all interrupts.
 175:Middlewares/Third_Party/SubGHz_Phy/stm32_radio_driver/radio.c ****  *         After calling this function either Radio.SetRxConfig or
 176:Middlewares/Third_Party/SubGHz_Phy/stm32_radio_driver/radio.c ****  *         Radio.SetTxConfig functions must be called.
 177:Middlewares/Third_Party/SubGHz_Phy/stm32_radio_driver/radio.c ****  *
 178:Middlewares/Third_Party/SubGHz_Phy/stm32_radio_driver/radio.c ****  * \retval randomValue    32 bits random value
 179:Middlewares/Third_Party/SubGHz_Phy/stm32_radio_driver/radio.c ****  */
 180:Middlewares/Third_Party/SubGHz_Phy/stm32_radio_driver/radio.c **** static uint32_t RadioRandom( void );
 181:Middlewares/Third_Party/SubGHz_Phy/stm32_radio_driver/radio.c **** 
 182:Middlewares/Third_Party/SubGHz_Phy/stm32_radio_driver/radio.c **** /*!
 183:Middlewares/Third_Party/SubGHz_Phy/stm32_radio_driver/radio.c ****  * \brief Sets the reception parameters
 184:Middlewares/Third_Party/SubGHz_Phy/stm32_radio_driver/radio.c ****  *
 185:Middlewares/Third_Party/SubGHz_Phy/stm32_radio_driver/radio.c ****  * \param [IN] modem        Radio modem to be used [0: FSK, 1: LoRa]
 186:Middlewares/Third_Party/SubGHz_Phy/stm32_radio_driver/radio.c ****  * \param [IN] bandwidth    Sets the bandwidth
 187:Middlewares/Third_Party/SubGHz_Phy/stm32_radio_driver/radio.c ****  *                          FSK : >= 2600 and <= 250000 Hz
 188:Middlewares/Third_Party/SubGHz_Phy/stm32_radio_driver/radio.c ****  *                          LoRa: [0: 125 kHz, 1: 250 kHz,
 189:Middlewares/Third_Party/SubGHz_Phy/stm32_radio_driver/radio.c ****  *                                 2: 500 kHz, 3: Reserved]
 190:Middlewares/Third_Party/SubGHz_Phy/stm32_radio_driver/radio.c ****  * \param [IN] datarate     Sets the Datarate
 191:Middlewares/Third_Party/SubGHz_Phy/stm32_radio_driver/radio.c ****  *                          FSK : 600..300000 bits/s
 192:Middlewares/Third_Party/SubGHz_Phy/stm32_radio_driver/radio.c ****  *                          LoRa: [6: 64, 7: 128, 8: 256, 9: 512,
 193:Middlewares/Third_Party/SubGHz_Phy/stm32_radio_driver/radio.c ****  *                                10: 1024, 11: 2048, 12: 4096  chips]
 194:Middlewares/Third_Party/SubGHz_Phy/stm32_radio_driver/radio.c ****  * \param [IN] coderate     Sets the coding rate (LoRa only)
 195:Middlewares/Third_Party/SubGHz_Phy/stm32_radio_driver/radio.c ****  *                          FSK : N/A ( set to 0 )
 196:Middlewares/Third_Party/SubGHz_Phy/stm32_radio_driver/radio.c ****  *                          LoRa: [1: 4/5, 2: 4/6, 3: 4/7, 4: 4/8]
 197:Middlewares/Third_Party/SubGHz_Phy/stm32_radio_driver/radio.c ****  * \param [IN] bandwidthAfc Sets the AFC Bandwidth (FSK only)
 198:Middlewares/Third_Party/SubGHz_Phy/stm32_radio_driver/radio.c ****  *                          FSK : >= 2600 and <= 250000 Hz
 199:Middlewares/Third_Party/SubGHz_Phy/stm32_radio_driver/radio.c ****  *                          LoRa: N/A ( set to 0 )
 200:Middlewares/Third_Party/SubGHz_Phy/stm32_radio_driver/radio.c ****  * \param [IN] preambleLen  Sets the Preamble length
 201:Middlewares/Third_Party/SubGHz_Phy/stm32_radio_driver/radio.c ****  *                          FSK : Number of bytes
 202:Middlewares/Third_Party/SubGHz_Phy/stm32_radio_driver/radio.c ****  *                          LoRa: Length in symbols (the hardware adds 4 more symbols)
 203:Middlewares/Third_Party/SubGHz_Phy/stm32_radio_driver/radio.c ****  * \param [IN] symbTimeout  Sets the RxSingle timeout value
ARM GAS  C:\Users\NATHAN~1\AppData\Local\Temp\cc90iGN6.s 			page 5


 204:Middlewares/Third_Party/SubGHz_Phy/stm32_radio_driver/radio.c ****  *                          FSK : timeout in number of bytes
 205:Middlewares/Third_Party/SubGHz_Phy/stm32_radio_driver/radio.c ****  *                          LoRa: timeout in symbols
 206:Middlewares/Third_Party/SubGHz_Phy/stm32_radio_driver/radio.c ****  * \param [IN] fixLen       Fixed length packets [0: variable, 1: fixed]
 207:Middlewares/Third_Party/SubGHz_Phy/stm32_radio_driver/radio.c ****  * \param [IN] payloadLen   Sets payload length when fixed length is used
 208:Middlewares/Third_Party/SubGHz_Phy/stm32_radio_driver/radio.c ****  * \param [IN] crcOn        Enables/Disables the CRC [0: OFF, 1: ON]
 209:Middlewares/Third_Party/SubGHz_Phy/stm32_radio_driver/radio.c ****  * \param [IN] FreqHopOn    Enables disables the intra-packet frequency hopping
 210:Middlewares/Third_Party/SubGHz_Phy/stm32_radio_driver/radio.c ****  *                          FSK : N/A ( set to 0 )
 211:Middlewares/Third_Party/SubGHz_Phy/stm32_radio_driver/radio.c ****  *                          LoRa: [0: OFF, 1: ON]
 212:Middlewares/Third_Party/SubGHz_Phy/stm32_radio_driver/radio.c ****  * \param [IN] HopPeriod    Number of symbols between each hop
 213:Middlewares/Third_Party/SubGHz_Phy/stm32_radio_driver/radio.c ****  *                          FSK : N/A ( set to 0 )
 214:Middlewares/Third_Party/SubGHz_Phy/stm32_radio_driver/radio.c ****  *                          LoRa: Number of symbols
 215:Middlewares/Third_Party/SubGHz_Phy/stm32_radio_driver/radio.c ****  * \param [IN] iqInverted   Inverts IQ signals (LoRa only)
 216:Middlewares/Third_Party/SubGHz_Phy/stm32_radio_driver/radio.c ****  *                          FSK : N/A ( set to 0 )
 217:Middlewares/Third_Party/SubGHz_Phy/stm32_radio_driver/radio.c ****  *                          LoRa: [0: not inverted, 1: inverted]
 218:Middlewares/Third_Party/SubGHz_Phy/stm32_radio_driver/radio.c ****  * \param [IN] rxContinuous Sets the reception in continuous mode
 219:Middlewares/Third_Party/SubGHz_Phy/stm32_radio_driver/radio.c ****  *                          [false: single mode, true: continuous mode]
 220:Middlewares/Third_Party/SubGHz_Phy/stm32_radio_driver/radio.c ****  */
 221:Middlewares/Third_Party/SubGHz_Phy/stm32_radio_driver/radio.c **** static void RadioSetRxConfig( RadioModems_t modem, uint32_t bandwidth,
 222:Middlewares/Third_Party/SubGHz_Phy/stm32_radio_driver/radio.c ****                               uint32_t datarate, uint8_t coderate,
 223:Middlewares/Third_Party/SubGHz_Phy/stm32_radio_driver/radio.c ****                               uint32_t bandwidthAfc, uint16_t preambleLen,
 224:Middlewares/Third_Party/SubGHz_Phy/stm32_radio_driver/radio.c ****                               uint16_t symbTimeout, bool fixLen,
 225:Middlewares/Third_Party/SubGHz_Phy/stm32_radio_driver/radio.c ****                               uint8_t payloadLen,
 226:Middlewares/Third_Party/SubGHz_Phy/stm32_radio_driver/radio.c ****                               bool crcOn, bool FreqHopOn, uint8_t HopPeriod,
 227:Middlewares/Third_Party/SubGHz_Phy/stm32_radio_driver/radio.c ****                               bool iqInverted, bool rxContinuous );
 228:Middlewares/Third_Party/SubGHz_Phy/stm32_radio_driver/radio.c **** 
 229:Middlewares/Third_Party/SubGHz_Phy/stm32_radio_driver/radio.c **** /*!
 230:Middlewares/Third_Party/SubGHz_Phy/stm32_radio_driver/radio.c ****  * \brief Sets the transmission parameters
 231:Middlewares/Third_Party/SubGHz_Phy/stm32_radio_driver/radio.c ****  *
 232:Middlewares/Third_Party/SubGHz_Phy/stm32_radio_driver/radio.c ****  * \param [IN] modem        Radio modem to be used [0: FSK, 1: LoRa]
 233:Middlewares/Third_Party/SubGHz_Phy/stm32_radio_driver/radio.c ****  * \param [IN] power        Sets the output power [dBm]
 234:Middlewares/Third_Party/SubGHz_Phy/stm32_radio_driver/radio.c ****  * \param [IN] fdev         Sets the frequency deviation (FSK only)
 235:Middlewares/Third_Party/SubGHz_Phy/stm32_radio_driver/radio.c ****  *                          FSK : [Hz]
 236:Middlewares/Third_Party/SubGHz_Phy/stm32_radio_driver/radio.c ****  *                          LoRa: 0
 237:Middlewares/Third_Party/SubGHz_Phy/stm32_radio_driver/radio.c ****  * \param [IN] bandwidth    Sets the bandwidth (LoRa only)
 238:Middlewares/Third_Party/SubGHz_Phy/stm32_radio_driver/radio.c ****  *                          FSK : 0
 239:Middlewares/Third_Party/SubGHz_Phy/stm32_radio_driver/radio.c ****  *                          LoRa: [0: 125 kHz, 1: 250 kHz,
 240:Middlewares/Third_Party/SubGHz_Phy/stm32_radio_driver/radio.c ****  *                                 2: 500 kHz, 3: Reserved]
 241:Middlewares/Third_Party/SubGHz_Phy/stm32_radio_driver/radio.c ****  * \param [IN] datarate     Sets the Datarate
 242:Middlewares/Third_Party/SubGHz_Phy/stm32_radio_driver/radio.c ****  *                          FSK : 600..300000 bits/s
 243:Middlewares/Third_Party/SubGHz_Phy/stm32_radio_driver/radio.c ****  *                          LoRa: [6: 64, 7: 128, 8: 256, 9: 512,
 244:Middlewares/Third_Party/SubGHz_Phy/stm32_radio_driver/radio.c ****  *                                10: 1024, 11: 2048, 12: 4096  chips]
 245:Middlewares/Third_Party/SubGHz_Phy/stm32_radio_driver/radio.c ****  * \param [IN] coderate     Sets the coding rate (LoRa only)
 246:Middlewares/Third_Party/SubGHz_Phy/stm32_radio_driver/radio.c ****  *                          FSK : N/A ( set to 0 )
 247:Middlewares/Third_Party/SubGHz_Phy/stm32_radio_driver/radio.c ****  *                          LoRa: [1: 4/5, 2: 4/6, 3: 4/7, 4: 4/8]
 248:Middlewares/Third_Party/SubGHz_Phy/stm32_radio_driver/radio.c ****  * \param [IN] preambleLen  Sets the preamble length
 249:Middlewares/Third_Party/SubGHz_Phy/stm32_radio_driver/radio.c ****  *                          FSK : Number of bytes
 250:Middlewares/Third_Party/SubGHz_Phy/stm32_radio_driver/radio.c ****  *                          LoRa: Length in symbols (the hardware adds 4 more symbols)
 251:Middlewares/Third_Party/SubGHz_Phy/stm32_radio_driver/radio.c ****  * \param [IN] fixLen       Fixed length packets [0: variable, 1: fixed]
 252:Middlewares/Third_Party/SubGHz_Phy/stm32_radio_driver/radio.c ****  * \param [IN] crcOn        Enables disables the CRC [0: OFF, 1: ON]
 253:Middlewares/Third_Party/SubGHz_Phy/stm32_radio_driver/radio.c ****  * \param [IN] FreqHopOn    Enables disables the intra-packet frequency hopping
 254:Middlewares/Third_Party/SubGHz_Phy/stm32_radio_driver/radio.c ****  *                          FSK : N/A ( set to 0 )
 255:Middlewares/Third_Party/SubGHz_Phy/stm32_radio_driver/radio.c ****  *                          LoRa: [0: OFF, 1: ON]
 256:Middlewares/Third_Party/SubGHz_Phy/stm32_radio_driver/radio.c ****  * \param [IN] HopPeriod    Number of symbols between each hop
 257:Middlewares/Third_Party/SubGHz_Phy/stm32_radio_driver/radio.c ****  *                          FSK : N/A ( set to 0 )
 258:Middlewares/Third_Party/SubGHz_Phy/stm32_radio_driver/radio.c ****  *                          LoRa: Number of symbols
 259:Middlewares/Third_Party/SubGHz_Phy/stm32_radio_driver/radio.c ****  * \param [IN] iqInverted   Inverts IQ signals (LoRa only)
 260:Middlewares/Third_Party/SubGHz_Phy/stm32_radio_driver/radio.c ****  *                          FSK : N/A ( set to 0 )
ARM GAS  C:\Users\NATHAN~1\AppData\Local\Temp\cc90iGN6.s 			page 6


 261:Middlewares/Third_Party/SubGHz_Phy/stm32_radio_driver/radio.c ****  *                          LoRa: [0: not inverted, 1: inverted]
 262:Middlewares/Third_Party/SubGHz_Phy/stm32_radio_driver/radio.c ****  * \param [IN] timeout      Transmission timeout [ms]
 263:Middlewares/Third_Party/SubGHz_Phy/stm32_radio_driver/radio.c ****  */
 264:Middlewares/Third_Party/SubGHz_Phy/stm32_radio_driver/radio.c **** static void RadioSetTxConfig( RadioModems_t modem, int8_t power, uint32_t fdev,
 265:Middlewares/Third_Party/SubGHz_Phy/stm32_radio_driver/radio.c ****                               uint32_t bandwidth, uint32_t datarate,
 266:Middlewares/Third_Party/SubGHz_Phy/stm32_radio_driver/radio.c ****                               uint8_t coderate, uint16_t preambleLen,
 267:Middlewares/Third_Party/SubGHz_Phy/stm32_radio_driver/radio.c ****                               bool fixLen, bool crcOn, bool FreqHopOn,
 268:Middlewares/Third_Party/SubGHz_Phy/stm32_radio_driver/radio.c ****                               uint8_t HopPeriod, bool iqInverted, uint32_t timeout );
 269:Middlewares/Third_Party/SubGHz_Phy/stm32_radio_driver/radio.c **** 
 270:Middlewares/Third_Party/SubGHz_Phy/stm32_radio_driver/radio.c **** /*!
 271:Middlewares/Third_Party/SubGHz_Phy/stm32_radio_driver/radio.c ****  * \brief Checks if the given RF frequency is supported by the hardware
 272:Middlewares/Third_Party/SubGHz_Phy/stm32_radio_driver/radio.c ****  *
 273:Middlewares/Third_Party/SubGHz_Phy/stm32_radio_driver/radio.c ****  * \param [IN] frequency RF frequency to be checked
 274:Middlewares/Third_Party/SubGHz_Phy/stm32_radio_driver/radio.c ****  * \retval isSupported [true: supported, false: unsupported]
 275:Middlewares/Third_Party/SubGHz_Phy/stm32_radio_driver/radio.c ****  */
 276:Middlewares/Third_Party/SubGHz_Phy/stm32_radio_driver/radio.c **** static bool RadioCheckRfFrequency( uint32_t frequency );
 277:Middlewares/Third_Party/SubGHz_Phy/stm32_radio_driver/radio.c **** 
 278:Middlewares/Third_Party/SubGHz_Phy/stm32_radio_driver/radio.c **** /*!
 279:Middlewares/Third_Party/SubGHz_Phy/stm32_radio_driver/radio.c ****  * \brief Computes the packet time on air in ms for the given payload
 280:Middlewares/Third_Party/SubGHz_Phy/stm32_radio_driver/radio.c ****  *
 281:Middlewares/Third_Party/SubGHz_Phy/stm32_radio_driver/radio.c ****  * \Remark Can only be called once SetRxConfig or SetTxConfig have been called
 282:Middlewares/Third_Party/SubGHz_Phy/stm32_radio_driver/radio.c ****  *
 283:Middlewares/Third_Party/SubGHz_Phy/stm32_radio_driver/radio.c ****  * \param [IN] modem      Radio modem to be used [0: FSK, 1: LoRa]
 284:Middlewares/Third_Party/SubGHz_Phy/stm32_radio_driver/radio.c ****  * \param [IN] bandwidth    Sets the bandwidth
 285:Middlewares/Third_Party/SubGHz_Phy/stm32_radio_driver/radio.c ****  *                          FSK : >= 2600 and <= 250000 Hz
 286:Middlewares/Third_Party/SubGHz_Phy/stm32_radio_driver/radio.c ****  *                          LoRa: [0: 125 kHz, 1: 250 kHz,
 287:Middlewares/Third_Party/SubGHz_Phy/stm32_radio_driver/radio.c ****  *                                 2: 500 kHz, 3: Reserved]
 288:Middlewares/Third_Party/SubGHz_Phy/stm32_radio_driver/radio.c ****  * \param [IN] datarate     Sets the Datarate
 289:Middlewares/Third_Party/SubGHz_Phy/stm32_radio_driver/radio.c ****  *                          FSK : 600..300000 bits/s
 290:Middlewares/Third_Party/SubGHz_Phy/stm32_radio_driver/radio.c ****  *                          LoRa: [6: 64, 7: 128, 8: 256, 9: 512,
 291:Middlewares/Third_Party/SubGHz_Phy/stm32_radio_driver/radio.c ****  *                                10: 1024, 11: 2048, 12: 4096  chips]
 292:Middlewares/Third_Party/SubGHz_Phy/stm32_radio_driver/radio.c ****  * \param [IN] coderate     Sets the coding rate (LoRa only)
 293:Middlewares/Third_Party/SubGHz_Phy/stm32_radio_driver/radio.c ****  *                          FSK : N/A ( set to 0 )
 294:Middlewares/Third_Party/SubGHz_Phy/stm32_radio_driver/radio.c ****  *                          LoRa: [1: 4/5, 2: 4/6, 3: 4/7, 4: 4/8]
 295:Middlewares/Third_Party/SubGHz_Phy/stm32_radio_driver/radio.c ****  * \param [IN] preambleLen  Sets the Preamble length
 296:Middlewares/Third_Party/SubGHz_Phy/stm32_radio_driver/radio.c ****  *                          FSK : Number of bytes
 297:Middlewares/Third_Party/SubGHz_Phy/stm32_radio_driver/radio.c ****  *                          LoRa: Length in symbols (the hardware adds 4 more symbols)
 298:Middlewares/Third_Party/SubGHz_Phy/stm32_radio_driver/radio.c ****  * \param [IN] fixLen       Fixed length packets [0: variable, 1: fixed]
 299:Middlewares/Third_Party/SubGHz_Phy/stm32_radio_driver/radio.c ****  * \param [IN] payloadLen   Sets payload length when fixed length is used
 300:Middlewares/Third_Party/SubGHz_Phy/stm32_radio_driver/radio.c ****  * \param [IN] crcOn        Enables/Disables the CRC [0: OFF, 1: ON]
 301:Middlewares/Third_Party/SubGHz_Phy/stm32_radio_driver/radio.c ****  *
 302:Middlewares/Third_Party/SubGHz_Phy/stm32_radio_driver/radio.c ****  * \retval airTime        Computed airTime (ms) for the given packet payload length
 303:Middlewares/Third_Party/SubGHz_Phy/stm32_radio_driver/radio.c ****  */
 304:Middlewares/Third_Party/SubGHz_Phy/stm32_radio_driver/radio.c **** static uint32_t RadioTimeOnAir( RadioModems_t modem, uint32_t bandwidth,
 305:Middlewares/Third_Party/SubGHz_Phy/stm32_radio_driver/radio.c ****                                 uint32_t datarate, uint8_t coderate,
 306:Middlewares/Third_Party/SubGHz_Phy/stm32_radio_driver/radio.c ****                                 uint16_t preambleLen, bool fixLen, uint8_t payloadLen,
 307:Middlewares/Third_Party/SubGHz_Phy/stm32_radio_driver/radio.c ****                                 bool crcOn );
 308:Middlewares/Third_Party/SubGHz_Phy/stm32_radio_driver/radio.c **** 
 309:Middlewares/Third_Party/SubGHz_Phy/stm32_radio_driver/radio.c **** /*!
 310:Middlewares/Third_Party/SubGHz_Phy/stm32_radio_driver/radio.c ****  * \brief Sends the buffer of size. Prepares the packet to be sent and sets
 311:Middlewares/Third_Party/SubGHz_Phy/stm32_radio_driver/radio.c ****  *        the radio in transmission
 312:Middlewares/Third_Party/SubGHz_Phy/stm32_radio_driver/radio.c ****  *
 313:Middlewares/Third_Party/SubGHz_Phy/stm32_radio_driver/radio.c ****  * \param [IN]: buffer     Buffer pointer
 314:Middlewares/Third_Party/SubGHz_Phy/stm32_radio_driver/radio.c ****  * \param [IN]: size       Buffer size
 315:Middlewares/Third_Party/SubGHz_Phy/stm32_radio_driver/radio.c ****  */
 316:Middlewares/Third_Party/SubGHz_Phy/stm32_radio_driver/radio.c **** static void RadioSend( uint8_t *buffer, uint8_t size );
 317:Middlewares/Third_Party/SubGHz_Phy/stm32_radio_driver/radio.c **** 
ARM GAS  C:\Users\NATHAN~1\AppData\Local\Temp\cc90iGN6.s 			page 7


 318:Middlewares/Third_Party/SubGHz_Phy/stm32_radio_driver/radio.c **** /*!
 319:Middlewares/Third_Party/SubGHz_Phy/stm32_radio_driver/radio.c ****  * \brief Sets the radio in sleep mode
 320:Middlewares/Third_Party/SubGHz_Phy/stm32_radio_driver/radio.c ****  */
 321:Middlewares/Third_Party/SubGHz_Phy/stm32_radio_driver/radio.c **** static void RadioSleep( void );
 322:Middlewares/Third_Party/SubGHz_Phy/stm32_radio_driver/radio.c **** 
 323:Middlewares/Third_Party/SubGHz_Phy/stm32_radio_driver/radio.c **** /*!
 324:Middlewares/Third_Party/SubGHz_Phy/stm32_radio_driver/radio.c ****  * \brief Sets the radio in standby mode
 325:Middlewares/Third_Party/SubGHz_Phy/stm32_radio_driver/radio.c ****  */
 326:Middlewares/Third_Party/SubGHz_Phy/stm32_radio_driver/radio.c **** static void RadioStandby( void );
 327:Middlewares/Third_Party/SubGHz_Phy/stm32_radio_driver/radio.c **** 
 328:Middlewares/Third_Party/SubGHz_Phy/stm32_radio_driver/radio.c **** /*!
 329:Middlewares/Third_Party/SubGHz_Phy/stm32_radio_driver/radio.c ****  * \brief Sets the radio in reception mode for the given time
 330:Middlewares/Third_Party/SubGHz_Phy/stm32_radio_driver/radio.c ****  * \param [IN] timeout Reception timeout [ms]
 331:Middlewares/Third_Party/SubGHz_Phy/stm32_radio_driver/radio.c ****  *                     [0: continuous, others timeout]
 332:Middlewares/Third_Party/SubGHz_Phy/stm32_radio_driver/radio.c ****  */
 333:Middlewares/Third_Party/SubGHz_Phy/stm32_radio_driver/radio.c **** static void RadioRx( uint32_t timeout );
 334:Middlewares/Third_Party/SubGHz_Phy/stm32_radio_driver/radio.c **** 
 335:Middlewares/Third_Party/SubGHz_Phy/stm32_radio_driver/radio.c **** /*!
 336:Middlewares/Third_Party/SubGHz_Phy/stm32_radio_driver/radio.c ****  * \brief Start a Channel Activity Detection
 337:Middlewares/Third_Party/SubGHz_Phy/stm32_radio_driver/radio.c ****  */
 338:Middlewares/Third_Party/SubGHz_Phy/stm32_radio_driver/radio.c **** static void RadioStartCad( void );
 339:Middlewares/Third_Party/SubGHz_Phy/stm32_radio_driver/radio.c **** 
 340:Middlewares/Third_Party/SubGHz_Phy/stm32_radio_driver/radio.c **** /*!
 341:Middlewares/Third_Party/SubGHz_Phy/stm32_radio_driver/radio.c ****  * \brief Sets the radio in continuous wave transmission mode
 342:Middlewares/Third_Party/SubGHz_Phy/stm32_radio_driver/radio.c ****  *
 343:Middlewares/Third_Party/SubGHz_Phy/stm32_radio_driver/radio.c ****  * \param [IN]: freq       Channel RF frequency
 344:Middlewares/Third_Party/SubGHz_Phy/stm32_radio_driver/radio.c ****  * \param [IN]: power      Sets the output power [dBm]
 345:Middlewares/Third_Party/SubGHz_Phy/stm32_radio_driver/radio.c ****  * \param [IN]: time       Transmission mode timeout [s]
 346:Middlewares/Third_Party/SubGHz_Phy/stm32_radio_driver/radio.c ****  */
 347:Middlewares/Third_Party/SubGHz_Phy/stm32_radio_driver/radio.c **** static void RadioSetTxContinuousWave( uint32_t freq, int8_t power, uint16_t time );
 348:Middlewares/Third_Party/SubGHz_Phy/stm32_radio_driver/radio.c **** 
 349:Middlewares/Third_Party/SubGHz_Phy/stm32_radio_driver/radio.c **** /*!
 350:Middlewares/Third_Party/SubGHz_Phy/stm32_radio_driver/radio.c ****  * \brief Reads the current RSSI value
 351:Middlewares/Third_Party/SubGHz_Phy/stm32_radio_driver/radio.c ****  *
 352:Middlewares/Third_Party/SubGHz_Phy/stm32_radio_driver/radio.c ****  * \retval rssiValue Current RSSI value in [dBm]
 353:Middlewares/Third_Party/SubGHz_Phy/stm32_radio_driver/radio.c ****  */
 354:Middlewares/Third_Party/SubGHz_Phy/stm32_radio_driver/radio.c **** static int16_t RadioRssi( RadioModems_t modem );
 355:Middlewares/Third_Party/SubGHz_Phy/stm32_radio_driver/radio.c **** 
 356:Middlewares/Third_Party/SubGHz_Phy/stm32_radio_driver/radio.c **** /* ST_WORKAROUND_BEGIN: Force register addr to uint16_t */
 357:Middlewares/Third_Party/SubGHz_Phy/stm32_radio_driver/radio.c **** /*!
 358:Middlewares/Third_Party/SubGHz_Phy/stm32_radio_driver/radio.c ****  * \brief Writes the radio register at the specified address
 359:Middlewares/Third_Party/SubGHz_Phy/stm32_radio_driver/radio.c ****  *
 360:Middlewares/Third_Party/SubGHz_Phy/stm32_radio_driver/radio.c ****  * \param [IN]: addr Register address
 361:Middlewares/Third_Party/SubGHz_Phy/stm32_radio_driver/radio.c ****  * \param [IN]: data New register value
 362:Middlewares/Third_Party/SubGHz_Phy/stm32_radio_driver/radio.c ****  */
 363:Middlewares/Third_Party/SubGHz_Phy/stm32_radio_driver/radio.c **** static void RadioWrite( uint16_t addr, uint8_t data );
 364:Middlewares/Third_Party/SubGHz_Phy/stm32_radio_driver/radio.c **** 
 365:Middlewares/Third_Party/SubGHz_Phy/stm32_radio_driver/radio.c **** /*!
 366:Middlewares/Third_Party/SubGHz_Phy/stm32_radio_driver/radio.c ****  * \brief Reads the radio register at the specified address
 367:Middlewares/Third_Party/SubGHz_Phy/stm32_radio_driver/radio.c ****  *
 368:Middlewares/Third_Party/SubGHz_Phy/stm32_radio_driver/radio.c ****  * \param [IN]: addr Register address
 369:Middlewares/Third_Party/SubGHz_Phy/stm32_radio_driver/radio.c ****  * \retval data Register value
 370:Middlewares/Third_Party/SubGHz_Phy/stm32_radio_driver/radio.c ****  */
 371:Middlewares/Third_Party/SubGHz_Phy/stm32_radio_driver/radio.c **** static uint8_t RadioRead( uint16_t addr );
 372:Middlewares/Third_Party/SubGHz_Phy/stm32_radio_driver/radio.c **** 
 373:Middlewares/Third_Party/SubGHz_Phy/stm32_radio_driver/radio.c **** /*!
 374:Middlewares/Third_Party/SubGHz_Phy/stm32_radio_driver/radio.c ****  * \brief Writes multiple radio registers starting at address
ARM GAS  C:\Users\NATHAN~1\AppData\Local\Temp\cc90iGN6.s 			page 8


 375:Middlewares/Third_Party/SubGHz_Phy/stm32_radio_driver/radio.c ****  *
 376:Middlewares/Third_Party/SubGHz_Phy/stm32_radio_driver/radio.c ****  * \param [IN] addr   First Radio register address
 377:Middlewares/Third_Party/SubGHz_Phy/stm32_radio_driver/radio.c ****  * \param [IN] buffer Buffer containing the new register's values
 378:Middlewares/Third_Party/SubGHz_Phy/stm32_radio_driver/radio.c ****  * \param [IN] size   Number of registers to be written
 379:Middlewares/Third_Party/SubGHz_Phy/stm32_radio_driver/radio.c ****  */
 380:Middlewares/Third_Party/SubGHz_Phy/stm32_radio_driver/radio.c **** static void RadioWriteRegisters( uint16_t addr, uint8_t *buffer, uint8_t size );
 381:Middlewares/Third_Party/SubGHz_Phy/stm32_radio_driver/radio.c **** 
 382:Middlewares/Third_Party/SubGHz_Phy/stm32_radio_driver/radio.c **** /*!
 383:Middlewares/Third_Party/SubGHz_Phy/stm32_radio_driver/radio.c ****  * \brief Reads multiple radio registers starting at address
 384:Middlewares/Third_Party/SubGHz_Phy/stm32_radio_driver/radio.c ****  *
 385:Middlewares/Third_Party/SubGHz_Phy/stm32_radio_driver/radio.c ****  * \param [IN] addr First Radio register address
 386:Middlewares/Third_Party/SubGHz_Phy/stm32_radio_driver/radio.c ****  * \param [OUT] buffer Buffer where to copy the registers data
 387:Middlewares/Third_Party/SubGHz_Phy/stm32_radio_driver/radio.c ****  * \param [IN] size Number of registers to be read
 388:Middlewares/Third_Party/SubGHz_Phy/stm32_radio_driver/radio.c ****  */
 389:Middlewares/Third_Party/SubGHz_Phy/stm32_radio_driver/radio.c **** static void RadioReadRegisters( uint16_t addr, uint8_t *buffer, uint8_t size );
 390:Middlewares/Third_Party/SubGHz_Phy/stm32_radio_driver/radio.c **** /* ST_WORKAROUND_END */
 391:Middlewares/Third_Party/SubGHz_Phy/stm32_radio_driver/radio.c **** 
 392:Middlewares/Third_Party/SubGHz_Phy/stm32_radio_driver/radio.c **** /*!
 393:Middlewares/Third_Party/SubGHz_Phy/stm32_radio_driver/radio.c ****  * \brief Sets the maximum payload length.
 394:Middlewares/Third_Party/SubGHz_Phy/stm32_radio_driver/radio.c ****  *
 395:Middlewares/Third_Party/SubGHz_Phy/stm32_radio_driver/radio.c ****  * \param [IN] modem      Radio modem to be used [0: FSK, 1: LoRa]
 396:Middlewares/Third_Party/SubGHz_Phy/stm32_radio_driver/radio.c ****  * \param [IN] max        Maximum payload length in bytes
 397:Middlewares/Third_Party/SubGHz_Phy/stm32_radio_driver/radio.c ****  */
 398:Middlewares/Third_Party/SubGHz_Phy/stm32_radio_driver/radio.c **** static void RadioSetMaxPayloadLength( RadioModems_t modem, uint8_t max );
 399:Middlewares/Third_Party/SubGHz_Phy/stm32_radio_driver/radio.c **** 
 400:Middlewares/Third_Party/SubGHz_Phy/stm32_radio_driver/radio.c **** /*!
 401:Middlewares/Third_Party/SubGHz_Phy/stm32_radio_driver/radio.c ****  * \brief Sets the network to public or private. Updates the sync byte.
 402:Middlewares/Third_Party/SubGHz_Phy/stm32_radio_driver/radio.c ****  *
 403:Middlewares/Third_Party/SubGHz_Phy/stm32_radio_driver/radio.c ****  * \remark Applies to LoRa modem only
 404:Middlewares/Third_Party/SubGHz_Phy/stm32_radio_driver/radio.c ****  *
 405:Middlewares/Third_Party/SubGHz_Phy/stm32_radio_driver/radio.c ****  * \param [IN] enable if true, it enables a public network
 406:Middlewares/Third_Party/SubGHz_Phy/stm32_radio_driver/radio.c ****  */
 407:Middlewares/Third_Party/SubGHz_Phy/stm32_radio_driver/radio.c **** static void RadioSetPublicNetwork( bool enable );
 408:Middlewares/Third_Party/SubGHz_Phy/stm32_radio_driver/radio.c **** 
 409:Middlewares/Third_Party/SubGHz_Phy/stm32_radio_driver/radio.c **** /*!
 410:Middlewares/Third_Party/SubGHz_Phy/stm32_radio_driver/radio.c ****  * \brief Gets the time required for the board plus radio to get out of sleep.[ms]
 411:Middlewares/Third_Party/SubGHz_Phy/stm32_radio_driver/radio.c ****  *
 412:Middlewares/Third_Party/SubGHz_Phy/stm32_radio_driver/radio.c ****  * \retval time Radio plus board wakeup time in ms.
 413:Middlewares/Third_Party/SubGHz_Phy/stm32_radio_driver/radio.c ****  */
 414:Middlewares/Third_Party/SubGHz_Phy/stm32_radio_driver/radio.c **** static uint32_t RadioGetWakeupTime( void );
 415:Middlewares/Third_Party/SubGHz_Phy/stm32_radio_driver/radio.c **** 
 416:Middlewares/Third_Party/SubGHz_Phy/stm32_radio_driver/radio.c **** /*!
 417:Middlewares/Third_Party/SubGHz_Phy/stm32_radio_driver/radio.c ****  * \brief Process radio irq
 418:Middlewares/Third_Party/SubGHz_Phy/stm32_radio_driver/radio.c ****  */
 419:Middlewares/Third_Party/SubGHz_Phy/stm32_radio_driver/radio.c **** static void RadioIrqProcess( void );
 420:Middlewares/Third_Party/SubGHz_Phy/stm32_radio_driver/radio.c **** 
 421:Middlewares/Third_Party/SubGHz_Phy/stm32_radio_driver/radio.c **** /*!
 422:Middlewares/Third_Party/SubGHz_Phy/stm32_radio_driver/radio.c ****  * \brief Sets the radio in reception mode with Max LNA gain for the given time
 423:Middlewares/Third_Party/SubGHz_Phy/stm32_radio_driver/radio.c ****  * \param [IN] timeout Reception timeout [ms]
 424:Middlewares/Third_Party/SubGHz_Phy/stm32_radio_driver/radio.c ****  *                     [0: continuous, others timeout]
 425:Middlewares/Third_Party/SubGHz_Phy/stm32_radio_driver/radio.c ****  */
 426:Middlewares/Third_Party/SubGHz_Phy/stm32_radio_driver/radio.c **** static void RadioRxBoosted( uint32_t timeout );
 427:Middlewares/Third_Party/SubGHz_Phy/stm32_radio_driver/radio.c **** 
 428:Middlewares/Third_Party/SubGHz_Phy/stm32_radio_driver/radio.c **** /*!
 429:Middlewares/Third_Party/SubGHz_Phy/stm32_radio_driver/radio.c ****  * \brief Sets the Rx duty cycle management parameters
 430:Middlewares/Third_Party/SubGHz_Phy/stm32_radio_driver/radio.c ****  *
 431:Middlewares/Third_Party/SubGHz_Phy/stm32_radio_driver/radio.c ****  * \param [in]  rxTime        Structure describing reception timeout value
ARM GAS  C:\Users\NATHAN~1\AppData\Local\Temp\cc90iGN6.s 			page 9


 432:Middlewares/Third_Party/SubGHz_Phy/stm32_radio_driver/radio.c ****  * \param [in]  sleepTime     Structure describing sleep timeout value
 433:Middlewares/Third_Party/SubGHz_Phy/stm32_radio_driver/radio.c ****  */
 434:Middlewares/Third_Party/SubGHz_Phy/stm32_radio_driver/radio.c **** static void RadioSetRxDutyCycle( uint32_t rxTime, uint32_t sleepTime );
 435:Middlewares/Third_Party/SubGHz_Phy/stm32_radio_driver/radio.c **** 
 436:Middlewares/Third_Party/SubGHz_Phy/stm32_radio_driver/radio.c **** /*!
 437:Middlewares/Third_Party/SubGHz_Phy/stm32_radio_driver/radio.c ****  * \brief DIO 0 IRQ callback
 438:Middlewares/Third_Party/SubGHz_Phy/stm32_radio_driver/radio.c ****  */
 439:Middlewares/Third_Party/SubGHz_Phy/stm32_radio_driver/radio.c **** static void RadioOnDioIrq( RadioIrqMasks_t radioIrq );
 440:Middlewares/Third_Party/SubGHz_Phy/stm32_radio_driver/radio.c **** 
 441:Middlewares/Third_Party/SubGHz_Phy/stm32_radio_driver/radio.c **** /*!
 442:Middlewares/Third_Party/SubGHz_Phy/stm32_radio_driver/radio.c ****  * \brief Tx timeout timer callback
 443:Middlewares/Third_Party/SubGHz_Phy/stm32_radio_driver/radio.c ****  */
 444:Middlewares/Third_Party/SubGHz_Phy/stm32_radio_driver/radio.c **** static void RadioOnTxTimeoutIrq( void * context );
 445:Middlewares/Third_Party/SubGHz_Phy/stm32_radio_driver/radio.c **** 
 446:Middlewares/Third_Party/SubGHz_Phy/stm32_radio_driver/radio.c **** /*!
 447:Middlewares/Third_Party/SubGHz_Phy/stm32_radio_driver/radio.c ****  * \brief Rx timeout timer callback
 448:Middlewares/Third_Party/SubGHz_Phy/stm32_radio_driver/radio.c ****  */
 449:Middlewares/Third_Party/SubGHz_Phy/stm32_radio_driver/radio.c **** static void RadioOnRxTimeoutIrq( void * context );
 450:Middlewares/Third_Party/SubGHz_Phy/stm32_radio_driver/radio.c **** 
 451:Middlewares/Third_Party/SubGHz_Phy/stm32_radio_driver/radio.c **** /*!
 452:Middlewares/Third_Party/SubGHz_Phy/stm32_radio_driver/radio.c ****  * \brief Rx timeout timer process
 453:Middlewares/Third_Party/SubGHz_Phy/stm32_radio_driver/radio.c ****  */
 454:Middlewares/Third_Party/SubGHz_Phy/stm32_radio_driver/radio.c **** static void RadioOnRxTimeoutProcess( void );
 455:Middlewares/Third_Party/SubGHz_Phy/stm32_radio_driver/radio.c **** 
 456:Middlewares/Third_Party/SubGHz_Phy/stm32_radio_driver/radio.c **** /*!
 457:Middlewares/Third_Party/SubGHz_Phy/stm32_radio_driver/radio.c ****  * \brief Tx timeout timer process
 458:Middlewares/Third_Party/SubGHz_Phy/stm32_radio_driver/radio.c ****  */
 459:Middlewares/Third_Party/SubGHz_Phy/stm32_radio_driver/radio.c **** static void RadioOnTxTimeoutProcess( void );
 460:Middlewares/Third_Party/SubGHz_Phy/stm32_radio_driver/radio.c **** 
 461:Middlewares/Third_Party/SubGHz_Phy/stm32_radio_driver/radio.c **** /* ST_WORKAROUND_BEGIN: extended radio functions */
 462:Middlewares/Third_Party/SubGHz_Phy/stm32_radio_driver/radio.c **** /*!
 463:Middlewares/Third_Party/SubGHz_Phy/stm32_radio_driver/radio.c ****  * @brief D-BPSK to BPSK
 464:Middlewares/Third_Party/SubGHz_Phy/stm32_radio_driver/radio.c ****  *
 465:Middlewares/Third_Party/SubGHz_Phy/stm32_radio_driver/radio.c ****  * @param [out] outBuffer     buffer with frame encoded
 466:Middlewares/Third_Party/SubGHz_Phy/stm32_radio_driver/radio.c ****  * @param [in]  inBuffer      buffer with frame to encode
 467:Middlewares/Third_Party/SubGHz_Phy/stm32_radio_driver/radio.c ****  * @param [in]  size          size of the payload to encode
 468:Middlewares/Third_Party/SubGHz_Phy/stm32_radio_driver/radio.c ****  */
 469:Middlewares/Third_Party/SubGHz_Phy/stm32_radio_driver/radio.c **** static void payload_integration( uint8_t *outBuffer, uint8_t *inBuffer, uint8_t size);
 470:Middlewares/Third_Party/SubGHz_Phy/stm32_radio_driver/radio.c **** 
 471:Middlewares/Third_Party/SubGHz_Phy/stm32_radio_driver/radio.c **** /*!
 472:Middlewares/Third_Party/SubGHz_Phy/stm32_radio_driver/radio.c ****  * \brief Set Tx PRBS modulated wave
 473:Middlewares/Third_Party/SubGHz_Phy/stm32_radio_driver/radio.c ****  * \retval none
 474:Middlewares/Third_Party/SubGHz_Phy/stm32_radio_driver/radio.c ****  */
 475:Middlewares/Third_Party/SubGHz_Phy/stm32_radio_driver/radio.c **** static void RadioTxPrbs( void );
 476:Middlewares/Third_Party/SubGHz_Phy/stm32_radio_driver/radio.c **** 
 477:Middlewares/Third_Party/SubGHz_Phy/stm32_radio_driver/radio.c **** /*!
 478:Middlewares/Third_Party/SubGHz_Phy/stm32_radio_driver/radio.c ****  * \brief Set Tx continuous wave
 479:Middlewares/Third_Party/SubGHz_Phy/stm32_radio_driver/radio.c ****  * \retval none
 480:Middlewares/Third_Party/SubGHz_Phy/stm32_radio_driver/radio.c ****  */
 481:Middlewares/Third_Party/SubGHz_Phy/stm32_radio_driver/radio.c **** static void RadioTxCw( int8_t power );
 482:Middlewares/Third_Party/SubGHz_Phy/stm32_radio_driver/radio.c **** 
 483:Middlewares/Third_Party/SubGHz_Phy/stm32_radio_driver/radio.c **** /*!
 484:Middlewares/Third_Party/SubGHz_Phy/stm32_radio_driver/radio.c ****  * \brief Sets the reception parameters
 485:Middlewares/Third_Party/SubGHz_Phy/stm32_radio_driver/radio.c ****  *
 486:Middlewares/Third_Party/SubGHz_Phy/stm32_radio_driver/radio.c ****  * \param [IN] modem        Radio modem to be used [GENERIC_FSK or GENERIC_FSK]
 487:Middlewares/Third_Party/SubGHz_Phy/stm32_radio_driver/radio.c ****  * \param [IN] config       configuration of receiver
 488:Middlewares/Third_Party/SubGHz_Phy/stm32_radio_driver/radio.c ****  *                          fsk field to be used if modem =GENERIC_FSK
ARM GAS  C:\Users\NATHAN~1\AppData\Local\Temp\cc90iGN6.s 			page 10


 489:Middlewares/Third_Party/SubGHz_Phy/stm32_radio_driver/radio.c **** *                           lora field to be used if modem =GENERIC_LORA
 490:Middlewares/Third_Party/SubGHz_Phy/stm32_radio_driver/radio.c ****  * \param [IN] rxContinuous Sets the reception in continuous mode
 491:Middlewares/Third_Party/SubGHz_Phy/stm32_radio_driver/radio.c ****  *                          [0: single mode, otherwise continuous mode]
 492:Middlewares/Third_Party/SubGHz_Phy/stm32_radio_driver/radio.c ****  * \param [IN] symbTimeout  Sets the RxSingle timeout value
 493:Middlewares/Third_Party/SubGHz_Phy/stm32_radio_driver/radio.c ****  *                          FSK : timeout in number of bytes
 494:Middlewares/Third_Party/SubGHz_Phy/stm32_radio_driver/radio.c ****  *                          LoRa: timeout in symbols
 495:Middlewares/Third_Party/SubGHz_Phy/stm32_radio_driver/radio.c ****  * \return 0 when no parameters error, -1 otherwise
 496:Middlewares/Third_Party/SubGHz_Phy/stm32_radio_driver/radio.c ****  */
 497:Middlewares/Third_Party/SubGHz_Phy/stm32_radio_driver/radio.c **** static int32_t RadioSetRxGenericConfig(GenericModems_t modem, RxConfigGeneric_t* config,
 498:Middlewares/Third_Party/SubGHz_Phy/stm32_radio_driver/radio.c ****                                        uint32_t rxContinuous, uint32_t symbTimeout);
 499:Middlewares/Third_Party/SubGHz_Phy/stm32_radio_driver/radio.c **** 
 500:Middlewares/Third_Party/SubGHz_Phy/stm32_radio_driver/radio.c **** /*!
 501:Middlewares/Third_Party/SubGHz_Phy/stm32_radio_driver/radio.c ****  * \brief Sets the transmission parameters
 502:Middlewares/Third_Party/SubGHz_Phy/stm32_radio_driver/radio.c ****  *
 503:Middlewares/Third_Party/SubGHz_Phy/stm32_radio_driver/radio.c ****  * \param [IN] modem        Radio modem to be used [GENERIC_FSK or GENERIC_FSK or GENERIC_BPSK]
 504:Middlewares/Third_Party/SubGHz_Phy/stm32_radio_driver/radio.c ****  * \param [IN] config       configuration of receiver
 505:Middlewares/Third_Party/SubGHz_Phy/stm32_radio_driver/radio.c ****  *                          fsk field to be used if modem =GENERIC_FSK
 506:Middlewares/Third_Party/SubGHz_Phy/stm32_radio_driver/radio.c **** *                           lora field to be used if modem =GENERIC_LORA
 507:Middlewares/Third_Party/SubGHz_Phy/stm32_radio_driver/radio.c ****                             bpsk field to be used if modem =GENERIC_BPSK
 508:Middlewares/Third_Party/SubGHz_Phy/stm32_radio_driver/radio.c ****  * \param [IN] power        Sets the output power [dBm]
 509:Middlewares/Third_Party/SubGHz_Phy/stm32_radio_driver/radio.c ****  * \param [IN] timeout      Transmission timeout [ms]
 510:Middlewares/Third_Party/SubGHz_Phy/stm32_radio_driver/radio.c ****  * \return 0 when no parameters error, -1 otherwise
 511:Middlewares/Third_Party/SubGHz_Phy/stm32_radio_driver/radio.c ****  */
 512:Middlewares/Third_Party/SubGHz_Phy/stm32_radio_driver/radio.c **** static int32_t RadioSetTxGenericConfig(GenericModems_t modem, TxConfigGeneric_t *config,
 513:Middlewares/Third_Party/SubGHz_Phy/stm32_radio_driver/radio.c ****                                        int8_t power, uint32_t timeout);
 514:Middlewares/Third_Party/SubGHz_Phy/stm32_radio_driver/radio.c **** 
 515:Middlewares/Third_Party/SubGHz_Phy/stm32_radio_driver/radio.c **** /*!
 516:Middlewares/Third_Party/SubGHz_Phy/stm32_radio_driver/radio.c ****  * \brief Convert the bandwidth enum to Hz value
 517:Middlewares/Third_Party/SubGHz_Phy/stm32_radio_driver/radio.c ****  *
 518:Middlewares/Third_Party/SubGHz_Phy/stm32_radio_driver/radio.c ****  * \param [IN] bw RF frequency to be checked
 519:Middlewares/Third_Party/SubGHz_Phy/stm32_radio_driver/radio.c ****  * \retval bandwidthInHz bandwidth value in Hertz
 520:Middlewares/Third_Party/SubGHz_Phy/stm32_radio_driver/radio.c ****  */
 521:Middlewares/Third_Party/SubGHz_Phy/stm32_radio_driver/radio.c **** static uint32_t RadioGetLoRaBandwidthInHz( RadioLoRaBandwidths_t bw );
 522:Middlewares/Third_Party/SubGHz_Phy/stm32_radio_driver/radio.c **** 
 523:Middlewares/Third_Party/SubGHz_Phy/stm32_radio_driver/radio.c **** /*!
 524:Middlewares/Third_Party/SubGHz_Phy/stm32_radio_driver/radio.c ****  * \brief Computes the time on air GFSK numerator
 525:Middlewares/Third_Party/SubGHz_Phy/stm32_radio_driver/radio.c ****  *
 526:Middlewares/Third_Party/SubGHz_Phy/stm32_radio_driver/radio.c ****  * \param [IN] datarate     Sets the Datarate
 527:Middlewares/Third_Party/SubGHz_Phy/stm32_radio_driver/radio.c ****  *                          FSK : 600..300000 bits/s
 528:Middlewares/Third_Party/SubGHz_Phy/stm32_radio_driver/radio.c ****  *                          LoRa: [6: 64, 7: 128, 8: 256, 9: 512,
 529:Middlewares/Third_Party/SubGHz_Phy/stm32_radio_driver/radio.c ****  *                                10: 1024, 11: 2048, 12: 4096  chips]
 530:Middlewares/Third_Party/SubGHz_Phy/stm32_radio_driver/radio.c ****  * \param [IN] coderate     Sets the coding rate (LoRa only)
 531:Middlewares/Third_Party/SubGHz_Phy/stm32_radio_driver/radio.c ****  *                          FSK : N/A ( set to 0 )
 532:Middlewares/Third_Party/SubGHz_Phy/stm32_radio_driver/radio.c ****  *                          LoRa: [1: 4/5, 2: 4/6, 3: 4/7, 4: 4/8]
 533:Middlewares/Third_Party/SubGHz_Phy/stm32_radio_driver/radio.c ****  * \param [IN] preambleLen  Sets the Preamble length
 534:Middlewares/Third_Party/SubGHz_Phy/stm32_radio_driver/radio.c ****  *                          FSK : Number of bytes
 535:Middlewares/Third_Party/SubGHz_Phy/stm32_radio_driver/radio.c ****  *                          LoRa: Length in symbols (the hardware adds 4 more symbols)
 536:Middlewares/Third_Party/SubGHz_Phy/stm32_radio_driver/radio.c ****  * \param [IN] fixLen       Fixed length packets [0: variable, 1: fixed]
 537:Middlewares/Third_Party/SubGHz_Phy/stm32_radio_driver/radio.c ****  * \param [IN] payloadLen   Sets payload length when fixed length is used
 538:Middlewares/Third_Party/SubGHz_Phy/stm32_radio_driver/radio.c ****  * \param [IN] crcOn        Enables/Disables the CRC [0: OFF, 1: ON]
 539:Middlewares/Third_Party/SubGHz_Phy/stm32_radio_driver/radio.c ****  * \retval numerator        time on air GFSK numerator
 540:Middlewares/Third_Party/SubGHz_Phy/stm32_radio_driver/radio.c ****  */
 541:Middlewares/Third_Party/SubGHz_Phy/stm32_radio_driver/radio.c **** static uint32_t RadioGetGfskTimeOnAirNumerator( uint32_t datarate, uint8_t coderate,
 542:Middlewares/Third_Party/SubGHz_Phy/stm32_radio_driver/radio.c ****                                                 uint16_t preambleLen, bool fixLen, uint8_t payloadL
 543:Middlewares/Third_Party/SubGHz_Phy/stm32_radio_driver/radio.c ****                                                 bool crcOn );
 544:Middlewares/Third_Party/SubGHz_Phy/stm32_radio_driver/radio.c **** 
 545:Middlewares/Third_Party/SubGHz_Phy/stm32_radio_driver/radio.c **** /*!
ARM GAS  C:\Users\NATHAN~1\AppData\Local\Temp\cc90iGN6.s 			page 11


 546:Middlewares/Third_Party/SubGHz_Phy/stm32_radio_driver/radio.c ****  * \brief Computes the time on air LoRa numerator
 547:Middlewares/Third_Party/SubGHz_Phy/stm32_radio_driver/radio.c ****  *
 548:Middlewares/Third_Party/SubGHz_Phy/stm32_radio_driver/radio.c ****  * \param [IN] bandwidth    Sets the bandwidth
 549:Middlewares/Third_Party/SubGHz_Phy/stm32_radio_driver/radio.c ****  *                          FSK : >= 2600 and <= 250000 Hz
 550:Middlewares/Third_Party/SubGHz_Phy/stm32_radio_driver/radio.c ****  *                          LoRa: [0: 125 kHz, 1: 250 kHz,
 551:Middlewares/Third_Party/SubGHz_Phy/stm32_radio_driver/radio.c ****  *                                 2: 500 kHz, 3: Reserved]
 552:Middlewares/Third_Party/SubGHz_Phy/stm32_radio_driver/radio.c ****  * \param [IN] datarate     Sets the Datarate
 553:Middlewares/Third_Party/SubGHz_Phy/stm32_radio_driver/radio.c ****  *                          FSK : 600..300000 bits/s
 554:Middlewares/Third_Party/SubGHz_Phy/stm32_radio_driver/radio.c ****  *                          LoRa: [6: 64, 7: 128, 8: 256, 9: 512,
 555:Middlewares/Third_Party/SubGHz_Phy/stm32_radio_driver/radio.c ****  *                                10: 1024, 11: 2048, 12: 4096  chips]
 556:Middlewares/Third_Party/SubGHz_Phy/stm32_radio_driver/radio.c ****  * \param [IN] coderate     Sets the coding rate (LoRa only)
 557:Middlewares/Third_Party/SubGHz_Phy/stm32_radio_driver/radio.c ****  *                          FSK : N/A ( set to 0 )
 558:Middlewares/Third_Party/SubGHz_Phy/stm32_radio_driver/radio.c ****  *                          LoRa: [1: 4/5, 2: 4/6, 3: 4/7, 4: 4/8]
 559:Middlewares/Third_Party/SubGHz_Phy/stm32_radio_driver/radio.c ****  * \param [IN] preambleLen  Sets the Preamble length
 560:Middlewares/Third_Party/SubGHz_Phy/stm32_radio_driver/radio.c ****  *                          FSK : Number of bytes
 561:Middlewares/Third_Party/SubGHz_Phy/stm32_radio_driver/radio.c ****  *                          LoRa: Length in symbols (the hardware adds 4 more symbols)
 562:Middlewares/Third_Party/SubGHz_Phy/stm32_radio_driver/radio.c ****  * \param [IN] fixLen       Fixed length packets [0: variable, 1: fixed]
 563:Middlewares/Third_Party/SubGHz_Phy/stm32_radio_driver/radio.c ****  * \param [IN] payloadLen   Sets payload length when fixed length is used
 564:Middlewares/Third_Party/SubGHz_Phy/stm32_radio_driver/radio.c ****  * \param [IN] crcOn        Enables/Disables the CRC [0: OFF, 1: ON]
 565:Middlewares/Third_Party/SubGHz_Phy/stm32_radio_driver/radio.c ****  * \retval numerator        time on air LoRa numerator
 566:Middlewares/Third_Party/SubGHz_Phy/stm32_radio_driver/radio.c ****  */
 567:Middlewares/Third_Party/SubGHz_Phy/stm32_radio_driver/radio.c **** static uint32_t RadioGetLoRaTimeOnAirNumerator( uint32_t bandwidth,
 568:Middlewares/Third_Party/SubGHz_Phy/stm32_radio_driver/radio.c ****                                                 uint32_t datarate, uint8_t coderate,
 569:Middlewares/Third_Party/SubGHz_Phy/stm32_radio_driver/radio.c ****                                                 uint16_t preambleLen, bool fixLen, uint8_t payloadL
 570:Middlewares/Third_Party/SubGHz_Phy/stm32_radio_driver/radio.c ****                                                 bool crcOn );
 571:Middlewares/Third_Party/SubGHz_Phy/stm32_radio_driver/radio.c **** /* ST_WORKAROUND_END */
 572:Middlewares/Third_Party/SubGHz_Phy/stm32_radio_driver/radio.c **** 
 573:Middlewares/Third_Party/SubGHz_Phy/stm32_radio_driver/radio.c **** /* Private variables ---------------------------------------------------------*/
 574:Middlewares/Third_Party/SubGHz_Phy/stm32_radio_driver/radio.c **** /*!
 575:Middlewares/Third_Party/SubGHz_Phy/stm32_radio_driver/radio.c ****  * Radio driver structure initialization
 576:Middlewares/Third_Party/SubGHz_Phy/stm32_radio_driver/radio.c ****  */
 577:Middlewares/Third_Party/SubGHz_Phy/stm32_radio_driver/radio.c **** const struct Radio_s Radio =
 578:Middlewares/Third_Party/SubGHz_Phy/stm32_radio_driver/radio.c **** {
 579:Middlewares/Third_Party/SubGHz_Phy/stm32_radio_driver/radio.c ****     RadioInit,
 580:Middlewares/Third_Party/SubGHz_Phy/stm32_radio_driver/radio.c ****     RadioGetStatus,
 581:Middlewares/Third_Party/SubGHz_Phy/stm32_radio_driver/radio.c ****     RadioSetModem,
 582:Middlewares/Third_Party/SubGHz_Phy/stm32_radio_driver/radio.c ****     RadioSetChannel,
 583:Middlewares/Third_Party/SubGHz_Phy/stm32_radio_driver/radio.c ****     RadioIsChannelFree,
 584:Middlewares/Third_Party/SubGHz_Phy/stm32_radio_driver/radio.c ****     RadioRandom,
 585:Middlewares/Third_Party/SubGHz_Phy/stm32_radio_driver/radio.c ****     RadioSetRxConfig,
 586:Middlewares/Third_Party/SubGHz_Phy/stm32_radio_driver/radio.c ****     RadioSetTxConfig,
 587:Middlewares/Third_Party/SubGHz_Phy/stm32_radio_driver/radio.c ****     RadioCheckRfFrequency,
 588:Middlewares/Third_Party/SubGHz_Phy/stm32_radio_driver/radio.c ****     RadioTimeOnAir,
 589:Middlewares/Third_Party/SubGHz_Phy/stm32_radio_driver/radio.c ****     RadioSend,
 590:Middlewares/Third_Party/SubGHz_Phy/stm32_radio_driver/radio.c ****     RadioSleep,
 591:Middlewares/Third_Party/SubGHz_Phy/stm32_radio_driver/radio.c ****     RadioStandby,
 592:Middlewares/Third_Party/SubGHz_Phy/stm32_radio_driver/radio.c ****     RadioRx,
 593:Middlewares/Third_Party/SubGHz_Phy/stm32_radio_driver/radio.c ****     RadioStartCad,
 594:Middlewares/Third_Party/SubGHz_Phy/stm32_radio_driver/radio.c ****     RadioSetTxContinuousWave,
 595:Middlewares/Third_Party/SubGHz_Phy/stm32_radio_driver/radio.c ****     RadioRssi,
 596:Middlewares/Third_Party/SubGHz_Phy/stm32_radio_driver/radio.c ****     RadioWrite,
 597:Middlewares/Third_Party/SubGHz_Phy/stm32_radio_driver/radio.c ****     RadioRead,
 598:Middlewares/Third_Party/SubGHz_Phy/stm32_radio_driver/radio.c ****     RadioWriteRegisters,
 599:Middlewares/Third_Party/SubGHz_Phy/stm32_radio_driver/radio.c ****     RadioReadRegisters,
 600:Middlewares/Third_Party/SubGHz_Phy/stm32_radio_driver/radio.c ****     RadioSetMaxPayloadLength,
 601:Middlewares/Third_Party/SubGHz_Phy/stm32_radio_driver/radio.c ****     RadioSetPublicNetwork,
 602:Middlewares/Third_Party/SubGHz_Phy/stm32_radio_driver/radio.c ****     RadioGetWakeupTime,
ARM GAS  C:\Users\NATHAN~1\AppData\Local\Temp\cc90iGN6.s 			page 12


 603:Middlewares/Third_Party/SubGHz_Phy/stm32_radio_driver/radio.c ****     RadioIrqProcess,
 604:Middlewares/Third_Party/SubGHz_Phy/stm32_radio_driver/radio.c ****     RadioRxBoosted,
 605:Middlewares/Third_Party/SubGHz_Phy/stm32_radio_driver/radio.c ****     RadioSetRxDutyCycle,
 606:Middlewares/Third_Party/SubGHz_Phy/stm32_radio_driver/radio.c ****     /* ST_WORKAROUND_BEGIN: extended radio functions */
 607:Middlewares/Third_Party/SubGHz_Phy/stm32_radio_driver/radio.c ****     RadioTxPrbs,
 608:Middlewares/Third_Party/SubGHz_Phy/stm32_radio_driver/radio.c ****     RadioTxCw,
 609:Middlewares/Third_Party/SubGHz_Phy/stm32_radio_driver/radio.c ****     RadioSetRxGenericConfig,
 610:Middlewares/Third_Party/SubGHz_Phy/stm32_radio_driver/radio.c ****     RadioSetTxGenericConfig,
 611:Middlewares/Third_Party/SubGHz_Phy/stm32_radio_driver/radio.c ****     RFW_TransmitLongPacket,
 612:Middlewares/Third_Party/SubGHz_Phy/stm32_radio_driver/radio.c ****     RFW_ReceiveLongPacket
 613:Middlewares/Third_Party/SubGHz_Phy/stm32_radio_driver/radio.c ****     /* ST_WORKAROUND_END */
 614:Middlewares/Third_Party/SubGHz_Phy/stm32_radio_driver/radio.c **** };
 615:Middlewares/Third_Party/SubGHz_Phy/stm32_radio_driver/radio.c **** 
 616:Middlewares/Third_Party/SubGHz_Phy/stm32_radio_driver/radio.c **** const RadioLoRaBandwidths_t Bandwidths[] = { LORA_BW_125, LORA_BW_250, LORA_BW_500 };
 617:Middlewares/Third_Party/SubGHz_Phy/stm32_radio_driver/radio.c **** 
 618:Middlewares/Third_Party/SubGHz_Phy/stm32_radio_driver/radio.c **** static uint8_t MaxPayloadLength = RADIO_BUF_SIZE;
 619:Middlewares/Third_Party/SubGHz_Phy/stm32_radio_driver/radio.c **** 
 620:Middlewares/Third_Party/SubGHz_Phy/stm32_radio_driver/radio.c **** static uint8_t RadioBuffer[RADIO_BUF_SIZE];
 621:Middlewares/Third_Party/SubGHz_Phy/stm32_radio_driver/radio.c **** 
 622:Middlewares/Third_Party/SubGHz_Phy/stm32_radio_driver/radio.c **** /*
 623:Middlewares/Third_Party/SubGHz_Phy/stm32_radio_driver/radio.c ****  * Radio callbacks variable
 624:Middlewares/Third_Party/SubGHz_Phy/stm32_radio_driver/radio.c ****  */
 625:Middlewares/Third_Party/SubGHz_Phy/stm32_radio_driver/radio.c **** static RadioEvents_t* RadioEvents;
 626:Middlewares/Third_Party/SubGHz_Phy/stm32_radio_driver/radio.c **** 
 627:Middlewares/Third_Party/SubGHz_Phy/stm32_radio_driver/radio.c **** /*!
 628:Middlewares/Third_Party/SubGHz_Phy/stm32_radio_driver/radio.c ****  * Radio hardware and global parameters
 629:Middlewares/Third_Party/SubGHz_Phy/stm32_radio_driver/radio.c ****  */
 630:Middlewares/Third_Party/SubGHz_Phy/stm32_radio_driver/radio.c **** SubgRf_t SubgRf;
 631:Middlewares/Third_Party/SubGHz_Phy/stm32_radio_driver/radio.c **** 
 632:Middlewares/Third_Party/SubGHz_Phy/stm32_radio_driver/radio.c **** /*!
 633:Middlewares/Third_Party/SubGHz_Phy/stm32_radio_driver/radio.c ****  * Tx and Rx timers
 634:Middlewares/Third_Party/SubGHz_Phy/stm32_radio_driver/radio.c ****  */
 635:Middlewares/Third_Party/SubGHz_Phy/stm32_radio_driver/radio.c **** TimerEvent_t TxTimeoutTimer;
 636:Middlewares/Third_Party/SubGHz_Phy/stm32_radio_driver/radio.c **** TimerEvent_t RxTimeoutTimer;
 637:Middlewares/Third_Party/SubGHz_Phy/stm32_radio_driver/radio.c **** 
 638:Middlewares/Third_Party/SubGHz_Phy/stm32_radio_driver/radio.c **** /* Private  functions ---------------------------------------------------------*/
 639:Middlewares/Third_Party/SubGHz_Phy/stm32_radio_driver/radio.c **** 
 640:Middlewares/Third_Party/SubGHz_Phy/stm32_radio_driver/radio.c **** static void RadioInit( RadioEvents_t *events )
 641:Middlewares/Third_Party/SubGHz_Phy/stm32_radio_driver/radio.c **** {
 642:Middlewares/Third_Party/SubGHz_Phy/stm32_radio_driver/radio.c ****     RadioEvents = events;
 643:Middlewares/Third_Party/SubGHz_Phy/stm32_radio_driver/radio.c **** 
 644:Middlewares/Third_Party/SubGHz_Phy/stm32_radio_driver/radio.c ****     SubgRf.RxContinuous = false;
 645:Middlewares/Third_Party/SubGHz_Phy/stm32_radio_driver/radio.c ****     SubgRf.TxTimeout = 0;
 646:Middlewares/Third_Party/SubGHz_Phy/stm32_radio_driver/radio.c ****     SubgRf.RxTimeout = 0;
 647:Middlewares/Third_Party/SubGHz_Phy/stm32_radio_driver/radio.c **** 
 648:Middlewares/Third_Party/SubGHz_Phy/stm32_radio_driver/radio.c ****     SUBGRF_Init( RadioOnDioIrq );
 649:Middlewares/Third_Party/SubGHz_Phy/stm32_radio_driver/radio.c ****     /*SubgRf.publicNetwork set to false*/
 650:Middlewares/Third_Party/SubGHz_Phy/stm32_radio_driver/radio.c ****     RadioSetPublicNetwork( false );
 651:Middlewares/Third_Party/SubGHz_Phy/stm32_radio_driver/radio.c **** 
 652:Middlewares/Third_Party/SubGHz_Phy/stm32_radio_driver/radio.c ****     RADIO_IRQ_PROCESS_INIT();
 653:Middlewares/Third_Party/SubGHz_Phy/stm32_radio_driver/radio.c **** 
 654:Middlewares/Third_Party/SubGHz_Phy/stm32_radio_driver/radio.c ****     SUBGRF_SetRegulatorMode(  );
 655:Middlewares/Third_Party/SubGHz_Phy/stm32_radio_driver/radio.c **** 
 656:Middlewares/Third_Party/SubGHz_Phy/stm32_radio_driver/radio.c ****     SUBGRF_SetBufferBaseAddress( 0x00, 0x00 );
 657:Middlewares/Third_Party/SubGHz_Phy/stm32_radio_driver/radio.c ****     SUBGRF_SetTxParams(RFO_LP, 0, RADIO_RAMP_200_US);
 658:Middlewares/Third_Party/SubGHz_Phy/stm32_radio_driver/radio.c ****     SUBGRF_SetDioIrqParams( IRQ_RADIO_ALL, IRQ_RADIO_ALL, IRQ_RADIO_NONE, IRQ_RADIO_NONE );
 659:Middlewares/Third_Party/SubGHz_Phy/stm32_radio_driver/radio.c **** 
ARM GAS  C:\Users\NATHAN~1\AppData\Local\Temp\cc90iGN6.s 			page 13


 660:Middlewares/Third_Party/SubGHz_Phy/stm32_radio_driver/radio.c ****     /* ST_WORKAROUND_BEGIN: Sleep radio */
 661:Middlewares/Third_Party/SubGHz_Phy/stm32_radio_driver/radio.c ****     RadioSleep();
 662:Middlewares/Third_Party/SubGHz_Phy/stm32_radio_driver/radio.c ****     /* ST_WORKAROUND_END */
 663:Middlewares/Third_Party/SubGHz_Phy/stm32_radio_driver/radio.c ****     // Initialize driver timeout timers
 664:Middlewares/Third_Party/SubGHz_Phy/stm32_radio_driver/radio.c ****     TimerInit( &TxTimeoutTimer, RadioOnTxTimeoutIrq );
 665:Middlewares/Third_Party/SubGHz_Phy/stm32_radio_driver/radio.c ****     TimerInit( &RxTimeoutTimer, RadioOnRxTimeoutIrq );
 666:Middlewares/Third_Party/SubGHz_Phy/stm32_radio_driver/radio.c ****     TimerStop( &TxTimeoutTimer );
 667:Middlewares/Third_Party/SubGHz_Phy/stm32_radio_driver/radio.c ****     TimerStop( &RxTimeoutTimer );
 668:Middlewares/Third_Party/SubGHz_Phy/stm32_radio_driver/radio.c **** }
 669:Middlewares/Third_Party/SubGHz_Phy/stm32_radio_driver/radio.c **** 
 670:Middlewares/Third_Party/SubGHz_Phy/stm32_radio_driver/radio.c **** static RadioState_t RadioGetStatus( void )
 671:Middlewares/Third_Party/SubGHz_Phy/stm32_radio_driver/radio.c **** {
 672:Middlewares/Third_Party/SubGHz_Phy/stm32_radio_driver/radio.c ****     switch( SUBGRF_GetOperatingMode( ) )
 673:Middlewares/Third_Party/SubGHz_Phy/stm32_radio_driver/radio.c ****     {
 674:Middlewares/Third_Party/SubGHz_Phy/stm32_radio_driver/radio.c ****         case MODE_TX:
 675:Middlewares/Third_Party/SubGHz_Phy/stm32_radio_driver/radio.c ****             return RF_TX_RUNNING;
 676:Middlewares/Third_Party/SubGHz_Phy/stm32_radio_driver/radio.c ****         case MODE_RX:
 677:Middlewares/Third_Party/SubGHz_Phy/stm32_radio_driver/radio.c ****             return RF_RX_RUNNING;
 678:Middlewares/Third_Party/SubGHz_Phy/stm32_radio_driver/radio.c ****         case MODE_CAD:
 679:Middlewares/Third_Party/SubGHz_Phy/stm32_radio_driver/radio.c ****             return RF_CAD;
 680:Middlewares/Third_Party/SubGHz_Phy/stm32_radio_driver/radio.c ****         default:
 681:Middlewares/Third_Party/SubGHz_Phy/stm32_radio_driver/radio.c ****             return RF_IDLE;
 682:Middlewares/Third_Party/SubGHz_Phy/stm32_radio_driver/radio.c ****     }
 683:Middlewares/Third_Party/SubGHz_Phy/stm32_radio_driver/radio.c **** }
 684:Middlewares/Third_Party/SubGHz_Phy/stm32_radio_driver/radio.c **** 
 685:Middlewares/Third_Party/SubGHz_Phy/stm32_radio_driver/radio.c **** static void RadioSetModem( RadioModems_t modem )
 686:Middlewares/Third_Party/SubGHz_Phy/stm32_radio_driver/radio.c **** {
 687:Middlewares/Third_Party/SubGHz_Phy/stm32_radio_driver/radio.c ****     SubgRf.Modem = modem;
 688:Middlewares/Third_Party/SubGHz_Phy/stm32_radio_driver/radio.c ****     RFW_SetRadioModem(modem);
 689:Middlewares/Third_Party/SubGHz_Phy/stm32_radio_driver/radio.c ****     switch( modem )
 690:Middlewares/Third_Party/SubGHz_Phy/stm32_radio_driver/radio.c ****     {
 691:Middlewares/Third_Party/SubGHz_Phy/stm32_radio_driver/radio.c ****     default:
 692:Middlewares/Third_Party/SubGHz_Phy/stm32_radio_driver/radio.c ****     case MODEM_FSK:
 693:Middlewares/Third_Party/SubGHz_Phy/stm32_radio_driver/radio.c ****         SUBGRF_SetPacketType( PACKET_TYPE_GFSK );
 694:Middlewares/Third_Party/SubGHz_Phy/stm32_radio_driver/radio.c ****         // When switching to GFSK mode the LoRa SyncWord register value is reset
 695:Middlewares/Third_Party/SubGHz_Phy/stm32_radio_driver/radio.c ****         // Thus, we also reset the RadioPublicNetwork variable
 696:Middlewares/Third_Party/SubGHz_Phy/stm32_radio_driver/radio.c ****         SubgRf.PublicNetwork.Current = false;
 697:Middlewares/Third_Party/SubGHz_Phy/stm32_radio_driver/radio.c ****         break;
 698:Middlewares/Third_Party/SubGHz_Phy/stm32_radio_driver/radio.c ****     case MODEM_LORA:
 699:Middlewares/Third_Party/SubGHz_Phy/stm32_radio_driver/radio.c ****         SUBGRF_SetPacketType( PACKET_TYPE_LORA );
 700:Middlewares/Third_Party/SubGHz_Phy/stm32_radio_driver/radio.c ****         // Public/Private network register is reset when switching modems
 701:Middlewares/Third_Party/SubGHz_Phy/stm32_radio_driver/radio.c ****         if( SubgRf.PublicNetwork.Current != SubgRf.PublicNetwork.Previous )
 702:Middlewares/Third_Party/SubGHz_Phy/stm32_radio_driver/radio.c ****         {
 703:Middlewares/Third_Party/SubGHz_Phy/stm32_radio_driver/radio.c ****             SubgRf.PublicNetwork.Current = SubgRf.PublicNetwork.Previous;
 704:Middlewares/Third_Party/SubGHz_Phy/stm32_radio_driver/radio.c ****             RadioSetPublicNetwork( SubgRf.PublicNetwork.Current );
 705:Middlewares/Third_Party/SubGHz_Phy/stm32_radio_driver/radio.c ****         }
 706:Middlewares/Third_Party/SubGHz_Phy/stm32_radio_driver/radio.c ****         break;
 707:Middlewares/Third_Party/SubGHz_Phy/stm32_radio_driver/radio.c ****     case MODEM_BPSK:
 708:Middlewares/Third_Party/SubGHz_Phy/stm32_radio_driver/radio.c ****         SUBGRF_SetPacketType( PACKET_TYPE_BPSK );
 709:Middlewares/Third_Party/SubGHz_Phy/stm32_radio_driver/radio.c ****         // When switching to BPSK mode the LoRa SyncWord register value is reset
 710:Middlewares/Third_Party/SubGHz_Phy/stm32_radio_driver/radio.c ****         // Thus, we also reset the RadioPublicNetwork variable
 711:Middlewares/Third_Party/SubGHz_Phy/stm32_radio_driver/radio.c ****         SubgRf.PublicNetwork.Current = false;
 712:Middlewares/Third_Party/SubGHz_Phy/stm32_radio_driver/radio.c ****         break;
 713:Middlewares/Third_Party/SubGHz_Phy/stm32_radio_driver/radio.c ****     case MODEM_SIGFOX_TX:
 714:Middlewares/Third_Party/SubGHz_Phy/stm32_radio_driver/radio.c ****         SUBGRF_SetPacketType( PACKET_TYPE_BPSK );
 715:Middlewares/Third_Party/SubGHz_Phy/stm32_radio_driver/radio.c ****         // When switching to BPSK mode the LoRa SyncWord register value is reset
 716:Middlewares/Third_Party/SubGHz_Phy/stm32_radio_driver/radio.c ****         // Thus, we also reset the RadioPublicNetwork variable
ARM GAS  C:\Users\NATHAN~1\AppData\Local\Temp\cc90iGN6.s 			page 14


 717:Middlewares/Third_Party/SubGHz_Phy/stm32_radio_driver/radio.c ****         SubgRf.PublicNetwork.Current = false;
 718:Middlewares/Third_Party/SubGHz_Phy/stm32_radio_driver/radio.c ****         break;
 719:Middlewares/Third_Party/SubGHz_Phy/stm32_radio_driver/radio.c ****     case MODEM_SIGFOX_RX:
 720:Middlewares/Third_Party/SubGHz_Phy/stm32_radio_driver/radio.c ****         SUBGRF_SetPacketType( PACKET_TYPE_GFSK );
 721:Middlewares/Third_Party/SubGHz_Phy/stm32_radio_driver/radio.c ****         // When switching to GFSK mode the LoRa SyncWord register value is reset
 722:Middlewares/Third_Party/SubGHz_Phy/stm32_radio_driver/radio.c ****         // Thus, we also reset the RadioPublicNetwork variable
 723:Middlewares/Third_Party/SubGHz_Phy/stm32_radio_driver/radio.c ****         SubgRf.PublicNetwork.Current = false;
 724:Middlewares/Third_Party/SubGHz_Phy/stm32_radio_driver/radio.c ****         break;
 725:Middlewares/Third_Party/SubGHz_Phy/stm32_radio_driver/radio.c ****     }
 726:Middlewares/Third_Party/SubGHz_Phy/stm32_radio_driver/radio.c **** }
 727:Middlewares/Third_Party/SubGHz_Phy/stm32_radio_driver/radio.c **** 
 728:Middlewares/Third_Party/SubGHz_Phy/stm32_radio_driver/radio.c **** static void RadioSetChannel( uint32_t freq )
 729:Middlewares/Third_Party/SubGHz_Phy/stm32_radio_driver/radio.c **** {
 730:Middlewares/Third_Party/SubGHz_Phy/stm32_radio_driver/radio.c ****     SUBGRF_SetRfFrequency( freq );
 731:Middlewares/Third_Party/SubGHz_Phy/stm32_radio_driver/radio.c **** }
 732:Middlewares/Third_Party/SubGHz_Phy/stm32_radio_driver/radio.c **** 
 733:Middlewares/Third_Party/SubGHz_Phy/stm32_radio_driver/radio.c **** static bool RadioIsChannelFree( uint32_t freq, uint32_t rxBandwidth, int16_t rssiThresh, uint32_t m
 734:Middlewares/Third_Party/SubGHz_Phy/stm32_radio_driver/radio.c **** {
 735:Middlewares/Third_Party/SubGHz_Phy/stm32_radio_driver/radio.c ****     bool status = true;
 736:Middlewares/Third_Party/SubGHz_Phy/stm32_radio_driver/radio.c ****     int16_t rssi = 0;
 737:Middlewares/Third_Party/SubGHz_Phy/stm32_radio_driver/radio.c ****     uint32_t carrierSenseTime = 0;
 738:Middlewares/Third_Party/SubGHz_Phy/stm32_radio_driver/radio.c **** 
 739:Middlewares/Third_Party/SubGHz_Phy/stm32_radio_driver/radio.c ****     /* ST_WORKAROUND_BEGIN: Prevent multiple sleeps with TXCO delay */
 740:Middlewares/Third_Party/SubGHz_Phy/stm32_radio_driver/radio.c ****     RadioStandby( );
 741:Middlewares/Third_Party/SubGHz_Phy/stm32_radio_driver/radio.c ****     /* ST_WORKAROUND_END */
 742:Middlewares/Third_Party/SubGHz_Phy/stm32_radio_driver/radio.c **** 
 743:Middlewares/Third_Party/SubGHz_Phy/stm32_radio_driver/radio.c ****     RadioSetModem( MODEM_FSK );
 744:Middlewares/Third_Party/SubGHz_Phy/stm32_radio_driver/radio.c **** 
 745:Middlewares/Third_Party/SubGHz_Phy/stm32_radio_driver/radio.c ****     RadioSetChannel( freq );
 746:Middlewares/Third_Party/SubGHz_Phy/stm32_radio_driver/radio.c **** 
 747:Middlewares/Third_Party/SubGHz_Phy/stm32_radio_driver/radio.c ****     // Set Rx bandwidth. Other parameters are not used.
 748:Middlewares/Third_Party/SubGHz_Phy/stm32_radio_driver/radio.c ****     RadioSetRxConfig( MODEM_FSK, rxBandwidth, 600, 0, rxBandwidth, 3, 0, false,
 749:Middlewares/Third_Party/SubGHz_Phy/stm32_radio_driver/radio.c ****                       0, false, 0, 0, false, true );
 750:Middlewares/Third_Party/SubGHz_Phy/stm32_radio_driver/radio.c ****     RadioRx( 0 );
 751:Middlewares/Third_Party/SubGHz_Phy/stm32_radio_driver/radio.c **** 
 752:Middlewares/Third_Party/SubGHz_Phy/stm32_radio_driver/radio.c ****     RADIO_DELAY_MS( RadioGetWakeupTime( ) );
 753:Middlewares/Third_Party/SubGHz_Phy/stm32_radio_driver/radio.c **** 
 754:Middlewares/Third_Party/SubGHz_Phy/stm32_radio_driver/radio.c ****     carrierSenseTime = TimerGetCurrentTime( );
 755:Middlewares/Third_Party/SubGHz_Phy/stm32_radio_driver/radio.c **** 
 756:Middlewares/Third_Party/SubGHz_Phy/stm32_radio_driver/radio.c ****     // Perform carrier sense for maxCarrierSenseTime
 757:Middlewares/Third_Party/SubGHz_Phy/stm32_radio_driver/radio.c ****     while( TimerGetElapsedTime( carrierSenseTime ) < maxCarrierSenseTime )
 758:Middlewares/Third_Party/SubGHz_Phy/stm32_radio_driver/radio.c ****     {
 759:Middlewares/Third_Party/SubGHz_Phy/stm32_radio_driver/radio.c ****         rssi = RadioRssi( MODEM_FSK );
 760:Middlewares/Third_Party/SubGHz_Phy/stm32_radio_driver/radio.c **** 
 761:Middlewares/Third_Party/SubGHz_Phy/stm32_radio_driver/radio.c ****         if( rssi > rssiThresh )
 762:Middlewares/Third_Party/SubGHz_Phy/stm32_radio_driver/radio.c ****         {
 763:Middlewares/Third_Party/SubGHz_Phy/stm32_radio_driver/radio.c ****             status = false;
 764:Middlewares/Third_Party/SubGHz_Phy/stm32_radio_driver/radio.c ****             break;
 765:Middlewares/Third_Party/SubGHz_Phy/stm32_radio_driver/radio.c ****         }
 766:Middlewares/Third_Party/SubGHz_Phy/stm32_radio_driver/radio.c ****     }
 767:Middlewares/Third_Party/SubGHz_Phy/stm32_radio_driver/radio.c ****     /* ST_WORKAROUND_BEGIN: Prevent multiple sleeps with TXCO delay */
 768:Middlewares/Third_Party/SubGHz_Phy/stm32_radio_driver/radio.c ****     RadioStandby( );
 769:Middlewares/Third_Party/SubGHz_Phy/stm32_radio_driver/radio.c ****     /* ST_WORKAROUND_END */
 770:Middlewares/Third_Party/SubGHz_Phy/stm32_radio_driver/radio.c ****     return status;
 771:Middlewares/Third_Party/SubGHz_Phy/stm32_radio_driver/radio.c **** }
 772:Middlewares/Third_Party/SubGHz_Phy/stm32_radio_driver/radio.c **** 
 773:Middlewares/Third_Party/SubGHz_Phy/stm32_radio_driver/radio.c **** static uint32_t RadioRandom( void )
ARM GAS  C:\Users\NATHAN~1\AppData\Local\Temp\cc90iGN6.s 			page 15


 774:Middlewares/Third_Party/SubGHz_Phy/stm32_radio_driver/radio.c **** {
 775:Middlewares/Third_Party/SubGHz_Phy/stm32_radio_driver/radio.c ****     uint32_t rnd = 0;
 776:Middlewares/Third_Party/SubGHz_Phy/stm32_radio_driver/radio.c **** 
 777:Middlewares/Third_Party/SubGHz_Phy/stm32_radio_driver/radio.c ****     /*
 778:Middlewares/Third_Party/SubGHz_Phy/stm32_radio_driver/radio.c ****      * Radio setup for random number generation
 779:Middlewares/Third_Party/SubGHz_Phy/stm32_radio_driver/radio.c ****      */
 780:Middlewares/Third_Party/SubGHz_Phy/stm32_radio_driver/radio.c ****     // Set LoRa modem ON
 781:Middlewares/Third_Party/SubGHz_Phy/stm32_radio_driver/radio.c ****     RadioSetModem( MODEM_LORA );
 782:Middlewares/Third_Party/SubGHz_Phy/stm32_radio_driver/radio.c **** 
 783:Middlewares/Third_Party/SubGHz_Phy/stm32_radio_driver/radio.c ****     // Disable LoRa modem interrupts
 784:Middlewares/Third_Party/SubGHz_Phy/stm32_radio_driver/radio.c ****     SUBGRF_SetDioIrqParams( IRQ_RADIO_NONE, IRQ_RADIO_NONE, IRQ_RADIO_NONE, IRQ_RADIO_NONE );
 785:Middlewares/Third_Party/SubGHz_Phy/stm32_radio_driver/radio.c **** 
 786:Middlewares/Third_Party/SubGHz_Phy/stm32_radio_driver/radio.c ****     rnd = SUBGRF_GetRandom();
 787:Middlewares/Third_Party/SubGHz_Phy/stm32_radio_driver/radio.c **** 
 788:Middlewares/Third_Party/SubGHz_Phy/stm32_radio_driver/radio.c ****     return rnd;
 789:Middlewares/Third_Party/SubGHz_Phy/stm32_radio_driver/radio.c **** }
 790:Middlewares/Third_Party/SubGHz_Phy/stm32_radio_driver/radio.c **** 
 791:Middlewares/Third_Party/SubGHz_Phy/stm32_radio_driver/radio.c **** static void RadioSetRxConfig( RadioModems_t modem, uint32_t bandwidth,
 792:Middlewares/Third_Party/SubGHz_Phy/stm32_radio_driver/radio.c ****                               uint32_t datarate, uint8_t coderate,
 793:Middlewares/Third_Party/SubGHz_Phy/stm32_radio_driver/radio.c ****                               uint32_t bandwidthAfc, uint16_t preambleLen,
 794:Middlewares/Third_Party/SubGHz_Phy/stm32_radio_driver/radio.c ****                               uint16_t symbTimeout, bool fixLen,
 795:Middlewares/Third_Party/SubGHz_Phy/stm32_radio_driver/radio.c ****                               uint8_t payloadLen,
 796:Middlewares/Third_Party/SubGHz_Phy/stm32_radio_driver/radio.c ****                               bool crcOn, bool freqHopOn, uint8_t hopPeriod,
 797:Middlewares/Third_Party/SubGHz_Phy/stm32_radio_driver/radio.c ****                               bool iqInverted, bool rxContinuous )
 798:Middlewares/Third_Party/SubGHz_Phy/stm32_radio_driver/radio.c **** {
 799:Middlewares/Third_Party/SubGHz_Phy/stm32_radio_driver/radio.c **** 
 800:Middlewares/Third_Party/SubGHz_Phy/stm32_radio_driver/radio.c ****     uint8_t modReg;
 801:Middlewares/Third_Party/SubGHz_Phy/stm32_radio_driver/radio.c ****     SubgRf.RxContinuous = rxContinuous;
 802:Middlewares/Third_Party/SubGHz_Phy/stm32_radio_driver/radio.c ****     RFW_DeInit(); /* ST_WORKAROUND: Switch Off FwPacketDecoding by default */
 803:Middlewares/Third_Party/SubGHz_Phy/stm32_radio_driver/radio.c ****     if( rxContinuous == true )
 804:Middlewares/Third_Party/SubGHz_Phy/stm32_radio_driver/radio.c ****     {
 805:Middlewares/Third_Party/SubGHz_Phy/stm32_radio_driver/radio.c ****         symbTimeout = 0;
 806:Middlewares/Third_Party/SubGHz_Phy/stm32_radio_driver/radio.c ****     }
 807:Middlewares/Third_Party/SubGHz_Phy/stm32_radio_driver/radio.c ****     if( fixLen == true )
 808:Middlewares/Third_Party/SubGHz_Phy/stm32_radio_driver/radio.c ****     {
 809:Middlewares/Third_Party/SubGHz_Phy/stm32_radio_driver/radio.c ****         MaxPayloadLength = payloadLen;
 810:Middlewares/Third_Party/SubGHz_Phy/stm32_radio_driver/radio.c ****     }
 811:Middlewares/Third_Party/SubGHz_Phy/stm32_radio_driver/radio.c ****     else
 812:Middlewares/Third_Party/SubGHz_Phy/stm32_radio_driver/radio.c ****     {
 813:Middlewares/Third_Party/SubGHz_Phy/stm32_radio_driver/radio.c ****         MaxPayloadLength = 0xFF;
 814:Middlewares/Third_Party/SubGHz_Phy/stm32_radio_driver/radio.c ****     }
 815:Middlewares/Third_Party/SubGHz_Phy/stm32_radio_driver/radio.c **** 
 816:Middlewares/Third_Party/SubGHz_Phy/stm32_radio_driver/radio.c ****     switch( modem )
 817:Middlewares/Third_Party/SubGHz_Phy/stm32_radio_driver/radio.c ****     {
 818:Middlewares/Third_Party/SubGHz_Phy/stm32_radio_driver/radio.c ****         case MODEM_SIGFOX_RX:
 819:Middlewares/Third_Party/SubGHz_Phy/stm32_radio_driver/radio.c ****             SUBGRF_SetStopRxTimerOnPreambleDetect( true );
 820:Middlewares/Third_Party/SubGHz_Phy/stm32_radio_driver/radio.c ****             SubgRf.ModulationParams.PacketType = PACKET_TYPE_GFSK;
 821:Middlewares/Third_Party/SubGHz_Phy/stm32_radio_driver/radio.c **** 
 822:Middlewares/Third_Party/SubGHz_Phy/stm32_radio_driver/radio.c ****             SubgRf.ModulationParams.Params.Gfsk.BitRate = datarate;
 823:Middlewares/Third_Party/SubGHz_Phy/stm32_radio_driver/radio.c ****             SubgRf.ModulationParams.Params.Gfsk.ModulationShaping = MOD_SHAPING_G_BT_05;
 824:Middlewares/Third_Party/SubGHz_Phy/stm32_radio_driver/radio.c ****             SubgRf.ModulationParams.Params.Gfsk.Fdev = 800;
 825:Middlewares/Third_Party/SubGHz_Phy/stm32_radio_driver/radio.c ****             SubgRf.ModulationParams.Params.Gfsk.Bandwidth = SUBGRF_GetFskBandwidthRegValue( bandwid
 826:Middlewares/Third_Party/SubGHz_Phy/stm32_radio_driver/radio.c **** 
 827:Middlewares/Third_Party/SubGHz_Phy/stm32_radio_driver/radio.c ****             SubgRf.PacketParams.PacketType = PACKET_TYPE_GFSK;
 828:Middlewares/Third_Party/SubGHz_Phy/stm32_radio_driver/radio.c ****             SubgRf.PacketParams.Params.Gfsk.PreambleLength = ( preambleLen << 3 ); // convert byte 
 829:Middlewares/Third_Party/SubGHz_Phy/stm32_radio_driver/radio.c ****             SubgRf.PacketParams.Params.Gfsk.PreambleMinDetect = RADIO_PREAMBLE_DETECTOR_OFF;
 830:Middlewares/Third_Party/SubGHz_Phy/stm32_radio_driver/radio.c ****             SubgRf.PacketParams.Params.Gfsk.SyncWordLength = 2 << 3; // convert byte into bit
ARM GAS  C:\Users\NATHAN~1\AppData\Local\Temp\cc90iGN6.s 			page 16


 831:Middlewares/Third_Party/SubGHz_Phy/stm32_radio_driver/radio.c ****             SubgRf.PacketParams.Params.Gfsk.AddrComp = RADIO_ADDRESSCOMP_FILT_OFF;
 832:Middlewares/Third_Party/SubGHz_Phy/stm32_radio_driver/radio.c ****             SubgRf.PacketParams.Params.Gfsk.HeaderType = RADIO_PACKET_FIXED_LENGTH;
 833:Middlewares/Third_Party/SubGHz_Phy/stm32_radio_driver/radio.c ****             SubgRf.PacketParams.Params.Gfsk.PayloadLength = MaxPayloadLength;
 834:Middlewares/Third_Party/SubGHz_Phy/stm32_radio_driver/radio.c ****             SubgRf.PacketParams.Params.Gfsk.CrcLength = RADIO_CRC_OFF;
 835:Middlewares/Third_Party/SubGHz_Phy/stm32_radio_driver/radio.c **** 
 836:Middlewares/Third_Party/SubGHz_Phy/stm32_radio_driver/radio.c ****             SubgRf.PacketParams.Params.Gfsk.DcFree = RADIO_DC_FREE_OFF;
 837:Middlewares/Third_Party/SubGHz_Phy/stm32_radio_driver/radio.c **** 
 838:Middlewares/Third_Party/SubGHz_Phy/stm32_radio_driver/radio.c ****             RadioSetModem( MODEM_SIGFOX_RX );
 839:Middlewares/Third_Party/SubGHz_Phy/stm32_radio_driver/radio.c ****             SUBGRF_SetModulationParams( &SubgRf.ModulationParams );
 840:Middlewares/Third_Party/SubGHz_Phy/stm32_radio_driver/radio.c ****             SUBGRF_SetPacketParams( &SubgRf.PacketParams );
 841:Middlewares/Third_Party/SubGHz_Phy/stm32_radio_driver/radio.c ****             SUBGRF_SetSyncWord( ( uint8_t[] ){0xB2, 0x27, 0x00, 0x00, 0x00, 0x00, 0x00, 0x00 } );
 842:Middlewares/Third_Party/SubGHz_Phy/stm32_radio_driver/radio.c ****             SUBGRF_SetWhiteningSeed( 0x01FF );
 843:Middlewares/Third_Party/SubGHz_Phy/stm32_radio_driver/radio.c **** 
 844:Middlewares/Third_Party/SubGHz_Phy/stm32_radio_driver/radio.c ****             /* NO gfo reset (better sensitivity). Reg 0x8b8, bit4 = 0 */
 845:Middlewares/Third_Party/SubGHz_Phy/stm32_radio_driver/radio.c ****             modReg= RadioRead(0x8b8);
 846:Middlewares/Third_Party/SubGHz_Phy/stm32_radio_driver/radio.c ****             modReg&=RADIO_BIT_MASK(4);
 847:Middlewares/Third_Party/SubGHz_Phy/stm32_radio_driver/radio.c ****             RadioWrite(0x8b8, modReg);
 848:Middlewares/Third_Party/SubGHz_Phy/stm32_radio_driver/radio.c ****             /* Lower the threshold of cfo_reset */
 849:Middlewares/Third_Party/SubGHz_Phy/stm32_radio_driver/radio.c ****             RadioWrite(0x8b9, 0x4 );
 850:Middlewares/Third_Party/SubGHz_Phy/stm32_radio_driver/radio.c **** 
 851:Middlewares/Third_Party/SubGHz_Phy/stm32_radio_driver/radio.c ****             /* Bigger rssi_len (stability AGC). Reg 0x89b, bits[2 :4] = 0x1 */
 852:Middlewares/Third_Party/SubGHz_Phy/stm32_radio_driver/radio.c ****             modReg= RadioRead(0x89b);
 853:Middlewares/Third_Party/SubGHz_Phy/stm32_radio_driver/radio.c ****             modReg&=( RADIO_BIT_MASK(2) & RADIO_BIT_MASK(3) & RADIO_BIT_MASK(4) );
 854:Middlewares/Third_Party/SubGHz_Phy/stm32_radio_driver/radio.c ****             RadioWrite(0x89b, (modReg| (0x1<<3) ) );
 855:Middlewares/Third_Party/SubGHz_Phy/stm32_radio_driver/radio.c **** 
 856:Middlewares/Third_Party/SubGHz_Phy/stm32_radio_driver/radio.c ****             /* Bigger afc_pbl_len (better frequency correction). Reg 0x6d1, bits[3 :4] = 0x3 */
 857:Middlewares/Third_Party/SubGHz_Phy/stm32_radio_driver/radio.c ****             modReg= RadioRead(0x6d1);
 858:Middlewares/Third_Party/SubGHz_Phy/stm32_radio_driver/radio.c ****             modReg&=( RADIO_BIT_MASK(3) & RADIO_BIT_MASK(4) );
 859:Middlewares/Third_Party/SubGHz_Phy/stm32_radio_driver/radio.c ****             RadioWrite(0x6d1, (modReg| (0x3<<3) ));
 860:Middlewares/Third_Party/SubGHz_Phy/stm32_radio_driver/radio.c **** 
 861:Middlewares/Third_Party/SubGHz_Phy/stm32_radio_driver/radio.c ****             /* Use of new bit synchronizer (to avoid CRC errors during PER for payloads with a smal
 862:Middlewares/Third_Party/SubGHz_Phy/stm32_radio_driver/radio.c ****             modReg= RadioRead(0x6ac);
 863:Middlewares/Third_Party/SubGHz_Phy/stm32_radio_driver/radio.c ****             modReg&=( RADIO_BIT_MASK(4) & RADIO_BIT_MASK(5) & RADIO_BIT_MASK(6) );
 864:Middlewares/Third_Party/SubGHz_Phy/stm32_radio_driver/radio.c ****             RadioWrite(0x6ac, (modReg| (0x5<<4) ));
 865:Middlewares/Third_Party/SubGHz_Phy/stm32_radio_driver/radio.c ****             /*timeout unused when SubgRf.RxContinuous*/
 866:Middlewares/Third_Party/SubGHz_Phy/stm32_radio_driver/radio.c ****             SubgRf.RxTimeout = ( uint32_t )(( symbTimeout * 8 * 1000 ) /datarate);
 867:Middlewares/Third_Party/SubGHz_Phy/stm32_radio_driver/radio.c ****             break;
 868:Middlewares/Third_Party/SubGHz_Phy/stm32_radio_driver/radio.c ****         case MODEM_FSK:
 869:Middlewares/Third_Party/SubGHz_Phy/stm32_radio_driver/radio.c ****             SUBGRF_SetStopRxTimerOnPreambleDetect( false );
 870:Middlewares/Third_Party/SubGHz_Phy/stm32_radio_driver/radio.c ****             SubgRf.ModulationParams.PacketType = PACKET_TYPE_GFSK;
 871:Middlewares/Third_Party/SubGHz_Phy/stm32_radio_driver/radio.c **** 
 872:Middlewares/Third_Party/SubGHz_Phy/stm32_radio_driver/radio.c ****             SubgRf.ModulationParams.Params.Gfsk.BitRate = datarate;
 873:Middlewares/Third_Party/SubGHz_Phy/stm32_radio_driver/radio.c ****             SubgRf.ModulationParams.Params.Gfsk.ModulationShaping = MOD_SHAPING_G_BT_1;
 874:Middlewares/Third_Party/SubGHz_Phy/stm32_radio_driver/radio.c ****             SubgRf.ModulationParams.Params.Gfsk.Bandwidth = SUBGRF_GetFskBandwidthRegValue( bandwid
 875:Middlewares/Third_Party/SubGHz_Phy/stm32_radio_driver/radio.c **** 
 876:Middlewares/Third_Party/SubGHz_Phy/stm32_radio_driver/radio.c ****             SubgRf.PacketParams.PacketType = PACKET_TYPE_GFSK;
 877:Middlewares/Third_Party/SubGHz_Phy/stm32_radio_driver/radio.c ****             SubgRf.PacketParams.Params.Gfsk.PreambleLength = ( preambleLen << 3 ); // convert byte 
 878:Middlewares/Third_Party/SubGHz_Phy/stm32_radio_driver/radio.c ****             SubgRf.PacketParams.Params.Gfsk.PreambleMinDetect = RADIO_PREAMBLE_DETECTOR_08_BITS;
 879:Middlewares/Third_Party/SubGHz_Phy/stm32_radio_driver/radio.c ****             SubgRf.PacketParams.Params.Gfsk.SyncWordLength = 3 << 3; // convert byte into bit
 880:Middlewares/Third_Party/SubGHz_Phy/stm32_radio_driver/radio.c ****             SubgRf.PacketParams.Params.Gfsk.AddrComp = RADIO_ADDRESSCOMP_FILT_OFF;
 881:Middlewares/Third_Party/SubGHz_Phy/stm32_radio_driver/radio.c ****             SubgRf.PacketParams.Params.Gfsk.HeaderType = ( fixLen == true ) ? RADIO_PACKET_FIXED_LE
 882:Middlewares/Third_Party/SubGHz_Phy/stm32_radio_driver/radio.c ****             SubgRf.PacketParams.Params.Gfsk.PayloadLength = MaxPayloadLength;
 883:Middlewares/Third_Party/SubGHz_Phy/stm32_radio_driver/radio.c ****             if( crcOn == true )
 884:Middlewares/Third_Party/SubGHz_Phy/stm32_radio_driver/radio.c ****             {
 885:Middlewares/Third_Party/SubGHz_Phy/stm32_radio_driver/radio.c ****                 SubgRf.PacketParams.Params.Gfsk.CrcLength = RADIO_CRC_2_BYTES_CCIT;
 886:Middlewares/Third_Party/SubGHz_Phy/stm32_radio_driver/radio.c ****             }
 887:Middlewares/Third_Party/SubGHz_Phy/stm32_radio_driver/radio.c ****             else
ARM GAS  C:\Users\NATHAN~1\AppData\Local\Temp\cc90iGN6.s 			page 17


 888:Middlewares/Third_Party/SubGHz_Phy/stm32_radio_driver/radio.c ****             {
 889:Middlewares/Third_Party/SubGHz_Phy/stm32_radio_driver/radio.c ****                 SubgRf.PacketParams.Params.Gfsk.CrcLength = RADIO_CRC_OFF;
 890:Middlewares/Third_Party/SubGHz_Phy/stm32_radio_driver/radio.c ****             }
 891:Middlewares/Third_Party/SubGHz_Phy/stm32_radio_driver/radio.c ****             SubgRf.PacketParams.Params.Gfsk.DcFree = RADIO_DC_FREEWHITENING;
 892:Middlewares/Third_Party/SubGHz_Phy/stm32_radio_driver/radio.c **** 
 893:Middlewares/Third_Party/SubGHz_Phy/stm32_radio_driver/radio.c ****             RadioStandby( );
 894:Middlewares/Third_Party/SubGHz_Phy/stm32_radio_driver/radio.c ****             RadioSetModem( ( SubgRf.ModulationParams.PacketType == PACKET_TYPE_GFSK ) ? MODEM_FSK :
 895:Middlewares/Third_Party/SubGHz_Phy/stm32_radio_driver/radio.c ****             SUBGRF_SetModulationParams( &SubgRf.ModulationParams );
 896:Middlewares/Third_Party/SubGHz_Phy/stm32_radio_driver/radio.c ****             SUBGRF_SetPacketParams( &SubgRf.PacketParams );
 897:Middlewares/Third_Party/SubGHz_Phy/stm32_radio_driver/radio.c ****             SUBGRF_SetSyncWord( ( uint8_t[] ){ 0xC1, 0x94, 0xC1, 0x00, 0x00, 0x00, 0x00, 0x00 } );
 898:Middlewares/Third_Party/SubGHz_Phy/stm32_radio_driver/radio.c ****             SUBGRF_SetWhiteningSeed( 0x01FF );
 899:Middlewares/Third_Party/SubGHz_Phy/stm32_radio_driver/radio.c **** 
 900:Middlewares/Third_Party/SubGHz_Phy/stm32_radio_driver/radio.c ****             /*timeout unused when SubgRf.RxContinuous*/
 901:Middlewares/Third_Party/SubGHz_Phy/stm32_radio_driver/radio.c ****             SubgRf.RxTimeout = ( uint32_t )(( symbTimeout * 8 * 1000 ) /datarate);
 902:Middlewares/Third_Party/SubGHz_Phy/stm32_radio_driver/radio.c ****             break;
 903:Middlewares/Third_Party/SubGHz_Phy/stm32_radio_driver/radio.c **** 
 904:Middlewares/Third_Party/SubGHz_Phy/stm32_radio_driver/radio.c ****         case MODEM_LORA:
 905:Middlewares/Third_Party/SubGHz_Phy/stm32_radio_driver/radio.c ****             SUBGRF_SetStopRxTimerOnPreambleDetect( false );
 906:Middlewares/Third_Party/SubGHz_Phy/stm32_radio_driver/radio.c ****             SubgRf.ModulationParams.PacketType = PACKET_TYPE_LORA;
 907:Middlewares/Third_Party/SubGHz_Phy/stm32_radio_driver/radio.c ****             SubgRf.ModulationParams.Params.LoRa.SpreadingFactor = ( RadioLoRaSpreadingFactors_t )da
 908:Middlewares/Third_Party/SubGHz_Phy/stm32_radio_driver/radio.c ****             SubgRf.ModulationParams.Params.LoRa.Bandwidth = Bandwidths[bandwidth];
 909:Middlewares/Third_Party/SubGHz_Phy/stm32_radio_driver/radio.c ****             SubgRf.ModulationParams.Params.LoRa.CodingRate = ( RadioLoRaCodingRates_t )coderate;
 910:Middlewares/Third_Party/SubGHz_Phy/stm32_radio_driver/radio.c **** 
 911:Middlewares/Third_Party/SubGHz_Phy/stm32_radio_driver/radio.c ****             if( ( ( bandwidth == 0 ) && ( ( datarate == 11 ) || ( datarate == 12 ) ) ) ||
 912:Middlewares/Third_Party/SubGHz_Phy/stm32_radio_driver/radio.c ****                 ( ( bandwidth == 1 ) && ( datarate == 12 ) ) )
 913:Middlewares/Third_Party/SubGHz_Phy/stm32_radio_driver/radio.c ****             {
 914:Middlewares/Third_Party/SubGHz_Phy/stm32_radio_driver/radio.c ****                 SubgRf.ModulationParams.Params.LoRa.LowDatarateOptimize = 0x01;
 915:Middlewares/Third_Party/SubGHz_Phy/stm32_radio_driver/radio.c ****             }
 916:Middlewares/Third_Party/SubGHz_Phy/stm32_radio_driver/radio.c ****             else
 917:Middlewares/Third_Party/SubGHz_Phy/stm32_radio_driver/radio.c ****             {
 918:Middlewares/Third_Party/SubGHz_Phy/stm32_radio_driver/radio.c ****                 SubgRf.ModulationParams.Params.LoRa.LowDatarateOptimize = 0x00;
 919:Middlewares/Third_Party/SubGHz_Phy/stm32_radio_driver/radio.c ****             }
 920:Middlewares/Third_Party/SubGHz_Phy/stm32_radio_driver/radio.c **** 
 921:Middlewares/Third_Party/SubGHz_Phy/stm32_radio_driver/radio.c ****             SubgRf.PacketParams.PacketType = PACKET_TYPE_LORA;
 922:Middlewares/Third_Party/SubGHz_Phy/stm32_radio_driver/radio.c **** 
 923:Middlewares/Third_Party/SubGHz_Phy/stm32_radio_driver/radio.c ****             if( ( SubgRf.ModulationParams.Params.LoRa.SpreadingFactor == LORA_SF5 ) ||
 924:Middlewares/Third_Party/SubGHz_Phy/stm32_radio_driver/radio.c ****                 ( SubgRf.ModulationParams.Params.LoRa.SpreadingFactor == LORA_SF6 ) )
 925:Middlewares/Third_Party/SubGHz_Phy/stm32_radio_driver/radio.c ****             {
 926:Middlewares/Third_Party/SubGHz_Phy/stm32_radio_driver/radio.c ****                 if( preambleLen < 12 )
 927:Middlewares/Third_Party/SubGHz_Phy/stm32_radio_driver/radio.c ****                 {
 928:Middlewares/Third_Party/SubGHz_Phy/stm32_radio_driver/radio.c ****                     SubgRf.PacketParams.Params.LoRa.PreambleLength = 12;
 929:Middlewares/Third_Party/SubGHz_Phy/stm32_radio_driver/radio.c ****                 }
 930:Middlewares/Third_Party/SubGHz_Phy/stm32_radio_driver/radio.c ****                 else
 931:Middlewares/Third_Party/SubGHz_Phy/stm32_radio_driver/radio.c ****                 {
 932:Middlewares/Third_Party/SubGHz_Phy/stm32_radio_driver/radio.c ****                     SubgRf.PacketParams.Params.LoRa.PreambleLength = preambleLen;
 933:Middlewares/Third_Party/SubGHz_Phy/stm32_radio_driver/radio.c ****                 }
 934:Middlewares/Third_Party/SubGHz_Phy/stm32_radio_driver/radio.c ****             }
 935:Middlewares/Third_Party/SubGHz_Phy/stm32_radio_driver/radio.c ****             else
 936:Middlewares/Third_Party/SubGHz_Phy/stm32_radio_driver/radio.c ****             {
 937:Middlewares/Third_Party/SubGHz_Phy/stm32_radio_driver/radio.c ****                 SubgRf.PacketParams.Params.LoRa.PreambleLength = preambleLen;
 938:Middlewares/Third_Party/SubGHz_Phy/stm32_radio_driver/radio.c ****             }
 939:Middlewares/Third_Party/SubGHz_Phy/stm32_radio_driver/radio.c **** 
 940:Middlewares/Third_Party/SubGHz_Phy/stm32_radio_driver/radio.c ****             SubgRf.PacketParams.Params.LoRa.HeaderType = ( RadioLoRaPacketLengthsMode_t )fixLen;
 941:Middlewares/Third_Party/SubGHz_Phy/stm32_radio_driver/radio.c **** 
 942:Middlewares/Third_Party/SubGHz_Phy/stm32_radio_driver/radio.c ****             SubgRf.PacketParams.Params.LoRa.PayloadLength = MaxPayloadLength;
 943:Middlewares/Third_Party/SubGHz_Phy/stm32_radio_driver/radio.c ****             SubgRf.PacketParams.Params.LoRa.CrcMode = ( RadioLoRaCrcModes_t )crcOn;
 944:Middlewares/Third_Party/SubGHz_Phy/stm32_radio_driver/radio.c ****             SubgRf.PacketParams.Params.LoRa.InvertIQ = ( RadioLoRaIQModes_t )iqInverted;
ARM GAS  C:\Users\NATHAN~1\AppData\Local\Temp\cc90iGN6.s 			page 18


 945:Middlewares/Third_Party/SubGHz_Phy/stm32_radio_driver/radio.c **** 
 946:Middlewares/Third_Party/SubGHz_Phy/stm32_radio_driver/radio.c ****             RadioStandby( );
 947:Middlewares/Third_Party/SubGHz_Phy/stm32_radio_driver/radio.c ****             RadioSetModem( ( SubgRf.ModulationParams.PacketType == PACKET_TYPE_GFSK ) ? MODEM_FSK :
 948:Middlewares/Third_Party/SubGHz_Phy/stm32_radio_driver/radio.c ****             SUBGRF_SetModulationParams( &SubgRf.ModulationParams );
 949:Middlewares/Third_Party/SubGHz_Phy/stm32_radio_driver/radio.c ****             SUBGRF_SetPacketParams( &SubgRf.PacketParams );
 950:Middlewares/Third_Party/SubGHz_Phy/stm32_radio_driver/radio.c ****             SUBGRF_SetLoRaSymbNumTimeout( symbTimeout );
 951:Middlewares/Third_Party/SubGHz_Phy/stm32_radio_driver/radio.c **** 
 952:Middlewares/Third_Party/SubGHz_Phy/stm32_radio_driver/radio.c ****             // WORKAROUND - Optimizing the Inverted IQ Operation, see DS_SX1261-2_V1.2 datasheet ch
 953:Middlewares/Third_Party/SubGHz_Phy/stm32_radio_driver/radio.c ****             if( SubgRf.PacketParams.Params.LoRa.InvertIQ == LORA_IQ_INVERTED )
 954:Middlewares/Third_Party/SubGHz_Phy/stm32_radio_driver/radio.c ****             {
 955:Middlewares/Third_Party/SubGHz_Phy/stm32_radio_driver/radio.c ****                 // RegIqPolaritySetup = @address 0x0736
 956:Middlewares/Third_Party/SubGHz_Phy/stm32_radio_driver/radio.c ****                 SUBGRF_WriteRegister( 0x0736, SUBGRF_ReadRegister( 0x0736 ) & ~( 1 << 2 ) );
 957:Middlewares/Third_Party/SubGHz_Phy/stm32_radio_driver/radio.c ****             }
 958:Middlewares/Third_Party/SubGHz_Phy/stm32_radio_driver/radio.c ****             else
 959:Middlewares/Third_Party/SubGHz_Phy/stm32_radio_driver/radio.c ****             {
 960:Middlewares/Third_Party/SubGHz_Phy/stm32_radio_driver/radio.c ****                 // RegIqPolaritySetup @address 0x0736
 961:Middlewares/Third_Party/SubGHz_Phy/stm32_radio_driver/radio.c ****                 SUBGRF_WriteRegister( 0x0736, SUBGRF_ReadRegister( 0x0736 ) | ( 1 << 2 ) );
 962:Middlewares/Third_Party/SubGHz_Phy/stm32_radio_driver/radio.c ****             }
 963:Middlewares/Third_Party/SubGHz_Phy/stm32_radio_driver/radio.c ****             // WORKAROUND END
 964:Middlewares/Third_Party/SubGHz_Phy/stm32_radio_driver/radio.c **** 
 965:Middlewares/Third_Party/SubGHz_Phy/stm32_radio_driver/radio.c ****             // Timeout Max, Timeout handled directly in SetRx function
 966:Middlewares/Third_Party/SubGHz_Phy/stm32_radio_driver/radio.c ****             SubgRf.RxTimeout = 0xFFFF;
 967:Middlewares/Third_Party/SubGHz_Phy/stm32_radio_driver/radio.c **** 
 968:Middlewares/Third_Party/SubGHz_Phy/stm32_radio_driver/radio.c ****             break;
 969:Middlewares/Third_Party/SubGHz_Phy/stm32_radio_driver/radio.c ****         default:
 970:Middlewares/Third_Party/SubGHz_Phy/stm32_radio_driver/radio.c ****             break;
 971:Middlewares/Third_Party/SubGHz_Phy/stm32_radio_driver/radio.c ****     }
 972:Middlewares/Third_Party/SubGHz_Phy/stm32_radio_driver/radio.c **** }
 973:Middlewares/Third_Party/SubGHz_Phy/stm32_radio_driver/radio.c **** 
 974:Middlewares/Third_Party/SubGHz_Phy/stm32_radio_driver/radio.c **** static void RadioSetTxConfig( RadioModems_t modem, int8_t power, uint32_t fdev,
 975:Middlewares/Third_Party/SubGHz_Phy/stm32_radio_driver/radio.c ****                               uint32_t bandwidth, uint32_t datarate,
 976:Middlewares/Third_Party/SubGHz_Phy/stm32_radio_driver/radio.c ****                               uint8_t coderate, uint16_t preambleLen,
 977:Middlewares/Third_Party/SubGHz_Phy/stm32_radio_driver/radio.c ****                               bool fixLen, bool crcOn, bool freqHopOn,
 978:Middlewares/Third_Party/SubGHz_Phy/stm32_radio_driver/radio.c ****                               uint8_t hopPeriod, bool iqInverted, uint32_t timeout )
 979:Middlewares/Third_Party/SubGHz_Phy/stm32_radio_driver/radio.c **** {
 980:Middlewares/Third_Party/SubGHz_Phy/stm32_radio_driver/radio.c ****     RFW_DeInit(); /* ST_WORKAROUND: Switch Off FwPacketDecoding by default */
 981:Middlewares/Third_Party/SubGHz_Phy/stm32_radio_driver/radio.c ****     switch( modem )
 982:Middlewares/Third_Party/SubGHz_Phy/stm32_radio_driver/radio.c ****     {
 983:Middlewares/Third_Party/SubGHz_Phy/stm32_radio_driver/radio.c ****         case MODEM_FSK:
 984:Middlewares/Third_Party/SubGHz_Phy/stm32_radio_driver/radio.c ****             SubgRf.ModulationParams.PacketType = PACKET_TYPE_GFSK;
 985:Middlewares/Third_Party/SubGHz_Phy/stm32_radio_driver/radio.c ****             SubgRf.ModulationParams.Params.Gfsk.BitRate = datarate;
 986:Middlewares/Third_Party/SubGHz_Phy/stm32_radio_driver/radio.c **** 
 987:Middlewares/Third_Party/SubGHz_Phy/stm32_radio_driver/radio.c ****             SubgRf.ModulationParams.Params.Gfsk.ModulationShaping = MOD_SHAPING_G_BT_1;
 988:Middlewares/Third_Party/SubGHz_Phy/stm32_radio_driver/radio.c ****             SubgRf.ModulationParams.Params.Gfsk.Bandwidth = SUBGRF_GetFskBandwidthRegValue( bandwid
 989:Middlewares/Third_Party/SubGHz_Phy/stm32_radio_driver/radio.c ****             SubgRf.ModulationParams.Params.Gfsk.Fdev = fdev;
 990:Middlewares/Third_Party/SubGHz_Phy/stm32_radio_driver/radio.c **** 
 991:Middlewares/Third_Party/SubGHz_Phy/stm32_radio_driver/radio.c ****             SubgRf.PacketParams.PacketType = PACKET_TYPE_GFSK;
 992:Middlewares/Third_Party/SubGHz_Phy/stm32_radio_driver/radio.c ****             SubgRf.PacketParams.Params.Gfsk.PreambleLength = ( preambleLen << 3 ); // convert byte 
 993:Middlewares/Third_Party/SubGHz_Phy/stm32_radio_driver/radio.c ****             SubgRf.PacketParams.Params.Gfsk.PreambleMinDetect = RADIO_PREAMBLE_DETECTOR_08_BITS;
 994:Middlewares/Third_Party/SubGHz_Phy/stm32_radio_driver/radio.c ****             SubgRf.PacketParams.Params.Gfsk.SyncWordLength = 3 << 3 ; // convert byte into bit
 995:Middlewares/Third_Party/SubGHz_Phy/stm32_radio_driver/radio.c ****             SubgRf.PacketParams.Params.Gfsk.AddrComp = RADIO_ADDRESSCOMP_FILT_OFF;
 996:Middlewares/Third_Party/SubGHz_Phy/stm32_radio_driver/radio.c ****             SubgRf.PacketParams.Params.Gfsk.HeaderType = ( fixLen == true ) ? RADIO_PACKET_FIXED_LE
 997:Middlewares/Third_Party/SubGHz_Phy/stm32_radio_driver/radio.c **** 
 998:Middlewares/Third_Party/SubGHz_Phy/stm32_radio_driver/radio.c ****             if( crcOn == true )
 999:Middlewares/Third_Party/SubGHz_Phy/stm32_radio_driver/radio.c ****             {
1000:Middlewares/Third_Party/SubGHz_Phy/stm32_radio_driver/radio.c ****                 SubgRf.PacketParams.Params.Gfsk.CrcLength = RADIO_CRC_2_BYTES_CCIT;
1001:Middlewares/Third_Party/SubGHz_Phy/stm32_radio_driver/radio.c ****             }
ARM GAS  C:\Users\NATHAN~1\AppData\Local\Temp\cc90iGN6.s 			page 19


1002:Middlewares/Third_Party/SubGHz_Phy/stm32_radio_driver/radio.c ****             else
1003:Middlewares/Third_Party/SubGHz_Phy/stm32_radio_driver/radio.c ****             {
1004:Middlewares/Third_Party/SubGHz_Phy/stm32_radio_driver/radio.c ****                 SubgRf.PacketParams.Params.Gfsk.CrcLength = RADIO_CRC_OFF;
1005:Middlewares/Third_Party/SubGHz_Phy/stm32_radio_driver/radio.c ****             }
1006:Middlewares/Third_Party/SubGHz_Phy/stm32_radio_driver/radio.c ****             SubgRf.PacketParams.Params.Gfsk.DcFree = RADIO_DC_FREEWHITENING;
1007:Middlewares/Third_Party/SubGHz_Phy/stm32_radio_driver/radio.c **** 
1008:Middlewares/Third_Party/SubGHz_Phy/stm32_radio_driver/radio.c ****             RadioStandby( );
1009:Middlewares/Third_Party/SubGHz_Phy/stm32_radio_driver/radio.c ****             RadioSetModem( ( SubgRf.ModulationParams.PacketType == PACKET_TYPE_GFSK ) ? MODEM_FSK :
1010:Middlewares/Third_Party/SubGHz_Phy/stm32_radio_driver/radio.c ****             SUBGRF_SetModulationParams( &SubgRf.ModulationParams );
1011:Middlewares/Third_Party/SubGHz_Phy/stm32_radio_driver/radio.c ****             SUBGRF_SetPacketParams( &SubgRf.PacketParams );
1012:Middlewares/Third_Party/SubGHz_Phy/stm32_radio_driver/radio.c ****             SUBGRF_SetSyncWord( ( uint8_t[] ){ 0xC1, 0x94, 0xC1, 0x00, 0x00, 0x00, 0x00, 0x00 } );
1013:Middlewares/Third_Party/SubGHz_Phy/stm32_radio_driver/radio.c ****             SUBGRF_SetWhiteningSeed( 0x01FF );
1014:Middlewares/Third_Party/SubGHz_Phy/stm32_radio_driver/radio.c ****             break;
1015:Middlewares/Third_Party/SubGHz_Phy/stm32_radio_driver/radio.c **** 
1016:Middlewares/Third_Party/SubGHz_Phy/stm32_radio_driver/radio.c ****         case MODEM_LORA:
1017:Middlewares/Third_Party/SubGHz_Phy/stm32_radio_driver/radio.c ****             SubgRf.ModulationParams.PacketType = PACKET_TYPE_LORA;
1018:Middlewares/Third_Party/SubGHz_Phy/stm32_radio_driver/radio.c ****             SubgRf.ModulationParams.Params.LoRa.SpreadingFactor = ( RadioLoRaSpreadingFactors_t ) d
1019:Middlewares/Third_Party/SubGHz_Phy/stm32_radio_driver/radio.c ****             SubgRf.ModulationParams.Params.LoRa.Bandwidth =  Bandwidths[bandwidth];
1020:Middlewares/Third_Party/SubGHz_Phy/stm32_radio_driver/radio.c ****             SubgRf.ModulationParams.Params.LoRa.CodingRate= ( RadioLoRaCodingRates_t )coderate;
1021:Middlewares/Third_Party/SubGHz_Phy/stm32_radio_driver/radio.c **** 
1022:Middlewares/Third_Party/SubGHz_Phy/stm32_radio_driver/radio.c ****             if( ( ( bandwidth == 0 ) && ( ( datarate == 11 ) || ( datarate == 12 ) ) ) ||
1023:Middlewares/Third_Party/SubGHz_Phy/stm32_radio_driver/radio.c ****                 ( ( bandwidth == 1 ) && ( datarate == 12 ) ) )
1024:Middlewares/Third_Party/SubGHz_Phy/stm32_radio_driver/radio.c ****             {
1025:Middlewares/Third_Party/SubGHz_Phy/stm32_radio_driver/radio.c ****                 SubgRf.ModulationParams.Params.LoRa.LowDatarateOptimize = 0x01;
1026:Middlewares/Third_Party/SubGHz_Phy/stm32_radio_driver/radio.c ****             }
1027:Middlewares/Third_Party/SubGHz_Phy/stm32_radio_driver/radio.c ****             else
1028:Middlewares/Third_Party/SubGHz_Phy/stm32_radio_driver/radio.c ****             {
1029:Middlewares/Third_Party/SubGHz_Phy/stm32_radio_driver/radio.c ****                 SubgRf.ModulationParams.Params.LoRa.LowDatarateOptimize = 0x00;
1030:Middlewares/Third_Party/SubGHz_Phy/stm32_radio_driver/radio.c ****             }
1031:Middlewares/Third_Party/SubGHz_Phy/stm32_radio_driver/radio.c **** 
1032:Middlewares/Third_Party/SubGHz_Phy/stm32_radio_driver/radio.c ****             SubgRf.PacketParams.PacketType = PACKET_TYPE_LORA;
1033:Middlewares/Third_Party/SubGHz_Phy/stm32_radio_driver/radio.c **** 
1034:Middlewares/Third_Party/SubGHz_Phy/stm32_radio_driver/radio.c ****             if( ( SubgRf.ModulationParams.Params.LoRa.SpreadingFactor == LORA_SF5 ) ||
1035:Middlewares/Third_Party/SubGHz_Phy/stm32_radio_driver/radio.c ****                 ( SubgRf.ModulationParams.Params.LoRa.SpreadingFactor == LORA_SF6 ) )
1036:Middlewares/Third_Party/SubGHz_Phy/stm32_radio_driver/radio.c ****             {
1037:Middlewares/Third_Party/SubGHz_Phy/stm32_radio_driver/radio.c ****                 if( preambleLen < 12 )
1038:Middlewares/Third_Party/SubGHz_Phy/stm32_radio_driver/radio.c ****                 {
1039:Middlewares/Third_Party/SubGHz_Phy/stm32_radio_driver/radio.c ****                     SubgRf.PacketParams.Params.LoRa.PreambleLength = 12;
1040:Middlewares/Third_Party/SubGHz_Phy/stm32_radio_driver/radio.c ****                 }
1041:Middlewares/Third_Party/SubGHz_Phy/stm32_radio_driver/radio.c ****                 else
1042:Middlewares/Third_Party/SubGHz_Phy/stm32_radio_driver/radio.c ****                 {
1043:Middlewares/Third_Party/SubGHz_Phy/stm32_radio_driver/radio.c ****                     SubgRf.PacketParams.Params.LoRa.PreambleLength = preambleLen;
1044:Middlewares/Third_Party/SubGHz_Phy/stm32_radio_driver/radio.c ****                 }
1045:Middlewares/Third_Party/SubGHz_Phy/stm32_radio_driver/radio.c ****             }
1046:Middlewares/Third_Party/SubGHz_Phy/stm32_radio_driver/radio.c ****             else
1047:Middlewares/Third_Party/SubGHz_Phy/stm32_radio_driver/radio.c ****             {
1048:Middlewares/Third_Party/SubGHz_Phy/stm32_radio_driver/radio.c ****                 SubgRf.PacketParams.Params.LoRa.PreambleLength = preambleLen;
1049:Middlewares/Third_Party/SubGHz_Phy/stm32_radio_driver/radio.c ****             }
1050:Middlewares/Third_Party/SubGHz_Phy/stm32_radio_driver/radio.c ****             SubgRf.PacketParams.Params.LoRa.HeaderType = ( RadioLoRaPacketLengthsMode_t )fixLen;
1051:Middlewares/Third_Party/SubGHz_Phy/stm32_radio_driver/radio.c ****             SubgRf.PacketParams.Params.LoRa.PayloadLength = MaxPayloadLength;
1052:Middlewares/Third_Party/SubGHz_Phy/stm32_radio_driver/radio.c ****             SubgRf.PacketParams.Params.LoRa.CrcMode = ( RadioLoRaCrcModes_t )crcOn;
1053:Middlewares/Third_Party/SubGHz_Phy/stm32_radio_driver/radio.c ****             SubgRf.PacketParams.Params.LoRa.InvertIQ = ( RadioLoRaIQModes_t )iqInverted;
1054:Middlewares/Third_Party/SubGHz_Phy/stm32_radio_driver/radio.c **** 
1055:Middlewares/Third_Party/SubGHz_Phy/stm32_radio_driver/radio.c ****             RadioStandby( );
1056:Middlewares/Third_Party/SubGHz_Phy/stm32_radio_driver/radio.c ****             RadioSetModem( ( SubgRf.ModulationParams.PacketType == PACKET_TYPE_GFSK ) ? MODEM_FSK :
1057:Middlewares/Third_Party/SubGHz_Phy/stm32_radio_driver/radio.c ****             SUBGRF_SetModulationParams( &SubgRf.ModulationParams );
1058:Middlewares/Third_Party/SubGHz_Phy/stm32_radio_driver/radio.c ****             SUBGRF_SetPacketParams( &SubgRf.PacketParams );
ARM GAS  C:\Users\NATHAN~1\AppData\Local\Temp\cc90iGN6.s 			page 20


1059:Middlewares/Third_Party/SubGHz_Phy/stm32_radio_driver/radio.c ****             break;
1060:Middlewares/Third_Party/SubGHz_Phy/stm32_radio_driver/radio.c **** 
1061:Middlewares/Third_Party/SubGHz_Phy/stm32_radio_driver/radio.c ****         case MODEM_SIGFOX_TX:
1062:Middlewares/Third_Party/SubGHz_Phy/stm32_radio_driver/radio.c ****             RadioSetModem(MODEM_SIGFOX_TX);
1063:Middlewares/Third_Party/SubGHz_Phy/stm32_radio_driver/radio.c ****             SubgRf.ModulationParams.PacketType = PACKET_TYPE_BPSK;
1064:Middlewares/Third_Party/SubGHz_Phy/stm32_radio_driver/radio.c ****             SubgRf.ModulationParams.Params.Bpsk.BitRate           = datarate;
1065:Middlewares/Third_Party/SubGHz_Phy/stm32_radio_driver/radio.c ****             SubgRf.ModulationParams.Params.Bpsk.ModulationShaping = MOD_SHAPING_DBPSK;
1066:Middlewares/Third_Party/SubGHz_Phy/stm32_radio_driver/radio.c ****             SUBGRF_SetModulationParams( &SubgRf.ModulationParams );
1067:Middlewares/Third_Party/SubGHz_Phy/stm32_radio_driver/radio.c ****             break;
1068:Middlewares/Third_Party/SubGHz_Phy/stm32_radio_driver/radio.c **** 
1069:Middlewares/Third_Party/SubGHz_Phy/stm32_radio_driver/radio.c ****         default:
1070:Middlewares/Third_Party/SubGHz_Phy/stm32_radio_driver/radio.c ****             break;
1071:Middlewares/Third_Party/SubGHz_Phy/stm32_radio_driver/radio.c ****     }
1072:Middlewares/Third_Party/SubGHz_Phy/stm32_radio_driver/radio.c **** 
1073:Middlewares/Third_Party/SubGHz_Phy/stm32_radio_driver/radio.c **** 
1074:Middlewares/Third_Party/SubGHz_Phy/stm32_radio_driver/radio.c **** 
1075:Middlewares/Third_Party/SubGHz_Phy/stm32_radio_driver/radio.c ****     SubgRf.AntSwitchPaSelect = SUBGRF_SetRfTxPower( power );
1076:Middlewares/Third_Party/SubGHz_Phy/stm32_radio_driver/radio.c ****     RFW_SetAntSwitch( SubgRf.AntSwitchPaSelect ); /* ST_WORKAROUND: ?????? */
1077:Middlewares/Third_Party/SubGHz_Phy/stm32_radio_driver/radio.c ****     SubgRf.TxTimeout = timeout;
1078:Middlewares/Third_Party/SubGHz_Phy/stm32_radio_driver/radio.c **** }
1079:Middlewares/Third_Party/SubGHz_Phy/stm32_radio_driver/radio.c **** 
1080:Middlewares/Third_Party/SubGHz_Phy/stm32_radio_driver/radio.c **** static bool RadioCheckRfFrequency( uint32_t frequency )
1081:Middlewares/Third_Party/SubGHz_Phy/stm32_radio_driver/radio.c **** {
  27              		.loc 1 1081 1 view -0
  28              		.cfi_startproc
  29              		@ args = 0, pretend = 0, frame = 0
  30              		@ frame_needed = 0, uses_anonymous_args = 0
  31              		@ link register save eliminated.
1082:Middlewares/Third_Party/SubGHz_Phy/stm32_radio_driver/radio.c ****     return true;
  32              		.loc 1 1082 5 view .LVU1
1083:Middlewares/Third_Party/SubGHz_Phy/stm32_radio_driver/radio.c **** }
  33              		.loc 1 1083 1 is_stmt 0 view .LVU2
  34 0000 0120     		movs	r0, #1
  35              	.LVL1:
  36              		.loc 1 1083 1 view .LVU3
  37 0002 7047     		bx	lr
  38              		.cfi_endproc
  39              	.LFE999:
  41              		.section	.text.RadioGetLoRaBandwidthInHz,"ax",%progbits
  42              		.align	1
  43              		.syntax unified
  44              		.thumb
  45              		.thumb_func
  47              	RadioGetLoRaBandwidthInHz:
  48              	.LVL2:
  49              	.LFB1000:
1084:Middlewares/Third_Party/SubGHz_Phy/stm32_radio_driver/radio.c **** 
1085:Middlewares/Third_Party/SubGHz_Phy/stm32_radio_driver/radio.c **** static uint32_t RadioGetLoRaBandwidthInHz( RadioLoRaBandwidths_t bw )
1086:Middlewares/Third_Party/SubGHz_Phy/stm32_radio_driver/radio.c **** {
  50              		.loc 1 1086 1 is_stmt 1 view -0
  51              		.cfi_startproc
  52              		@ args = 0, pretend = 0, frame = 0
  53              		@ frame_needed = 0, uses_anonymous_args = 0
  54              		@ link register save eliminated.
1087:Middlewares/Third_Party/SubGHz_Phy/stm32_radio_driver/radio.c ****     uint32_t bandwidthInHz = 0;
  55              		.loc 1 1087 5 view .LVU5
1088:Middlewares/Third_Party/SubGHz_Phy/stm32_radio_driver/radio.c **** 
ARM GAS  C:\Users\NATHAN~1\AppData\Local\Temp\cc90iGN6.s 			page 21


1089:Middlewares/Third_Party/SubGHz_Phy/stm32_radio_driver/radio.c ****     switch( bw )
  56              		.loc 1 1089 5 view .LVU6
  57 0000 0A28     		cmp	r0, #10
  58 0002 07D8     		bhi	.L3
  59 0004 DFE800F0 		tbb	[pc, r0]
  60              	.L5:
  61 0008 20       		.byte	(.L15-.L5)/2
  62 0009 0B       		.byte	(.L13-.L5)/2
  63 000a 11       		.byte	(.L12-.L5)/2
  64 000b 17       		.byte	(.L11-.L5)/2
  65 000c 1A       		.byte	(.L10-.L5)/2
  66 000d 1C       		.byte	(.L9-.L5)/2
  67 000e 1E       		.byte	(.L8-.L5)/2
  68 000f 06       		.byte	(.L3-.L5)/2
  69 0010 08       		.byte	(.L7-.L5)/2
  70 0011 0E       		.byte	(.L6-.L5)/2
  71 0012 14       		.byte	(.L4-.L5)/2
  72 0013 00       		.p2align 1
  73              	.L3:
  74 0014 0020     		movs	r0, #0
  75              	.LVL3:
  76              		.loc 1 1089 5 is_stmt 0 view .LVU7
  77 0016 7047     		bx	lr
  78              	.LVL4:
  79              	.L7:
1090:Middlewares/Third_Party/SubGHz_Phy/stm32_radio_driver/radio.c ****     {
1091:Middlewares/Third_Party/SubGHz_Phy/stm32_radio_driver/radio.c ****     case LORA_BW_007:
1092:Middlewares/Third_Party/SubGHz_Phy/stm32_radio_driver/radio.c ****         bandwidthInHz = 7812UL;
1093:Middlewares/Third_Party/SubGHz_Phy/stm32_radio_driver/radio.c ****         break;
1094:Middlewares/Third_Party/SubGHz_Phy/stm32_radio_driver/radio.c ****     case LORA_BW_010:
1095:Middlewares/Third_Party/SubGHz_Phy/stm32_radio_driver/radio.c ****         bandwidthInHz = 10417UL;
  80              		.loc 1 1095 9 is_stmt 1 view .LVU8
1096:Middlewares/Third_Party/SubGHz_Phy/stm32_radio_driver/radio.c ****         break;
  81              		.loc 1 1096 9 view .LVU9
1095:Middlewares/Third_Party/SubGHz_Phy/stm32_radio_driver/radio.c ****         break;
  82              		.loc 1 1095 23 is_stmt 0 view .LVU10
  83 0018 42F6B100 		movw	r0, #10417
  84              	.LVL5:
  85              		.loc 1 1096 9 view .LVU11
  86 001c 7047     		bx	lr
  87              	.LVL6:
  88              	.L13:
1097:Middlewares/Third_Party/SubGHz_Phy/stm32_radio_driver/radio.c ****     case LORA_BW_015:
1098:Middlewares/Third_Party/SubGHz_Phy/stm32_radio_driver/radio.c ****         bandwidthInHz = 15625UL;
  89              		.loc 1 1098 9 is_stmt 1 view .LVU12
1099:Middlewares/Third_Party/SubGHz_Phy/stm32_radio_driver/radio.c ****         break;
  90              		.loc 1 1099 9 view .LVU13
1098:Middlewares/Third_Party/SubGHz_Phy/stm32_radio_driver/radio.c ****         break;
  91              		.loc 1 1098 23 is_stmt 0 view .LVU14
  92 001e 43F60950 		movw	r0, #15625
  93              	.LVL7:
  94              		.loc 1 1099 9 view .LVU15
  95 0022 7047     		bx	lr
  96              	.LVL8:
  97              	.L6:
1100:Middlewares/Third_Party/SubGHz_Phy/stm32_radio_driver/radio.c ****     case LORA_BW_020:
1101:Middlewares/Third_Party/SubGHz_Phy/stm32_radio_driver/radio.c ****         bandwidthInHz = 20833UL;
ARM GAS  C:\Users\NATHAN~1\AppData\Local\Temp\cc90iGN6.s 			page 22


  98              		.loc 1 1101 9 is_stmt 1 view .LVU16
1102:Middlewares/Third_Party/SubGHz_Phy/stm32_radio_driver/radio.c ****         break;
  99              		.loc 1 1102 9 view .LVU17
1101:Middlewares/Third_Party/SubGHz_Phy/stm32_radio_driver/radio.c ****         break;
 100              		.loc 1 1101 23 is_stmt 0 view .LVU18
 101 0024 45F26110 		movw	r0, #20833
 102              	.LVL9:
 103              		.loc 1 1102 9 view .LVU19
 104 0028 7047     		bx	lr
 105              	.LVL10:
 106              	.L12:
1103:Middlewares/Third_Party/SubGHz_Phy/stm32_radio_driver/radio.c ****     case LORA_BW_031:
1104:Middlewares/Third_Party/SubGHz_Phy/stm32_radio_driver/radio.c ****         bandwidthInHz = 31250UL;
 107              		.loc 1 1104 9 is_stmt 1 view .LVU20
1105:Middlewares/Third_Party/SubGHz_Phy/stm32_radio_driver/radio.c ****         break;
 108              		.loc 1 1105 9 view .LVU21
1104:Middlewares/Third_Party/SubGHz_Phy/stm32_radio_driver/radio.c ****         break;
 109              		.loc 1 1104 23 is_stmt 0 view .LVU22
 110 002a 47F61220 		movw	r0, #31250
 111              	.LVL11:
 112              		.loc 1 1105 9 view .LVU23
 113 002e 7047     		bx	lr
 114              	.LVL12:
 115              	.L4:
1106:Middlewares/Third_Party/SubGHz_Phy/stm32_radio_driver/radio.c ****     case LORA_BW_041:
1107:Middlewares/Third_Party/SubGHz_Phy/stm32_radio_driver/radio.c ****         bandwidthInHz = 41667UL;
 116              		.loc 1 1107 9 is_stmt 1 view .LVU24
1108:Middlewares/Third_Party/SubGHz_Phy/stm32_radio_driver/radio.c ****         break;
 117              		.loc 1 1108 9 view .LVU25
1107:Middlewares/Third_Party/SubGHz_Phy/stm32_radio_driver/radio.c ****         break;
 118              		.loc 1 1107 23 is_stmt 0 view .LVU26
 119 0030 4AF2C320 		movw	r0, #41667
 120              	.LVL13:
 121              		.loc 1 1108 9 view .LVU27
 122 0034 7047     		bx	lr
 123              	.LVL14:
 124              	.L11:
1109:Middlewares/Third_Party/SubGHz_Phy/stm32_radio_driver/radio.c ****     case LORA_BW_062:
1110:Middlewares/Third_Party/SubGHz_Phy/stm32_radio_driver/radio.c ****         bandwidthInHz = 62500UL;
 125              		.loc 1 1110 9 is_stmt 1 view .LVU28
1111:Middlewares/Third_Party/SubGHz_Phy/stm32_radio_driver/radio.c ****         break;
 126              		.loc 1 1111 9 view .LVU29
1110:Middlewares/Third_Party/SubGHz_Phy/stm32_radio_driver/radio.c ****         break;
 127              		.loc 1 1110 23 is_stmt 0 view .LVU30
 128 0036 4FF22440 		movw	r0, #62500
 129              	.LVL15:
 130              		.loc 1 1111 9 view .LVU31
 131 003a 7047     		bx	lr
 132              	.LVL16:
 133              	.L10:
1112:Middlewares/Third_Party/SubGHz_Phy/stm32_radio_driver/radio.c ****     case LORA_BW_125:
1113:Middlewares/Third_Party/SubGHz_Phy/stm32_radio_driver/radio.c ****         bandwidthInHz = 125000UL;
 134              		.loc 1 1113 9 is_stmt 1 view .LVU32
1114:Middlewares/Third_Party/SubGHz_Phy/stm32_radio_driver/radio.c ****         break;
 135              		.loc 1 1114 9 view .LVU33
1113:Middlewares/Third_Party/SubGHz_Phy/stm32_radio_driver/radio.c ****         break;
 136              		.loc 1 1113 23 is_stmt 0 view .LVU34
ARM GAS  C:\Users\NATHAN~1\AppData\Local\Temp\cc90iGN6.s 			page 23


 137 003c 0448     		ldr	r0, .L16
 138              	.LVL17:
 139              		.loc 1 1114 9 view .LVU35
 140 003e 7047     		bx	lr
 141              	.LVL18:
 142              	.L9:
1115:Middlewares/Third_Party/SubGHz_Phy/stm32_radio_driver/radio.c ****     case LORA_BW_250:
1116:Middlewares/Third_Party/SubGHz_Phy/stm32_radio_driver/radio.c ****         bandwidthInHz = 250000UL;
 143              		.loc 1 1116 9 is_stmt 1 view .LVU36
1117:Middlewares/Third_Party/SubGHz_Phy/stm32_radio_driver/radio.c ****         break;
 144              		.loc 1 1117 9 view .LVU37
1116:Middlewares/Third_Party/SubGHz_Phy/stm32_radio_driver/radio.c ****         break;
 145              		.loc 1 1116 23 is_stmt 0 view .LVU38
 146 0040 0448     		ldr	r0, .L16+4
 147              	.LVL19:
 148              		.loc 1 1117 9 view .LVU39
 149 0042 7047     		bx	lr
 150              	.LVL20:
 151              	.L8:
1118:Middlewares/Third_Party/SubGHz_Phy/stm32_radio_driver/radio.c ****     case LORA_BW_500:
1119:Middlewares/Third_Party/SubGHz_Phy/stm32_radio_driver/radio.c ****         bandwidthInHz = 500000UL;
 152              		.loc 1 1119 9 is_stmt 1 view .LVU40
1120:Middlewares/Third_Party/SubGHz_Phy/stm32_radio_driver/radio.c ****         break;
 153              		.loc 1 1120 9 view .LVU41
1119:Middlewares/Third_Party/SubGHz_Phy/stm32_radio_driver/radio.c ****         break;
 154              		.loc 1 1119 23 is_stmt 0 view .LVU42
 155 0044 0448     		ldr	r0, .L16+8
 156              	.LVL21:
 157              		.loc 1 1120 9 view .LVU43
 158 0046 7047     		bx	lr
 159              	.LVL22:
 160              	.L15:
1092:Middlewares/Third_Party/SubGHz_Phy/stm32_radio_driver/radio.c ****         break;
 161              		.loc 1 1092 23 view .LVU44
 162 0048 41F68460 		movw	r0, #7812
 163              	.LVL23:
1121:Middlewares/Third_Party/SubGHz_Phy/stm32_radio_driver/radio.c ****     }
1122:Middlewares/Third_Party/SubGHz_Phy/stm32_radio_driver/radio.c **** 
1123:Middlewares/Third_Party/SubGHz_Phy/stm32_radio_driver/radio.c ****     return bandwidthInHz;
 164              		.loc 1 1123 5 is_stmt 1 view .LVU45
1124:Middlewares/Third_Party/SubGHz_Phy/stm32_radio_driver/radio.c **** }
 165              		.loc 1 1124 1 is_stmt 0 view .LVU46
 166 004c 7047     		bx	lr
 167              	.L17:
 168 004e 00BF     		.align	2
 169              	.L16:
 170 0050 48E80100 		.word	125000
 171 0054 90D00300 		.word	250000
 172 0058 20A10700 		.word	500000
 173              		.cfi_endproc
 174              	.LFE1000:
 176              		.section	.text.RadioGetGfskTimeOnAirNumerator,"ax",%progbits
 177              		.align	1
 178              		.syntax unified
 179              		.thumb
 180              		.thumb_func
 182              	RadioGetGfskTimeOnAirNumerator:
ARM GAS  C:\Users\NATHAN~1\AppData\Local\Temp\cc90iGN6.s 			page 24


 183              	.LVL24:
 184              	.LFB1001:
1125:Middlewares/Third_Party/SubGHz_Phy/stm32_radio_driver/radio.c **** 
1126:Middlewares/Third_Party/SubGHz_Phy/stm32_radio_driver/radio.c **** static uint32_t RadioGetGfskTimeOnAirNumerator( uint32_t datarate, uint8_t coderate,
1127:Middlewares/Third_Party/SubGHz_Phy/stm32_radio_driver/radio.c ****                                                 uint16_t preambleLen, bool fixLen, uint8_t payloadL
1128:Middlewares/Third_Party/SubGHz_Phy/stm32_radio_driver/radio.c ****                                                 bool crcOn )
1129:Middlewares/Third_Party/SubGHz_Phy/stm32_radio_driver/radio.c **** {
 185              		.loc 1 1129 1 is_stmt 1 view -0
 186              		.cfi_startproc
 187              		@ args = 8, pretend = 0, frame = 0
 188              		@ frame_needed = 0, uses_anonymous_args = 0
 189              		@ link register save eliminated.
 190              		.loc 1 1129 1 is_stmt 0 view .LVU48
 191 0000 9DF80410 		ldrb	r1, [sp, #4]	@ zero_extendqisi2
 192              	.LVL25:
1130:Middlewares/Third_Party/SubGHz_Phy/stm32_radio_driver/radio.c ****     /* ST_WORKAROUND_BEGIN: Simplified calculation without const values */
1131:Middlewares/Third_Party/SubGHz_Phy/stm32_radio_driver/radio.c ****     return ( preambleLen << 3 ) +
 193              		.loc 1 1131 5 is_stmt 1 view .LVU49
 194              		.loc 1 1131 26 is_stmt 0 view .LVU50
 195 0004 D200     		lsls	r2, r2, #3
 196              	.LVL26:
1132:Middlewares/Third_Party/SubGHz_Phy/stm32_radio_driver/radio.c ****            ( ( fixLen == false ) ? 8 : 0 ) + 24 +
 197              		.loc 1 1132 38 view .LVU51
 198 0006 53B9     		cbnz	r3, .L21
 199 0008 0820     		movs	r0, #8
 200              	.LVL27:
 201              	.L19:
1131:Middlewares/Third_Party/SubGHz_Phy/stm32_radio_driver/radio.c ****            ( ( fixLen == false ) ? 8 : 0 ) + 24 +
 202              		.loc 1 1131 33 view .LVU52
 203 000a 0244     		add	r2, r2, r0
 204              		.loc 1 1132 44 view .LVU53
 205 000c 1832     		adds	r2, r2, #24
1133:Middlewares/Third_Party/SubGHz_Phy/stm32_radio_driver/radio.c ****            ( ( payloadLen + ( ( crcOn == true ) ? 2 : 0 ) ) << 3 );
 206              		.loc 1 1133 53 view .LVU54
 207 000e 41B1     		cbz	r1, .L22
 208 0010 0223     		movs	r3, #2
 209              	.LVL28:
 210              	.L20:
 211              		.loc 1 1133 27 discriminator 4 view .LVU55
 212 0012 9DF80000 		ldrb	r0, [sp]	@ zero_extendqisi2
 213 0016 1844     		add	r0, r0, r3
1134:Middlewares/Third_Party/SubGHz_Phy/stm32_radio_driver/radio.c ****     /* ST_WORKAROUND_END */
1135:Middlewares/Third_Party/SubGHz_Phy/stm32_radio_driver/radio.c **** }
 214              		.loc 1 1135 1 discriminator 4 view .LVU56
 215 0018 02EBC000 		add	r0, r2, r0, lsl #3
 216 001c 7047     		bx	lr
 217              	.LVL29:
 218              	.L21:
1132:Middlewares/Third_Party/SubGHz_Phy/stm32_radio_driver/radio.c ****            ( ( payloadLen + ( ( crcOn == true ) ? 2 : 0 ) ) << 3 );
 219              		.loc 1 1132 38 view .LVU57
 220 001e 0020     		movs	r0, #0
 221              	.LVL30:
1132:Middlewares/Third_Party/SubGHz_Phy/stm32_radio_driver/radio.c ****            ( ( payloadLen + ( ( crcOn == true ) ? 2 : 0 ) ) << 3 );
 222              		.loc 1 1132 38 view .LVU58
 223 0020 F3E7     		b	.L19
 224              	.L22:
1133:Middlewares/Third_Party/SubGHz_Phy/stm32_radio_driver/radio.c ****            ( ( payloadLen + ( ( crcOn == true ) ? 2 : 0 ) ) << 3 );
ARM GAS  C:\Users\NATHAN~1\AppData\Local\Temp\cc90iGN6.s 			page 25


 225              		.loc 1 1133 53 view .LVU59
 226 0022 0023     		movs	r3, #0
 227              	.LVL31:
1133:Middlewares/Third_Party/SubGHz_Phy/stm32_radio_driver/radio.c ****            ( ( payloadLen + ( ( crcOn == true ) ? 2 : 0 ) ) << 3 );
 228              		.loc 1 1133 53 view .LVU60
 229 0024 F5E7     		b	.L20
 230              		.cfi_endproc
 231              	.LFE1001:
 233              		.section	.text.RadioGetLoRaTimeOnAirNumerator,"ax",%progbits
 234              		.align	1
 235              		.syntax unified
 236              		.thumb
 237              		.thumb_func
 239              	RadioGetLoRaTimeOnAirNumerator:
 240              	.LVL32:
 241              	.LFB1002:
1136:Middlewares/Third_Party/SubGHz_Phy/stm32_radio_driver/radio.c **** 
1137:Middlewares/Third_Party/SubGHz_Phy/stm32_radio_driver/radio.c **** static uint32_t RadioGetLoRaTimeOnAirNumerator( uint32_t bandwidth,
1138:Middlewares/Third_Party/SubGHz_Phy/stm32_radio_driver/radio.c ****                                                 uint32_t datarate, uint8_t coderate,
1139:Middlewares/Third_Party/SubGHz_Phy/stm32_radio_driver/radio.c ****                                                 uint16_t preambleLen, bool fixLen, uint8_t payloadL
1140:Middlewares/Third_Party/SubGHz_Phy/stm32_radio_driver/radio.c ****                                                 bool crcOn )
1141:Middlewares/Third_Party/SubGHz_Phy/stm32_radio_driver/radio.c **** {
 242              		.loc 1 1141 1 is_stmt 1 view -0
 243              		.cfi_startproc
 244              		@ args = 12, pretend = 0, frame = 0
 245              		@ frame_needed = 0, uses_anonymous_args = 0
 246              		.loc 1 1141 1 is_stmt 0 view .LVU62
 247 0000 70B5     		push	{r4, r5, r6, lr}
 248              	.LCFI0:
 249              		.cfi_def_cfa_offset 16
 250              		.cfi_offset 4, -16
 251              		.cfi_offset 5, -12
 252              		.cfi_offset 6, -8
 253              		.cfi_offset 14, -4
 254 0002 9DF81040 		ldrb	r4, [sp, #16]	@ zero_extendqisi2
 255 0006 9DF81850 		ldrb	r5, [sp, #24]	@ zero_extendqisi2
1142:Middlewares/Third_Party/SubGHz_Phy/stm32_radio_driver/radio.c ****     int32_t crDenom           = coderate + 4;
 256              		.loc 1 1142 5 is_stmt 1 view .LVU63
 257              		.loc 1 1142 13 is_stmt 0 view .LVU64
 258 000a 0432     		adds	r2, r2, #4
 259              	.LVL33:
1143:Middlewares/Third_Party/SubGHz_Phy/stm32_radio_driver/radio.c ****     bool    lowDatareOptimize = false;
 260              		.loc 1 1143 5 is_stmt 1 view .LVU65
1144:Middlewares/Third_Party/SubGHz_Phy/stm32_radio_driver/radio.c **** 
1145:Middlewares/Third_Party/SubGHz_Phy/stm32_radio_driver/radio.c ****     // Ensure that the preamble length is at least 12 symbols when using SF5 or SF6
1146:Middlewares/Third_Party/SubGHz_Phy/stm32_radio_driver/radio.c ****     if( ( datarate == 5 ) || ( datarate == 6 ) )
 261              		.loc 1 1146 5 view .LVU66
 262              		.loc 1 1146 27 is_stmt 0 view .LVU67
 263 000c A1F1050C 		sub	ip, r1, #5
 264              		.loc 1 1146 7 view .LVU68
 265 0010 BCF1010F 		cmp	ip, #1
 266 0014 32D9     		bls	.L42
 267              	.LVL34:
 268              	.L24:
1147:Middlewares/Third_Party/SubGHz_Phy/stm32_radio_driver/radio.c ****     {
1148:Middlewares/Third_Party/SubGHz_Phy/stm32_radio_driver/radio.c ****         if( preambleLen < 12 )
1149:Middlewares/Third_Party/SubGHz_Phy/stm32_radio_driver/radio.c ****         {
ARM GAS  C:\Users\NATHAN~1\AppData\Local\Temp\cc90iGN6.s 			page 26


1150:Middlewares/Third_Party/SubGHz_Phy/stm32_radio_driver/radio.c ****             preambleLen = 12;
1151:Middlewares/Third_Party/SubGHz_Phy/stm32_radio_driver/radio.c ****         }
1152:Middlewares/Third_Party/SubGHz_Phy/stm32_radio_driver/radio.c ****     }
1153:Middlewares/Third_Party/SubGHz_Phy/stm32_radio_driver/radio.c **** 
1154:Middlewares/Third_Party/SubGHz_Phy/stm32_radio_driver/radio.c ****     if( ( ( bandwidth == 0 ) && ( ( datarate == 11 ) || ( datarate == 12 ) ) ) ||
 269              		.loc 1 1154 5 is_stmt 1 view .LVU69
 270              		.loc 1 1154 7 is_stmt 0 view .LVU70
 271 0016 18B9     		cbnz	r0, .L25
 272              		.loc 1 1154 54 discriminator 1 view .LVU71
 273 0018 A1F10B06 		sub	r6, r1, #11
 274              		.loc 1 1154 30 discriminator 1 view .LVU72
 275 001c 012E     		cmp	r6, #1
 276 001e 35D9     		bls	.L35
 277              	.L25:
 278              		.loc 1 1154 80 discriminator 3 view .LVU73
 279 0020 0128     		cmp	r0, #1
 280 0022 2FD0     		beq	.L43
1143:Middlewares/Third_Party/SubGHz_Phy/stm32_radio_driver/radio.c **** 
 281              		.loc 1 1143 13 view .LVU74
 282 0024 0026     		movs	r6, #0
 283              	.L26:
 284              	.LVL35:
1155:Middlewares/Third_Party/SubGHz_Phy/stm32_radio_driver/radio.c ****         ( ( bandwidth == 1 ) && ( datarate == 12 ) ) )
1156:Middlewares/Third_Party/SubGHz_Phy/stm32_radio_driver/radio.c ****     {
1157:Middlewares/Third_Party/SubGHz_Phy/stm32_radio_driver/radio.c ****         lowDatareOptimize = true;
1158:Middlewares/Third_Party/SubGHz_Phy/stm32_radio_driver/radio.c ****     }
1159:Middlewares/Third_Party/SubGHz_Phy/stm32_radio_driver/radio.c **** 
1160:Middlewares/Third_Party/SubGHz_Phy/stm32_radio_driver/radio.c ****     int32_t ceilDenominator;
 285              		.loc 1 1160 5 is_stmt 1 view .LVU75
1161:Middlewares/Third_Party/SubGHz_Phy/stm32_radio_driver/radio.c ****     int32_t ceilNumerator = ( payloadLen << 3 ) +
 286              		.loc 1 1161 5 view .LVU76
 287              		.loc 1 1161 42 is_stmt 0 view .LVU77
 288 0026 9DF814E0 		ldrb	lr, [sp, #20]	@ zero_extendqisi2
 289 002a 4FEACE0E 		lsl	lr, lr, #3
1162:Middlewares/Third_Party/SubGHz_Phy/stm32_radio_driver/radio.c ****                             ( crcOn ? 16 : 0 ) -
 290              		.loc 1 1162 42 view .LVU78
 291 002e 8DB3     		cbz	r5, .L38
 292 0030 4FF0100C 		mov	ip, #16
 293              	.L27:
1161:Middlewares/Third_Party/SubGHz_Phy/stm32_radio_driver/radio.c ****     int32_t ceilNumerator = ( payloadLen << 3 ) +
 294              		.loc 1 1161 49 view .LVU79
 295 0034 E644     		add	lr, lr, ip
1163:Middlewares/Third_Party/SubGHz_Phy/stm32_radio_driver/radio.c ****                             ( 4 * datarate ) +
 296              		.loc 1 1163 33 view .LVU80
 297 0036 8800     		lsls	r0, r1, #2
 298              	.LVL36:
1162:Middlewares/Third_Party/SubGHz_Phy/stm32_radio_driver/radio.c ****                             ( crcOn ? 16 : 0 ) -
 299              		.loc 1 1162 48 view .LVU81
 300 0038 AEEB810E 		sub	lr, lr, r1, lsl #2
1164:Middlewares/Third_Party/SubGHz_Phy/stm32_radio_driver/radio.c ****                             ( fixLen ? 0 : 20 );
 301              		.loc 1 1164 42 view .LVU82
 302 003c 6CB3     		cbz	r4, .L39
 303 003e 4FF0000C 		mov	ip, #0
 304              	.L28:
1163:Middlewares/Third_Party/SubGHz_Phy/stm32_radio_driver/radio.c ****                             ( 4 * datarate ) +
 305              		.loc 1 1163 46 view .LVU83
 306 0042 F444     		add	ip, ip, lr
ARM GAS  C:\Users\NATHAN~1\AppData\Local\Temp\cc90iGN6.s 			page 27


 307              	.LVL37:
1165:Middlewares/Third_Party/SubGHz_Phy/stm32_radio_driver/radio.c **** 
1166:Middlewares/Third_Party/SubGHz_Phy/stm32_radio_driver/radio.c ****     if( datarate <= 6 )
 308              		.loc 1 1166 5 is_stmt 1 view .LVU84
 309              		.loc 1 1166 7 is_stmt 0 view .LVU85
 310 0044 0629     		cmp	r1, #6
 311 0046 04D9     		bls	.L30
1167:Middlewares/Third_Party/SubGHz_Phy/stm32_radio_driver/radio.c ****     {
1168:Middlewares/Third_Party/SubGHz_Phy/stm32_radio_driver/radio.c ****         ceilDenominator = 4 * datarate;
1169:Middlewares/Third_Party/SubGHz_Phy/stm32_radio_driver/radio.c ****     }
1170:Middlewares/Third_Party/SubGHz_Phy/stm32_radio_driver/radio.c ****     else
1171:Middlewares/Third_Party/SubGHz_Phy/stm32_radio_driver/radio.c ****     {
1172:Middlewares/Third_Party/SubGHz_Phy/stm32_radio_driver/radio.c ****         ceilNumerator += 8;
 312              		.loc 1 1172 9 is_stmt 1 view .LVU86
 313              		.loc 1 1172 23 is_stmt 0 view .LVU87
 314 0048 0CF1080C 		add	ip, ip, #8
 315              	.LVL38:
1173:Middlewares/Third_Party/SubGHz_Phy/stm32_radio_driver/radio.c **** 
1174:Middlewares/Third_Party/SubGHz_Phy/stm32_radio_driver/radio.c ****         if( lowDatareOptimize == true )
 316              		.loc 1 1174 9 is_stmt 1 view .LVU88
 317              		.loc 1 1174 11 is_stmt 0 view .LVU89
 318 004c 0EB1     		cbz	r6, .L30
1175:Middlewares/Third_Party/SubGHz_Phy/stm32_radio_driver/radio.c ****         {
1176:Middlewares/Third_Party/SubGHz_Phy/stm32_radio_driver/radio.c ****             ceilDenominator = 4 * ( datarate - 2 );
 319              		.loc 1 1176 13 is_stmt 1 view .LVU90
 320              		.loc 1 1176 46 is_stmt 0 view .LVU91
 321 004e 881E     		subs	r0, r1, #2
 322              		.loc 1 1176 33 view .LVU92
 323 0050 8000     		lsls	r0, r0, #2
 324              	.LVL39:
 325              	.L30:
1177:Middlewares/Third_Party/SubGHz_Phy/stm32_radio_driver/radio.c ****         }
1178:Middlewares/Third_Party/SubGHz_Phy/stm32_radio_driver/radio.c ****         else
1179:Middlewares/Third_Party/SubGHz_Phy/stm32_radio_driver/radio.c ****         {
1180:Middlewares/Third_Party/SubGHz_Phy/stm32_radio_driver/radio.c ****             ceilDenominator = 4 * datarate;
1181:Middlewares/Third_Party/SubGHz_Phy/stm32_radio_driver/radio.c ****         }
1182:Middlewares/Third_Party/SubGHz_Phy/stm32_radio_driver/radio.c ****     }
1183:Middlewares/Third_Party/SubGHz_Phy/stm32_radio_driver/radio.c **** 
1184:Middlewares/Third_Party/SubGHz_Phy/stm32_radio_driver/radio.c ****     if( ceilNumerator < 0 )
 326              		.loc 1 1184 5 is_stmt 1 view .LVU93
 327              		.loc 1 1184 7 is_stmt 0 view .LVU94
 328 0052 BCF1000F 		cmp	ip, #0
 329 0056 23DB     		blt	.L44
 330              	.LVL40:
 331              	.L32:
1185:Middlewares/Third_Party/SubGHz_Phy/stm32_radio_driver/radio.c ****     {
1186:Middlewares/Third_Party/SubGHz_Phy/stm32_radio_driver/radio.c ****         ceilNumerator = 0;
1187:Middlewares/Third_Party/SubGHz_Phy/stm32_radio_driver/radio.c ****     }
1188:Middlewares/Third_Party/SubGHz_Phy/stm32_radio_driver/radio.c **** 
1189:Middlewares/Third_Party/SubGHz_Phy/stm32_radio_driver/radio.c ****     // Perform integral ceil()
1190:Middlewares/Third_Party/SubGHz_Phy/stm32_radio_driver/radio.c ****     int32_t intermediate =
 332              		.loc 1 1190 5 is_stmt 1 view .LVU95
1191:Middlewares/Third_Party/SubGHz_Phy/stm32_radio_driver/radio.c ****         ( ( ceilNumerator + ceilDenominator - 1 ) / ceilDenominator ) * crDenom + preambleLen + 12;
 333              		.loc 1 1191 27 is_stmt 0 view .LVU96
 334 0058 8444     		add	ip, ip, r0
 335              	.LVL41:
 336              		.loc 1 1191 45 view .LVU97
ARM GAS  C:\Users\NATHAN~1\AppData\Local\Temp\cc90iGN6.s 			page 28


 337 005a 0CF1FF3C 		add	ip, ip, #-1
 338              		.loc 1 1191 51 view .LVU98
 339 005e 9CFBF0FC 		sdiv	ip, ip, r0
 340              		.loc 1 1191 81 view .LVU99
 341 0062 02FB0C33 		mla	r3, r2, ip, r3
 342              	.LVL42:
1190:Middlewares/Third_Party/SubGHz_Phy/stm32_radio_driver/radio.c ****         ( ( ceilNumerator + ceilDenominator - 1 ) / ceilDenominator ) * crDenom + preambleLen + 12;
 343              		.loc 1 1190 13 view .LVU100
 344 0066 03F10C00 		add	r0, r3, #12
 345              	.LVL43:
1192:Middlewares/Third_Party/SubGHz_Phy/stm32_radio_driver/radio.c **** 
1193:Middlewares/Third_Party/SubGHz_Phy/stm32_radio_driver/radio.c ****     if( datarate <= 6 )
 346              		.loc 1 1193 5 is_stmt 1 view .LVU101
 347              		.loc 1 1193 7 is_stmt 0 view .LVU102
 348 006a 0629     		cmp	r1, #6
 349 006c 01D8     		bhi	.L33
1194:Middlewares/Third_Party/SubGHz_Phy/stm32_radio_driver/radio.c ****     {
1195:Middlewares/Third_Party/SubGHz_Phy/stm32_radio_driver/radio.c ****         intermediate += 2;
 350              		.loc 1 1195 9 is_stmt 1 view .LVU103
 351              		.loc 1 1195 22 is_stmt 0 view .LVU104
 352 006e 03F10E00 		add	r0, r3, #14
 353              	.LVL44:
 354              	.L33:
1196:Middlewares/Third_Party/SubGHz_Phy/stm32_radio_driver/radio.c ****     }
1197:Middlewares/Third_Party/SubGHz_Phy/stm32_radio_driver/radio.c **** 
1198:Middlewares/Third_Party/SubGHz_Phy/stm32_radio_driver/radio.c ****     return ( uint32_t )( ( 4 * intermediate + 1 ) * ( 1 << ( datarate - 2 ) ) );
 355              		.loc 1 1198 5 is_stmt 1 view .LVU105
 356              		.loc 1 1198 30 is_stmt 0 view .LVU106
 357 0072 8000     		lsls	r0, r0, #2
 358              	.LVL45:
 359              		.loc 1 1198 45 view .LVU107
 360 0074 0130     		adds	r0, r0, #1
 361              		.loc 1 1198 71 view .LVU108
 362 0076 0239     		subs	r1, r1, #2
 363              	.LVL46:
1199:Middlewares/Third_Party/SubGHz_Phy/stm32_radio_driver/radio.c **** }
 364              		.loc 1 1199 1 view .LVU109
 365 0078 8840     		lsls	r0, r0, r1
 366 007a 70BD     		pop	{r4, r5, r6, pc}
 367              	.LVL47:
 368              	.L42:
1148:Middlewares/Third_Party/SubGHz_Phy/stm32_radio_driver/radio.c ****         {
 369              		.loc 1 1148 9 is_stmt 1 view .LVU110
1148:Middlewares/Third_Party/SubGHz_Phy/stm32_radio_driver/radio.c ****         {
 370              		.loc 1 1148 11 is_stmt 0 view .LVU111
 371 007c 0B2B     		cmp	r3, #11
 372 007e CAD8     		bhi	.L24
1150:Middlewares/Third_Party/SubGHz_Phy/stm32_radio_driver/radio.c ****         }
 373              		.loc 1 1150 25 view .LVU112
 374 0080 0C23     		movs	r3, #12
 375              	.LVL48:
1150:Middlewares/Third_Party/SubGHz_Phy/stm32_radio_driver/radio.c ****         }
 376              		.loc 1 1150 25 view .LVU113
 377 0082 C8E7     		b	.L24
 378              	.LVL49:
 379              	.L43:
1155:Middlewares/Third_Party/SubGHz_Phy/stm32_radio_driver/radio.c ****     {
ARM GAS  C:\Users\NATHAN~1\AppData\Local\Temp\cc90iGN6.s 			page 29


 380              		.loc 1 1155 30 view .LVU114
 381 0084 0C29     		cmp	r1, #12
 382 0086 03D0     		beq	.L37
1143:Middlewares/Third_Party/SubGHz_Phy/stm32_radio_driver/radio.c **** 
 383              		.loc 1 1143 13 view .LVU115
 384 0088 0026     		movs	r6, #0
 385 008a CCE7     		b	.L26
 386              	.L35:
1157:Middlewares/Third_Party/SubGHz_Phy/stm32_radio_driver/radio.c ****     }
 387              		.loc 1 1157 27 view .LVU116
 388 008c 0126     		movs	r6, #1
 389 008e CAE7     		b	.L26
 390              	.L37:
1157:Middlewares/Third_Party/SubGHz_Phy/stm32_radio_driver/radio.c ****     }
 391              		.loc 1 1157 27 view .LVU117
 392 0090 0126     		movs	r6, #1
 393 0092 C8E7     		b	.L26
 394              	.LVL50:
 395              	.L38:
1162:Middlewares/Third_Party/SubGHz_Phy/stm32_radio_driver/radio.c ****                             ( 4 * datarate ) +
 396              		.loc 1 1162 42 view .LVU118
 397 0094 4FF0000C 		mov	ip, #0
 398 0098 CCE7     		b	.L27
 399              	.LVL51:
 400              	.L39:
1164:Middlewares/Third_Party/SubGHz_Phy/stm32_radio_driver/radio.c **** 
 401              		.loc 1 1164 42 view .LVU119
 402 009a 4FF0140C 		mov	ip, #20
 403 009e D0E7     		b	.L28
 404              	.LVL52:
 405              	.L44:
1186:Middlewares/Third_Party/SubGHz_Phy/stm32_radio_driver/radio.c ****     }
 406              		.loc 1 1186 23 view .LVU120
 407 00a0 4FF0000C 		mov	ip, #0
 408              	.LVL53:
1186:Middlewares/Third_Party/SubGHz_Phy/stm32_radio_driver/radio.c ****     }
 409              		.loc 1 1186 23 view .LVU121
 410 00a4 D8E7     		b	.L32
 411              		.cfi_endproc
 412              	.LFE1002:
 414              		.section	.text.RadioTimeOnAir,"ax",%progbits
 415              		.align	1
 416              		.syntax unified
 417              		.thumb
 418              		.thumb_func
 420              	RadioTimeOnAir:
 421              	.LVL54:
 422              	.LFB1003:
1200:Middlewares/Third_Party/SubGHz_Phy/stm32_radio_driver/radio.c **** 
1201:Middlewares/Third_Party/SubGHz_Phy/stm32_radio_driver/radio.c **** static uint32_t RadioTimeOnAir( RadioModems_t modem, uint32_t bandwidth,
1202:Middlewares/Third_Party/SubGHz_Phy/stm32_radio_driver/radio.c ****                                 uint32_t datarate, uint8_t coderate,
1203:Middlewares/Third_Party/SubGHz_Phy/stm32_radio_driver/radio.c ****                                 uint16_t preambleLen, bool fixLen, uint8_t payloadLen,
1204:Middlewares/Third_Party/SubGHz_Phy/stm32_radio_driver/radio.c ****                                 bool crcOn )
1205:Middlewares/Third_Party/SubGHz_Phy/stm32_radio_driver/radio.c **** {
 423              		.loc 1 1205 1 is_stmt 1 view -0
 424              		.cfi_startproc
 425              		@ args = 16, pretend = 0, frame = 0
ARM GAS  C:\Users\NATHAN~1\AppData\Local\Temp\cc90iGN6.s 			page 30


 426              		@ frame_needed = 0, uses_anonymous_args = 0
 427              		.loc 1 1205 1 is_stmt 0 view .LVU123
 428 0000 F0B5     		push	{r4, r5, r6, r7, lr}
 429              	.LCFI1:
 430              		.cfi_def_cfa_offset 20
 431              		.cfi_offset 4, -20
 432              		.cfi_offset 5, -16
 433              		.cfi_offset 6, -12
 434              		.cfi_offset 7, -8
 435              		.cfi_offset 14, -4
 436 0002 85B0     		sub	sp, sp, #20
 437              	.LCFI2:
 438              		.cfi_def_cfa_offset 40
 439 0004 0E46     		mov	r6, r1
 440 0006 1546     		mov	r5, r2
 441 0008 1946     		mov	r1, r3
 442              	.LVL55:
 443              		.loc 1 1205 1 view .LVU124
 444 000a BDF82820 		ldrh	r2, [sp, #40]
 445              	.LVL56:
 446              		.loc 1 1205 1 view .LVU125
 447 000e 9DF82C30 		ldrb	r3, [sp, #44]	@ zero_extendqisi2
 448              	.LVL57:
 449              		.loc 1 1205 1 view .LVU126
 450 0012 9DF83070 		ldrb	r7, [sp, #48]	@ zero_extendqisi2
 451 0016 9DF834C0 		ldrb	ip, [sp, #52]	@ zero_extendqisi2
1206:Middlewares/Third_Party/SubGHz_Phy/stm32_radio_driver/radio.c ****     uint32_t numerator = 0;
 452              		.loc 1 1206 5 is_stmt 1 view .LVU127
 453              	.LVL58:
1207:Middlewares/Third_Party/SubGHz_Phy/stm32_radio_driver/radio.c ****     uint32_t denominator = 1;
 454              		.loc 1 1207 5 view .LVU128
1208:Middlewares/Third_Party/SubGHz_Phy/stm32_radio_driver/radio.c **** 
1209:Middlewares/Third_Party/SubGHz_Phy/stm32_radio_driver/radio.c ****     switch( modem )
 455              		.loc 1 1209 5 view .LVU129
 456 001a 48B1     		cbz	r0, .L46
 457 001c 0128     		cmp	r0, #1
 458 001e 12D0     		beq	.L47
 459 0020 0125     		movs	r5, #1
 460              	.LVL59:
 461              		.loc 1 1209 5 is_stmt 0 view .LVU130
 462 0022 0024     		movs	r4, #0
 463              	.LVL60:
 464              	.L48:
1210:Middlewares/Third_Party/SubGHz_Phy/stm32_radio_driver/radio.c ****     {
1211:Middlewares/Third_Party/SubGHz_Phy/stm32_radio_driver/radio.c ****     case MODEM_FSK:
1212:Middlewares/Third_Party/SubGHz_Phy/stm32_radio_driver/radio.c ****         {
1213:Middlewares/Third_Party/SubGHz_Phy/stm32_radio_driver/radio.c ****             numerator   = 1000U * RadioGetGfskTimeOnAirNumerator( datarate, coderate,
1214:Middlewares/Third_Party/SubGHz_Phy/stm32_radio_driver/radio.c ****                                                                   preambleLen, fixLen,
1215:Middlewares/Third_Party/SubGHz_Phy/stm32_radio_driver/radio.c ****                                                                   payloadLen, crcOn );
1216:Middlewares/Third_Party/SubGHz_Phy/stm32_radio_driver/radio.c ****             denominator = datarate;
1217:Middlewares/Third_Party/SubGHz_Phy/stm32_radio_driver/radio.c ****         }
1218:Middlewares/Third_Party/SubGHz_Phy/stm32_radio_driver/radio.c ****         break;
1219:Middlewares/Third_Party/SubGHz_Phy/stm32_radio_driver/radio.c ****     case MODEM_LORA:
1220:Middlewares/Third_Party/SubGHz_Phy/stm32_radio_driver/radio.c ****         {
1221:Middlewares/Third_Party/SubGHz_Phy/stm32_radio_driver/radio.c ****             numerator   = 1000U * RadioGetLoRaTimeOnAirNumerator( bandwidth, datarate,
1222:Middlewares/Third_Party/SubGHz_Phy/stm32_radio_driver/radio.c ****                                                                   coderate, preambleLen,
1223:Middlewares/Third_Party/SubGHz_Phy/stm32_radio_driver/radio.c ****                                                                   fixLen, payloadLen, crcOn );
ARM GAS  C:\Users\NATHAN~1\AppData\Local\Temp\cc90iGN6.s 			page 31


1224:Middlewares/Third_Party/SubGHz_Phy/stm32_radio_driver/radio.c ****             denominator = RadioGetLoRaBandwidthInHz( Bandwidths[bandwidth] );
1225:Middlewares/Third_Party/SubGHz_Phy/stm32_radio_driver/radio.c ****         }
1226:Middlewares/Third_Party/SubGHz_Phy/stm32_radio_driver/radio.c ****         break;
1227:Middlewares/Third_Party/SubGHz_Phy/stm32_radio_driver/radio.c ****     default:
1228:Middlewares/Third_Party/SubGHz_Phy/stm32_radio_driver/radio.c ****         break;
1229:Middlewares/Third_Party/SubGHz_Phy/stm32_radio_driver/radio.c ****     }
1230:Middlewares/Third_Party/SubGHz_Phy/stm32_radio_driver/radio.c ****     // Perform integral ceil()
1231:Middlewares/Third_Party/SubGHz_Phy/stm32_radio_driver/radio.c ****     return DIVC(numerator, denominator); /* ST_WORKAROUND : simplified calculation with macro usage
 465              		.loc 1 1231 5 is_stmt 1 view .LVU131
 466              		.loc 1 1231 12 is_stmt 0 view .LVU132
 467 0024 2C44     		add	r4, r4, r5
 468              	.LVL61:
 469              		.loc 1 1231 12 view .LVU133
 470 0026 601E     		subs	r0, r4, #1
1232:Middlewares/Third_Party/SubGHz_Phy/stm32_radio_driver/radio.c **** }
 471              		.loc 1 1232 1 view .LVU134
 472 0028 B0FBF5F0 		udiv	r0, r0, r5
 473 002c 05B0     		add	sp, sp, #20
 474              	.LCFI3:
 475              		.cfi_remember_state
 476              		.cfi_def_cfa_offset 20
 477              		@ sp needed
 478 002e F0BD     		pop	{r4, r5, r6, r7, pc}
 479              	.LVL62:
 480              	.L46:
 481              	.LCFI4:
 482              		.cfi_restore_state
1213:Middlewares/Third_Party/SubGHz_Phy/stm32_radio_driver/radio.c ****                                                                   preambleLen, fixLen,
 483              		.loc 1 1213 13 is_stmt 1 view .LVU135
1213:Middlewares/Third_Party/SubGHz_Phy/stm32_radio_driver/radio.c ****                                                                   preambleLen, fixLen,
 484              		.loc 1 1213 35 is_stmt 0 view .LVU136
 485 0030 CDF804C0 		str	ip, [sp, #4]
 486 0034 0097     		str	r7, [sp]
 487 0036 2846     		mov	r0, r5
 488              	.LVL63:
1213:Middlewares/Third_Party/SubGHz_Phy/stm32_radio_driver/radio.c ****                                                                   preambleLen, fixLen,
 489              		.loc 1 1213 35 view .LVU137
 490 0038 FFF7FEFF 		bl	RadioGetGfskTimeOnAirNumerator
 491              	.LVL64:
1213:Middlewares/Third_Party/SubGHz_Phy/stm32_radio_driver/radio.c ****                                                                   preambleLen, fixLen,
 492              		.loc 1 1213 25 view .LVU138
 493 003c 4FF47A74 		mov	r4, #1000
 494 0040 00FB04F4 		mul	r4, r0, r4
 495              	.LVL65:
1216:Middlewares/Third_Party/SubGHz_Phy/stm32_radio_driver/radio.c ****         }
 496              		.loc 1 1216 13 is_stmt 1 view .LVU139
1218:Middlewares/Third_Party/SubGHz_Phy/stm32_radio_driver/radio.c ****     case MODEM_LORA:
 497              		.loc 1 1218 9 view .LVU140
 498 0044 EEE7     		b	.L48
 499              	.LVL66:
 500              	.L47:
1221:Middlewares/Third_Party/SubGHz_Phy/stm32_radio_driver/radio.c ****                                                                   coderate, preambleLen,
 501              		.loc 1 1221 13 view .LVU141
1221:Middlewares/Third_Party/SubGHz_Phy/stm32_radio_driver/radio.c ****                                                                   coderate, preambleLen,
 502              		.loc 1 1221 35 is_stmt 0 view .LVU142
 503 0046 CDF808C0 		str	ip, [sp, #8]
 504 004a 0197     		str	r7, [sp, #4]
ARM GAS  C:\Users\NATHAN~1\AppData\Local\Temp\cc90iGN6.s 			page 32


 505 004c 0093     		str	r3, [sp]
 506 004e 1346     		mov	r3, r2
 507 0050 0A46     		mov	r2, r1
 508 0052 2946     		mov	r1, r5
 509 0054 3046     		mov	r0, r6
 510              	.LVL67:
1221:Middlewares/Third_Party/SubGHz_Phy/stm32_radio_driver/radio.c ****                                                                   coderate, preambleLen,
 511              		.loc 1 1221 35 view .LVU143
 512 0056 FFF7FEFF 		bl	RadioGetLoRaTimeOnAirNumerator
 513              	.LVL68:
1221:Middlewares/Third_Party/SubGHz_Phy/stm32_radio_driver/radio.c ****                                                                   coderate, preambleLen,
 514              		.loc 1 1221 25 view .LVU144
 515 005a 4FF47A74 		mov	r4, #1000
 516 005e 00FB04F4 		mul	r4, r0, r4
 517              	.LVL69:
1224:Middlewares/Third_Party/SubGHz_Phy/stm32_radio_driver/radio.c ****         }
 518              		.loc 1 1224 13 is_stmt 1 view .LVU145
1224:Middlewares/Third_Party/SubGHz_Phy/stm32_radio_driver/radio.c ****         }
 519              		.loc 1 1224 27 is_stmt 0 view .LVU146
 520 0062 034B     		ldr	r3, .L50
 521 0064 985D     		ldrb	r0, [r3, r6]	@ zero_extendqisi2
 522 0066 FFF7FEFF 		bl	RadioGetLoRaBandwidthInHz
 523              	.LVL70:
 524 006a 0546     		mov	r5, r0
 525              	.LVL71:
1226:Middlewares/Third_Party/SubGHz_Phy/stm32_radio_driver/radio.c ****     default:
 526              		.loc 1 1226 9 is_stmt 1 view .LVU147
 527 006c DAE7     		b	.L48
 528              	.L51:
 529 006e 00BF     		.align	2
 530              	.L50:
 531 0070 00000000 		.word	.LANCHOR0
 532              		.cfi_endproc
 533              	.LFE1003:
 535              		.section	.text.RadioOnTxTimeoutProcess,"ax",%progbits
 536              		.align	1
 537              		.syntax unified
 538              		.thumb
 539              		.thumb_func
 541              	RadioOnTxTimeoutProcess:
 542              	.LFB1022:
1233:Middlewares/Third_Party/SubGHz_Phy/stm32_radio_driver/radio.c **** 
1234:Middlewares/Third_Party/SubGHz_Phy/stm32_radio_driver/radio.c **** static void RadioSend( uint8_t *buffer, uint8_t size )
1235:Middlewares/Third_Party/SubGHz_Phy/stm32_radio_driver/radio.c **** {
1236:Middlewares/Third_Party/SubGHz_Phy/stm32_radio_driver/radio.c ****     /* ST_WORKAROUND_BEGIN : Set the debug pin and update the radio switch */
1237:Middlewares/Third_Party/SubGHz_Phy/stm32_radio_driver/radio.c ****     SUBGRF_SetDioIrqParams( IRQ_TX_DONE | IRQ_RX_TX_TIMEOUT | IRQ_TX_DBG,
1238:Middlewares/Third_Party/SubGHz_Phy/stm32_radio_driver/radio.c ****                             IRQ_TX_DONE | IRQ_RX_TX_TIMEOUT | IRQ_TX_DBG,
1239:Middlewares/Third_Party/SubGHz_Phy/stm32_radio_driver/radio.c ****                             IRQ_RADIO_NONE,
1240:Middlewares/Third_Party/SubGHz_Phy/stm32_radio_driver/radio.c ****                             IRQ_RADIO_NONE );
1241:Middlewares/Third_Party/SubGHz_Phy/stm32_radio_driver/radio.c ****     /* ST_WORKAROUND_END */
1242:Middlewares/Third_Party/SubGHz_Phy/stm32_radio_driver/radio.c **** 
1243:Middlewares/Third_Party/SubGHz_Phy/stm32_radio_driver/radio.c ****     /* ST_WORKAROUND_BEGIN : Set the debug pin and update the radio switch */
1244:Middlewares/Third_Party/SubGHz_Phy/stm32_radio_driver/radio.c ****     /* Set DBG pin */
1245:Middlewares/Third_Party/SubGHz_Phy/stm32_radio_driver/radio.c ****     DBG_GPIO_RADIO_TX(SET);
1246:Middlewares/Third_Party/SubGHz_Phy/stm32_radio_driver/radio.c **** 
1247:Middlewares/Third_Party/SubGHz_Phy/stm32_radio_driver/radio.c ****     /* Set RF switch */
1248:Middlewares/Third_Party/SubGHz_Phy/stm32_radio_driver/radio.c ****     SUBGRF_SetSwitch(SubgRf.AntSwitchPaSelect, RFSWITCH_TX);
ARM GAS  C:\Users\NATHAN~1\AppData\Local\Temp\cc90iGN6.s 			page 33


1249:Middlewares/Third_Party/SubGHz_Phy/stm32_radio_driver/radio.c ****     /* WORKAROUND - Modulation Quality with 500 kHz LoRaTM Bandwidth*/
1250:Middlewares/Third_Party/SubGHz_Phy/stm32_radio_driver/radio.c ****     /* RegTxModulation = @address 0x0889 */
1251:Middlewares/Third_Party/SubGHz_Phy/stm32_radio_driver/radio.c ****     if((SubgRf.Modem==MODEM_LORA) && (SubgRf.ModulationParams.Params.LoRa.Bandwidth == LORA_BW_500 
1252:Middlewares/Third_Party/SubGHz_Phy/stm32_radio_driver/radio.c ****     {
1253:Middlewares/Third_Party/SubGHz_Phy/stm32_radio_driver/radio.c ****         SUBGRF_WriteRegister( 0x0889, SUBGRF_ReadRegister( 0x0889 ) & ~( 1 << 2 ) );
1254:Middlewares/Third_Party/SubGHz_Phy/stm32_radio_driver/radio.c ****     }
1255:Middlewares/Third_Party/SubGHz_Phy/stm32_radio_driver/radio.c ****     else
1256:Middlewares/Third_Party/SubGHz_Phy/stm32_radio_driver/radio.c ****     {
1257:Middlewares/Third_Party/SubGHz_Phy/stm32_radio_driver/radio.c ****         SUBGRF_WriteRegister( 0x0889, SUBGRF_ReadRegister( 0x0889 ) | ( 1 << 2 ) );
1258:Middlewares/Third_Party/SubGHz_Phy/stm32_radio_driver/radio.c ****     }
1259:Middlewares/Third_Party/SubGHz_Phy/stm32_radio_driver/radio.c ****     /* WORKAROUND END */
1260:Middlewares/Third_Party/SubGHz_Phy/stm32_radio_driver/radio.c ****     switch(SubgRf.Modem)
1261:Middlewares/Third_Party/SubGHz_Phy/stm32_radio_driver/radio.c ****     {
1262:Middlewares/Third_Party/SubGHz_Phy/stm32_radio_driver/radio.c ****         case MODEM_LORA:
1263:Middlewares/Third_Party/SubGHz_Phy/stm32_radio_driver/radio.c ****         {
1264:Middlewares/Third_Party/SubGHz_Phy/stm32_radio_driver/radio.c ****             SubgRf.PacketParams.Params.LoRa.PayloadLength = size;
1265:Middlewares/Third_Party/SubGHz_Phy/stm32_radio_driver/radio.c ****             SUBGRF_SetPacketParams( &SubgRf.PacketParams );
1266:Middlewares/Third_Party/SubGHz_Phy/stm32_radio_driver/radio.c ****             SUBGRF_SendPayload( buffer, size, 0 );
1267:Middlewares/Third_Party/SubGHz_Phy/stm32_radio_driver/radio.c ****             break;
1268:Middlewares/Third_Party/SubGHz_Phy/stm32_radio_driver/radio.c ****         }
1269:Middlewares/Third_Party/SubGHz_Phy/stm32_radio_driver/radio.c ****         case MODEM_FSK:
1270:Middlewares/Third_Party/SubGHz_Phy/stm32_radio_driver/radio.c ****         {
1271:Middlewares/Third_Party/SubGHz_Phy/stm32_radio_driver/radio.c ****             if ( 1UL == RFW_Is_Init( ) )
1272:Middlewares/Third_Party/SubGHz_Phy/stm32_radio_driver/radio.c ****             {
1273:Middlewares/Third_Party/SubGHz_Phy/stm32_radio_driver/radio.c ****               uint8_t outsize;
1274:Middlewares/Third_Party/SubGHz_Phy/stm32_radio_driver/radio.c ****               if ( 0UL == RFW_TransmitInit( buffer,size, &outsize ) )
1275:Middlewares/Third_Party/SubGHz_Phy/stm32_radio_driver/radio.c ****               {
1276:Middlewares/Third_Party/SubGHz_Phy/stm32_radio_driver/radio.c ****                   SubgRf.PacketParams.Params.Gfsk.PayloadLength = outsize;
1277:Middlewares/Third_Party/SubGHz_Phy/stm32_radio_driver/radio.c ****                   SUBGRF_SetPacketParams( &SubgRf.PacketParams );
1278:Middlewares/Third_Party/SubGHz_Phy/stm32_radio_driver/radio.c ****                   SUBGRF_SendPayload( buffer, outsize, 0 );
1279:Middlewares/Third_Party/SubGHz_Phy/stm32_radio_driver/radio.c ****               }
1280:Middlewares/Third_Party/SubGHz_Phy/stm32_radio_driver/radio.c ****               else
1281:Middlewares/Third_Party/SubGHz_Phy/stm32_radio_driver/radio.c ****               {
1282:Middlewares/Third_Party/SubGHz_Phy/stm32_radio_driver/radio.c ****                 MW_LOG( TS_ON, VLEVEL_M, "RadioSend Oversize\r\n");
1283:Middlewares/Third_Party/SubGHz_Phy/stm32_radio_driver/radio.c ****                 return;
1284:Middlewares/Third_Party/SubGHz_Phy/stm32_radio_driver/radio.c ****               }
1285:Middlewares/Third_Party/SubGHz_Phy/stm32_radio_driver/radio.c ****             }
1286:Middlewares/Third_Party/SubGHz_Phy/stm32_radio_driver/radio.c ****             else
1287:Middlewares/Third_Party/SubGHz_Phy/stm32_radio_driver/radio.c ****             {
1288:Middlewares/Third_Party/SubGHz_Phy/stm32_radio_driver/radio.c ****               SubgRf.PacketParams.Params.Gfsk.PayloadLength = size;
1289:Middlewares/Third_Party/SubGHz_Phy/stm32_radio_driver/radio.c ****               SUBGRF_SetPacketParams( &SubgRf.PacketParams );
1290:Middlewares/Third_Party/SubGHz_Phy/stm32_radio_driver/radio.c ****               SUBGRF_SendPayload( buffer, size, 0 );
1291:Middlewares/Third_Party/SubGHz_Phy/stm32_radio_driver/radio.c ****             }
1292:Middlewares/Third_Party/SubGHz_Phy/stm32_radio_driver/radio.c ****             break;
1293:Middlewares/Third_Party/SubGHz_Phy/stm32_radio_driver/radio.c ****         }
1294:Middlewares/Third_Party/SubGHz_Phy/stm32_radio_driver/radio.c ****         case MODEM_BPSK:
1295:Middlewares/Third_Party/SubGHz_Phy/stm32_radio_driver/radio.c ****         {
1296:Middlewares/Third_Party/SubGHz_Phy/stm32_radio_driver/radio.c ****             SubgRf.PacketParams.PacketType = PACKET_TYPE_BPSK;
1297:Middlewares/Third_Party/SubGHz_Phy/stm32_radio_driver/radio.c ****             SubgRf.PacketParams.Params.Bpsk.PayloadLength = size;
1298:Middlewares/Third_Party/SubGHz_Phy/stm32_radio_driver/radio.c ****             SUBGRF_SetPacketParams( &SubgRf.PacketParams );
1299:Middlewares/Third_Party/SubGHz_Phy/stm32_radio_driver/radio.c ****             SUBGRF_SendPayload( buffer, size, 0 );
1300:Middlewares/Third_Party/SubGHz_Phy/stm32_radio_driver/radio.c ****             break;
1301:Middlewares/Third_Party/SubGHz_Phy/stm32_radio_driver/radio.c ****         }
1302:Middlewares/Third_Party/SubGHz_Phy/stm32_radio_driver/radio.c ****         case MODEM_SIGFOX_TX:
1303:Middlewares/Third_Party/SubGHz_Phy/stm32_radio_driver/radio.c ****         {
1304:Middlewares/Third_Party/SubGHz_Phy/stm32_radio_driver/radio.c ****             /* from bpsk to dbpsk */
1305:Middlewares/Third_Party/SubGHz_Phy/stm32_radio_driver/radio.c ****             /* first 1 bit duplicated */
ARM GAS  C:\Users\NATHAN~1\AppData\Local\Temp\cc90iGN6.s 			page 34


1306:Middlewares/Third_Party/SubGHz_Phy/stm32_radio_driver/radio.c ****             /* RadioBuffer is 1 bytes more */
1307:Middlewares/Third_Party/SubGHz_Phy/stm32_radio_driver/radio.c ****             payload_integration( RadioBuffer, buffer, size );
1308:Middlewares/Third_Party/SubGHz_Phy/stm32_radio_driver/radio.c **** 
1309:Middlewares/Third_Party/SubGHz_Phy/stm32_radio_driver/radio.c ****             SubgRf.PacketParams.PacketType = PACKET_TYPE_BPSK;
1310:Middlewares/Third_Party/SubGHz_Phy/stm32_radio_driver/radio.c ****             SubgRf.PacketParams.Params.Bpsk.PayloadLength = size + 1;
1311:Middlewares/Third_Party/SubGHz_Phy/stm32_radio_driver/radio.c ****             SUBGRF_SetPacketParams( &SubgRf.PacketParams );
1312:Middlewares/Third_Party/SubGHz_Phy/stm32_radio_driver/radio.c **** 
1313:Middlewares/Third_Party/SubGHz_Phy/stm32_radio_driver/radio.c ****             RadioWrite( 0x00F1, 0 ); // clean start-up LSB
1314:Middlewares/Third_Party/SubGHz_Phy/stm32_radio_driver/radio.c ****             RadioWrite( 0x00F0, 0 ); // clean start-up MSB
1315:Middlewares/Third_Party/SubGHz_Phy/stm32_radio_driver/radio.c ****             if( SubgRf.ModulationParams.Params.Bpsk.BitRate == 100 )
1316:Middlewares/Third_Party/SubGHz_Phy/stm32_radio_driver/radio.c ****             {
1317:Middlewares/Third_Party/SubGHz_Phy/stm32_radio_driver/radio.c ****                 RadioWrite( 0x00F3, 0x70 ); // clean end of frame LSB
1318:Middlewares/Third_Party/SubGHz_Phy/stm32_radio_driver/radio.c ****                 RadioWrite( 0x00F2, 0x1D ); // clean end of frame MSB
1319:Middlewares/Third_Party/SubGHz_Phy/stm32_radio_driver/radio.c ****             }
1320:Middlewares/Third_Party/SubGHz_Phy/stm32_radio_driver/radio.c ****             else // 600 bps
1321:Middlewares/Third_Party/SubGHz_Phy/stm32_radio_driver/radio.c ****             {
1322:Middlewares/Third_Party/SubGHz_Phy/stm32_radio_driver/radio.c ****                 RadioWrite( 0x00F3, 0xE1 ); // clean end of frame LSB
1323:Middlewares/Third_Party/SubGHz_Phy/stm32_radio_driver/radio.c ****                 RadioWrite( 0x00F2, 0x04 ); // clean end of frame MSB
1324:Middlewares/Third_Party/SubGHz_Phy/stm32_radio_driver/radio.c ****             }
1325:Middlewares/Third_Party/SubGHz_Phy/stm32_radio_driver/radio.c **** 
1326:Middlewares/Third_Party/SubGHz_Phy/stm32_radio_driver/radio.c ****             uint16_t bitNum = ( size * 8 ) + 2;
1327:Middlewares/Third_Party/SubGHz_Phy/stm32_radio_driver/radio.c ****             RadioWrite( 0x00F4, ( bitNum >> 8 ) & 0x00FF );    // limit frame
1328:Middlewares/Third_Party/SubGHz_Phy/stm32_radio_driver/radio.c ****             RadioWrite( 0x00F5, bitNum & 0x00FF );             // limit frame
1329:Middlewares/Third_Party/SubGHz_Phy/stm32_radio_driver/radio.c ****             SUBGRF_SendPayload( RadioBuffer, size+1 , 0xFFFFFF );
1330:Middlewares/Third_Party/SubGHz_Phy/stm32_radio_driver/radio.c ****             break;
1331:Middlewares/Third_Party/SubGHz_Phy/stm32_radio_driver/radio.c ****         }
1332:Middlewares/Third_Party/SubGHz_Phy/stm32_radio_driver/radio.c ****         default:
1333:Middlewares/Third_Party/SubGHz_Phy/stm32_radio_driver/radio.c ****             break;
1334:Middlewares/Third_Party/SubGHz_Phy/stm32_radio_driver/radio.c ****     }
1335:Middlewares/Third_Party/SubGHz_Phy/stm32_radio_driver/radio.c **** 
1336:Middlewares/Third_Party/SubGHz_Phy/stm32_radio_driver/radio.c ****     TimerSetValue( &TxTimeoutTimer, SubgRf.TxTimeout );
1337:Middlewares/Third_Party/SubGHz_Phy/stm32_radio_driver/radio.c ****     TimerStart( &TxTimeoutTimer );
1338:Middlewares/Third_Party/SubGHz_Phy/stm32_radio_driver/radio.c **** }
1339:Middlewares/Third_Party/SubGHz_Phy/stm32_radio_driver/radio.c **** 
1340:Middlewares/Third_Party/SubGHz_Phy/stm32_radio_driver/radio.c **** static void RadioSleep( void )
1341:Middlewares/Third_Party/SubGHz_Phy/stm32_radio_driver/radio.c **** {
1342:Middlewares/Third_Party/SubGHz_Phy/stm32_radio_driver/radio.c ****     SleepParams_t params = { 0 };
1343:Middlewares/Third_Party/SubGHz_Phy/stm32_radio_driver/radio.c **** 
1344:Middlewares/Third_Party/SubGHz_Phy/stm32_radio_driver/radio.c ****     params.Fields.WarmStart = 1;
1345:Middlewares/Third_Party/SubGHz_Phy/stm32_radio_driver/radio.c ****     SUBGRF_SetSleep( params );
1346:Middlewares/Third_Party/SubGHz_Phy/stm32_radio_driver/radio.c **** 
1347:Middlewares/Third_Party/SubGHz_Phy/stm32_radio_driver/radio.c ****     RADIO_DELAY_MS( 2 );
1348:Middlewares/Third_Party/SubGHz_Phy/stm32_radio_driver/radio.c **** }
1349:Middlewares/Third_Party/SubGHz_Phy/stm32_radio_driver/radio.c **** 
1350:Middlewares/Third_Party/SubGHz_Phy/stm32_radio_driver/radio.c **** static void RadioStandby( void )
1351:Middlewares/Third_Party/SubGHz_Phy/stm32_radio_driver/radio.c **** {
1352:Middlewares/Third_Party/SubGHz_Phy/stm32_radio_driver/radio.c ****     SUBGRF_SetStandby( STDBY_RC );
1353:Middlewares/Third_Party/SubGHz_Phy/stm32_radio_driver/radio.c **** }
1354:Middlewares/Third_Party/SubGHz_Phy/stm32_radio_driver/radio.c **** 
1355:Middlewares/Third_Party/SubGHz_Phy/stm32_radio_driver/radio.c **** static void RadioRx( uint32_t timeout )
1356:Middlewares/Third_Party/SubGHz_Phy/stm32_radio_driver/radio.c **** {
1357:Middlewares/Third_Party/SubGHz_Phy/stm32_radio_driver/radio.c ****     if ( 1UL == RFW_Is_Init( ) )
1358:Middlewares/Third_Party/SubGHz_Phy/stm32_radio_driver/radio.c ****     {
1359:Middlewares/Third_Party/SubGHz_Phy/stm32_radio_driver/radio.c ****       RFW_ReceiveInit( );
1360:Middlewares/Third_Party/SubGHz_Phy/stm32_radio_driver/radio.c ****     }
1361:Middlewares/Third_Party/SubGHz_Phy/stm32_radio_driver/radio.c ****     else
1362:Middlewares/Third_Party/SubGHz_Phy/stm32_radio_driver/radio.c ****     {
ARM GAS  C:\Users\NATHAN~1\AppData\Local\Temp\cc90iGN6.s 			page 35


1363:Middlewares/Third_Party/SubGHz_Phy/stm32_radio_driver/radio.c ****       SUBGRF_SetDioIrqParams( IRQ_RX_DONE | IRQ_RX_TX_TIMEOUT | IRQ_CRC_ERROR | IRQ_HEADER_ERROR | 
1364:Middlewares/Third_Party/SubGHz_Phy/stm32_radio_driver/radio.c ****                               IRQ_RX_DONE | IRQ_RX_TX_TIMEOUT | IRQ_CRC_ERROR | IRQ_HEADER_ERROR | 
1365:Middlewares/Third_Party/SubGHz_Phy/stm32_radio_driver/radio.c ****                               IRQ_RADIO_NONE,
1366:Middlewares/Third_Party/SubGHz_Phy/stm32_radio_driver/radio.c ****                               IRQ_RADIO_NONE );
1367:Middlewares/Third_Party/SubGHz_Phy/stm32_radio_driver/radio.c ****     }
1368:Middlewares/Third_Party/SubGHz_Phy/stm32_radio_driver/radio.c **** 
1369:Middlewares/Third_Party/SubGHz_Phy/stm32_radio_driver/radio.c ****     if( timeout != 0 )
1370:Middlewares/Third_Party/SubGHz_Phy/stm32_radio_driver/radio.c ****     {
1371:Middlewares/Third_Party/SubGHz_Phy/stm32_radio_driver/radio.c ****         TimerSetValue( &RxTimeoutTimer, timeout );
1372:Middlewares/Third_Party/SubGHz_Phy/stm32_radio_driver/radio.c ****         TimerStart( &RxTimeoutTimer );
1373:Middlewares/Third_Party/SubGHz_Phy/stm32_radio_driver/radio.c ****     }
1374:Middlewares/Third_Party/SubGHz_Phy/stm32_radio_driver/radio.c **** 
1375:Middlewares/Third_Party/SubGHz_Phy/stm32_radio_driver/radio.c ****     /* ST_WORKAROUND_BEGIN : Set the debug pin and update the radio switch */
1376:Middlewares/Third_Party/SubGHz_Phy/stm32_radio_driver/radio.c ****     /* Set DBG pin */
1377:Middlewares/Third_Party/SubGHz_Phy/stm32_radio_driver/radio.c ****     DBG_GPIO_RADIO_RX(SET);
1378:Middlewares/Third_Party/SubGHz_Phy/stm32_radio_driver/radio.c **** 
1379:Middlewares/Third_Party/SubGHz_Phy/stm32_radio_driver/radio.c ****     /* RF switch configuration */
1380:Middlewares/Third_Party/SubGHz_Phy/stm32_radio_driver/radio.c ****     SUBGRF_SetSwitch(SubgRf.AntSwitchPaSelect, RFSWITCH_RX);
1381:Middlewares/Third_Party/SubGHz_Phy/stm32_radio_driver/radio.c ****     /* ST_WORKAROUND_END */
1382:Middlewares/Third_Party/SubGHz_Phy/stm32_radio_driver/radio.c **** 
1383:Middlewares/Third_Party/SubGHz_Phy/stm32_radio_driver/radio.c ****     if( SubgRf.RxContinuous == true )
1384:Middlewares/Third_Party/SubGHz_Phy/stm32_radio_driver/radio.c ****     {
1385:Middlewares/Third_Party/SubGHz_Phy/stm32_radio_driver/radio.c ****         SUBGRF_SetRx( 0xFFFFFF ); // Rx Continuous
1386:Middlewares/Third_Party/SubGHz_Phy/stm32_radio_driver/radio.c ****     }
1387:Middlewares/Third_Party/SubGHz_Phy/stm32_radio_driver/radio.c ****     else
1388:Middlewares/Third_Party/SubGHz_Phy/stm32_radio_driver/radio.c ****     {
1389:Middlewares/Third_Party/SubGHz_Phy/stm32_radio_driver/radio.c ****         SUBGRF_SetRx( SubgRf.RxTimeout << 6 );
1390:Middlewares/Third_Party/SubGHz_Phy/stm32_radio_driver/radio.c ****     }
1391:Middlewares/Third_Party/SubGHz_Phy/stm32_radio_driver/radio.c **** }
1392:Middlewares/Third_Party/SubGHz_Phy/stm32_radio_driver/radio.c **** 
1393:Middlewares/Third_Party/SubGHz_Phy/stm32_radio_driver/radio.c **** static void RadioRxBoosted( uint32_t timeout )
1394:Middlewares/Third_Party/SubGHz_Phy/stm32_radio_driver/radio.c **** {
1395:Middlewares/Third_Party/SubGHz_Phy/stm32_radio_driver/radio.c ****     if (1UL==RFW_Is_Init())
1396:Middlewares/Third_Party/SubGHz_Phy/stm32_radio_driver/radio.c ****     {
1397:Middlewares/Third_Party/SubGHz_Phy/stm32_radio_driver/radio.c ****       RFW_ReceiveInit();
1398:Middlewares/Third_Party/SubGHz_Phy/stm32_radio_driver/radio.c ****     }
1399:Middlewares/Third_Party/SubGHz_Phy/stm32_radio_driver/radio.c ****     else
1400:Middlewares/Third_Party/SubGHz_Phy/stm32_radio_driver/radio.c ****     {
1401:Middlewares/Third_Party/SubGHz_Phy/stm32_radio_driver/radio.c ****       SUBGRF_SetDioIrqParams( IRQ_RX_DONE | IRQ_RX_TX_TIMEOUT | IRQ_CRC_ERROR | IRQ_HEADER_ERROR | 
1402:Middlewares/Third_Party/SubGHz_Phy/stm32_radio_driver/radio.c ****                               IRQ_RX_DONE | IRQ_RX_TX_TIMEOUT | IRQ_CRC_ERROR | IRQ_HEADER_ERROR | 
1403:Middlewares/Third_Party/SubGHz_Phy/stm32_radio_driver/radio.c ****                               IRQ_RADIO_NONE,
1404:Middlewares/Third_Party/SubGHz_Phy/stm32_radio_driver/radio.c ****                               IRQ_RADIO_NONE );
1405:Middlewares/Third_Party/SubGHz_Phy/stm32_radio_driver/radio.c ****     }
1406:Middlewares/Third_Party/SubGHz_Phy/stm32_radio_driver/radio.c ****     if( timeout != 0 )
1407:Middlewares/Third_Party/SubGHz_Phy/stm32_radio_driver/radio.c ****     {
1408:Middlewares/Third_Party/SubGHz_Phy/stm32_radio_driver/radio.c ****         TimerSetValue( &RxTimeoutTimer, timeout );
1409:Middlewares/Third_Party/SubGHz_Phy/stm32_radio_driver/radio.c ****         TimerStart( &RxTimeoutTimer );
1410:Middlewares/Third_Party/SubGHz_Phy/stm32_radio_driver/radio.c ****     }
1411:Middlewares/Third_Party/SubGHz_Phy/stm32_radio_driver/radio.c **** 
1412:Middlewares/Third_Party/SubGHz_Phy/stm32_radio_driver/radio.c ****     /* RF switch configuration */
1413:Middlewares/Third_Party/SubGHz_Phy/stm32_radio_driver/radio.c ****     SUBGRF_SetSwitch(SubgRf.AntSwitchPaSelect, RFSWITCH_RX);
1414:Middlewares/Third_Party/SubGHz_Phy/stm32_radio_driver/radio.c **** 
1415:Middlewares/Third_Party/SubGHz_Phy/stm32_radio_driver/radio.c ****     if( SubgRf.RxContinuous == true )
1416:Middlewares/Third_Party/SubGHz_Phy/stm32_radio_driver/radio.c ****     {
1417:Middlewares/Third_Party/SubGHz_Phy/stm32_radio_driver/radio.c ****         SUBGRF_SetRxBoosted( 0xFFFFFF ); // Rx Continuous
1418:Middlewares/Third_Party/SubGHz_Phy/stm32_radio_driver/radio.c ****     }
1419:Middlewares/Third_Party/SubGHz_Phy/stm32_radio_driver/radio.c ****     else
ARM GAS  C:\Users\NATHAN~1\AppData\Local\Temp\cc90iGN6.s 			page 36


1420:Middlewares/Third_Party/SubGHz_Phy/stm32_radio_driver/radio.c ****     {
1421:Middlewares/Third_Party/SubGHz_Phy/stm32_radio_driver/radio.c ****         SUBGRF_SetRxBoosted( SubgRf.RxTimeout << 6 );
1422:Middlewares/Third_Party/SubGHz_Phy/stm32_radio_driver/radio.c ****     }
1423:Middlewares/Third_Party/SubGHz_Phy/stm32_radio_driver/radio.c **** }
1424:Middlewares/Third_Party/SubGHz_Phy/stm32_radio_driver/radio.c **** 
1425:Middlewares/Third_Party/SubGHz_Phy/stm32_radio_driver/radio.c **** static void RadioSetRxDutyCycle( uint32_t rxTime, uint32_t sleepTime )
1426:Middlewares/Third_Party/SubGHz_Phy/stm32_radio_driver/radio.c **** {
1427:Middlewares/Third_Party/SubGHz_Phy/stm32_radio_driver/radio.c ****     /* RF switch configuration */
1428:Middlewares/Third_Party/SubGHz_Phy/stm32_radio_driver/radio.c ****     SUBGRF_SetSwitch(SubgRf.AntSwitchPaSelect, RFSWITCH_RX);
1429:Middlewares/Third_Party/SubGHz_Phy/stm32_radio_driver/radio.c **** 
1430:Middlewares/Third_Party/SubGHz_Phy/stm32_radio_driver/radio.c ****     SUBGRF_SetRxDutyCycle( rxTime, sleepTime );
1431:Middlewares/Third_Party/SubGHz_Phy/stm32_radio_driver/radio.c **** }
1432:Middlewares/Third_Party/SubGHz_Phy/stm32_radio_driver/radio.c **** 
1433:Middlewares/Third_Party/SubGHz_Phy/stm32_radio_driver/radio.c **** static void RadioStartCad( void )
1434:Middlewares/Third_Party/SubGHz_Phy/stm32_radio_driver/radio.c **** {
1435:Middlewares/Third_Party/SubGHz_Phy/stm32_radio_driver/radio.c ****     /* RF switch configuration */
1436:Middlewares/Third_Party/SubGHz_Phy/stm32_radio_driver/radio.c ****     SUBGRF_SetSwitch(SubgRf.AntSwitchPaSelect, RFSWITCH_RX);
1437:Middlewares/Third_Party/SubGHz_Phy/stm32_radio_driver/radio.c **** 
1438:Middlewares/Third_Party/SubGHz_Phy/stm32_radio_driver/radio.c ****     SUBGRF_SetDioIrqParams( IRQ_CAD_CLEAR | IRQ_CAD_DETECTED,
1439:Middlewares/Third_Party/SubGHz_Phy/stm32_radio_driver/radio.c ****                             IRQ_CAD_CLEAR | IRQ_CAD_DETECTED,
1440:Middlewares/Third_Party/SubGHz_Phy/stm32_radio_driver/radio.c ****                             IRQ_RADIO_NONE,
1441:Middlewares/Third_Party/SubGHz_Phy/stm32_radio_driver/radio.c ****                             IRQ_RADIO_NONE );
1442:Middlewares/Third_Party/SubGHz_Phy/stm32_radio_driver/radio.c ****     SUBGRF_SetCad( );
1443:Middlewares/Third_Party/SubGHz_Phy/stm32_radio_driver/radio.c **** }
1444:Middlewares/Third_Party/SubGHz_Phy/stm32_radio_driver/radio.c **** 
1445:Middlewares/Third_Party/SubGHz_Phy/stm32_radio_driver/radio.c **** static void RadioSetTxContinuousWave( uint32_t freq, int8_t power, uint16_t time )
1446:Middlewares/Third_Party/SubGHz_Phy/stm32_radio_driver/radio.c **** {
1447:Middlewares/Third_Party/SubGHz_Phy/stm32_radio_driver/radio.c ****     uint32_t timeout = ( uint32_t )time * 1000;
1448:Middlewares/Third_Party/SubGHz_Phy/stm32_radio_driver/radio.c ****     uint8_t antswitchpow;
1449:Middlewares/Third_Party/SubGHz_Phy/stm32_radio_driver/radio.c **** 
1450:Middlewares/Third_Party/SubGHz_Phy/stm32_radio_driver/radio.c ****     SUBGRF_SetRfFrequency( freq );
1451:Middlewares/Third_Party/SubGHz_Phy/stm32_radio_driver/radio.c **** 
1452:Middlewares/Third_Party/SubGHz_Phy/stm32_radio_driver/radio.c ****     antswitchpow = SUBGRF_SetRfTxPower( power );
1453:Middlewares/Third_Party/SubGHz_Phy/stm32_radio_driver/radio.c **** 
1454:Middlewares/Third_Party/SubGHz_Phy/stm32_radio_driver/radio.c ****     /* Set RF switch */
1455:Middlewares/Third_Party/SubGHz_Phy/stm32_radio_driver/radio.c ****     SUBGRF_SetSwitch(antswitchpow, RFSWITCH_TX);
1456:Middlewares/Third_Party/SubGHz_Phy/stm32_radio_driver/radio.c **** 
1457:Middlewares/Third_Party/SubGHz_Phy/stm32_radio_driver/radio.c ****     SUBGRF_SetTxContinuousWave( );
1458:Middlewares/Third_Party/SubGHz_Phy/stm32_radio_driver/radio.c **** 
1459:Middlewares/Third_Party/SubGHz_Phy/stm32_radio_driver/radio.c ****     TimerSetValue( &TxTimeoutTimer, timeout );
1460:Middlewares/Third_Party/SubGHz_Phy/stm32_radio_driver/radio.c ****     TimerStart( &TxTimeoutTimer );
1461:Middlewares/Third_Party/SubGHz_Phy/stm32_radio_driver/radio.c **** }
1462:Middlewares/Third_Party/SubGHz_Phy/stm32_radio_driver/radio.c **** 
1463:Middlewares/Third_Party/SubGHz_Phy/stm32_radio_driver/radio.c **** static int16_t RadioRssi( RadioModems_t modem )
1464:Middlewares/Third_Party/SubGHz_Phy/stm32_radio_driver/radio.c **** {
1465:Middlewares/Third_Party/SubGHz_Phy/stm32_radio_driver/radio.c ****     return SUBGRF_GetRssiInst( );
1466:Middlewares/Third_Party/SubGHz_Phy/stm32_radio_driver/radio.c **** }
1467:Middlewares/Third_Party/SubGHz_Phy/stm32_radio_driver/radio.c **** 
1468:Middlewares/Third_Party/SubGHz_Phy/stm32_radio_driver/radio.c **** static void RadioWrite( uint16_t addr, uint8_t data )
1469:Middlewares/Third_Party/SubGHz_Phy/stm32_radio_driver/radio.c **** {
1470:Middlewares/Third_Party/SubGHz_Phy/stm32_radio_driver/radio.c ****     SUBGRF_WriteRegister(addr, data );
1471:Middlewares/Third_Party/SubGHz_Phy/stm32_radio_driver/radio.c **** }
1472:Middlewares/Third_Party/SubGHz_Phy/stm32_radio_driver/radio.c **** 
1473:Middlewares/Third_Party/SubGHz_Phy/stm32_radio_driver/radio.c **** static uint8_t RadioRead( uint16_t addr )
1474:Middlewares/Third_Party/SubGHz_Phy/stm32_radio_driver/radio.c **** {
1475:Middlewares/Third_Party/SubGHz_Phy/stm32_radio_driver/radio.c ****     return SUBGRF_ReadRegister(addr);
1476:Middlewares/Third_Party/SubGHz_Phy/stm32_radio_driver/radio.c **** }
ARM GAS  C:\Users\NATHAN~1\AppData\Local\Temp\cc90iGN6.s 			page 37


1477:Middlewares/Third_Party/SubGHz_Phy/stm32_radio_driver/radio.c **** 
1478:Middlewares/Third_Party/SubGHz_Phy/stm32_radio_driver/radio.c **** static void RadioWriteRegisters( uint16_t addr, uint8_t *buffer, uint8_t size )
1479:Middlewares/Third_Party/SubGHz_Phy/stm32_radio_driver/radio.c **** {
1480:Middlewares/Third_Party/SubGHz_Phy/stm32_radio_driver/radio.c ****     SUBGRF_WriteRegisters( addr, buffer, size );
1481:Middlewares/Third_Party/SubGHz_Phy/stm32_radio_driver/radio.c **** }
1482:Middlewares/Third_Party/SubGHz_Phy/stm32_radio_driver/radio.c **** 
1483:Middlewares/Third_Party/SubGHz_Phy/stm32_radio_driver/radio.c **** static void RadioReadRegisters( uint16_t addr, uint8_t *buffer, uint8_t size )
1484:Middlewares/Third_Party/SubGHz_Phy/stm32_radio_driver/radio.c **** {
1485:Middlewares/Third_Party/SubGHz_Phy/stm32_radio_driver/radio.c ****     SUBGRF_ReadRegisters( addr, buffer, size );
1486:Middlewares/Third_Party/SubGHz_Phy/stm32_radio_driver/radio.c **** }
1487:Middlewares/Third_Party/SubGHz_Phy/stm32_radio_driver/radio.c **** 
1488:Middlewares/Third_Party/SubGHz_Phy/stm32_radio_driver/radio.c **** static void RadioSetMaxPayloadLength( RadioModems_t modem, uint8_t max )
1489:Middlewares/Third_Party/SubGHz_Phy/stm32_radio_driver/radio.c **** {
1490:Middlewares/Third_Party/SubGHz_Phy/stm32_radio_driver/radio.c ****     if( modem == MODEM_LORA )
1491:Middlewares/Third_Party/SubGHz_Phy/stm32_radio_driver/radio.c ****     {
1492:Middlewares/Third_Party/SubGHz_Phy/stm32_radio_driver/radio.c ****         SubgRf.PacketParams.Params.LoRa.PayloadLength = MaxPayloadLength = max;
1493:Middlewares/Third_Party/SubGHz_Phy/stm32_radio_driver/radio.c ****         SUBGRF_SetPacketParams( &SubgRf.PacketParams );
1494:Middlewares/Third_Party/SubGHz_Phy/stm32_radio_driver/radio.c ****     }
1495:Middlewares/Third_Party/SubGHz_Phy/stm32_radio_driver/radio.c ****     else
1496:Middlewares/Third_Party/SubGHz_Phy/stm32_radio_driver/radio.c ****     {
1497:Middlewares/Third_Party/SubGHz_Phy/stm32_radio_driver/radio.c ****         if( SubgRf.PacketParams.Params.Gfsk.HeaderType == RADIO_PACKET_VARIABLE_LENGTH )
1498:Middlewares/Third_Party/SubGHz_Phy/stm32_radio_driver/radio.c ****         {
1499:Middlewares/Third_Party/SubGHz_Phy/stm32_radio_driver/radio.c ****             SubgRf.PacketParams.Params.Gfsk.PayloadLength = MaxPayloadLength = max;
1500:Middlewares/Third_Party/SubGHz_Phy/stm32_radio_driver/radio.c ****             SUBGRF_SetPacketParams( &SubgRf.PacketParams );
1501:Middlewares/Third_Party/SubGHz_Phy/stm32_radio_driver/radio.c ****         }
1502:Middlewares/Third_Party/SubGHz_Phy/stm32_radio_driver/radio.c ****     }
1503:Middlewares/Third_Party/SubGHz_Phy/stm32_radio_driver/radio.c **** }
1504:Middlewares/Third_Party/SubGHz_Phy/stm32_radio_driver/radio.c **** 
1505:Middlewares/Third_Party/SubGHz_Phy/stm32_radio_driver/radio.c **** static void RadioSetPublicNetwork( bool enable )
1506:Middlewares/Third_Party/SubGHz_Phy/stm32_radio_driver/radio.c **** {
1507:Middlewares/Third_Party/SubGHz_Phy/stm32_radio_driver/radio.c ****     SubgRf.PublicNetwork.Current = SubgRf.PublicNetwork.Previous = enable;
1508:Middlewares/Third_Party/SubGHz_Phy/stm32_radio_driver/radio.c **** 
1509:Middlewares/Third_Party/SubGHz_Phy/stm32_radio_driver/radio.c ****     RadioSetModem( MODEM_LORA );
1510:Middlewares/Third_Party/SubGHz_Phy/stm32_radio_driver/radio.c ****     if( enable == true )
1511:Middlewares/Third_Party/SubGHz_Phy/stm32_radio_driver/radio.c ****     {
1512:Middlewares/Third_Party/SubGHz_Phy/stm32_radio_driver/radio.c ****         // Change LoRa modem SyncWord
1513:Middlewares/Third_Party/SubGHz_Phy/stm32_radio_driver/radio.c ****         SUBGRF_WriteRegister( REG_LR_SYNCWORD, ( LORA_MAC_PUBLIC_SYNCWORD >> 8 ) & 0xFF );
1514:Middlewares/Third_Party/SubGHz_Phy/stm32_radio_driver/radio.c ****         SUBGRF_WriteRegister( REG_LR_SYNCWORD + 1, LORA_MAC_PUBLIC_SYNCWORD & 0xFF );
1515:Middlewares/Third_Party/SubGHz_Phy/stm32_radio_driver/radio.c ****     }
1516:Middlewares/Third_Party/SubGHz_Phy/stm32_radio_driver/radio.c ****     else
1517:Middlewares/Third_Party/SubGHz_Phy/stm32_radio_driver/radio.c ****     {
1518:Middlewares/Third_Party/SubGHz_Phy/stm32_radio_driver/radio.c ****         // Change LoRa modem SyncWord
1519:Middlewares/Third_Party/SubGHz_Phy/stm32_radio_driver/radio.c ****         SUBGRF_WriteRegister( REG_LR_SYNCWORD, ( LORA_MAC_PRIVATE_SYNCWORD >> 8 ) & 0xFF );
1520:Middlewares/Third_Party/SubGHz_Phy/stm32_radio_driver/radio.c ****         SUBGRF_WriteRegister( REG_LR_SYNCWORD + 1, LORA_MAC_PRIVATE_SYNCWORD & 0xFF );
1521:Middlewares/Third_Party/SubGHz_Phy/stm32_radio_driver/radio.c ****     }
1522:Middlewares/Third_Party/SubGHz_Phy/stm32_radio_driver/radio.c **** }
1523:Middlewares/Third_Party/SubGHz_Phy/stm32_radio_driver/radio.c **** 
1524:Middlewares/Third_Party/SubGHz_Phy/stm32_radio_driver/radio.c **** static uint32_t RadioGetWakeupTime( void )
1525:Middlewares/Third_Party/SubGHz_Phy/stm32_radio_driver/radio.c **** {
1526:Middlewares/Third_Party/SubGHz_Phy/stm32_radio_driver/radio.c ****     return SUBGRF_GetRadioWakeUpTime() + RADIO_WAKEUP_TIME;
1527:Middlewares/Third_Party/SubGHz_Phy/stm32_radio_driver/radio.c **** }
1528:Middlewares/Third_Party/SubGHz_Phy/stm32_radio_driver/radio.c **** 
1529:Middlewares/Third_Party/SubGHz_Phy/stm32_radio_driver/radio.c **** static void RadioOnTxTimeoutIrq( void* context )
1530:Middlewares/Third_Party/SubGHz_Phy/stm32_radio_driver/radio.c **** {
1531:Middlewares/Third_Party/SubGHz_Phy/stm32_radio_driver/radio.c ****     RADIO_TX_TIMEOUT_PROCESS();
1532:Middlewares/Third_Party/SubGHz_Phy/stm32_radio_driver/radio.c **** }
1533:Middlewares/Third_Party/SubGHz_Phy/stm32_radio_driver/radio.c **** 
ARM GAS  C:\Users\NATHAN~1\AppData\Local\Temp\cc90iGN6.s 			page 38


1534:Middlewares/Third_Party/SubGHz_Phy/stm32_radio_driver/radio.c **** static void RadioOnRxTimeoutIrq( void* context )
1535:Middlewares/Third_Party/SubGHz_Phy/stm32_radio_driver/radio.c **** {
1536:Middlewares/Third_Party/SubGHz_Phy/stm32_radio_driver/radio.c ****     RADIO_RX_TIMEOUT_PROCESS();
1537:Middlewares/Third_Party/SubGHz_Phy/stm32_radio_driver/radio.c **** }
1538:Middlewares/Third_Party/SubGHz_Phy/stm32_radio_driver/radio.c **** 
1539:Middlewares/Third_Party/SubGHz_Phy/stm32_radio_driver/radio.c **** static void RadioOnTxTimeoutProcess( void )
1540:Middlewares/Third_Party/SubGHz_Phy/stm32_radio_driver/radio.c **** {
 543              		.loc 1 1540 1 view -0
 544              		.cfi_startproc
 545              		@ args = 0, pretend = 0, frame = 0
 546              		@ frame_needed = 0, uses_anonymous_args = 0
 547 0000 08B5     		push	{r3, lr}
 548              	.LCFI5:
 549              		.cfi_def_cfa_offset 8
 550              		.cfi_offset 3, -8
 551              		.cfi_offset 14, -4
1541:Middlewares/Third_Party/SubGHz_Phy/stm32_radio_driver/radio.c ****     /* ST_WORKAROUND_BEGIN: Reset DBG pin */
1542:Middlewares/Third_Party/SubGHz_Phy/stm32_radio_driver/radio.c ****     DBG_GPIO_RADIO_TX(RST);
 552              		.loc 1 1542 27 view .LVU149
1543:Middlewares/Third_Party/SubGHz_Phy/stm32_radio_driver/radio.c ****     /* ST_WORKAROUND_END */
1544:Middlewares/Third_Party/SubGHz_Phy/stm32_radio_driver/radio.c **** 
1545:Middlewares/Third_Party/SubGHz_Phy/stm32_radio_driver/radio.c ****     if( ( RadioEvents != NULL ) && ( RadioEvents->TxTimeout != NULL ) )
 553              		.loc 1 1545 5 view .LVU150
 554              		.loc 1 1545 23 is_stmt 0 view .LVU151
 555 0002 034B     		ldr	r3, .L55
 556 0004 1B68     		ldr	r3, [r3]
 557              		.loc 1 1545 7 view .LVU152
 558 0006 13B1     		cbz	r3, .L52
 559              		.loc 1 1545 49 discriminator 1 view .LVU153
 560 0008 5B68     		ldr	r3, [r3, #4]
 561              		.loc 1 1545 33 discriminator 1 view .LVU154
 562 000a 03B1     		cbz	r3, .L52
1546:Middlewares/Third_Party/SubGHz_Phy/stm32_radio_driver/radio.c ****     {
1547:Middlewares/Third_Party/SubGHz_Phy/stm32_radio_driver/radio.c ****         RadioEvents->TxTimeout( );
 563              		.loc 1 1547 9 is_stmt 1 view .LVU155
 564 000c 9847     		blx	r3
 565              	.LVL72:
 566              	.L52:
1548:Middlewares/Third_Party/SubGHz_Phy/stm32_radio_driver/radio.c ****     }
1549:Middlewares/Third_Party/SubGHz_Phy/stm32_radio_driver/radio.c **** }
 567              		.loc 1 1549 1 is_stmt 0 view .LVU156
 568 000e 08BD     		pop	{r3, pc}
 569              	.L56:
 570              		.align	2
 571              	.L55:
 572 0010 00000000 		.word	.LANCHOR1
 573              		.cfi_endproc
 574              	.LFE1022:
 576              		.section	.text.RadioOnTxTimeoutIrq,"ax",%progbits
 577              		.align	1
 578              		.syntax unified
 579              		.thumb
 580              		.thumb_func
 582              	RadioOnTxTimeoutIrq:
 583              	.LVL73:
 584              	.LFB1020:
1530:Middlewares/Third_Party/SubGHz_Phy/stm32_radio_driver/radio.c ****     RADIO_TX_TIMEOUT_PROCESS();
ARM GAS  C:\Users\NATHAN~1\AppData\Local\Temp\cc90iGN6.s 			page 39


 585              		.loc 1 1530 1 is_stmt 1 view -0
 586              		.cfi_startproc
 587              		@ args = 0, pretend = 0, frame = 0
 588              		@ frame_needed = 0, uses_anonymous_args = 0
1530:Middlewares/Third_Party/SubGHz_Phy/stm32_radio_driver/radio.c ****     RADIO_TX_TIMEOUT_PROCESS();
 589              		.loc 1 1530 1 is_stmt 0 view .LVU158
 590 0000 08B5     		push	{r3, lr}
 591              	.LCFI6:
 592              		.cfi_def_cfa_offset 8
 593              		.cfi_offset 3, -8
 594              		.cfi_offset 14, -4
1531:Middlewares/Third_Party/SubGHz_Phy/stm32_radio_driver/radio.c **** }
 595              		.loc 1 1531 5 is_stmt 1 view .LVU159
 596 0002 FFF7FEFF 		bl	RadioOnTxTimeoutProcess
 597              	.LVL74:
1532:Middlewares/Third_Party/SubGHz_Phy/stm32_radio_driver/radio.c **** 
 598              		.loc 1 1532 1 is_stmt 0 view .LVU160
 599 0006 08BD     		pop	{r3, pc}
 600              		.cfi_endproc
 601              	.LFE1020:
 603              		.section	.text.RadioOnRxTimeoutProcess,"ax",%progbits
 604              		.align	1
 605              		.syntax unified
 606              		.thumb
 607              		.thumb_func
 609              	RadioOnRxTimeoutProcess:
 610              	.LFB1023:
1550:Middlewares/Third_Party/SubGHz_Phy/stm32_radio_driver/radio.c **** 
1551:Middlewares/Third_Party/SubGHz_Phy/stm32_radio_driver/radio.c **** static void RadioOnRxTimeoutProcess( void )
1552:Middlewares/Third_Party/SubGHz_Phy/stm32_radio_driver/radio.c **** {
 611              		.loc 1 1552 1 is_stmt 1 view -0
 612              		.cfi_startproc
 613              		@ args = 0, pretend = 0, frame = 0
 614              		@ frame_needed = 0, uses_anonymous_args = 0
 615 0000 08B5     		push	{r3, lr}
 616              	.LCFI7:
 617              		.cfi_def_cfa_offset 8
 618              		.cfi_offset 3, -8
 619              		.cfi_offset 14, -4
1553:Middlewares/Third_Party/SubGHz_Phy/stm32_radio_driver/radio.c ****     /* ST_WORKAROUND_BEGIN: Reset DBG pin */
1554:Middlewares/Third_Party/SubGHz_Phy/stm32_radio_driver/radio.c ****     DBG_GPIO_RADIO_RX(RST);
 620              		.loc 1 1554 27 view .LVU162
1555:Middlewares/Third_Party/SubGHz_Phy/stm32_radio_driver/radio.c ****     /* ST_WORKAROUND_END */
1556:Middlewares/Third_Party/SubGHz_Phy/stm32_radio_driver/radio.c **** 
1557:Middlewares/Third_Party/SubGHz_Phy/stm32_radio_driver/radio.c ****     if( ( RadioEvents != NULL ) && ( RadioEvents->RxTimeout != NULL ) )
 621              		.loc 1 1557 5 view .LVU163
 622              		.loc 1 1557 23 is_stmt 0 view .LVU164
 623 0002 034B     		ldr	r3, .L62
 624 0004 1B68     		ldr	r3, [r3]
 625              		.loc 1 1557 7 view .LVU165
 626 0006 13B1     		cbz	r3, .L59
 627              		.loc 1 1557 49 discriminator 1 view .LVU166
 628 0008 DB68     		ldr	r3, [r3, #12]
 629              		.loc 1 1557 33 discriminator 1 view .LVU167
 630 000a 03B1     		cbz	r3, .L59
1558:Middlewares/Third_Party/SubGHz_Phy/stm32_radio_driver/radio.c ****     {
1559:Middlewares/Third_Party/SubGHz_Phy/stm32_radio_driver/radio.c ****         RadioEvents->RxTimeout( );
ARM GAS  C:\Users\NATHAN~1\AppData\Local\Temp\cc90iGN6.s 			page 40


 631              		.loc 1 1559 9 is_stmt 1 view .LVU168
 632 000c 9847     		blx	r3
 633              	.LVL75:
 634              	.L59:
1560:Middlewares/Third_Party/SubGHz_Phy/stm32_radio_driver/radio.c ****     }
1561:Middlewares/Third_Party/SubGHz_Phy/stm32_radio_driver/radio.c **** }
 635              		.loc 1 1561 1 is_stmt 0 view .LVU169
 636 000e 08BD     		pop	{r3, pc}
 637              	.L63:
 638              		.align	2
 639              	.L62:
 640 0010 00000000 		.word	.LANCHOR1
 641              		.cfi_endproc
 642              	.LFE1023:
 644              		.section	.text.RadioOnRxTimeoutIrq,"ax",%progbits
 645              		.align	1
 646              		.syntax unified
 647              		.thumb
 648              		.thumb_func
 650              	RadioOnRxTimeoutIrq:
 651              	.LVL76:
 652              	.LFB1021:
1535:Middlewares/Third_Party/SubGHz_Phy/stm32_radio_driver/radio.c ****     RADIO_RX_TIMEOUT_PROCESS();
 653              		.loc 1 1535 1 is_stmt 1 view -0
 654              		.cfi_startproc
 655              		@ args = 0, pretend = 0, frame = 0
 656              		@ frame_needed = 0, uses_anonymous_args = 0
1535:Middlewares/Third_Party/SubGHz_Phy/stm32_radio_driver/radio.c ****     RADIO_RX_TIMEOUT_PROCESS();
 657              		.loc 1 1535 1 is_stmt 0 view .LVU171
 658 0000 08B5     		push	{r3, lr}
 659              	.LCFI8:
 660              		.cfi_def_cfa_offset 8
 661              		.cfi_offset 3, -8
 662              		.cfi_offset 14, -4
1536:Middlewares/Third_Party/SubGHz_Phy/stm32_radio_driver/radio.c **** }
 663              		.loc 1 1536 5 is_stmt 1 view .LVU172
 664 0002 FFF7FEFF 		bl	RadioOnRxTimeoutProcess
 665              	.LVL77:
1537:Middlewares/Third_Party/SubGHz_Phy/stm32_radio_driver/radio.c **** 
 666              		.loc 1 1537 1 is_stmt 0 view .LVU173
 667 0006 08BD     		pop	{r3, pc}
 668              		.cfi_endproc
 669              	.LFE1021:
 671              		.section	.text.payload_integration,"ax",%progbits
 672              		.align	1
 673              		.syntax unified
 674              		.thumb
 675              		.thumb_func
 677              	payload_integration:
 678              	.LVL78:
 679              	.LFB1028:
1562:Middlewares/Third_Party/SubGHz_Phy/stm32_radio_driver/radio.c **** 
1563:Middlewares/Third_Party/SubGHz_Phy/stm32_radio_driver/radio.c **** static void RadioOnDioIrq( RadioIrqMasks_t radioIrq )
1564:Middlewares/Third_Party/SubGHz_Phy/stm32_radio_driver/radio.c **** {
1565:Middlewares/Third_Party/SubGHz_Phy/stm32_radio_driver/radio.c ****     SubgRf.RadioIrq = radioIrq;
1566:Middlewares/Third_Party/SubGHz_Phy/stm32_radio_driver/radio.c **** 
1567:Middlewares/Third_Party/SubGHz_Phy/stm32_radio_driver/radio.c ****     RADIO_IRQ_PROCESS();
ARM GAS  C:\Users\NATHAN~1\AppData\Local\Temp\cc90iGN6.s 			page 41


1568:Middlewares/Third_Party/SubGHz_Phy/stm32_radio_driver/radio.c **** }
1569:Middlewares/Third_Party/SubGHz_Phy/stm32_radio_driver/radio.c **** 
1570:Middlewares/Third_Party/SubGHz_Phy/stm32_radio_driver/radio.c **** static void RadioIrqProcess( void )
1571:Middlewares/Third_Party/SubGHz_Phy/stm32_radio_driver/radio.c **** {
1572:Middlewares/Third_Party/SubGHz_Phy/stm32_radio_driver/radio.c ****     uint8_t size = 0;
1573:Middlewares/Third_Party/SubGHz_Phy/stm32_radio_driver/radio.c ****     int32_t cfo = 0;
1574:Middlewares/Third_Party/SubGHz_Phy/stm32_radio_driver/radio.c **** 
1575:Middlewares/Third_Party/SubGHz_Phy/stm32_radio_driver/radio.c ****     switch ( SubgRf.RadioIrq )
1576:Middlewares/Third_Party/SubGHz_Phy/stm32_radio_driver/radio.c ****     {
1577:Middlewares/Third_Party/SubGHz_Phy/stm32_radio_driver/radio.c ****     case IRQ_TX_DONE:
1578:Middlewares/Third_Party/SubGHz_Phy/stm32_radio_driver/radio.c ****         /* ST_WORKAROUND_BEGIN: Reset DBG pin */
1579:Middlewares/Third_Party/SubGHz_Phy/stm32_radio_driver/radio.c ****         DBG_GPIO_RADIO_TX(RST);
1580:Middlewares/Third_Party/SubGHz_Phy/stm32_radio_driver/radio.c ****         /* ST_WORKAROUND_END */
1581:Middlewares/Third_Party/SubGHz_Phy/stm32_radio_driver/radio.c **** 
1582:Middlewares/Third_Party/SubGHz_Phy/stm32_radio_driver/radio.c ****         TimerStop( &TxTimeoutTimer );
1583:Middlewares/Third_Party/SubGHz_Phy/stm32_radio_driver/radio.c ****         //!< Update operating mode state to a value lower than \ref MODE_STDBY_XOSC
1584:Middlewares/Third_Party/SubGHz_Phy/stm32_radio_driver/radio.c ****         SUBGRF_SetStandby( STDBY_RC );
1585:Middlewares/Third_Party/SubGHz_Phy/stm32_radio_driver/radio.c **** 
1586:Middlewares/Third_Party/SubGHz_Phy/stm32_radio_driver/radio.c ****         if ( RFW_Is_LongPacketModeEnabled() == 1 )
1587:Middlewares/Third_Party/SubGHz_Phy/stm32_radio_driver/radio.c ****         {
1588:Middlewares/Third_Party/SubGHz_Phy/stm32_radio_driver/radio.c ****             RFW_DeInit_TxLongPacket( );
1589:Middlewares/Third_Party/SubGHz_Phy/stm32_radio_driver/radio.c ****         }
1590:Middlewares/Third_Party/SubGHz_Phy/stm32_radio_driver/radio.c **** 
1591:Middlewares/Third_Party/SubGHz_Phy/stm32_radio_driver/radio.c ****         if( ( RadioEvents != NULL ) && ( RadioEvents->TxDone != NULL ) )
1592:Middlewares/Third_Party/SubGHz_Phy/stm32_radio_driver/radio.c ****         {
1593:Middlewares/Third_Party/SubGHz_Phy/stm32_radio_driver/radio.c ****             RadioEvents->TxDone( );
1594:Middlewares/Third_Party/SubGHz_Phy/stm32_radio_driver/radio.c ****         }
1595:Middlewares/Third_Party/SubGHz_Phy/stm32_radio_driver/radio.c ****         break;
1596:Middlewares/Third_Party/SubGHz_Phy/stm32_radio_driver/radio.c **** 
1597:Middlewares/Third_Party/SubGHz_Phy/stm32_radio_driver/radio.c ****     case IRQ_RX_DONE:
1598:Middlewares/Third_Party/SubGHz_Phy/stm32_radio_driver/radio.c ****         /* ST_WORKAROUND_BEGIN: Reset DBG pin */
1599:Middlewares/Third_Party/SubGHz_Phy/stm32_radio_driver/radio.c ****         DBG_GPIO_RADIO_RX(RST);
1600:Middlewares/Third_Party/SubGHz_Phy/stm32_radio_driver/radio.c ****         /* ST_WORKAROUND_END */
1601:Middlewares/Third_Party/SubGHz_Phy/stm32_radio_driver/radio.c **** 
1602:Middlewares/Third_Party/SubGHz_Phy/stm32_radio_driver/radio.c ****         TimerStop( &RxTimeoutTimer );
1603:Middlewares/Third_Party/SubGHz_Phy/stm32_radio_driver/radio.c ****         if( SubgRf.RxContinuous == false )
1604:Middlewares/Third_Party/SubGHz_Phy/stm32_radio_driver/radio.c ****         {
1605:Middlewares/Third_Party/SubGHz_Phy/stm32_radio_driver/radio.c ****             //!< Update operating mode state to a value lower than \ref MODE_STDBY_XOSC
1606:Middlewares/Third_Party/SubGHz_Phy/stm32_radio_driver/radio.c ****             SUBGRF_SetStandby( STDBY_RC );
1607:Middlewares/Third_Party/SubGHz_Phy/stm32_radio_driver/radio.c **** 
1608:Middlewares/Third_Party/SubGHz_Phy/stm32_radio_driver/radio.c ****             // WORKAROUND - Implicit Header Mode Timeout Behavior, see DS_SX1261-2_V1.2 datasheet c
1609:Middlewares/Third_Party/SubGHz_Phy/stm32_radio_driver/radio.c ****             // RegRtcControl = @address 0x0902
1610:Middlewares/Third_Party/SubGHz_Phy/stm32_radio_driver/radio.c ****             SUBGRF_WriteRegister( 0x0902, 0x00 );
1611:Middlewares/Third_Party/SubGHz_Phy/stm32_radio_driver/radio.c ****             // RegEventMask = @address 0x0944
1612:Middlewares/Third_Party/SubGHz_Phy/stm32_radio_driver/radio.c ****             SUBGRF_WriteRegister( 0x0944, SUBGRF_ReadRegister( 0x0944 ) | ( 1 << 1 ) );
1613:Middlewares/Third_Party/SubGHz_Phy/stm32_radio_driver/radio.c ****             // WORKAROUND END
1614:Middlewares/Third_Party/SubGHz_Phy/stm32_radio_driver/radio.c ****         }
1615:Middlewares/Third_Party/SubGHz_Phy/stm32_radio_driver/radio.c ****         SUBGRF_GetPayload( RadioBuffer, &size , 255 );
1616:Middlewares/Third_Party/SubGHz_Phy/stm32_radio_driver/radio.c ****         SUBGRF_GetPacketStatus( &(SubgRf.PacketStatus) );
1617:Middlewares/Third_Party/SubGHz_Phy/stm32_radio_driver/radio.c ****         if( ( RadioEvents != NULL ) && ( RadioEvents->RxDone != NULL ) )
1618:Middlewares/Third_Party/SubGHz_Phy/stm32_radio_driver/radio.c ****         {
1619:Middlewares/Third_Party/SubGHz_Phy/stm32_radio_driver/radio.c ****             switch ( SubgRf.PacketStatus.packetType )
1620:Middlewares/Third_Party/SubGHz_Phy/stm32_radio_driver/radio.c ****             {
1621:Middlewares/Third_Party/SubGHz_Phy/stm32_radio_driver/radio.c ****             case PACKET_TYPE_LORA:
1622:Middlewares/Third_Party/SubGHz_Phy/stm32_radio_driver/radio.c ****                 RadioEvents->RxDone( RadioBuffer, size, SubgRf.PacketStatus.Params.LoRa.RssiPkt, Su
1623:Middlewares/Third_Party/SubGHz_Phy/stm32_radio_driver/radio.c ****                 break;
1624:Middlewares/Third_Party/SubGHz_Phy/stm32_radio_driver/radio.c ****             default:
ARM GAS  C:\Users\NATHAN~1\AppData\Local\Temp\cc90iGN6.s 			page 42


1625:Middlewares/Third_Party/SubGHz_Phy/stm32_radio_driver/radio.c ****                 SUBGRF_GetCFO( SubgRf.ModulationParams.Params.Gfsk.BitRate, &cfo );
1626:Middlewares/Third_Party/SubGHz_Phy/stm32_radio_driver/radio.c ****                 RadioEvents->RxDone( RadioBuffer, size, SubgRf.PacketStatus.Params.Gfsk.RssiAvg, (i
1627:Middlewares/Third_Party/SubGHz_Phy/stm32_radio_driver/radio.c ****                 break;
1628:Middlewares/Third_Party/SubGHz_Phy/stm32_radio_driver/radio.c ****             }
1629:Middlewares/Third_Party/SubGHz_Phy/stm32_radio_driver/radio.c ****         }
1630:Middlewares/Third_Party/SubGHz_Phy/stm32_radio_driver/radio.c ****         break;
1631:Middlewares/Third_Party/SubGHz_Phy/stm32_radio_driver/radio.c **** 
1632:Middlewares/Third_Party/SubGHz_Phy/stm32_radio_driver/radio.c ****     case IRQ_CAD_CLEAR:
1633:Middlewares/Third_Party/SubGHz_Phy/stm32_radio_driver/radio.c ****         //!< Update operating mode state to a value lower than \ref MODE_STDBY_XOSC
1634:Middlewares/Third_Party/SubGHz_Phy/stm32_radio_driver/radio.c ****         SUBGRF_SetStandby( STDBY_RC );
1635:Middlewares/Third_Party/SubGHz_Phy/stm32_radio_driver/radio.c ****         if( ( RadioEvents != NULL ) && ( RadioEvents->CadDone != NULL ) )
1636:Middlewares/Third_Party/SubGHz_Phy/stm32_radio_driver/radio.c ****         {
1637:Middlewares/Third_Party/SubGHz_Phy/stm32_radio_driver/radio.c ****             RadioEvents->CadDone( false );
1638:Middlewares/Third_Party/SubGHz_Phy/stm32_radio_driver/radio.c ****         }
1639:Middlewares/Third_Party/SubGHz_Phy/stm32_radio_driver/radio.c ****         break;
1640:Middlewares/Third_Party/SubGHz_Phy/stm32_radio_driver/radio.c ****     case IRQ_CAD_DETECTED:
1641:Middlewares/Third_Party/SubGHz_Phy/stm32_radio_driver/radio.c ****         //!< Update operating mode state to a value lower than \ref MODE_STDBY_XOSC
1642:Middlewares/Third_Party/SubGHz_Phy/stm32_radio_driver/radio.c ****         SUBGRF_SetStandby( STDBY_RC );
1643:Middlewares/Third_Party/SubGHz_Phy/stm32_radio_driver/radio.c ****         if( ( RadioEvents != NULL ) && ( RadioEvents->CadDone != NULL ) )
1644:Middlewares/Third_Party/SubGHz_Phy/stm32_radio_driver/radio.c ****         {
1645:Middlewares/Third_Party/SubGHz_Phy/stm32_radio_driver/radio.c ****             RadioEvents->CadDone( true );
1646:Middlewares/Third_Party/SubGHz_Phy/stm32_radio_driver/radio.c ****         }
1647:Middlewares/Third_Party/SubGHz_Phy/stm32_radio_driver/radio.c ****         break;
1648:Middlewares/Third_Party/SubGHz_Phy/stm32_radio_driver/radio.c **** 
1649:Middlewares/Third_Party/SubGHz_Phy/stm32_radio_driver/radio.c **** 
1650:Middlewares/Third_Party/SubGHz_Phy/stm32_radio_driver/radio.c ****     case IRQ_RX_TX_TIMEOUT:
1651:Middlewares/Third_Party/SubGHz_Phy/stm32_radio_driver/radio.c ****         MW_LOG( TS_ON, VLEVEL_M,  "IRQ_RX_TX_TIMEOUT\r\n" );
1652:Middlewares/Third_Party/SubGHz_Phy/stm32_radio_driver/radio.c ****         if( SUBGRF_GetOperatingMode( ) == MODE_TX )
1653:Middlewares/Third_Party/SubGHz_Phy/stm32_radio_driver/radio.c ****         {
1654:Middlewares/Third_Party/SubGHz_Phy/stm32_radio_driver/radio.c ****             /* ST_WORKAROUND_BEGIN: Reset DBG pin */
1655:Middlewares/Third_Party/SubGHz_Phy/stm32_radio_driver/radio.c ****             DBG_GPIO_RADIO_TX(RST);
1656:Middlewares/Third_Party/SubGHz_Phy/stm32_radio_driver/radio.c ****             /* ST_WORKAROUND_END */
1657:Middlewares/Third_Party/SubGHz_Phy/stm32_radio_driver/radio.c **** 
1658:Middlewares/Third_Party/SubGHz_Phy/stm32_radio_driver/radio.c ****             TimerStop( &TxTimeoutTimer );
1659:Middlewares/Third_Party/SubGHz_Phy/stm32_radio_driver/radio.c ****             //!< Update operating mode state to a value lower than \ref MODE_STDBY_XOSC
1660:Middlewares/Third_Party/SubGHz_Phy/stm32_radio_driver/radio.c ****             SUBGRF_SetStandby( STDBY_RC );
1661:Middlewares/Third_Party/SubGHz_Phy/stm32_radio_driver/radio.c ****             if( ( RadioEvents != NULL ) && ( RadioEvents->TxTimeout != NULL ) )
1662:Middlewares/Third_Party/SubGHz_Phy/stm32_radio_driver/radio.c ****             {
1663:Middlewares/Third_Party/SubGHz_Phy/stm32_radio_driver/radio.c ****                 RadioEvents->TxTimeout( );
1664:Middlewares/Third_Party/SubGHz_Phy/stm32_radio_driver/radio.c ****             }
1665:Middlewares/Third_Party/SubGHz_Phy/stm32_radio_driver/radio.c ****         }
1666:Middlewares/Third_Party/SubGHz_Phy/stm32_radio_driver/radio.c ****         else if( SUBGRF_GetOperatingMode( ) == MODE_RX )
1667:Middlewares/Third_Party/SubGHz_Phy/stm32_radio_driver/radio.c ****         {
1668:Middlewares/Third_Party/SubGHz_Phy/stm32_radio_driver/radio.c ****             /* ST_WORKAROUND_BEGIN: Reset DBG pin */
1669:Middlewares/Third_Party/SubGHz_Phy/stm32_radio_driver/radio.c ****             DBG_GPIO_RADIO_RX(RST);
1670:Middlewares/Third_Party/SubGHz_Phy/stm32_radio_driver/radio.c ****             /* ST_WORKAROUND_END */
1671:Middlewares/Third_Party/SubGHz_Phy/stm32_radio_driver/radio.c **** 
1672:Middlewares/Third_Party/SubGHz_Phy/stm32_radio_driver/radio.c ****             TimerStop( &RxTimeoutTimer );
1673:Middlewares/Third_Party/SubGHz_Phy/stm32_radio_driver/radio.c ****             //!< Update operating mode state to a value lower than \ref MODE_STDBY_XOSC
1674:Middlewares/Third_Party/SubGHz_Phy/stm32_radio_driver/radio.c ****             SUBGRF_SetStandby( STDBY_RC );
1675:Middlewares/Third_Party/SubGHz_Phy/stm32_radio_driver/radio.c ****             if( ( RadioEvents != NULL ) && ( RadioEvents->RxTimeout != NULL ) )
1676:Middlewares/Third_Party/SubGHz_Phy/stm32_radio_driver/radio.c ****             {
1677:Middlewares/Third_Party/SubGHz_Phy/stm32_radio_driver/radio.c ****                 RadioEvents->RxTimeout( );
1678:Middlewares/Third_Party/SubGHz_Phy/stm32_radio_driver/radio.c ****             }
1679:Middlewares/Third_Party/SubGHz_Phy/stm32_radio_driver/radio.c ****         }
1680:Middlewares/Third_Party/SubGHz_Phy/stm32_radio_driver/radio.c ****         break;
1681:Middlewares/Third_Party/SubGHz_Phy/stm32_radio_driver/radio.c **** 
ARM GAS  C:\Users\NATHAN~1\AppData\Local\Temp\cc90iGN6.s 			page 43


1682:Middlewares/Third_Party/SubGHz_Phy/stm32_radio_driver/radio.c ****     case IRQ_PREAMBLE_DETECTED:
1683:Middlewares/Third_Party/SubGHz_Phy/stm32_radio_driver/radio.c ****         MW_LOG( TS_ON, VLEVEL_M,  "PRE OK\r\n" );
1684:Middlewares/Third_Party/SubGHz_Phy/stm32_radio_driver/radio.c ****         break;
1685:Middlewares/Third_Party/SubGHz_Phy/stm32_radio_driver/radio.c **** 
1686:Middlewares/Third_Party/SubGHz_Phy/stm32_radio_driver/radio.c ****     case IRQ_SYNCWORD_VALID:
1687:Middlewares/Third_Party/SubGHz_Phy/stm32_radio_driver/radio.c ****         MW_LOG( TS_ON, VLEVEL_M,  "SYNC OK\r\n" );
1688:Middlewares/Third_Party/SubGHz_Phy/stm32_radio_driver/radio.c ****         if ( 1UL == RFW_Is_Init( ) )
1689:Middlewares/Third_Party/SubGHz_Phy/stm32_radio_driver/radio.c ****         {
1690:Middlewares/Third_Party/SubGHz_Phy/stm32_radio_driver/radio.c ****             RFW_ReceivePayload( );
1691:Middlewares/Third_Party/SubGHz_Phy/stm32_radio_driver/radio.c ****         }
1692:Middlewares/Third_Party/SubGHz_Phy/stm32_radio_driver/radio.c ****         break;
1693:Middlewares/Third_Party/SubGHz_Phy/stm32_radio_driver/radio.c **** 
1694:Middlewares/Third_Party/SubGHz_Phy/stm32_radio_driver/radio.c ****     case IRQ_HEADER_VALID:
1695:Middlewares/Third_Party/SubGHz_Phy/stm32_radio_driver/radio.c ****         MW_LOG( TS_ON, VLEVEL_M,  "HDR OK\r\n" );
1696:Middlewares/Third_Party/SubGHz_Phy/stm32_radio_driver/radio.c ****         break;
1697:Middlewares/Third_Party/SubGHz_Phy/stm32_radio_driver/radio.c **** 
1698:Middlewares/Third_Party/SubGHz_Phy/stm32_radio_driver/radio.c ****     case IRQ_HEADER_ERROR:
1699:Middlewares/Third_Party/SubGHz_Phy/stm32_radio_driver/radio.c ****         TimerStop( &RxTimeoutTimer );
1700:Middlewares/Third_Party/SubGHz_Phy/stm32_radio_driver/radio.c ****         if( SubgRf.RxContinuous == false )
1701:Middlewares/Third_Party/SubGHz_Phy/stm32_radio_driver/radio.c ****         {
1702:Middlewares/Third_Party/SubGHz_Phy/stm32_radio_driver/radio.c ****             //!< Update operating mode state to a value lower than \ref MODE_STDBY_XOSC
1703:Middlewares/Third_Party/SubGHz_Phy/stm32_radio_driver/radio.c ****             SUBGRF_SetStandby( STDBY_RC );
1704:Middlewares/Third_Party/SubGHz_Phy/stm32_radio_driver/radio.c ****         }
1705:Middlewares/Third_Party/SubGHz_Phy/stm32_radio_driver/radio.c ****         if( ( RadioEvents != NULL ) && ( RadioEvents->RxTimeout != NULL ) )
1706:Middlewares/Third_Party/SubGHz_Phy/stm32_radio_driver/radio.c ****         {
1707:Middlewares/Third_Party/SubGHz_Phy/stm32_radio_driver/radio.c ****             RadioEvents->RxTimeout( );
1708:Middlewares/Third_Party/SubGHz_Phy/stm32_radio_driver/radio.c ****             MW_LOG( TS_ON, VLEVEL_M,  "HDR KO\r\n" );
1709:Middlewares/Third_Party/SubGHz_Phy/stm32_radio_driver/radio.c ****         }
1710:Middlewares/Third_Party/SubGHz_Phy/stm32_radio_driver/radio.c ****         break;
1711:Middlewares/Third_Party/SubGHz_Phy/stm32_radio_driver/radio.c **** 
1712:Middlewares/Third_Party/SubGHz_Phy/stm32_radio_driver/radio.c ****     case IRQ_CRC_ERROR:
1713:Middlewares/Third_Party/SubGHz_Phy/stm32_radio_driver/radio.c ****         MW_LOG( TS_ON, VLEVEL_M,  "IRQ_CRC_ERROR\r\n" );
1714:Middlewares/Third_Party/SubGHz_Phy/stm32_radio_driver/radio.c **** 
1715:Middlewares/Third_Party/SubGHz_Phy/stm32_radio_driver/radio.c ****         if( SubgRf.RxContinuous == false )
1716:Middlewares/Third_Party/SubGHz_Phy/stm32_radio_driver/radio.c ****         {
1717:Middlewares/Third_Party/SubGHz_Phy/stm32_radio_driver/radio.c ****             //!< Update operating mode state to a value lower than \ref MODE_STDBY_XOSC
1718:Middlewares/Third_Party/SubGHz_Phy/stm32_radio_driver/radio.c ****             SUBGRF_SetStandby( STDBY_RC );
1719:Middlewares/Third_Party/SubGHz_Phy/stm32_radio_driver/radio.c ****         }
1720:Middlewares/Third_Party/SubGHz_Phy/stm32_radio_driver/radio.c ****         if( ( RadioEvents != NULL ) && ( RadioEvents->RxError ) )
1721:Middlewares/Third_Party/SubGHz_Phy/stm32_radio_driver/radio.c ****         {
1722:Middlewares/Third_Party/SubGHz_Phy/stm32_radio_driver/radio.c ****             RadioEvents->RxError( );
1723:Middlewares/Third_Party/SubGHz_Phy/stm32_radio_driver/radio.c ****         }
1724:Middlewares/Third_Party/SubGHz_Phy/stm32_radio_driver/radio.c ****         break;
1725:Middlewares/Third_Party/SubGHz_Phy/stm32_radio_driver/radio.c ****     default:
1726:Middlewares/Third_Party/SubGHz_Phy/stm32_radio_driver/radio.c ****         break;
1727:Middlewares/Third_Party/SubGHz_Phy/stm32_radio_driver/radio.c ****   }
1728:Middlewares/Third_Party/SubGHz_Phy/stm32_radio_driver/radio.c **** }
1729:Middlewares/Third_Party/SubGHz_Phy/stm32_radio_driver/radio.c **** 
1730:Middlewares/Third_Party/SubGHz_Phy/stm32_radio_driver/radio.c **** static void RadioTxPrbs( void )
1731:Middlewares/Third_Party/SubGHz_Phy/stm32_radio_driver/radio.c **** {
1732:Middlewares/Third_Party/SubGHz_Phy/stm32_radio_driver/radio.c ****     SUBGRF_SetSwitch( SubgRf.AntSwitchPaSelect, RFSWITCH_TX );
1733:Middlewares/Third_Party/SubGHz_Phy/stm32_radio_driver/radio.c ****     Radio.Write( SUBGHZ_PKTCTL1A, 0x2d );  // sel mode prbs9 instead of preamble
1734:Middlewares/Third_Party/SubGHz_Phy/stm32_radio_driver/radio.c ****     SUBGRF_SetTxInfinitePreamble( );
1735:Middlewares/Third_Party/SubGHz_Phy/stm32_radio_driver/radio.c ****     SUBGRF_SetTx( 0x0fffff );
1736:Middlewares/Third_Party/SubGHz_Phy/stm32_radio_driver/radio.c **** }
1737:Middlewares/Third_Party/SubGHz_Phy/stm32_radio_driver/radio.c **** 
1738:Middlewares/Third_Party/SubGHz_Phy/stm32_radio_driver/radio.c **** static void RadioTxCw( int8_t power )
ARM GAS  C:\Users\NATHAN~1\AppData\Local\Temp\cc90iGN6.s 			page 44


1739:Middlewares/Third_Party/SubGHz_Phy/stm32_radio_driver/radio.c **** {
1740:Middlewares/Third_Party/SubGHz_Phy/stm32_radio_driver/radio.c ****     uint8_t paselect = SUBGRF_SetRfTxPower( power );
1741:Middlewares/Third_Party/SubGHz_Phy/stm32_radio_driver/radio.c ****     SUBGRF_SetSwitch( paselect, RFSWITCH_TX );
1742:Middlewares/Third_Party/SubGHz_Phy/stm32_radio_driver/radio.c ****     SUBGRF_SetTxContinuousWave( );
1743:Middlewares/Third_Party/SubGHz_Phy/stm32_radio_driver/radio.c **** }
1744:Middlewares/Third_Party/SubGHz_Phy/stm32_radio_driver/radio.c **** 
1745:Middlewares/Third_Party/SubGHz_Phy/stm32_radio_driver/radio.c **** static void payload_integration( uint8_t *outBuffer, uint8_t *inBuffer, uint8_t size )
1746:Middlewares/Third_Party/SubGHz_Phy/stm32_radio_driver/radio.c **** {
 680              		.loc 1 1746 1 is_stmt 1 view -0
 681              		.cfi_startproc
 682              		@ args = 0, pretend = 0, frame = 0
 683              		@ frame_needed = 0, uses_anonymous_args = 0
 684              		.loc 1 1746 1 is_stmt 0 view .LVU175
 685 0000 70B5     		push	{r4, r5, r6, lr}
 686              	.LCFI9:
 687              		.cfi_def_cfa_offset 16
 688              		.cfi_offset 4, -16
 689              		.cfi_offset 5, -12
 690              		.cfi_offset 6, -8
 691              		.cfi_offset 14, -4
1747:Middlewares/Third_Party/SubGHz_Phy/stm32_radio_driver/radio.c ****     uint8_t prevInt = 0;
 692              		.loc 1 1747 5 is_stmt 1 view .LVU176
 693              	.LVL79:
1748:Middlewares/Third_Party/SubGHz_Phy/stm32_radio_driver/radio.c ****     uint8_t currBit;
 694              		.loc 1 1748 5 view .LVU177
1749:Middlewares/Third_Party/SubGHz_Phy/stm32_radio_driver/radio.c ****     uint8_t index_bit;
 695              		.loc 1 1749 5 view .LVU178
1750:Middlewares/Third_Party/SubGHz_Phy/stm32_radio_driver/radio.c ****     uint8_t index_byte;
 696              		.loc 1 1750 5 view .LVU179
1751:Middlewares/Third_Party/SubGHz_Phy/stm32_radio_driver/radio.c ****     uint8_t index_bit_out;
 697              		.loc 1 1751 5 view .LVU180
1752:Middlewares/Third_Party/SubGHz_Phy/stm32_radio_driver/radio.c ****     uint8_t index_byte_out;
 698              		.loc 1 1752 5 view .LVU181
1753:Middlewares/Third_Party/SubGHz_Phy/stm32_radio_driver/radio.c ****     int i = 0;
 699              		.loc 1 1753 5 view .LVU182
1754:Middlewares/Third_Party/SubGHz_Phy/stm32_radio_driver/radio.c **** 
1755:Middlewares/Third_Party/SubGHz_Phy/stm32_radio_driver/radio.c ****     for (i = 0; i < size; i++)
 700              		.loc 1 1755 5 view .LVU183
 701              		.loc 1 1755 12 is_stmt 0 view .LVU184
 702 0002 0023     		movs	r3, #0
 703              		.loc 1 1755 5 view .LVU185
 704 0004 05E0     		b	.L67
 705              	.LVL80:
 706              	.L68:
1756:Middlewares/Third_Party/SubGHz_Phy/stm32_radio_driver/radio.c ****     {
1757:Middlewares/Third_Party/SubGHz_Phy/stm32_radio_driver/radio.c ****         /* reverse all inputs */
1758:Middlewares/Third_Party/SubGHz_Phy/stm32_radio_driver/radio.c ****         inBuffer[i] = ~inBuffer[i];
 707              		.loc 1 1758 9 is_stmt 1 discriminator 3 view .LVU186
 708              		.loc 1 1758 32 is_stmt 0 discriminator 3 view .LVU187
 709 0006 CC5C     		ldrb	r4, [r1, r3]	@ zero_extendqisi2
 710              		.loc 1 1758 21 discriminator 3 view .LVU188
 711 0008 E443     		mvns	r4, r4
 712 000a CC54     		strb	r4, [r1, r3]
1759:Middlewares/Third_Party/SubGHz_Phy/stm32_radio_driver/radio.c ****         /* init outBuffer */
1760:Middlewares/Third_Party/SubGHz_Phy/stm32_radio_driver/radio.c ****         outBuffer[i] = 0;
 713              		.loc 1 1760 9 is_stmt 1 discriminator 3 view .LVU189
 714              		.loc 1 1760 22 is_stmt 0 discriminator 3 view .LVU190
ARM GAS  C:\Users\NATHAN~1\AppData\Local\Temp\cc90iGN6.s 			page 45


 715 000c 0024     		movs	r4, #0
 716 000e C454     		strb	r4, [r0, r3]
1755:Middlewares/Third_Party/SubGHz_Phy/stm32_radio_driver/radio.c ****     {
 717              		.loc 1 1755 27 is_stmt 1 discriminator 3 view .LVU191
1755:Middlewares/Third_Party/SubGHz_Phy/stm32_radio_driver/radio.c ****     {
 718              		.loc 1 1755 28 is_stmt 0 discriminator 3 view .LVU192
 719 0010 0133     		adds	r3, r3, #1
 720              	.LVL81:
 721              	.L67:
1755:Middlewares/Third_Party/SubGHz_Phy/stm32_radio_driver/radio.c ****     {
 722              		.loc 1 1755 17 is_stmt 1 discriminator 1 view .LVU193
1755:Middlewares/Third_Party/SubGHz_Phy/stm32_radio_driver/radio.c ****     {
 723              		.loc 1 1755 5 is_stmt 0 discriminator 1 view .LVU194
 724 0012 9A42     		cmp	r2, r3
 725 0014 F7DC     		bgt	.L68
1761:Middlewares/Third_Party/SubGHz_Phy/stm32_radio_driver/radio.c ****     }
1762:Middlewares/Third_Party/SubGHz_Phy/stm32_radio_driver/radio.c **** 
1763:Middlewares/Third_Party/SubGHz_Phy/stm32_radio_driver/radio.c ****     for (i = 0; i < (size * 8); i++)
 726              		.loc 1 1763 12 view .LVU195
 727 0016 0023     		movs	r3, #0
 728              	.LVL82:
1747:Middlewares/Third_Party/SubGHz_Phy/stm32_radio_driver/radio.c ****     uint8_t currBit;
 729              		.loc 1 1747 13 view .LVU196
 730 0018 1C46     		mov	r4, r3
 731 001a 13E0     		b	.L69
 732              	.LVL83:
 733              	.L77:
1764:Middlewares/Third_Party/SubGHz_Phy/stm32_radio_driver/radio.c ****     {
1765:Middlewares/Third_Party/SubGHz_Phy/stm32_radio_driver/radio.c ****         /* index to take bit in inBuffer */
1766:Middlewares/Third_Party/SubGHz_Phy/stm32_radio_driver/radio.c ****         index_bit = 7 - ( i % 8 );
1767:Middlewares/Third_Party/SubGHz_Phy/stm32_radio_driver/radio.c ****         index_byte = i / 8;
 734              		.loc 1 1767 24 discriminator 3 view .LVU197
 735 001c 03F1070C 		add	ip, r3, #7
 736 0020 24E0     		b	.L70
 737              	.LVL84:
 738              	.L71:
1768:Middlewares/Third_Party/SubGHz_Phy/stm32_radio_driver/radio.c ****         /* index to place bit in outBuffer is shifted 1 bit right */
1769:Middlewares/Third_Party/SubGHz_Phy/stm32_radio_driver/radio.c ****         index_bit_out = 7 - ( ( i + 1 ) % 8 );
1770:Middlewares/Third_Party/SubGHz_Phy/stm32_radio_driver/radio.c ****         index_byte_out = ( i + 1 ) / 8;
1771:Middlewares/Third_Party/SubGHz_Phy/stm32_radio_driver/radio.c ****         /* extract current bit from input */
1772:Middlewares/Third_Party/SubGHz_Phy/stm32_radio_driver/radio.c ****         currBit = ( inBuffer[index_byte] >> index_bit ) & 0x01;
 739              		.loc 1 1772 9 is_stmt 1 discriminator 3 view .LVU198
 740              		.loc 1 1772 29 is_stmt 0 discriminator 3 view .LVU199
 741 0022 EDB2     		uxtb	r5, r5
 742              		.loc 1 1772 29 discriminator 3 view .LVU200
 743 0024 4D5D     		ldrb	r5, [r1, r5]	@ zero_extendqisi2
 744              	.LVL85:
 745              		.loc 1 1772 42 discriminator 3 view .LVU201
 746 0026 45FA0EFE 		asr	lr, r5, lr
 747              	.LVL86:
 748              		.loc 1 1772 17 discriminator 3 view .LVU202
 749 002a 0EF0010E 		and	lr, lr, #1
 750              	.LVL87:
1773:Middlewares/Third_Party/SubGHz_Phy/stm32_radio_driver/radio.c ****         /* integration */
1774:Middlewares/Third_Party/SubGHz_Phy/stm32_radio_driver/radio.c ****         prevInt ^= currBit;
 751              		.loc 1 1774 9 is_stmt 1 discriminator 3 view .LVU203
 752              		.loc 1 1774 17 is_stmt 0 discriminator 3 view .LVU204
ARM GAS  C:\Users\NATHAN~1\AppData\Local\Temp\cc90iGN6.s 			page 46


 753 002e 84EA0E04 		eor	r4, r4, lr
 754              	.LVL88:
1775:Middlewares/Third_Party/SubGHz_Phy/stm32_radio_driver/radio.c ****         /* write result integration in output */
1776:Middlewares/Third_Party/SubGHz_Phy/stm32_radio_driver/radio.c ****         outBuffer[index_byte_out] |= ( prevInt << index_bit_out );
 755              		.loc 1 1776 9 is_stmt 1 discriminator 3 view .LVU205
 756              		.loc 1 1776 35 is_stmt 0 discriminator 3 view .LVU206
 757 0032 C6F3C705 		ubfx	r5, r6, #3, #8
 758              		.loc 1 1776 48 discriminator 3 view .LVU207
 759 0036 04FA0CFC 		lsl	ip, r4, ip
 760              	.LVL89:
 761              		.loc 1 1776 35 discriminator 3 view .LVU208
 762 003a 465D     		ldrb	r6, [r0, r5]	@ zero_extendqisi2
 763              	.LVL90:
 764              		.loc 1 1776 35 discriminator 3 view .LVU209
 765 003c 46EA0C0C 		orr	ip, r6, ip
 766 0040 00F805C0 		strb	ip, [r0, r5]
1763:Middlewares/Third_Party/SubGHz_Phy/stm32_radio_driver/radio.c ****     {
 767              		.loc 1 1763 33 is_stmt 1 discriminator 3 view .LVU210
 768              	.LVL91:
 769              	.L69:
1763:Middlewares/Third_Party/SubGHz_Phy/stm32_radio_driver/radio.c ****     {
 770              		.loc 1 1763 17 discriminator 1 view .LVU211
1763:Middlewares/Third_Party/SubGHz_Phy/stm32_radio_driver/radio.c ****     {
 771              		.loc 1 1763 5 is_stmt 0 discriminator 1 view .LVU212
 772 0044 B3EBC20F 		cmp	r3, r2, lsl #3
 773 0048 26DA     		bge	.L76
1766:Middlewares/Third_Party/SubGHz_Phy/stm32_radio_driver/radio.c ****         index_byte = i / 8;
 774              		.loc 1 1766 9 is_stmt 1 discriminator 3 view .LVU213
1766:Middlewares/Third_Party/SubGHz_Phy/stm32_radio_driver/radio.c ****         index_byte = i / 8;
 775              		.loc 1 1766 29 is_stmt 0 discriminator 3 view .LVU214
 776 004a 5D42     		rsbs	r5, r3, #0
 777 004c 03F0070C 		and	ip, r3, #7
 778 0050 05F00705 		and	r5, r5, #7
 779 0054 58BF     		it	pl
 780 0056 C5F1000C 		rsbpl	ip, r5, #0
1766:Middlewares/Third_Party/SubGHz_Phy/stm32_radio_driver/radio.c ****         index_byte = i / 8;
 781              		.loc 1 1766 23 discriminator 3 view .LVU215
 782 005a 5FFA8CFE 		uxtb	lr, ip
1766:Middlewares/Third_Party/SubGHz_Phy/stm32_radio_driver/radio.c ****         index_byte = i / 8;
 783              		.loc 1 1766 19 discriminator 3 view .LVU216
 784 005e CEF1070E 		rsb	lr, lr, #7
 785 0062 5FFA8EFE 		uxtb	lr, lr
 786              	.LVL92:
1767:Middlewares/Third_Party/SubGHz_Phy/stm32_radio_driver/radio.c ****         /* index to place bit in outBuffer is shifted 1 bit right */
 787              		.loc 1 1767 9 is_stmt 1 discriminator 3 view .LVU217
1767:Middlewares/Third_Party/SubGHz_Phy/stm32_radio_driver/radio.c ****         /* index to place bit in outBuffer is shifted 1 bit right */
 788              		.loc 1 1767 24 is_stmt 0 discriminator 3 view .LVU218
 789 0066 9C46     		mov	ip, r3
 790 0068 002B     		cmp	r3, #0
 791 006a D7DB     		blt	.L77
 792              	.L70:
1767:Middlewares/Third_Party/SubGHz_Phy/stm32_radio_driver/radio.c ****         /* index to place bit in outBuffer is shifted 1 bit right */
 793              		.loc 1 1767 24 discriminator 3 view .LVU219
 794 006c 4FEAEC05 		asr	r5, ip, #3
 795              	.LVL93:
1769:Middlewares/Third_Party/SubGHz_Phy/stm32_radio_driver/radio.c ****         index_byte_out = ( i + 1 ) / 8;
 796              		.loc 1 1769 9 is_stmt 1 discriminator 3 view .LVU220
ARM GAS  C:\Users\NATHAN~1\AppData\Local\Temp\cc90iGN6.s 			page 47


1769:Middlewares/Third_Party/SubGHz_Phy/stm32_radio_driver/radio.c ****         index_byte_out = ( i + 1 ) / 8;
 797              		.loc 1 1769 35 is_stmt 0 discriminator 3 view .LVU221
 798 0070 0133     		adds	r3, r3, #1
 799              	.LVL94:
1769:Middlewares/Third_Party/SubGHz_Phy/stm32_radio_driver/radio.c ****         index_byte_out = ( i + 1 ) / 8;
 800              		.loc 1 1769 41 discriminator 3 view .LVU222
 801 0072 5E42     		rsbs	r6, r3, #0
 802 0074 03F0070C 		and	ip, r3, #7
 803 0078 06F00706 		and	r6, r6, #7
 804 007c 58BF     		it	pl
 805 007e C6F1000C 		rsbpl	ip, r6, #0
1769:Middlewares/Third_Party/SubGHz_Phy/stm32_radio_driver/radio.c ****         index_byte_out = ( i + 1 ) / 8;
 806              		.loc 1 1769 27 discriminator 3 view .LVU223
 807 0082 5FFA8CFC 		uxtb	ip, ip
1769:Middlewares/Third_Party/SubGHz_Phy/stm32_radio_driver/radio.c ****         index_byte_out = ( i + 1 ) / 8;
 808              		.loc 1 1769 23 discriminator 3 view .LVU224
 809 0086 CCF1070C 		rsb	ip, ip, #7
 810 008a 5FFA8CFC 		uxtb	ip, ip
 811              	.LVL95:
1770:Middlewares/Third_Party/SubGHz_Phy/stm32_radio_driver/radio.c ****         /* extract current bit from input */
 812              		.loc 1 1770 9 is_stmt 1 discriminator 3 view .LVU225
1770:Middlewares/Third_Party/SubGHz_Phy/stm32_radio_driver/radio.c ****         /* extract current bit from input */
 813              		.loc 1 1770 36 is_stmt 0 discriminator 3 view .LVU226
 814 008e 1E46     		mov	r6, r3
 815 0090 002B     		cmp	r3, #0
 816 0092 C6DA     		bge	.L71
 817 0094 DE1D     		adds	r6, r3, #7
 818 0096 C4E7     		b	.L71
 819              	.LVL96:
 820              	.L76:
1777:Middlewares/Third_Party/SubGHz_Phy/stm32_radio_driver/radio.c ****     }
1778:Middlewares/Third_Party/SubGHz_Phy/stm32_radio_driver/radio.c **** 
1779:Middlewares/Third_Party/SubGHz_Phy/stm32_radio_driver/radio.c ****     outBuffer[size] = ( prevInt << 7 ) | ( prevInt << 6 ) | ( ( ( !prevInt ) & 0x01 ) << 5 ) ;
 821              		.loc 1 1779 5 is_stmt 1 view .LVU227
 822              		.loc 1 1779 52 is_stmt 0 view .LVU228
 823 0098 A301     		lsls	r3, r4, #6
 824              	.LVL97:
 825              		.loc 1 1779 40 view .LVU229
 826 009a 43EAC413 		orr	r3, r3, r4, lsl #7
 827 009e 5BB2     		sxtb	r3, r3
 828              		.loc 1 1779 59 view .LVU230
 829 00a0 1CB9     		cbnz	r4, .L74
 830 00a2 2021     		movs	r1, #32
 831              	.LVL98:
 832              	.L73:
 833              		.loc 1 1779 59 discriminator 4 view .LVU231
 834 00a4 0B43     		orrs	r3, r3, r1
 835              		.loc 1 1779 21 discriminator 4 view .LVU232
 836 00a6 8354     		strb	r3, [r0, r2]
1780:Middlewares/Third_Party/SubGHz_Phy/stm32_radio_driver/radio.c **** }
 837              		.loc 1 1780 1 discriminator 4 view .LVU233
 838 00a8 70BD     		pop	{r4, r5, r6, pc}
 839              	.LVL99:
 840              	.L74:
1779:Middlewares/Third_Party/SubGHz_Phy/stm32_radio_driver/radio.c **** }
 841              		.loc 1 1779 59 view .LVU234
 842 00aa 0021     		movs	r1, #0
ARM GAS  C:\Users\NATHAN~1\AppData\Local\Temp\cc90iGN6.s 			page 48


 843              	.LVL100:
1779:Middlewares/Third_Party/SubGHz_Phy/stm32_radio_driver/radio.c **** }
 844              		.loc 1 1779 59 view .LVU235
 845 00ac FAE7     		b	.L73
 846              		.cfi_endproc
 847              	.LFE1028:
 849              		.section	.text.RadioSetMaxPayloadLength,"ax",%progbits
 850              		.align	1
 851              		.syntax unified
 852              		.thumb
 853              		.thumb_func
 855              	RadioSetMaxPayloadLength:
 856              	.LVL101:
 857              	.LFB1017:
1489:Middlewares/Third_Party/SubGHz_Phy/stm32_radio_driver/radio.c ****     if( modem == MODEM_LORA )
 858              		.loc 1 1489 1 is_stmt 1 view -0
 859              		.cfi_startproc
 860              		@ args = 0, pretend = 0, frame = 0
 861              		@ frame_needed = 0, uses_anonymous_args = 0
1489:Middlewares/Third_Party/SubGHz_Phy/stm32_radio_driver/radio.c ****     if( modem == MODEM_LORA )
 862              		.loc 1 1489 1 is_stmt 0 view .LVU237
 863 0000 08B5     		push	{r3, lr}
 864              	.LCFI10:
 865              		.cfi_def_cfa_offset 8
 866              		.cfi_offset 3, -8
 867              		.cfi_offset 14, -4
1490:Middlewares/Third_Party/SubGHz_Phy/stm32_radio_driver/radio.c ****     {
 868              		.loc 1 1490 5 is_stmt 1 view .LVU238
1490:Middlewares/Third_Party/SubGHz_Phy/stm32_radio_driver/radio.c ****     {
 869              		.loc 1 1490 7 is_stmt 0 view .LVU239
 870 0002 0128     		cmp	r0, #1
 871 0004 04D0     		beq	.L82
1497:Middlewares/Third_Party/SubGHz_Phy/stm32_radio_driver/radio.c ****         {
 872              		.loc 1 1497 9 is_stmt 1 view .LVU240
1497:Middlewares/Third_Party/SubGHz_Phy/stm32_radio_driver/radio.c ****         {
 873              		.loc 1 1497 44 is_stmt 0 view .LVU241
 874 0006 0A4B     		ldr	r3, .L84
 875 0008 5B7D     		ldrb	r3, [r3, #21]	@ zero_extendqisi2
1497:Middlewares/Third_Party/SubGHz_Phy/stm32_radio_driver/radio.c ****         {
 876              		.loc 1 1497 11 view .LVU242
 877 000a 012B     		cmp	r3, #1
 878 000c 08D0     		beq	.L83
 879              	.LVL102:
 880              	.L78:
1503:Middlewares/Third_Party/SubGHz_Phy/stm32_radio_driver/radio.c **** 
 881              		.loc 1 1503 1 view .LVU243
 882 000e 08BD     		pop	{r3, pc}
 883              	.LVL103:
 884              	.L82:
1492:Middlewares/Third_Party/SubGHz_Phy/stm32_radio_driver/radio.c ****         SUBGRF_SetPacketParams( &SubgRf.PacketParams );
 885              		.loc 1 1492 9 is_stmt 1 view .LVU244
1492:Middlewares/Third_Party/SubGHz_Phy/stm32_radio_driver/radio.c ****         SUBGRF_SetPacketParams( &SubgRf.PacketParams );
 886              		.loc 1 1492 74 is_stmt 0 view .LVU245
 887 0010 084B     		ldr	r3, .L84+4
 888 0012 1970     		strb	r1, [r3]
1492:Middlewares/Third_Party/SubGHz_Phy/stm32_radio_driver/radio.c ****         SUBGRF_SetPacketParams( &SubgRf.PacketParams );
 889              		.loc 1 1492 55 view .LVU246
ARM GAS  C:\Users\NATHAN~1\AppData\Local\Temp\cc90iGN6.s 			page 49


 890 0014 0648     		ldr	r0, .L84
 891              	.LVL104:
1492:Middlewares/Third_Party/SubGHz_Phy/stm32_radio_driver/radio.c ****         SUBGRF_SetPacketParams( &SubgRf.PacketParams );
 892              		.loc 1 1492 55 view .LVU247
 893 0016 C177     		strb	r1, [r0, #31]
1493:Middlewares/Third_Party/SubGHz_Phy/stm32_radio_driver/radio.c ****     }
 894              		.loc 1 1493 9 is_stmt 1 view .LVU248
 895 0018 0E30     		adds	r0, r0, #14
 896 001a FFF7FEFF 		bl	SUBGRF_SetPacketParams
 897              	.LVL105:
1493:Middlewares/Third_Party/SubGHz_Phy/stm32_radio_driver/radio.c ****     }
 898              		.loc 1 1493 9 is_stmt 0 view .LVU249
 899 001e F6E7     		b	.L78
 900              	.LVL106:
 901              	.L83:
1499:Middlewares/Third_Party/SubGHz_Phy/stm32_radio_driver/radio.c ****             SUBGRF_SetPacketParams( &SubgRf.PacketParams );
 902              		.loc 1 1499 13 is_stmt 1 view .LVU250
1499:Middlewares/Third_Party/SubGHz_Phy/stm32_radio_driver/radio.c ****             SUBGRF_SetPacketParams( &SubgRf.PacketParams );
 903              		.loc 1 1499 78 is_stmt 0 view .LVU251
 904 0020 044B     		ldr	r3, .L84+4
 905 0022 1970     		strb	r1, [r3]
1499:Middlewares/Third_Party/SubGHz_Phy/stm32_radio_driver/radio.c ****             SUBGRF_SetPacketParams( &SubgRf.PacketParams );
 906              		.loc 1 1499 59 view .LVU252
 907 0024 0248     		ldr	r0, .L84
 908              	.LVL107:
1499:Middlewares/Third_Party/SubGHz_Phy/stm32_radio_driver/radio.c ****             SUBGRF_SetPacketParams( &SubgRf.PacketParams );
 909              		.loc 1 1499 59 view .LVU253
 910 0026 8175     		strb	r1, [r0, #22]
1500:Middlewares/Third_Party/SubGHz_Phy/stm32_radio_driver/radio.c ****         }
 911              		.loc 1 1500 13 is_stmt 1 view .LVU254
 912 0028 0E30     		adds	r0, r0, #14
 913 002a FFF7FEFF 		bl	SUBGRF_SetPacketParams
 914              	.LVL108:
1503:Middlewares/Third_Party/SubGHz_Phy/stm32_radio_driver/radio.c **** 
 915              		.loc 1 1503 1 is_stmt 0 view .LVU255
 916 002e EEE7     		b	.L78
 917              	.L85:
 918              		.align	2
 919              	.L84:
 920 0030 00000000 		.word	.LANCHOR3
 921 0034 00000000 		.word	.LANCHOR2
 922              		.cfi_endproc
 923              	.LFE1017:
 925              		.section	.text.RadioRead,"ax",%progbits
 926              		.align	1
 927              		.syntax unified
 928              		.thumb
 929              		.thumb_func
 931              	RadioRead:
 932              	.LVL109:
 933              	.LFB1014:
1474:Middlewares/Third_Party/SubGHz_Phy/stm32_radio_driver/radio.c ****     return SUBGRF_ReadRegister(addr);
 934              		.loc 1 1474 1 is_stmt 1 view -0
 935              		.cfi_startproc
 936              		@ args = 0, pretend = 0, frame = 0
 937              		@ frame_needed = 0, uses_anonymous_args = 0
1474:Middlewares/Third_Party/SubGHz_Phy/stm32_radio_driver/radio.c ****     return SUBGRF_ReadRegister(addr);
ARM GAS  C:\Users\NATHAN~1\AppData\Local\Temp\cc90iGN6.s 			page 50


 938              		.loc 1 1474 1 is_stmt 0 view .LVU257
 939 0000 08B5     		push	{r3, lr}
 940              	.LCFI11:
 941              		.cfi_def_cfa_offset 8
 942              		.cfi_offset 3, -8
 943              		.cfi_offset 14, -4
1475:Middlewares/Third_Party/SubGHz_Phy/stm32_radio_driver/radio.c **** }
 944              		.loc 1 1475 5 is_stmt 1 view .LVU258
1475:Middlewares/Third_Party/SubGHz_Phy/stm32_radio_driver/radio.c **** }
 945              		.loc 1 1475 12 is_stmt 0 view .LVU259
 946 0002 FFF7FEFF 		bl	SUBGRF_ReadRegister
 947              	.LVL110:
1476:Middlewares/Third_Party/SubGHz_Phy/stm32_radio_driver/radio.c **** 
 948              		.loc 1 1476 1 view .LVU260
 949 0006 08BD     		pop	{r3, pc}
 950              		.cfi_endproc
 951              	.LFE1014:
 953              		.section	.text.RadioWrite,"ax",%progbits
 954              		.align	1
 955              		.syntax unified
 956              		.thumb
 957              		.thumb_func
 959              	RadioWrite:
 960              	.LVL111:
 961              	.LFB1013:
1469:Middlewares/Third_Party/SubGHz_Phy/stm32_radio_driver/radio.c ****     SUBGRF_WriteRegister(addr, data );
 962              		.loc 1 1469 1 is_stmt 1 view -0
 963              		.cfi_startproc
 964              		@ args = 0, pretend = 0, frame = 0
 965              		@ frame_needed = 0, uses_anonymous_args = 0
1469:Middlewares/Third_Party/SubGHz_Phy/stm32_radio_driver/radio.c ****     SUBGRF_WriteRegister(addr, data );
 966              		.loc 1 1469 1 is_stmt 0 view .LVU262
 967 0000 08B5     		push	{r3, lr}
 968              	.LCFI12:
 969              		.cfi_def_cfa_offset 8
 970              		.cfi_offset 3, -8
 971              		.cfi_offset 14, -4
1470:Middlewares/Third_Party/SubGHz_Phy/stm32_radio_driver/radio.c **** }
 972              		.loc 1 1470 5 is_stmt 1 view .LVU263
 973 0002 FFF7FEFF 		bl	SUBGRF_WriteRegister
 974              	.LVL112:
1471:Middlewares/Third_Party/SubGHz_Phy/stm32_radio_driver/radio.c **** 
 975              		.loc 1 1471 1 is_stmt 0 view .LVU264
 976 0006 08BD     		pop	{r3, pc}
 977              		.cfi_endproc
 978              	.LFE1013:
 980              		.section	.text.RadioTxCw,"ax",%progbits
 981              		.align	1
 982              		.syntax unified
 983              		.thumb
 984              		.thumb_func
 986              	RadioTxCw:
 987              	.LVL113:
 988              	.LFB1027:
1739:Middlewares/Third_Party/SubGHz_Phy/stm32_radio_driver/radio.c ****     uint8_t paselect = SUBGRF_SetRfTxPower( power );
 989              		.loc 1 1739 1 is_stmt 1 view -0
 990              		.cfi_startproc
ARM GAS  C:\Users\NATHAN~1\AppData\Local\Temp\cc90iGN6.s 			page 51


 991              		@ args = 0, pretend = 0, frame = 0
 992              		@ frame_needed = 0, uses_anonymous_args = 0
1739:Middlewares/Third_Party/SubGHz_Phy/stm32_radio_driver/radio.c ****     uint8_t paselect = SUBGRF_SetRfTxPower( power );
 993              		.loc 1 1739 1 is_stmt 0 view .LVU266
 994 0000 08B5     		push	{r3, lr}
 995              	.LCFI13:
 996              		.cfi_def_cfa_offset 8
 997              		.cfi_offset 3, -8
 998              		.cfi_offset 14, -4
1740:Middlewares/Third_Party/SubGHz_Phy/stm32_radio_driver/radio.c ****     SUBGRF_SetSwitch( paselect, RFSWITCH_TX );
 999              		.loc 1 1740 5 is_stmt 1 view .LVU267
1740:Middlewares/Third_Party/SubGHz_Phy/stm32_radio_driver/radio.c ****     SUBGRF_SetSwitch( paselect, RFSWITCH_TX );
 1000              		.loc 1 1740 24 is_stmt 0 view .LVU268
 1001 0002 FFF7FEFF 		bl	SUBGRF_SetRfTxPower
 1002              	.LVL114:
1741:Middlewares/Third_Party/SubGHz_Phy/stm32_radio_driver/radio.c ****     SUBGRF_SetTxContinuousWave( );
 1003              		.loc 1 1741 5 is_stmt 1 view .LVU269
 1004 0006 0121     		movs	r1, #1
 1005 0008 FFF7FEFF 		bl	SUBGRF_SetSwitch
 1006              	.LVL115:
1742:Middlewares/Third_Party/SubGHz_Phy/stm32_radio_driver/radio.c **** }
 1007              		.loc 1 1742 5 view .LVU270
 1008 000c FFF7FEFF 		bl	SUBGRF_SetTxContinuousWave
 1009              	.LVL116:
1743:Middlewares/Third_Party/SubGHz_Phy/stm32_radio_driver/radio.c **** 
 1010              		.loc 1 1743 1 is_stmt 0 view .LVU271
 1011 0010 08BD     		pop	{r3, pc}
 1012              		.cfi_endproc
 1013              	.LFE1027:
 1015              		.section	.text.RadioTxPrbs,"ax",%progbits
 1016              		.align	1
 1017              		.syntax unified
 1018              		.thumb
 1019              		.thumb_func
 1021              	RadioTxPrbs:
 1022              	.LFB1026:
1731:Middlewares/Third_Party/SubGHz_Phy/stm32_radio_driver/radio.c ****     SUBGRF_SetSwitch( SubgRf.AntSwitchPaSelect, RFSWITCH_TX );
 1023              		.loc 1 1731 1 is_stmt 1 view -0
 1024              		.cfi_startproc
 1025              		@ args = 0, pretend = 0, frame = 0
 1026              		@ frame_needed = 0, uses_anonymous_args = 0
 1027 0000 08B5     		push	{r3, lr}
 1028              	.LCFI14:
 1029              		.cfi_def_cfa_offset 8
 1030              		.cfi_offset 3, -8
 1031              		.cfi_offset 14, -4
1732:Middlewares/Third_Party/SubGHz_Phy/stm32_radio_driver/radio.c ****     Radio.Write( SUBGHZ_PKTCTL1A, 0x2d );  // sel mode prbs9 instead of preamble
 1032              		.loc 1 1732 5 view .LVU273
 1033 0002 0121     		movs	r1, #1
 1034 0004 074B     		ldr	r3, .L94
 1035 0006 93F85600 		ldrb	r0, [r3, #86]	@ zero_extendqisi2
 1036 000a FFF7FEFF 		bl	SUBGRF_SetSwitch
 1037              	.LVL117:
1733:Middlewares/Third_Party/SubGHz_Phy/stm32_radio_driver/radio.c ****     SUBGRF_SetTxInfinitePreamble( );
 1038              		.loc 1 1733 5 view .LVU274
 1039 000e 2D21     		movs	r1, #45
 1040 0010 4FF4D760 		mov	r0, #1720
ARM GAS  C:\Users\NATHAN~1\AppData\Local\Temp\cc90iGN6.s 			page 52


 1041 0014 FFF7FEFF 		bl	RadioWrite
 1042              	.LVL118:
1734:Middlewares/Third_Party/SubGHz_Phy/stm32_radio_driver/radio.c ****     SUBGRF_SetTx( 0x0fffff );
 1043              		.loc 1 1734 5 view .LVU275
 1044 0018 FFF7FEFF 		bl	SUBGRF_SetTxInfinitePreamble
 1045              	.LVL119:
1735:Middlewares/Third_Party/SubGHz_Phy/stm32_radio_driver/radio.c **** }
 1046              		.loc 1 1735 5 view .LVU276
 1047 001c 0248     		ldr	r0, .L94+4
 1048 001e FFF7FEFF 		bl	SUBGRF_SetTx
 1049              	.LVL120:
1736:Middlewares/Third_Party/SubGHz_Phy/stm32_radio_driver/radio.c **** 
 1050              		.loc 1 1736 1 is_stmt 0 view .LVU277
 1051 0022 08BD     		pop	{r3, pc}
 1052              	.L95:
 1053              		.align	2
 1054              	.L94:
 1055 0024 00000000 		.word	.LANCHOR3
 1056 0028 FFFF0F00 		.word	1048575
 1057              		.cfi_endproc
 1058              	.LFE1026:
 1060              		.section	.text.RadioSetRxDutyCycle,"ax",%progbits
 1061              		.align	1
 1062              		.syntax unified
 1063              		.thumb
 1064              		.thumb_func
 1066              	RadioSetRxDutyCycle:
 1067              	.LVL121:
 1068              	.LFB1009:
1426:Middlewares/Third_Party/SubGHz_Phy/stm32_radio_driver/radio.c ****     /* RF switch configuration */
 1069              		.loc 1 1426 1 is_stmt 1 view -0
 1070              		.cfi_startproc
 1071              		@ args = 0, pretend = 0, frame = 0
 1072              		@ frame_needed = 0, uses_anonymous_args = 0
1426:Middlewares/Third_Party/SubGHz_Phy/stm32_radio_driver/radio.c ****     /* RF switch configuration */
 1073              		.loc 1 1426 1 is_stmt 0 view .LVU279
 1074 0000 38B5     		push	{r3, r4, r5, lr}
 1075              	.LCFI15:
 1076              		.cfi_def_cfa_offset 16
 1077              		.cfi_offset 3, -16
 1078              		.cfi_offset 4, -12
 1079              		.cfi_offset 5, -8
 1080              		.cfi_offset 14, -4
 1081 0002 0446     		mov	r4, r0
 1082 0004 0D46     		mov	r5, r1
1428:Middlewares/Third_Party/SubGHz_Phy/stm32_radio_driver/radio.c **** 
 1083              		.loc 1 1428 5 is_stmt 1 view .LVU280
 1084 0006 0021     		movs	r1, #0
 1085              	.LVL122:
1428:Middlewares/Third_Party/SubGHz_Phy/stm32_radio_driver/radio.c **** 
 1086              		.loc 1 1428 5 is_stmt 0 view .LVU281
 1087 0008 044B     		ldr	r3, .L98
 1088 000a 93F85600 		ldrb	r0, [r3, #86]	@ zero_extendqisi2
 1089              	.LVL123:
1428:Middlewares/Third_Party/SubGHz_Phy/stm32_radio_driver/radio.c **** 
 1090              		.loc 1 1428 5 view .LVU282
 1091 000e FFF7FEFF 		bl	SUBGRF_SetSwitch
ARM GAS  C:\Users\NATHAN~1\AppData\Local\Temp\cc90iGN6.s 			page 53


 1092              	.LVL124:
1430:Middlewares/Third_Party/SubGHz_Phy/stm32_radio_driver/radio.c **** }
 1093              		.loc 1 1430 5 is_stmt 1 view .LVU283
 1094 0012 2946     		mov	r1, r5
 1095 0014 2046     		mov	r0, r4
 1096 0016 FFF7FEFF 		bl	SUBGRF_SetRxDutyCycle
 1097              	.LVL125:
1431:Middlewares/Third_Party/SubGHz_Phy/stm32_radio_driver/radio.c **** 
 1098              		.loc 1 1431 1 is_stmt 0 view .LVU284
 1099 001a 38BD     		pop	{r3, r4, r5, pc}
 1100              	.LVL126:
 1101              	.L99:
1431:Middlewares/Third_Party/SubGHz_Phy/stm32_radio_driver/radio.c **** 
 1102              		.loc 1 1431 1 view .LVU285
 1103              		.align	2
 1104              	.L98:
 1105 001c 00000000 		.word	.LANCHOR3
 1106              		.cfi_endproc
 1107              	.LFE1009:
 1109              		.section	.text.RadioRxBoosted,"ax",%progbits
 1110              		.align	1
 1111              		.syntax unified
 1112              		.thumb
 1113              		.thumb_func
 1115              	RadioRxBoosted:
 1116              	.LVL127:
 1117              	.LFB1008:
1394:Middlewares/Third_Party/SubGHz_Phy/stm32_radio_driver/radio.c ****     if (1UL==RFW_Is_Init())
 1118              		.loc 1 1394 1 is_stmt 1 view -0
 1119              		.cfi_startproc
 1120              		@ args = 0, pretend = 0, frame = 0
 1121              		@ frame_needed = 0, uses_anonymous_args = 0
1394:Middlewares/Third_Party/SubGHz_Phy/stm32_radio_driver/radio.c ****     if (1UL==RFW_Is_Init())
 1122              		.loc 1 1394 1 is_stmt 0 view .LVU287
 1123 0000 38B5     		push	{r3, r4, r5, lr}
 1124              	.LCFI16:
 1125              		.cfi_def_cfa_offset 16
 1126              		.cfi_offset 3, -16
 1127              		.cfi_offset 4, -12
 1128              		.cfi_offset 5, -8
 1129              		.cfi_offset 14, -4
 1130 0002 0446     		mov	r4, r0
1395:Middlewares/Third_Party/SubGHz_Phy/stm32_radio_driver/radio.c ****     {
 1131              		.loc 1 1395 5 is_stmt 1 view .LVU288
1395:Middlewares/Third_Party/SubGHz_Phy/stm32_radio_driver/radio.c ****     {
 1132              		.loc 1 1395 14 is_stmt 0 view .LVU289
 1133 0004 FFF7FEFF 		bl	RFW_Is_Init
 1134              	.LVL128:
1395:Middlewares/Third_Party/SubGHz_Phy/stm32_radio_driver/radio.c ****     {
 1135              		.loc 1 1395 8 view .LVU290
 1136 0008 0128     		cmp	r0, #1
 1137 000a 14D0     		beq	.L107
1401:Middlewares/Third_Party/SubGHz_Phy/stm32_radio_driver/radio.c ****                               IRQ_RX_DONE | IRQ_RX_TX_TIMEOUT | IRQ_CRC_ERROR | IRQ_HEADER_ERROR | 
 1138              		.loc 1 1401 7 is_stmt 1 view .LVU291
 1139 000c 0023     		movs	r3, #0
 1140 000e 1A46     		mov	r2, r3
 1141 0010 40F26221 		movw	r1, #610
ARM GAS  C:\Users\NATHAN~1\AppData\Local\Temp\cc90iGN6.s 			page 54


 1142 0014 0846     		mov	r0, r1
 1143 0016 FFF7FEFF 		bl	SUBGRF_SetDioIrqParams
 1144              	.LVL129:
 1145              	.L102:
1406:Middlewares/Third_Party/SubGHz_Phy/stm32_radio_driver/radio.c ****     {
 1146              		.loc 1 1406 5 view .LVU292
1406:Middlewares/Third_Party/SubGHz_Phy/stm32_radio_driver/radio.c ****     {
 1147              		.loc 1 1406 7 is_stmt 0 view .LVU293
 1148 001a 7CB9     		cbnz	r4, .L108
 1149              	.L103:
1409:Middlewares/Third_Party/SubGHz_Phy/stm32_radio_driver/radio.c ****     }
 1150              		.loc 1 1409 9 is_stmt 1 discriminator 1 view .LVU294
1413:Middlewares/Third_Party/SubGHz_Phy/stm32_radio_driver/radio.c **** 
 1151              		.loc 1 1413 5 discriminator 1 view .LVU295
 1152 001c 0F4C     		ldr	r4, .L109
 1153              	.LVL130:
1413:Middlewares/Third_Party/SubGHz_Phy/stm32_radio_driver/radio.c **** 
 1154              		.loc 1 1413 5 is_stmt 0 discriminator 1 view .LVU296
 1155 001e 0021     		movs	r1, #0
 1156 0020 94F85600 		ldrb	r0, [r4, #86]	@ zero_extendqisi2
 1157 0024 FFF7FEFF 		bl	SUBGRF_SetSwitch
 1158              	.LVL131:
1415:Middlewares/Third_Party/SubGHz_Phy/stm32_radio_driver/radio.c ****     {
 1159              		.loc 1 1415 5 is_stmt 1 discriminator 1 view .LVU297
1415:Middlewares/Third_Party/SubGHz_Phy/stm32_radio_driver/radio.c ****     {
 1160              		.loc 1 1415 15 is_stmt 0 discriminator 1 view .LVU298
 1161 0028 6378     		ldrb	r3, [r4, #1]	@ zero_extendqisi2
1415:Middlewares/Third_Party/SubGHz_Phy/stm32_radio_driver/radio.c ****     {
 1162              		.loc 1 1415 7 discriminator 1 view .LVU299
 1163 002a 83B1     		cbz	r3, .L104
1417:Middlewares/Third_Party/SubGHz_Phy/stm32_radio_driver/radio.c ****     }
 1164              		.loc 1 1417 9 is_stmt 1 view .LVU300
 1165 002c 6FF07F40 		mvn	r0, #-16777216
 1166 0030 FFF7FEFF 		bl	SUBGRF_SetRxBoosted
 1167              	.LVL132:
 1168              	.L100:
1423:Middlewares/Third_Party/SubGHz_Phy/stm32_radio_driver/radio.c **** 
 1169              		.loc 1 1423 1 is_stmt 0 view .LVU301
 1170 0034 38BD     		pop	{r3, r4, r5, pc}
 1171              	.LVL133:
 1172              	.L107:
1397:Middlewares/Third_Party/SubGHz_Phy/stm32_radio_driver/radio.c ****     }
 1173              		.loc 1 1397 7 is_stmt 1 view .LVU302
 1174 0036 FFF7FEFF 		bl	RFW_ReceiveInit
 1175              	.LVL134:
 1176 003a EEE7     		b	.L102
 1177              	.L108:
1408:Middlewares/Third_Party/SubGHz_Phy/stm32_radio_driver/radio.c ****         TimerStart( &RxTimeoutTimer );
 1178              		.loc 1 1408 9 view .LVU303
1408:Middlewares/Third_Party/SubGHz_Phy/stm32_radio_driver/radio.c ****         TimerStart( &RxTimeoutTimer );
 1179              		.loc 1 1408 9 view .LVU304
 1180 003c 084D     		ldr	r5, .L109+4
 1181 003e 2146     		mov	r1, r4
 1182 0040 2846     		mov	r0, r5
 1183 0042 FFF7FEFF 		bl	UTIL_TIMER_SetPeriod
 1184              	.LVL135:
1408:Middlewares/Third_Party/SubGHz_Phy/stm32_radio_driver/radio.c ****         TimerStart( &RxTimeoutTimer );
ARM GAS  C:\Users\NATHAN~1\AppData\Local\Temp\cc90iGN6.s 			page 55


 1185              		.loc 1 1408 9 view .LVU305
1409:Middlewares/Third_Party/SubGHz_Phy/stm32_radio_driver/radio.c ****     }
 1186              		.loc 1 1409 9 view .LVU306
1409:Middlewares/Third_Party/SubGHz_Phy/stm32_radio_driver/radio.c ****     }
 1187              		.loc 1 1409 9 view .LVU307
 1188 0046 2846     		mov	r0, r5
 1189 0048 FFF7FEFF 		bl	UTIL_TIMER_Start
 1190              	.LVL136:
 1191 004c E6E7     		b	.L103
 1192              	.LVL137:
 1193              	.L104:
1421:Middlewares/Third_Party/SubGHz_Phy/stm32_radio_driver/radio.c ****     }
 1194              		.loc 1 1421 9 view .LVU308
1421:Middlewares/Third_Party/SubGHz_Phy/stm32_radio_driver/radio.c ****     }
 1195              		.loc 1 1421 36 is_stmt 0 view .LVU309
 1196 004e 034B     		ldr	r3, .L109
 1197 0050 9868     		ldr	r0, [r3, #8]
1421:Middlewares/Third_Party/SubGHz_Phy/stm32_radio_driver/radio.c ****     }
 1198              		.loc 1 1421 9 view .LVU310
 1199 0052 8001     		lsls	r0, r0, #6
 1200 0054 FFF7FEFF 		bl	SUBGRF_SetRxBoosted
 1201              	.LVL138:
1423:Middlewares/Third_Party/SubGHz_Phy/stm32_radio_driver/radio.c **** 
 1202              		.loc 1 1423 1 view .LVU311
 1203 0058 ECE7     		b	.L100
 1204              	.L110:
 1205 005a 00BF     		.align	2
 1206              	.L109:
 1207 005c 00000000 		.word	.LANCHOR3
 1208 0060 00000000 		.word	.LANCHOR4
 1209              		.cfi_endproc
 1210              	.LFE1008:
 1212              		.section	.text.RadioStandby,"ax",%progbits
 1213              		.align	1
 1214              		.syntax unified
 1215              		.thumb
 1216              		.thumb_func
 1218              	RadioStandby:
 1219              	.LFB1006:
1351:Middlewares/Third_Party/SubGHz_Phy/stm32_radio_driver/radio.c ****     SUBGRF_SetStandby( STDBY_RC );
 1220              		.loc 1 1351 1 is_stmt 1 view -0
 1221              		.cfi_startproc
 1222              		@ args = 0, pretend = 0, frame = 0
 1223              		@ frame_needed = 0, uses_anonymous_args = 0
 1224 0000 08B5     		push	{r3, lr}
 1225              	.LCFI17:
 1226              		.cfi_def_cfa_offset 8
 1227              		.cfi_offset 3, -8
 1228              		.cfi_offset 14, -4
1352:Middlewares/Third_Party/SubGHz_Phy/stm32_radio_driver/radio.c **** }
 1229              		.loc 1 1352 5 view .LVU313
 1230 0002 0020     		movs	r0, #0
 1231 0004 FFF7FEFF 		bl	SUBGRF_SetStandby
 1232              	.LVL139:
1353:Middlewares/Third_Party/SubGHz_Phy/stm32_radio_driver/radio.c **** 
 1233              		.loc 1 1353 1 is_stmt 0 view .LVU314
 1234 0008 08BD     		pop	{r3, pc}
ARM GAS  C:\Users\NATHAN~1\AppData\Local\Temp\cc90iGN6.s 			page 56


 1235              		.cfi_endproc
 1236              	.LFE1006:
 1238              		.section	.text.RadioGetStatus,"ax",%progbits
 1239              		.align	1
 1240              		.syntax unified
 1241              		.thumb
 1242              		.thumb_func
 1244              	RadioGetStatus:
 1245              	.LFB992:
 671:Middlewares/Third_Party/SubGHz_Phy/stm32_radio_driver/radio.c ****     switch( SUBGRF_GetOperatingMode( ) )
 1246              		.loc 1 671 1 is_stmt 1 view -0
 1247              		.cfi_startproc
 1248              		@ args = 0, pretend = 0, frame = 0
 1249              		@ frame_needed = 0, uses_anonymous_args = 0
 1250 0000 08B5     		push	{r3, lr}
 1251              	.LCFI18:
 1252              		.cfi_def_cfa_offset 8
 1253              		.cfi_offset 3, -8
 1254              		.cfi_offset 14, -4
 672:Middlewares/Third_Party/SubGHz_Phy/stm32_radio_driver/radio.c ****     {
 1255              		.loc 1 672 5 view .LVU316
 672:Middlewares/Third_Party/SubGHz_Phy/stm32_radio_driver/radio.c ****     {
 1256              		.loc 1 672 13 is_stmt 0 view .LVU317
 1257 0002 FFF7FEFF 		bl	SUBGRF_GetOperatingMode
 1258              	.LVL140:
 672:Middlewares/Third_Party/SubGHz_Phy/stm32_radio_driver/radio.c ****     {
 1259              		.loc 1 672 5 view .LVU318
 1260 0006 0528     		cmp	r0, #5
 1261 0008 07D0     		beq	.L115
 1262 000a 0728     		cmp	r0, #7
 1263 000c 07D0     		beq	.L116
 1264 000e 0428     		cmp	r0, #4
 1265 0010 01D0     		beq	.L119
 681:Middlewares/Third_Party/SubGHz_Phy/stm32_radio_driver/radio.c ****     }
 1266              		.loc 1 681 20 view .LVU319
 1267 0012 0020     		movs	r0, #0
 1268              	.L114:
 683:Middlewares/Third_Party/SubGHz_Phy/stm32_radio_driver/radio.c **** 
 1269              		.loc 1 683 1 view .LVU320
 1270 0014 08BD     		pop	{r3, pc}
 1271              	.L119:
 672:Middlewares/Third_Party/SubGHz_Phy/stm32_radio_driver/radio.c ****     {
 1272              		.loc 1 672 5 view .LVU321
 1273 0016 0220     		movs	r0, #2
 1274 0018 FCE7     		b	.L114
 1275              	.L115:
 677:Middlewares/Third_Party/SubGHz_Phy/stm32_radio_driver/radio.c ****         case MODE_CAD:
 1276              		.loc 1 677 20 view .LVU322
 1277 001a 0120     		movs	r0, #1
 1278 001c FAE7     		b	.L114
 1279              	.L116:
 679:Middlewares/Third_Party/SubGHz_Phy/stm32_radio_driver/radio.c ****         default:
 1280              		.loc 1 679 20 view .LVU323
 1281 001e 0320     		movs	r0, #3
 1282 0020 F8E7     		b	.L114
 1283              		.cfi_endproc
 1284              	.LFE992:
ARM GAS  C:\Users\NATHAN~1\AppData\Local\Temp\cc90iGN6.s 			page 57


 1286              		.section	.rodata.RadioIrqProcess.str1.4,"aMS",%progbits,1
 1287              		.align	2
 1288              	.LC2:
 1289 0000 4952515F 		.ascii	"IRQ_RX_TX_TIMEOUT\015\012\000"
 1289      52585F54 
 1289      585F5449 
 1289      4D454F55 
 1289      540D0A00 
 1290              		.align	2
 1291              	.LC3:
 1292 0014 50524520 		.ascii	"PRE OK\015\012\000"
 1292      4F4B0D0A 
 1292      00
 1293 001d 000000   		.align	2
 1294              	.LC4:
 1295 0020 53594E43 		.ascii	"SYNC OK\015\012\000"
 1295      204F4B0D 
 1295      0A00
 1296 002a 0000     		.align	2
 1297              	.LC5:
 1298 002c 48445220 		.ascii	"HDR OK\015\012\000"
 1298      4F4B0D0A 
 1298      00
 1299 0035 000000   		.align	2
 1300              	.LC6:
 1301 0038 48445220 		.ascii	"HDR KO\015\012\000"
 1301      4B4F0D0A 
 1301      00
 1302 0041 000000   		.align	2
 1303              	.LC7:
 1304 0044 4952515F 		.ascii	"IRQ_CRC_ERROR\015\012\000"
 1304      4352435F 
 1304      4552524F 
 1304      520D0A00 
 1305              		.section	.text.RadioIrqProcess,"ax",%progbits
 1306              		.align	1
 1307              		.syntax unified
 1308              		.thumb
 1309              		.thumb_func
 1311              	RadioIrqProcess:
 1312              	.LFB1025:
1571:Middlewares/Third_Party/SubGHz_Phy/stm32_radio_driver/radio.c ****     uint8_t size = 0;
 1313              		.loc 1 1571 1 is_stmt 1 view -0
 1314              		.cfi_startproc
 1315              		@ args = 0, pretend = 0, frame = 8
 1316              		@ frame_needed = 0, uses_anonymous_args = 0
 1317 0000 30B5     		push	{r4, r5, lr}
 1318              	.LCFI19:
 1319              		.cfi_def_cfa_offset 12
 1320              		.cfi_offset 4, -12
 1321              		.cfi_offset 5, -8
 1322              		.cfi_offset 14, -4
 1323 0002 83B0     		sub	sp, sp, #12
 1324              	.LCFI20:
 1325              		.cfi_def_cfa_offset 24
1572:Middlewares/Third_Party/SubGHz_Phy/stm32_radio_driver/radio.c ****     int32_t cfo = 0;
 1326              		.loc 1 1572 5 view .LVU325
ARM GAS  C:\Users\NATHAN~1\AppData\Local\Temp\cc90iGN6.s 			page 58


1572:Middlewares/Third_Party/SubGHz_Phy/stm32_radio_driver/radio.c ****     int32_t cfo = 0;
 1327              		.loc 1 1572 13 is_stmt 0 view .LVU326
 1328 0004 0023     		movs	r3, #0
 1329 0006 8DF80730 		strb	r3, [sp, #7]
1573:Middlewares/Third_Party/SubGHz_Phy/stm32_radio_driver/radio.c **** 
 1330              		.loc 1 1573 5 is_stmt 1 view .LVU327
1573:Middlewares/Third_Party/SubGHz_Phy/stm32_radio_driver/radio.c **** 
 1331              		.loc 1 1573 13 is_stmt 0 view .LVU328
 1332 000a 0093     		str	r3, [sp]
1575:Middlewares/Third_Party/SubGHz_Phy/stm32_radio_driver/radio.c ****     {
 1333              		.loc 1 1575 5 is_stmt 1 view .LVU329
1575:Middlewares/Third_Party/SubGHz_Phy/stm32_radio_driver/radio.c ****     {
 1334              		.loc 1 1575 20 is_stmt 0 view .LVU330
 1335 000c 9C4B     		ldr	r3, .L148
 1336 000e B3F85430 		ldrh	r3, [r3, #84]
1575:Middlewares/Third_Party/SubGHz_Phy/stm32_radio_driver/radio.c ****     {
 1337              		.loc 1 1575 5 view .LVU331
 1338 0012 202B     		cmp	r3, #32
 1339 0014 29D8     		bhi	.L121
 1340 0016 1AB2     		sxth	r2, r3
 1341 0018 002A     		cmp	r2, #0
 1342 001a 00F0EB80 		beq	.L120
 1343 001e 013B     		subs	r3, r3, #1
 1344 0020 1F2B     		cmp	r3, #31
 1345 0022 00F2E780 		bhi	.L120
 1346 0026 DFE813F0 		tbh	[pc, r3, lsl #1]
 1347              	.L124:
 1348 002a 5F00     		.2byte	(.L129-.L124)/2
 1349 002c 7500     		.2byte	(.L128-.L124)/2
 1350 002e E500     		.2byte	(.L120-.L124)/2
 1351 0030 DF00     		.2byte	(.L127-.L124)/2
 1352 0032 E500     		.2byte	(.L120-.L124)/2
 1353 0034 E500     		.2byte	(.L120-.L124)/2
 1354 0036 E500     		.2byte	(.L120-.L124)/2
 1355 0038 E700     		.2byte	(.L126-.L124)/2
 1356 003a E500     		.2byte	(.L120-.L124)/2
 1357 003c E500     		.2byte	(.L120-.L124)/2
 1358 003e E500     		.2byte	(.L120-.L124)/2
 1359 0040 E500     		.2byte	(.L120-.L124)/2
 1360 0042 E500     		.2byte	(.L120-.L124)/2
 1361 0044 E500     		.2byte	(.L120-.L124)/2
 1362 0046 E500     		.2byte	(.L120-.L124)/2
 1363 0048 F400     		.2byte	(.L125-.L124)/2
 1364 004a E500     		.2byte	(.L120-.L124)/2
 1365 004c E500     		.2byte	(.L120-.L124)/2
 1366 004e E500     		.2byte	(.L120-.L124)/2
 1367 0050 E500     		.2byte	(.L120-.L124)/2
 1368 0052 E500     		.2byte	(.L120-.L124)/2
 1369 0054 E500     		.2byte	(.L120-.L124)/2
 1370 0056 E500     		.2byte	(.L120-.L124)/2
 1371 0058 E500     		.2byte	(.L120-.L124)/2
 1372 005a E500     		.2byte	(.L120-.L124)/2
 1373 005c E500     		.2byte	(.L120-.L124)/2
 1374 005e E500     		.2byte	(.L120-.L124)/2
 1375 0060 E500     		.2byte	(.L120-.L124)/2
 1376 0062 E500     		.2byte	(.L120-.L124)/2
 1377 0064 E500     		.2byte	(.L120-.L124)/2
ARM GAS  C:\Users\NATHAN~1\AppData\Local\Temp\cc90iGN6.s 			page 59


 1378 0066 E500     		.2byte	(.L120-.L124)/2
 1379 0068 FB00     		.2byte	(.L123-.L124)/2
 1380              		.p2align 1
 1381              	.L121:
 1382 006a B3F5807F 		cmp	r3, #256
 1383 006e 00F0A380 		beq	.L130
 1384 0072 24D9     		bls	.L142
 1385 0074 B3F5007F 		cmp	r3, #512
 1386 0078 40F0BC80 		bne	.L120
1651:Middlewares/Third_Party/SubGHz_Phy/stm32_radio_driver/radio.c ****         if( SUBGRF_GetOperatingMode( ) == MODE_TX )
 1387              		.loc 1 1651 9 is_stmt 1 view .LVU332
1651:Middlewares/Third_Party/SubGHz_Phy/stm32_radio_driver/radio.c ****         if( SUBGRF_GetOperatingMode( ) == MODE_TX )
 1388              		.loc 1 1651 9 view .LVU333
 1389 007c 814B     		ldr	r3, .L148+4
 1390 007e 0122     		movs	r2, #1
 1391 0080 0021     		movs	r1, #0
 1392 0082 0220     		movs	r0, #2
 1393 0084 FFF7FEFF 		bl	UTIL_ADV_TRACE_COND_FSend
 1394              	.LVL141:
1651:Middlewares/Third_Party/SubGHz_Phy/stm32_radio_driver/radio.c ****         if( SUBGRF_GetOperatingMode( ) == MODE_TX )
 1395              		.loc 1 1651 9 view .LVU334
1652:Middlewares/Third_Party/SubGHz_Phy/stm32_radio_driver/radio.c ****         {
 1396              		.loc 1 1652 9 view .LVU335
1652:Middlewares/Third_Party/SubGHz_Phy/stm32_radio_driver/radio.c ****         {
 1397              		.loc 1 1652 13 is_stmt 0 view .LVU336
 1398 0088 FFF7FEFF 		bl	SUBGRF_GetOperatingMode
 1399              	.LVL142:
1652:Middlewares/Third_Party/SubGHz_Phy/stm32_radio_driver/radio.c ****         {
 1400              		.loc 1 1652 11 view .LVU337
 1401 008c 0428     		cmp	r0, #4
 1402 008e 00F09E80 		beq	.L143
1666:Middlewares/Third_Party/SubGHz_Phy/stm32_radio_driver/radio.c ****         {
 1403              		.loc 1 1666 14 is_stmt 1 view .LVU338
1666:Middlewares/Third_Party/SubGHz_Phy/stm32_radio_driver/radio.c ****         {
 1404              		.loc 1 1666 18 is_stmt 0 view .LVU339
 1405 0092 FFF7FEFF 		bl	SUBGRF_GetOperatingMode
 1406              	.LVL143:
1666:Middlewares/Third_Party/SubGHz_Phy/stm32_radio_driver/radio.c ****         {
 1407              		.loc 1 1666 16 view .LVU340
 1408 0096 0528     		cmp	r0, #5
 1409 0098 40F0AC80 		bne	.L120
1669:Middlewares/Third_Party/SubGHz_Phy/stm32_radio_driver/radio.c ****             /* ST_WORKAROUND_END */
 1410              		.loc 1 1669 35 is_stmt 1 view .LVU341
1672:Middlewares/Third_Party/SubGHz_Phy/stm32_radio_driver/radio.c ****             //!< Update operating mode state to a value lower than \ref MODE_STDBY_XOSC
 1411              		.loc 1 1672 13 view .LVU342
1672:Middlewares/Third_Party/SubGHz_Phy/stm32_radio_driver/radio.c ****             //!< Update operating mode state to a value lower than \ref MODE_STDBY_XOSC
 1412              		.loc 1 1672 13 view .LVU343
 1413 009c 7A48     		ldr	r0, .L148+8
 1414 009e FFF7FEFF 		bl	UTIL_TIMER_Stop
 1415              	.LVL144:
1672:Middlewares/Third_Party/SubGHz_Phy/stm32_radio_driver/radio.c ****             //!< Update operating mode state to a value lower than \ref MODE_STDBY_XOSC
 1416              		.loc 1 1672 13 view .LVU344
1674:Middlewares/Third_Party/SubGHz_Phy/stm32_radio_driver/radio.c ****             if( ( RadioEvents != NULL ) && ( RadioEvents->RxTimeout != NULL ) )
 1417              		.loc 1 1674 13 view .LVU345
 1418 00a2 0020     		movs	r0, #0
 1419 00a4 FFF7FEFF 		bl	SUBGRF_SetStandby
 1420              	.LVL145:
ARM GAS  C:\Users\NATHAN~1\AppData\Local\Temp\cc90iGN6.s 			page 60


1675:Middlewares/Third_Party/SubGHz_Phy/stm32_radio_driver/radio.c ****             {
 1421              		.loc 1 1675 13 view .LVU346
1675:Middlewares/Third_Party/SubGHz_Phy/stm32_radio_driver/radio.c ****             {
 1422              		.loc 1 1675 31 is_stmt 0 view .LVU347
 1423 00a8 784B     		ldr	r3, .L148+12
 1424 00aa 1B68     		ldr	r3, [r3]
1675:Middlewares/Third_Party/SubGHz_Phy/stm32_radio_driver/radio.c ****             {
 1425              		.loc 1 1675 15 view .LVU348
 1426 00ac 002B     		cmp	r3, #0
 1427 00ae 00F0A180 		beq	.L120
1675:Middlewares/Third_Party/SubGHz_Phy/stm32_radio_driver/radio.c ****             {
 1428              		.loc 1 1675 57 discriminator 1 view .LVU349
 1429 00b2 DB68     		ldr	r3, [r3, #12]
1675:Middlewares/Third_Party/SubGHz_Phy/stm32_radio_driver/radio.c ****             {
 1430              		.loc 1 1675 41 discriminator 1 view .LVU350
 1431 00b4 002B     		cmp	r3, #0
 1432 00b6 00F09D80 		beq	.L120
1677:Middlewares/Third_Party/SubGHz_Phy/stm32_radio_driver/radio.c ****             }
 1433              		.loc 1 1677 17 is_stmt 1 view .LVU351
 1434 00ba 9847     		blx	r3
 1435              	.LVL146:
 1436 00bc 9AE0     		b	.L120
 1437              	.L142:
1575:Middlewares/Third_Party/SubGHz_Phy/stm32_radio_driver/radio.c ****     {
 1438              		.loc 1 1575 5 is_stmt 0 view .LVU352
 1439 00be 402B     		cmp	r3, #64
 1440 00c0 00F0C780 		beq	.L132
 1441 00c4 802B     		cmp	r3, #128
 1442 00c6 40F09580 		bne	.L120
1634:Middlewares/Third_Party/SubGHz_Phy/stm32_radio_driver/radio.c ****         if( ( RadioEvents != NULL ) && ( RadioEvents->CadDone != NULL ) )
 1443              		.loc 1 1634 9 is_stmt 1 view .LVU353
 1444 00ca 0020     		movs	r0, #0
 1445 00cc FFF7FEFF 		bl	SUBGRF_SetStandby
 1446              	.LVL147:
1635:Middlewares/Third_Party/SubGHz_Phy/stm32_radio_driver/radio.c ****         {
 1447              		.loc 1 1635 9 view .LVU354
1635:Middlewares/Third_Party/SubGHz_Phy/stm32_radio_driver/radio.c ****         {
 1448              		.loc 1 1635 27 is_stmt 0 view .LVU355
 1449 00d0 6E4B     		ldr	r3, .L148+12
 1450 00d2 1B68     		ldr	r3, [r3]
1635:Middlewares/Third_Party/SubGHz_Phy/stm32_radio_driver/radio.c ****         {
 1451              		.loc 1 1635 11 view .LVU356
 1452 00d4 002B     		cmp	r3, #0
 1453 00d6 00F08D80 		beq	.L120
1635:Middlewares/Third_Party/SubGHz_Phy/stm32_radio_driver/radio.c ****         {
 1454              		.loc 1 1635 53 discriminator 1 view .LVU357
 1455 00da 9B69     		ldr	r3, [r3, #24]
1635:Middlewares/Third_Party/SubGHz_Phy/stm32_radio_driver/radio.c ****         {
 1456              		.loc 1 1635 37 discriminator 1 view .LVU358
 1457 00dc 002B     		cmp	r3, #0
 1458 00de 00F08980 		beq	.L120
1637:Middlewares/Third_Party/SubGHz_Phy/stm32_radio_driver/radio.c ****         }
 1459              		.loc 1 1637 13 is_stmt 1 view .LVU359
 1460 00e2 0020     		movs	r0, #0
 1461 00e4 9847     		blx	r3
 1462              	.LVL148:
 1463 00e6 85E0     		b	.L120
ARM GAS  C:\Users\NATHAN~1\AppData\Local\Temp\cc90iGN6.s 			page 61


 1464              	.L129:
1579:Middlewares/Third_Party/SubGHz_Phy/stm32_radio_driver/radio.c ****         /* ST_WORKAROUND_END */
 1465              		.loc 1 1579 31 view .LVU360
1582:Middlewares/Third_Party/SubGHz_Phy/stm32_radio_driver/radio.c ****         //!< Update operating mode state to a value lower than \ref MODE_STDBY_XOSC
 1466              		.loc 1 1582 9 view .LVU361
1582:Middlewares/Third_Party/SubGHz_Phy/stm32_radio_driver/radio.c ****         //!< Update operating mode state to a value lower than \ref MODE_STDBY_XOSC
 1467              		.loc 1 1582 9 view .LVU362
 1468 00e8 6948     		ldr	r0, .L148+16
 1469 00ea FFF7FEFF 		bl	UTIL_TIMER_Stop
 1470              	.LVL149:
1582:Middlewares/Third_Party/SubGHz_Phy/stm32_radio_driver/radio.c ****         //!< Update operating mode state to a value lower than \ref MODE_STDBY_XOSC
 1471              		.loc 1 1582 9 view .LVU363
1584:Middlewares/Third_Party/SubGHz_Phy/stm32_radio_driver/radio.c **** 
 1472              		.loc 1 1584 9 view .LVU364
 1473 00ee 0020     		movs	r0, #0
 1474 00f0 FFF7FEFF 		bl	SUBGRF_SetStandby
 1475              	.LVL150:
1586:Middlewares/Third_Party/SubGHz_Phy/stm32_radio_driver/radio.c ****         {
 1476              		.loc 1 1586 9 view .LVU365
1586:Middlewares/Third_Party/SubGHz_Phy/stm32_radio_driver/radio.c ****         {
 1477              		.loc 1 1586 14 is_stmt 0 view .LVU366
 1478 00f4 FFF7FEFF 		bl	RFW_Is_LongPacketModeEnabled
 1479              	.LVL151:
1586:Middlewares/Third_Party/SubGHz_Phy/stm32_radio_driver/radio.c ****         {
 1480              		.loc 1 1586 12 view .LVU367
 1481 00f8 0128     		cmp	r0, #1
 1482 00fa 08D0     		beq	.L144
 1483              	.L135:
1591:Middlewares/Third_Party/SubGHz_Phy/stm32_radio_driver/radio.c ****         {
 1484              		.loc 1 1591 9 is_stmt 1 view .LVU368
1591:Middlewares/Third_Party/SubGHz_Phy/stm32_radio_driver/radio.c ****         {
 1485              		.loc 1 1591 27 is_stmt 0 view .LVU369
 1486 00fc 634B     		ldr	r3, .L148+12
 1487 00fe 1B68     		ldr	r3, [r3]
1591:Middlewares/Third_Party/SubGHz_Phy/stm32_radio_driver/radio.c ****         {
 1488              		.loc 1 1591 11 view .LVU370
 1489 0100 002B     		cmp	r3, #0
 1490 0102 77D0     		beq	.L120
1591:Middlewares/Third_Party/SubGHz_Phy/stm32_radio_driver/radio.c ****         {
 1491              		.loc 1 1591 53 discriminator 1 view .LVU371
 1492 0104 1B68     		ldr	r3, [r3]
1591:Middlewares/Third_Party/SubGHz_Phy/stm32_radio_driver/radio.c ****         {
 1493              		.loc 1 1591 37 discriminator 1 view .LVU372
 1494 0106 002B     		cmp	r3, #0
 1495 0108 74D0     		beq	.L120
1593:Middlewares/Third_Party/SubGHz_Phy/stm32_radio_driver/radio.c ****         }
 1496              		.loc 1 1593 13 is_stmt 1 view .LVU373
 1497 010a 9847     		blx	r3
 1498              	.LVL152:
 1499 010c 72E0     		b	.L120
 1500              	.L144:
1588:Middlewares/Third_Party/SubGHz_Phy/stm32_radio_driver/radio.c ****         }
 1501              		.loc 1 1588 13 view .LVU374
 1502 010e FFF7FEFF 		bl	RFW_DeInit_TxLongPacket
 1503              	.LVL153:
 1504 0112 F3E7     		b	.L135
 1505              	.L128:
ARM GAS  C:\Users\NATHAN~1\AppData\Local\Temp\cc90iGN6.s 			page 62


1599:Middlewares/Third_Party/SubGHz_Phy/stm32_radio_driver/radio.c ****         /* ST_WORKAROUND_END */
 1506              		.loc 1 1599 31 view .LVU375
1602:Middlewares/Third_Party/SubGHz_Phy/stm32_radio_driver/radio.c ****         if( SubgRf.RxContinuous == false )
 1507              		.loc 1 1602 9 view .LVU376
1602:Middlewares/Third_Party/SubGHz_Phy/stm32_radio_driver/radio.c ****         if( SubgRf.RxContinuous == false )
 1508              		.loc 1 1602 9 view .LVU377
 1509 0114 5C48     		ldr	r0, .L148+8
 1510 0116 FFF7FEFF 		bl	UTIL_TIMER_Stop
 1511              	.LVL154:
1602:Middlewares/Third_Party/SubGHz_Phy/stm32_radio_driver/radio.c ****         if( SubgRf.RxContinuous == false )
 1512              		.loc 1 1602 9 view .LVU378
1603:Middlewares/Third_Party/SubGHz_Phy/stm32_radio_driver/radio.c ****         {
 1513              		.loc 1 1603 9 view .LVU379
1603:Middlewares/Third_Party/SubGHz_Phy/stm32_radio_driver/radio.c ****         {
 1514              		.loc 1 1603 19 is_stmt 0 view .LVU380
 1515 011a 594B     		ldr	r3, .L148
 1516 011c 5B78     		ldrb	r3, [r3, #1]	@ zero_extendqisi2
1603:Middlewares/Third_Party/SubGHz_Phy/stm32_radio_driver/radio.c ****         {
 1517              		.loc 1 1603 11 view .LVU381
 1518 011e F3B1     		cbz	r3, .L145
 1519              	.L136:
1615:Middlewares/Third_Party/SubGHz_Phy/stm32_radio_driver/radio.c ****         SUBGRF_GetPacketStatus( &(SubgRf.PacketStatus) );
 1520              		.loc 1 1615 9 is_stmt 1 view .LVU382
 1521 0120 FF22     		movs	r2, #255
 1522 0122 0DF10701 		add	r1, sp, #7
 1523 0126 5B48     		ldr	r0, .L148+20
 1524 0128 FFF7FEFF 		bl	SUBGRF_GetPayload
 1525              	.LVL155:
1616:Middlewares/Third_Party/SubGHz_Phy/stm32_radio_driver/radio.c ****         if( ( RadioEvents != NULL ) && ( RadioEvents->RxDone != NULL ) )
 1526              		.loc 1 1616 9 view .LVU383
 1527 012c 5A48     		ldr	r0, .L148+24
 1528 012e FFF7FEFF 		bl	SUBGRF_GetPacketStatus
 1529              	.LVL156:
1617:Middlewares/Third_Party/SubGHz_Phy/stm32_radio_driver/radio.c ****         {
 1530              		.loc 1 1617 9 view .LVU384
1617:Middlewares/Third_Party/SubGHz_Phy/stm32_radio_driver/radio.c ****         {
 1531              		.loc 1 1617 27 is_stmt 0 view .LVU385
 1532 0132 564B     		ldr	r3, .L148+12
 1533 0134 1B68     		ldr	r3, [r3]
1617:Middlewares/Third_Party/SubGHz_Phy/stm32_radio_driver/radio.c ****         {
 1534              		.loc 1 1617 11 view .LVU386
 1535 0136 002B     		cmp	r3, #0
 1536 0138 5CD0     		beq	.L120
1617:Middlewares/Third_Party/SubGHz_Phy/stm32_radio_driver/radio.c ****         {
 1537              		.loc 1 1617 53 discriminator 1 view .LVU387
 1538 013a 9C68     		ldr	r4, [r3, #8]
1617:Middlewares/Third_Party/SubGHz_Phy/stm32_radio_driver/radio.c ****         {
 1539              		.loc 1 1617 37 discriminator 1 view .LVU388
 1540 013c 002C     		cmp	r4, #0
 1541 013e 59D0     		beq	.L120
1619:Middlewares/Third_Party/SubGHz_Phy/stm32_radio_driver/radio.c ****             {
 1542              		.loc 1 1619 13 is_stmt 1 view .LVU389
1619:Middlewares/Third_Party/SubGHz_Phy/stm32_radio_driver/radio.c ****             {
 1543              		.loc 1 1619 41 is_stmt 0 view .LVU390
 1544 0140 4F4B     		ldr	r3, .L148
 1545 0142 93F82430 		ldrb	r3, [r3, #36]	@ zero_extendqisi2
 1546 0146 012B     		cmp	r3, #1
ARM GAS  C:\Users\NATHAN~1\AppData\Local\Temp\cc90iGN6.s 			page 63


 1547 0148 1DD1     		bne	.L137
1622:Middlewares/Third_Party/SubGHz_Phy/stm32_radio_driver/radio.c ****                 break;
 1548              		.loc 1 1622 17 is_stmt 1 view .LVU391
1622:Middlewares/Third_Party/SubGHz_Phy/stm32_radio_driver/radio.c ****                 break;
 1549              		.loc 1 1622 88 is_stmt 0 view .LVU392
 1550 014a 4D4A     		ldr	r2, .L148
1622:Middlewares/Third_Party/SubGHz_Phy/stm32_radio_driver/radio.c ****                 break;
 1551              		.loc 1 1622 17 view .LVU393
 1552 014c 92F93130 		ldrsb	r3, [r2, #49]
 1553 0150 92F93020 		ldrsb	r2, [r2, #48]
 1554 0154 9DF80710 		ldrb	r1, [sp, #7]	@ zero_extendqisi2
 1555 0158 4E48     		ldr	r0, .L148+20
 1556 015a A047     		blx	r4
 1557              	.LVL157:
1623:Middlewares/Third_Party/SubGHz_Phy/stm32_radio_driver/radio.c ****             default:
 1558              		.loc 1 1623 17 is_stmt 1 view .LVU394
 1559 015c 4AE0     		b	.L120
 1560              	.L145:
1606:Middlewares/Third_Party/SubGHz_Phy/stm32_radio_driver/radio.c **** 
 1561              		.loc 1 1606 13 view .LVU395
 1562 015e 0020     		movs	r0, #0
 1563 0160 FFF7FEFF 		bl	SUBGRF_SetStandby
 1564              	.LVL158:
1610:Middlewares/Third_Party/SubGHz_Phy/stm32_radio_driver/radio.c ****             // RegEventMask = @address 0x0944
 1565              		.loc 1 1610 13 view .LVU396
 1566 0164 0021     		movs	r1, #0
 1567 0166 40F60210 		movw	r0, #2306
 1568 016a FFF7FEFF 		bl	SUBGRF_WriteRegister
 1569              	.LVL159:
1612:Middlewares/Third_Party/SubGHz_Phy/stm32_radio_driver/radio.c ****             // WORKAROUND END
 1570              		.loc 1 1612 13 view .LVU397
1612:Middlewares/Third_Party/SubGHz_Phy/stm32_radio_driver/radio.c ****             // WORKAROUND END
 1571              		.loc 1 1612 43 is_stmt 0 view .LVU398
 1572 016e 40F64410 		movw	r0, #2372
 1573 0172 FFF7FEFF 		bl	SUBGRF_ReadRegister
 1574              	.LVL160:
1612:Middlewares/Third_Party/SubGHz_Phy/stm32_radio_driver/radio.c ****             // WORKAROUND END
 1575              		.loc 1 1612 13 view .LVU399
 1576 0176 40F00201 		orr	r1, r0, #2
 1577 017a C9B2     		uxtb	r1, r1
 1578 017c 40F64410 		movw	r0, #2372
 1579 0180 FFF7FEFF 		bl	SUBGRF_WriteRegister
 1580              	.LVL161:
 1581 0184 CCE7     		b	.L136
 1582              	.L137:
1625:Middlewares/Third_Party/SubGHz_Phy/stm32_radio_driver/radio.c ****                 RadioEvents->RxDone( RadioBuffer, size, SubgRf.PacketStatus.Params.Gfsk.RssiAvg, (i
 1583              		.loc 1 1625 17 is_stmt 1 view .LVU400
 1584 0186 3E4C     		ldr	r4, .L148
 1585 0188 6946     		mov	r1, sp
 1586 018a E06B     		ldr	r0, [r4, #60]
 1587 018c FFF7FEFF 		bl	SUBGRF_GetCFO
 1588              	.LVL162:
1626:Middlewares/Third_Party/SubGHz_Phy/stm32_radio_driver/radio.c ****                 break;
 1589              		.loc 1 1626 17 view .LVU401
1626:Middlewares/Third_Party/SubGHz_Phy/stm32_radio_driver/radio.c ****                 break;
 1590              		.loc 1 1626 28 is_stmt 0 view .LVU402
 1591 0190 3E4B     		ldr	r3, .L148+12
ARM GAS  C:\Users\NATHAN~1\AppData\Local\Temp\cc90iGN6.s 			page 64


 1592 0192 1B68     		ldr	r3, [r3]
 1593 0194 9D68     		ldr	r5, [r3, #8]
1626:Middlewares/Third_Party/SubGHz_Phy/stm32_radio_driver/radio.c ****                 break;
 1594              		.loc 1 1626 107 view .LVU403
 1595 0196 009B     		ldr	r3, [sp]
 1596 0198 03F5FA73 		add	r3, r3, #500
 1597 019c 3F4A     		ldr	r2, .L148+28
 1598 019e 82FB0312 		smull	r1, r2, r2, r3
 1599 01a2 DB17     		asrs	r3, r3, #31
 1600 01a4 C3EBA213 		rsb	r3, r3, r2, asr #6
1626:Middlewares/Third_Party/SubGHz_Phy/stm32_radio_driver/radio.c ****                 break;
 1601              		.loc 1 1626 17 view .LVU404
 1602 01a8 5BB2     		sxtb	r3, r3
 1603 01aa 94F92920 		ldrsb	r2, [r4, #41]
 1604 01ae 9DF80710 		ldrb	r1, [sp, #7]	@ zero_extendqisi2
 1605 01b2 3848     		ldr	r0, .L148+20
 1606 01b4 A847     		blx	r5
 1607              	.LVL163:
1627:Middlewares/Third_Party/SubGHz_Phy/stm32_radio_driver/radio.c ****             }
 1608              		.loc 1 1627 17 is_stmt 1 view .LVU405
 1609 01b6 1DE0     		b	.L120
 1610              	.L130:
1642:Middlewares/Third_Party/SubGHz_Phy/stm32_radio_driver/radio.c ****         if( ( RadioEvents != NULL ) && ( RadioEvents->CadDone != NULL ) )
 1611              		.loc 1 1642 9 view .LVU406
 1612 01b8 0020     		movs	r0, #0
 1613 01ba FFF7FEFF 		bl	SUBGRF_SetStandby
 1614              	.LVL164:
1643:Middlewares/Third_Party/SubGHz_Phy/stm32_radio_driver/radio.c ****         {
 1615              		.loc 1 1643 9 view .LVU407
1643:Middlewares/Third_Party/SubGHz_Phy/stm32_radio_driver/radio.c ****         {
 1616              		.loc 1 1643 27 is_stmt 0 view .LVU408
 1617 01be 334B     		ldr	r3, .L148+12
 1618 01c0 1B68     		ldr	r3, [r3]
1643:Middlewares/Third_Party/SubGHz_Phy/stm32_radio_driver/radio.c ****         {
 1619              		.loc 1 1643 11 view .LVU409
 1620 01c2 BBB1     		cbz	r3, .L120
1643:Middlewares/Third_Party/SubGHz_Phy/stm32_radio_driver/radio.c ****         {
 1621              		.loc 1 1643 53 discriminator 1 view .LVU410
 1622 01c4 9B69     		ldr	r3, [r3, #24]
1643:Middlewares/Third_Party/SubGHz_Phy/stm32_radio_driver/radio.c ****         {
 1623              		.loc 1 1643 37 discriminator 1 view .LVU411
 1624 01c6 ABB1     		cbz	r3, .L120
1645:Middlewares/Third_Party/SubGHz_Phy/stm32_radio_driver/radio.c ****         }
 1625              		.loc 1 1645 13 is_stmt 1 view .LVU412
 1626 01c8 0120     		movs	r0, #1
 1627 01ca 9847     		blx	r3
 1628              	.LVL165:
 1629 01cc 12E0     		b	.L120
 1630              	.L143:
1655:Middlewares/Third_Party/SubGHz_Phy/stm32_radio_driver/radio.c ****             /* ST_WORKAROUND_END */
 1631              		.loc 1 1655 35 view .LVU413
1658:Middlewares/Third_Party/SubGHz_Phy/stm32_radio_driver/radio.c ****             //!< Update operating mode state to a value lower than \ref MODE_STDBY_XOSC
 1632              		.loc 1 1658 13 view .LVU414
1658:Middlewares/Third_Party/SubGHz_Phy/stm32_radio_driver/radio.c ****             //!< Update operating mode state to a value lower than \ref MODE_STDBY_XOSC
 1633              		.loc 1 1658 13 view .LVU415
 1634 01ce 3048     		ldr	r0, .L148+16
 1635 01d0 FFF7FEFF 		bl	UTIL_TIMER_Stop
ARM GAS  C:\Users\NATHAN~1\AppData\Local\Temp\cc90iGN6.s 			page 65


 1636              	.LVL166:
1658:Middlewares/Third_Party/SubGHz_Phy/stm32_radio_driver/radio.c ****             //!< Update operating mode state to a value lower than \ref MODE_STDBY_XOSC
 1637              		.loc 1 1658 13 view .LVU416
1660:Middlewares/Third_Party/SubGHz_Phy/stm32_radio_driver/radio.c ****             if( ( RadioEvents != NULL ) && ( RadioEvents->TxTimeout != NULL ) )
 1638              		.loc 1 1660 13 view .LVU417
 1639 01d4 0020     		movs	r0, #0
 1640 01d6 FFF7FEFF 		bl	SUBGRF_SetStandby
 1641              	.LVL167:
1661:Middlewares/Third_Party/SubGHz_Phy/stm32_radio_driver/radio.c ****             {
 1642              		.loc 1 1661 13 view .LVU418
1661:Middlewares/Third_Party/SubGHz_Phy/stm32_radio_driver/radio.c ****             {
 1643              		.loc 1 1661 31 is_stmt 0 view .LVU419
 1644 01da 2C4B     		ldr	r3, .L148+12
 1645 01dc 1B68     		ldr	r3, [r3]
1661:Middlewares/Third_Party/SubGHz_Phy/stm32_radio_driver/radio.c ****             {
 1646              		.loc 1 1661 15 view .LVU420
 1647 01de 4BB1     		cbz	r3, .L120
1661:Middlewares/Third_Party/SubGHz_Phy/stm32_radio_driver/radio.c ****             {
 1648              		.loc 1 1661 57 discriminator 1 view .LVU421
 1649 01e0 5B68     		ldr	r3, [r3, #4]
1661:Middlewares/Third_Party/SubGHz_Phy/stm32_radio_driver/radio.c ****             {
 1650              		.loc 1 1661 41 discriminator 1 view .LVU422
 1651 01e2 3BB1     		cbz	r3, .L120
1663:Middlewares/Third_Party/SubGHz_Phy/stm32_radio_driver/radio.c ****             }
 1652              		.loc 1 1663 17 is_stmt 1 view .LVU423
 1653 01e4 9847     		blx	r3
 1654              	.LVL168:
 1655 01e6 05E0     		b	.L120
 1656              	.L127:
1683:Middlewares/Third_Party/SubGHz_Phy/stm32_radio_driver/radio.c ****         break;
 1657              		.loc 1 1683 9 view .LVU424
1683:Middlewares/Third_Party/SubGHz_Phy/stm32_radio_driver/radio.c ****         break;
 1658              		.loc 1 1683 9 view .LVU425
 1659 01e8 2D4B     		ldr	r3, .L148+32
 1660 01ea 0122     		movs	r2, #1
 1661 01ec 0021     		movs	r1, #0
 1662 01ee 0220     		movs	r0, #2
 1663 01f0 FFF7FEFF 		bl	UTIL_ADV_TRACE_COND_FSend
 1664              	.LVL169:
1683:Middlewares/Third_Party/SubGHz_Phy/stm32_radio_driver/radio.c ****         break;
 1665              		.loc 1 1683 9 view .LVU426
1684:Middlewares/Third_Party/SubGHz_Phy/stm32_radio_driver/radio.c **** 
 1666              		.loc 1 1684 9 view .LVU427
 1667              	.L120:
1728:Middlewares/Third_Party/SubGHz_Phy/stm32_radio_driver/radio.c **** 
 1668              		.loc 1 1728 1 is_stmt 0 view .LVU428
 1669 01f4 03B0     		add	sp, sp, #12
 1670              	.LCFI21:
 1671              		.cfi_remember_state
 1672              		.cfi_def_cfa_offset 12
 1673              		@ sp needed
 1674 01f6 30BD     		pop	{r4, r5, pc}
 1675              	.L126:
 1676              	.LCFI22:
 1677              		.cfi_restore_state
1687:Middlewares/Third_Party/SubGHz_Phy/stm32_radio_driver/radio.c ****         if ( 1UL == RFW_Is_Init( ) )
 1678              		.loc 1 1687 9 is_stmt 1 view .LVU429
ARM GAS  C:\Users\NATHAN~1\AppData\Local\Temp\cc90iGN6.s 			page 66


1687:Middlewares/Third_Party/SubGHz_Phy/stm32_radio_driver/radio.c ****         if ( 1UL == RFW_Is_Init( ) )
 1679              		.loc 1 1687 9 view .LVU430
 1680 01f8 2A4B     		ldr	r3, .L148+36
 1681 01fa 0122     		movs	r2, #1
 1682 01fc 0021     		movs	r1, #0
 1683 01fe 0220     		movs	r0, #2
 1684 0200 FFF7FEFF 		bl	UTIL_ADV_TRACE_COND_FSend
 1685              	.LVL170:
1687:Middlewares/Third_Party/SubGHz_Phy/stm32_radio_driver/radio.c ****         if ( 1UL == RFW_Is_Init( ) )
 1686              		.loc 1 1687 9 view .LVU431
1688:Middlewares/Third_Party/SubGHz_Phy/stm32_radio_driver/radio.c ****         {
 1687              		.loc 1 1688 9 view .LVU432
1688:Middlewares/Third_Party/SubGHz_Phy/stm32_radio_driver/radio.c ****         {
 1688              		.loc 1 1688 21 is_stmt 0 view .LVU433
 1689 0204 FFF7FEFF 		bl	RFW_Is_Init
 1690              	.LVL171:
1688:Middlewares/Third_Party/SubGHz_Phy/stm32_radio_driver/radio.c ****         {
 1691              		.loc 1 1688 12 view .LVU434
 1692 0208 0128     		cmp	r0, #1
 1693 020a F3D1     		bne	.L120
1690:Middlewares/Third_Party/SubGHz_Phy/stm32_radio_driver/radio.c ****         }
 1694              		.loc 1 1690 13 is_stmt 1 view .LVU435
 1695 020c FFF7FEFF 		bl	RFW_ReceivePayload
 1696              	.LVL172:
 1697 0210 F0E7     		b	.L120
 1698              	.L125:
1695:Middlewares/Third_Party/SubGHz_Phy/stm32_radio_driver/radio.c ****         break;
 1699              		.loc 1 1695 9 view .LVU436
1695:Middlewares/Third_Party/SubGHz_Phy/stm32_radio_driver/radio.c ****         break;
 1700              		.loc 1 1695 9 view .LVU437
 1701 0212 254B     		ldr	r3, .L148+40
 1702 0214 0122     		movs	r2, #1
 1703 0216 0021     		movs	r1, #0
 1704 0218 0220     		movs	r0, #2
 1705 021a FFF7FEFF 		bl	UTIL_ADV_TRACE_COND_FSend
 1706              	.LVL173:
1695:Middlewares/Third_Party/SubGHz_Phy/stm32_radio_driver/radio.c ****         break;
 1707              		.loc 1 1695 9 view .LVU438
1696:Middlewares/Third_Party/SubGHz_Phy/stm32_radio_driver/radio.c **** 
 1708              		.loc 1 1696 9 view .LVU439
 1709 021e E9E7     		b	.L120
 1710              	.L123:
1699:Middlewares/Third_Party/SubGHz_Phy/stm32_radio_driver/radio.c ****         if( SubgRf.RxContinuous == false )
 1711              		.loc 1 1699 9 view .LVU440
1699:Middlewares/Third_Party/SubGHz_Phy/stm32_radio_driver/radio.c ****         if( SubgRf.RxContinuous == false )
 1712              		.loc 1 1699 9 view .LVU441
 1713 0220 1948     		ldr	r0, .L148+8
 1714 0222 FFF7FEFF 		bl	UTIL_TIMER_Stop
 1715              	.LVL174:
1699:Middlewares/Third_Party/SubGHz_Phy/stm32_radio_driver/radio.c ****         if( SubgRf.RxContinuous == false )
 1716              		.loc 1 1699 9 view .LVU442
1700:Middlewares/Third_Party/SubGHz_Phy/stm32_radio_driver/radio.c ****         {
 1717              		.loc 1 1700 9 view .LVU443
1700:Middlewares/Third_Party/SubGHz_Phy/stm32_radio_driver/radio.c ****         {
 1718              		.loc 1 1700 19 is_stmt 0 view .LVU444
 1719 0226 164B     		ldr	r3, .L148
 1720 0228 5B78     		ldrb	r3, [r3, #1]	@ zero_extendqisi2
ARM GAS  C:\Users\NATHAN~1\AppData\Local\Temp\cc90iGN6.s 			page 67


1700:Middlewares/Third_Party/SubGHz_Phy/stm32_radio_driver/radio.c ****         {
 1721              		.loc 1 1700 11 view .LVU445
 1722 022a 73B1     		cbz	r3, .L146
 1723              	.L139:
1705:Middlewares/Third_Party/SubGHz_Phy/stm32_radio_driver/radio.c ****         {
 1724              		.loc 1 1705 9 is_stmt 1 view .LVU446
1705:Middlewares/Third_Party/SubGHz_Phy/stm32_radio_driver/radio.c ****         {
 1725              		.loc 1 1705 27 is_stmt 0 view .LVU447
 1726 022c 174B     		ldr	r3, .L148+12
 1727 022e 1B68     		ldr	r3, [r3]
1705:Middlewares/Third_Party/SubGHz_Phy/stm32_radio_driver/radio.c ****         {
 1728              		.loc 1 1705 11 view .LVU448
 1729 0230 002B     		cmp	r3, #0
 1730 0232 DFD0     		beq	.L120
1705:Middlewares/Third_Party/SubGHz_Phy/stm32_radio_driver/radio.c ****         {
 1731              		.loc 1 1705 53 discriminator 1 view .LVU449
 1732 0234 DB68     		ldr	r3, [r3, #12]
1705:Middlewares/Third_Party/SubGHz_Phy/stm32_radio_driver/radio.c ****         {
 1733              		.loc 1 1705 37 discriminator 1 view .LVU450
 1734 0236 002B     		cmp	r3, #0
 1735 0238 DCD0     		beq	.L120
1707:Middlewares/Third_Party/SubGHz_Phy/stm32_radio_driver/radio.c ****             MW_LOG( TS_ON, VLEVEL_M,  "HDR KO\r\n" );
 1736              		.loc 1 1707 13 is_stmt 1 view .LVU451
 1737 023a 9847     		blx	r3
 1738              	.LVL175:
1708:Middlewares/Third_Party/SubGHz_Phy/stm32_radio_driver/radio.c ****         }
 1739              		.loc 1 1708 13 view .LVU452
1708:Middlewares/Third_Party/SubGHz_Phy/stm32_radio_driver/radio.c ****         }
 1740              		.loc 1 1708 13 view .LVU453
 1741 023c 1B4B     		ldr	r3, .L148+44
 1742 023e 0122     		movs	r2, #1
 1743 0240 0021     		movs	r1, #0
 1744 0242 0220     		movs	r0, #2
 1745 0244 FFF7FEFF 		bl	UTIL_ADV_TRACE_COND_FSend
 1746              	.LVL176:
 1747 0248 D4E7     		b	.L120
 1748              	.L146:
1703:Middlewares/Third_Party/SubGHz_Phy/stm32_radio_driver/radio.c ****         }
 1749              		.loc 1 1703 13 view .LVU454
 1750 024a 0020     		movs	r0, #0
 1751 024c FFF7FEFF 		bl	SUBGRF_SetStandby
 1752              	.LVL177:
 1753 0250 ECE7     		b	.L139
 1754              	.L132:
1713:Middlewares/Third_Party/SubGHz_Phy/stm32_radio_driver/radio.c **** 
 1755              		.loc 1 1713 9 view .LVU455
1713:Middlewares/Third_Party/SubGHz_Phy/stm32_radio_driver/radio.c **** 
 1756              		.loc 1 1713 9 view .LVU456
 1757 0252 174B     		ldr	r3, .L148+48
 1758 0254 0122     		movs	r2, #1
 1759 0256 0021     		movs	r1, #0
 1760 0258 0220     		movs	r0, #2
 1761 025a FFF7FEFF 		bl	UTIL_ADV_TRACE_COND_FSend
 1762              	.LVL178:
1713:Middlewares/Third_Party/SubGHz_Phy/stm32_radio_driver/radio.c **** 
 1763              		.loc 1 1713 9 view .LVU457
1715:Middlewares/Third_Party/SubGHz_Phy/stm32_radio_driver/radio.c ****         {
ARM GAS  C:\Users\NATHAN~1\AppData\Local\Temp\cc90iGN6.s 			page 68


 1764              		.loc 1 1715 9 view .LVU458
1715:Middlewares/Third_Party/SubGHz_Phy/stm32_radio_driver/radio.c ****         {
 1765              		.loc 1 1715 19 is_stmt 0 view .LVU459
 1766 025e 084B     		ldr	r3, .L148
 1767 0260 5B78     		ldrb	r3, [r3, #1]	@ zero_extendqisi2
1715:Middlewares/Third_Party/SubGHz_Phy/stm32_radio_driver/radio.c ****         {
 1768              		.loc 1 1715 11 view .LVU460
 1769 0262 43B1     		cbz	r3, .L147
 1770              	.L140:
1720:Middlewares/Third_Party/SubGHz_Phy/stm32_radio_driver/radio.c ****         {
 1771              		.loc 1 1720 9 is_stmt 1 view .LVU461
1720:Middlewares/Third_Party/SubGHz_Phy/stm32_radio_driver/radio.c ****         {
 1772              		.loc 1 1720 27 is_stmt 0 view .LVU462
 1773 0264 094B     		ldr	r3, .L148+12
 1774 0266 1B68     		ldr	r3, [r3]
1720:Middlewares/Third_Party/SubGHz_Phy/stm32_radio_driver/radio.c ****         {
 1775              		.loc 1 1720 11 view .LVU463
 1776 0268 002B     		cmp	r3, #0
 1777 026a C3D0     		beq	.L120
1720:Middlewares/Third_Party/SubGHz_Phy/stm32_radio_driver/radio.c ****         {
 1778              		.loc 1 1720 53 discriminator 1 view .LVU464
 1779 026c 1B69     		ldr	r3, [r3, #16]
1720:Middlewares/Third_Party/SubGHz_Phy/stm32_radio_driver/radio.c ****         {
 1780              		.loc 1 1720 37 discriminator 1 view .LVU465
 1781 026e 002B     		cmp	r3, #0
 1782 0270 C0D0     		beq	.L120
1722:Middlewares/Third_Party/SubGHz_Phy/stm32_radio_driver/radio.c ****         }
 1783              		.loc 1 1722 13 is_stmt 1 view .LVU466
 1784 0272 9847     		blx	r3
 1785              	.LVL179:
1728:Middlewares/Third_Party/SubGHz_Phy/stm32_radio_driver/radio.c **** 
 1786              		.loc 1 1728 1 is_stmt 0 view .LVU467
 1787 0274 BEE7     		b	.L120
 1788              	.L147:
1718:Middlewares/Third_Party/SubGHz_Phy/stm32_radio_driver/radio.c ****         }
 1789              		.loc 1 1718 13 is_stmt 1 view .LVU468
 1790 0276 0020     		movs	r0, #0
 1791 0278 FFF7FEFF 		bl	SUBGRF_SetStandby
 1792              	.LVL180:
 1793 027c F2E7     		b	.L140
 1794              	.L149:
 1795 027e 00BF     		.align	2
 1796              	.L148:
 1797 0280 00000000 		.word	.LANCHOR3
 1798 0284 00000000 		.word	.LC2
 1799 0288 00000000 		.word	.LANCHOR4
 1800 028c 00000000 		.word	.LANCHOR1
 1801 0290 00000000 		.word	.LANCHOR5
 1802 0294 00000000 		.word	.LANCHOR6
 1803 0298 24000000 		.word	.LANCHOR3+36
 1804 029c D34D6210 		.word	274877907
 1805 02a0 14000000 		.word	.LC3
 1806 02a4 20000000 		.word	.LC4
 1807 02a8 2C000000 		.word	.LC5
 1808 02ac 38000000 		.word	.LC6
 1809 02b0 44000000 		.word	.LC7
 1810              		.cfi_endproc
ARM GAS  C:\Users\NATHAN~1\AppData\Local\Temp\cc90iGN6.s 			page 69


 1811              	.LFE1025:
 1813              		.section	.text.RadioOnDioIrq,"ax",%progbits
 1814              		.align	1
 1815              		.syntax unified
 1816              		.thumb
 1817              		.thumb_func
 1819              	RadioOnDioIrq:
 1820              	.LVL181:
 1821              	.LFB1024:
1564:Middlewares/Third_Party/SubGHz_Phy/stm32_radio_driver/radio.c ****     SubgRf.RadioIrq = radioIrq;
 1822              		.loc 1 1564 1 view -0
 1823              		.cfi_startproc
 1824              		@ args = 0, pretend = 0, frame = 0
 1825              		@ frame_needed = 0, uses_anonymous_args = 0
1564:Middlewares/Third_Party/SubGHz_Phy/stm32_radio_driver/radio.c ****     SubgRf.RadioIrq = radioIrq;
 1826              		.loc 1 1564 1 is_stmt 0 view .LVU470
 1827 0000 08B5     		push	{r3, lr}
 1828              	.LCFI23:
 1829              		.cfi_def_cfa_offset 8
 1830              		.cfi_offset 3, -8
 1831              		.cfi_offset 14, -4
1565:Middlewares/Third_Party/SubGHz_Phy/stm32_radio_driver/radio.c **** 
 1832              		.loc 1 1565 5 is_stmt 1 view .LVU471
1565:Middlewares/Third_Party/SubGHz_Phy/stm32_radio_driver/radio.c **** 
 1833              		.loc 1 1565 21 is_stmt 0 view .LVU472
 1834 0002 034B     		ldr	r3, .L152
 1835 0004 A3F85400 		strh	r0, [r3, #84]	@ movhi
1567:Middlewares/Third_Party/SubGHz_Phy/stm32_radio_driver/radio.c **** }
 1836              		.loc 1 1567 5 is_stmt 1 view .LVU473
 1837 0008 FFF7FEFF 		bl	RadioIrqProcess
 1838              	.LVL182:
1568:Middlewares/Third_Party/SubGHz_Phy/stm32_radio_driver/radio.c **** 
 1839              		.loc 1 1568 1 is_stmt 0 view .LVU474
 1840 000c 08BD     		pop	{r3, pc}
 1841              	.L153:
 1842 000e 00BF     		.align	2
 1843              	.L152:
 1844 0010 00000000 		.word	.LANCHOR3
 1845              		.cfi_endproc
 1846              	.LFE1024:
 1848              		.section	.text.RadioGetWakeupTime,"ax",%progbits
 1849              		.align	1
 1850              		.syntax unified
 1851              		.thumb
 1852              		.thumb_func
 1854              	RadioGetWakeupTime:
 1855              	.LFB1019:
1525:Middlewares/Third_Party/SubGHz_Phy/stm32_radio_driver/radio.c ****     return SUBGRF_GetRadioWakeUpTime() + RADIO_WAKEUP_TIME;
 1856              		.loc 1 1525 1 is_stmt 1 view -0
 1857              		.cfi_startproc
 1858              		@ args = 0, pretend = 0, frame = 0
 1859              		@ frame_needed = 0, uses_anonymous_args = 0
 1860 0000 08B5     		push	{r3, lr}
 1861              	.LCFI24:
 1862              		.cfi_def_cfa_offset 8
 1863              		.cfi_offset 3, -8
 1864              		.cfi_offset 14, -4
ARM GAS  C:\Users\NATHAN~1\AppData\Local\Temp\cc90iGN6.s 			page 70


1526:Middlewares/Third_Party/SubGHz_Phy/stm32_radio_driver/radio.c **** }
 1865              		.loc 1 1526 5 view .LVU476
1526:Middlewares/Third_Party/SubGHz_Phy/stm32_radio_driver/radio.c **** }
 1866              		.loc 1 1526 12 is_stmt 0 view .LVU477
 1867 0002 FFF7FEFF 		bl	SUBGRF_GetRadioWakeUpTime
 1868              	.LVL183:
1527:Middlewares/Third_Party/SubGHz_Phy/stm32_radio_driver/radio.c **** 
 1869              		.loc 1 1527 1 view .LVU478
 1870 0006 0330     		adds	r0, r0, #3
 1871 0008 08BD     		pop	{r3, pc}
 1872              		.cfi_endproc
 1873              	.LFE1019:
 1875              		.section	.text.RadioReadRegisters,"ax",%progbits
 1876              		.align	1
 1877              		.syntax unified
 1878              		.thumb
 1879              		.thumb_func
 1881              	RadioReadRegisters:
 1882              	.LVL184:
 1883              	.LFB1016:
1484:Middlewares/Third_Party/SubGHz_Phy/stm32_radio_driver/radio.c ****     SUBGRF_ReadRegisters( addr, buffer, size );
 1884              		.loc 1 1484 1 is_stmt 1 view -0
 1885              		.cfi_startproc
 1886              		@ args = 0, pretend = 0, frame = 0
 1887              		@ frame_needed = 0, uses_anonymous_args = 0
1484:Middlewares/Third_Party/SubGHz_Phy/stm32_radio_driver/radio.c ****     SUBGRF_ReadRegisters( addr, buffer, size );
 1888              		.loc 1 1484 1 is_stmt 0 view .LVU480
 1889 0000 08B5     		push	{r3, lr}
 1890              	.LCFI25:
 1891              		.cfi_def_cfa_offset 8
 1892              		.cfi_offset 3, -8
 1893              		.cfi_offset 14, -4
1485:Middlewares/Third_Party/SubGHz_Phy/stm32_radio_driver/radio.c **** }
 1894              		.loc 1 1485 5 is_stmt 1 view .LVU481
 1895 0002 FFF7FEFF 		bl	SUBGRF_ReadRegisters
 1896              	.LVL185:
1486:Middlewares/Third_Party/SubGHz_Phy/stm32_radio_driver/radio.c **** 
 1897              		.loc 1 1486 1 is_stmt 0 view .LVU482
 1898 0006 08BD     		pop	{r3, pc}
 1899              		.cfi_endproc
 1900              	.LFE1016:
 1902              		.section	.text.RadioWriteRegisters,"ax",%progbits
 1903              		.align	1
 1904              		.syntax unified
 1905              		.thumb
 1906              		.thumb_func
 1908              	RadioWriteRegisters:
 1909              	.LVL186:
 1910              	.LFB1015:
1479:Middlewares/Third_Party/SubGHz_Phy/stm32_radio_driver/radio.c ****     SUBGRF_WriteRegisters( addr, buffer, size );
 1911              		.loc 1 1479 1 is_stmt 1 view -0
 1912              		.cfi_startproc
 1913              		@ args = 0, pretend = 0, frame = 0
 1914              		@ frame_needed = 0, uses_anonymous_args = 0
1479:Middlewares/Third_Party/SubGHz_Phy/stm32_radio_driver/radio.c ****     SUBGRF_WriteRegisters( addr, buffer, size );
 1915              		.loc 1 1479 1 is_stmt 0 view .LVU484
 1916 0000 08B5     		push	{r3, lr}
ARM GAS  C:\Users\NATHAN~1\AppData\Local\Temp\cc90iGN6.s 			page 71


 1917              	.LCFI26:
 1918              		.cfi_def_cfa_offset 8
 1919              		.cfi_offset 3, -8
 1920              		.cfi_offset 14, -4
1480:Middlewares/Third_Party/SubGHz_Phy/stm32_radio_driver/radio.c **** }
 1921              		.loc 1 1480 5 is_stmt 1 view .LVU485
 1922 0002 FFF7FEFF 		bl	SUBGRF_WriteRegisters
 1923              	.LVL187:
1481:Middlewares/Third_Party/SubGHz_Phy/stm32_radio_driver/radio.c **** 
 1924              		.loc 1 1481 1 is_stmt 0 view .LVU486
 1925 0006 08BD     		pop	{r3, pc}
 1926              		.cfi_endproc
 1927              	.LFE1015:
 1929              		.section	.text.RadioRssi,"ax",%progbits
 1930              		.align	1
 1931              		.syntax unified
 1932              		.thumb
 1933              		.thumb_func
 1935              	RadioRssi:
 1936              	.LVL188:
 1937              	.LFB1012:
1464:Middlewares/Third_Party/SubGHz_Phy/stm32_radio_driver/radio.c ****     return SUBGRF_GetRssiInst( );
 1938              		.loc 1 1464 1 is_stmt 1 view -0
 1939              		.cfi_startproc
 1940              		@ args = 0, pretend = 0, frame = 0
 1941              		@ frame_needed = 0, uses_anonymous_args = 0
1464:Middlewares/Third_Party/SubGHz_Phy/stm32_radio_driver/radio.c ****     return SUBGRF_GetRssiInst( );
 1942              		.loc 1 1464 1 is_stmt 0 view .LVU488
 1943 0000 08B5     		push	{r3, lr}
 1944              	.LCFI27:
 1945              		.cfi_def_cfa_offset 8
 1946              		.cfi_offset 3, -8
 1947              		.cfi_offset 14, -4
1465:Middlewares/Third_Party/SubGHz_Phy/stm32_radio_driver/radio.c **** }
 1948              		.loc 1 1465 5 is_stmt 1 view .LVU489
1465:Middlewares/Third_Party/SubGHz_Phy/stm32_radio_driver/radio.c **** }
 1949              		.loc 1 1465 12 is_stmt 0 view .LVU490
 1950 0002 FFF7FEFF 		bl	SUBGRF_GetRssiInst
 1951              	.LVL189:
1466:Middlewares/Third_Party/SubGHz_Phy/stm32_radio_driver/radio.c **** 
 1952              		.loc 1 1466 1 view .LVU491
 1953 0006 00B2     		sxth	r0, r0
 1954 0008 08BD     		pop	{r3, pc}
 1955              		.cfi_endproc
 1956              	.LFE1012:
 1958              		.section	.text.RadioSetTxContinuousWave,"ax",%progbits
 1959              		.align	1
 1960              		.syntax unified
 1961              		.thumb
 1962              		.thumb_func
 1964              	RadioSetTxContinuousWave:
 1965              	.LVL190:
 1966              	.LFB1011:
1446:Middlewares/Third_Party/SubGHz_Phy/stm32_radio_driver/radio.c ****     uint32_t timeout = ( uint32_t )time * 1000;
 1967              		.loc 1 1446 1 is_stmt 1 view -0
 1968              		.cfi_startproc
 1969              		@ args = 0, pretend = 0, frame = 0
ARM GAS  C:\Users\NATHAN~1\AppData\Local\Temp\cc90iGN6.s 			page 72


 1970              		@ frame_needed = 0, uses_anonymous_args = 0
1446:Middlewares/Third_Party/SubGHz_Phy/stm32_radio_driver/radio.c ****     uint32_t timeout = ( uint32_t )time * 1000;
 1971              		.loc 1 1446 1 is_stmt 0 view .LVU493
 1972 0000 38B5     		push	{r3, r4, r5, lr}
 1973              	.LCFI28:
 1974              		.cfi_def_cfa_offset 16
 1975              		.cfi_offset 3, -16
 1976              		.cfi_offset 4, -12
 1977              		.cfi_offset 5, -8
 1978              		.cfi_offset 14, -4
 1979 0002 0D46     		mov	r5, r1
1447:Middlewares/Third_Party/SubGHz_Phy/stm32_radio_driver/radio.c ****     uint8_t antswitchpow;
 1980              		.loc 1 1447 5 is_stmt 1 view .LVU494
1447:Middlewares/Third_Party/SubGHz_Phy/stm32_radio_driver/radio.c ****     uint8_t antswitchpow;
 1981              		.loc 1 1447 14 is_stmt 0 view .LVU495
 1982 0004 4FF47A74 		mov	r4, #1000
 1983 0008 02FB04F4 		mul	r4, r2, r4
 1984              	.LVL191:
1448:Middlewares/Third_Party/SubGHz_Phy/stm32_radio_driver/radio.c **** 
 1985              		.loc 1 1448 5 is_stmt 1 view .LVU496
1450:Middlewares/Third_Party/SubGHz_Phy/stm32_radio_driver/radio.c **** 
 1986              		.loc 1 1450 5 view .LVU497
 1987 000c FFF7FEFF 		bl	SUBGRF_SetRfFrequency
 1988              	.LVL192:
1452:Middlewares/Third_Party/SubGHz_Phy/stm32_radio_driver/radio.c **** 
 1989              		.loc 1 1452 5 view .LVU498
1452:Middlewares/Third_Party/SubGHz_Phy/stm32_radio_driver/radio.c **** 
 1990              		.loc 1 1452 20 is_stmt 0 view .LVU499
 1991 0010 2846     		mov	r0, r5
 1992 0012 FFF7FEFF 		bl	SUBGRF_SetRfTxPower
 1993              	.LVL193:
1455:Middlewares/Third_Party/SubGHz_Phy/stm32_radio_driver/radio.c **** 
 1994              		.loc 1 1455 5 is_stmt 1 view .LVU500
 1995 0016 0121     		movs	r1, #1
 1996 0018 FFF7FEFF 		bl	SUBGRF_SetSwitch
 1997              	.LVL194:
1457:Middlewares/Third_Party/SubGHz_Phy/stm32_radio_driver/radio.c **** 
 1998              		.loc 1 1457 5 view .LVU501
 1999 001c FFF7FEFF 		bl	SUBGRF_SetTxContinuousWave
 2000              	.LVL195:
1459:Middlewares/Third_Party/SubGHz_Phy/stm32_radio_driver/radio.c ****     TimerStart( &TxTimeoutTimer );
 2001              		.loc 1 1459 5 view .LVU502
1459:Middlewares/Third_Party/SubGHz_Phy/stm32_radio_driver/radio.c ****     TimerStart( &TxTimeoutTimer );
 2002              		.loc 1 1459 5 view .LVU503
 2003 0020 044D     		ldr	r5, .L164
 2004 0022 2146     		mov	r1, r4
 2005 0024 2846     		mov	r0, r5
 2006 0026 FFF7FEFF 		bl	UTIL_TIMER_SetPeriod
 2007              	.LVL196:
1459:Middlewares/Third_Party/SubGHz_Phy/stm32_radio_driver/radio.c ****     TimerStart( &TxTimeoutTimer );
 2008              		.loc 1 1459 5 view .LVU504
1460:Middlewares/Third_Party/SubGHz_Phy/stm32_radio_driver/radio.c **** }
 2009              		.loc 1 1460 5 view .LVU505
1460:Middlewares/Third_Party/SubGHz_Phy/stm32_radio_driver/radio.c **** }
 2010              		.loc 1 1460 5 view .LVU506
 2011 002a 2846     		mov	r0, r5
 2012 002c FFF7FEFF 		bl	UTIL_TIMER_Start
ARM GAS  C:\Users\NATHAN~1\AppData\Local\Temp\cc90iGN6.s 			page 73


 2013              	.LVL197:
1460:Middlewares/Third_Party/SubGHz_Phy/stm32_radio_driver/radio.c **** }
 2014              		.loc 1 1460 5 view .LVU507
1461:Middlewares/Third_Party/SubGHz_Phy/stm32_radio_driver/radio.c **** 
 2015              		.loc 1 1461 1 is_stmt 0 view .LVU508
 2016 0030 38BD     		pop	{r3, r4, r5, pc}
 2017              	.LVL198:
 2018              	.L165:
1461:Middlewares/Third_Party/SubGHz_Phy/stm32_radio_driver/radio.c **** 
 2019              		.loc 1 1461 1 view .LVU509
 2020 0032 00BF     		.align	2
 2021              	.L164:
 2022 0034 00000000 		.word	.LANCHOR5
 2023              		.cfi_endproc
 2024              	.LFE1011:
 2026              		.section	.text.RadioSetChannel,"ax",%progbits
 2027              		.align	1
 2028              		.syntax unified
 2029              		.thumb
 2030              		.thumb_func
 2032              	RadioSetChannel:
 2033              	.LVL199:
 2034              	.LFB994:
 729:Middlewares/Third_Party/SubGHz_Phy/stm32_radio_driver/radio.c ****     SUBGRF_SetRfFrequency( freq );
 2035              		.loc 1 729 1 is_stmt 1 view -0
 2036              		.cfi_startproc
 2037              		@ args = 0, pretend = 0, frame = 0
 2038              		@ frame_needed = 0, uses_anonymous_args = 0
 729:Middlewares/Third_Party/SubGHz_Phy/stm32_radio_driver/radio.c ****     SUBGRF_SetRfFrequency( freq );
 2039              		.loc 1 729 1 is_stmt 0 view .LVU511
 2040 0000 08B5     		push	{r3, lr}
 2041              	.LCFI29:
 2042              		.cfi_def_cfa_offset 8
 2043              		.cfi_offset 3, -8
 2044              		.cfi_offset 14, -4
 730:Middlewares/Third_Party/SubGHz_Phy/stm32_radio_driver/radio.c **** }
 2045              		.loc 1 730 5 is_stmt 1 view .LVU512
 2046 0002 FFF7FEFF 		bl	SUBGRF_SetRfFrequency
 2047              	.LVL200:
 731:Middlewares/Third_Party/SubGHz_Phy/stm32_radio_driver/radio.c **** 
 2048              		.loc 1 731 1 is_stmt 0 view .LVU513
 2049 0006 08BD     		pop	{r3, pc}
 2050              		.cfi_endproc
 2051              	.LFE994:
 2053              		.section	.text.RadioStartCad,"ax",%progbits
 2054              		.align	1
 2055              		.syntax unified
 2056              		.thumb
 2057              		.thumb_func
 2059              	RadioStartCad:
 2060              	.LFB1010:
1434:Middlewares/Third_Party/SubGHz_Phy/stm32_radio_driver/radio.c ****     /* RF switch configuration */
 2061              		.loc 1 1434 1 is_stmt 1 view -0
 2062              		.cfi_startproc
 2063              		@ args = 0, pretend = 0, frame = 0
 2064              		@ frame_needed = 0, uses_anonymous_args = 0
 2065 0000 08B5     		push	{r3, lr}
ARM GAS  C:\Users\NATHAN~1\AppData\Local\Temp\cc90iGN6.s 			page 74


 2066              	.LCFI30:
 2067              		.cfi_def_cfa_offset 8
 2068              		.cfi_offset 3, -8
 2069              		.cfi_offset 14, -4
1436:Middlewares/Third_Party/SubGHz_Phy/stm32_radio_driver/radio.c **** 
 2070              		.loc 1 1436 5 view .LVU515
 2071 0002 0021     		movs	r1, #0
 2072 0004 074B     		ldr	r3, .L170
 2073 0006 93F85600 		ldrb	r0, [r3, #86]	@ zero_extendqisi2
 2074 000a FFF7FEFF 		bl	SUBGRF_SetSwitch
 2075              	.LVL201:
1438:Middlewares/Third_Party/SubGHz_Phy/stm32_radio_driver/radio.c ****                             IRQ_CAD_CLEAR | IRQ_CAD_DETECTED,
 2076              		.loc 1 1438 5 view .LVU516
 2077 000e 0023     		movs	r3, #0
 2078 0010 1A46     		mov	r2, r3
 2079 0012 4FF4C071 		mov	r1, #384
 2080 0016 0846     		mov	r0, r1
 2081 0018 FFF7FEFF 		bl	SUBGRF_SetDioIrqParams
 2082              	.LVL202:
1442:Middlewares/Third_Party/SubGHz_Phy/stm32_radio_driver/radio.c **** }
 2083              		.loc 1 1442 5 view .LVU517
 2084 001c FFF7FEFF 		bl	SUBGRF_SetCad
 2085              	.LVL203:
1443:Middlewares/Third_Party/SubGHz_Phy/stm32_radio_driver/radio.c **** 
 2086              		.loc 1 1443 1 is_stmt 0 view .LVU518
 2087 0020 08BD     		pop	{r3, pc}
 2088              	.L171:
 2089 0022 00BF     		.align	2
 2090              	.L170:
 2091 0024 00000000 		.word	.LANCHOR3
 2092              		.cfi_endproc
 2093              	.LFE1010:
 2095              		.section	.text.RadioRx,"ax",%progbits
 2096              		.align	1
 2097              		.syntax unified
 2098              		.thumb
 2099              		.thumb_func
 2101              	RadioRx:
 2102              	.LVL204:
 2103              	.LFB1007:
1356:Middlewares/Third_Party/SubGHz_Phy/stm32_radio_driver/radio.c ****     if ( 1UL == RFW_Is_Init( ) )
 2104              		.loc 1 1356 1 is_stmt 1 view -0
 2105              		.cfi_startproc
 2106              		@ args = 0, pretend = 0, frame = 0
 2107              		@ frame_needed = 0, uses_anonymous_args = 0
1356:Middlewares/Third_Party/SubGHz_Phy/stm32_radio_driver/radio.c ****     if ( 1UL == RFW_Is_Init( ) )
 2108              		.loc 1 1356 1 is_stmt 0 view .LVU520
 2109 0000 38B5     		push	{r3, r4, r5, lr}
 2110              	.LCFI31:
 2111              		.cfi_def_cfa_offset 16
 2112              		.cfi_offset 3, -16
 2113              		.cfi_offset 4, -12
 2114              		.cfi_offset 5, -8
 2115              		.cfi_offset 14, -4
 2116 0002 0446     		mov	r4, r0
1357:Middlewares/Third_Party/SubGHz_Phy/stm32_radio_driver/radio.c ****     {
 2117              		.loc 1 1357 5 is_stmt 1 view .LVU521
ARM GAS  C:\Users\NATHAN~1\AppData\Local\Temp\cc90iGN6.s 			page 75


1357:Middlewares/Third_Party/SubGHz_Phy/stm32_radio_driver/radio.c ****     {
 2118              		.loc 1 1357 17 is_stmt 0 view .LVU522
 2119 0004 FFF7FEFF 		bl	RFW_Is_Init
 2120              	.LVL205:
1357:Middlewares/Third_Party/SubGHz_Phy/stm32_radio_driver/radio.c ****     {
 2121              		.loc 1 1357 8 view .LVU523
 2122 0008 0128     		cmp	r0, #1
 2123 000a 14D0     		beq	.L179
1363:Middlewares/Third_Party/SubGHz_Phy/stm32_radio_driver/radio.c ****                               IRQ_RX_DONE | IRQ_RX_TX_TIMEOUT | IRQ_CRC_ERROR | IRQ_HEADER_ERROR | 
 2124              		.loc 1 1363 7 is_stmt 1 view .LVU524
 2125 000c 0023     		movs	r3, #0
 2126 000e 1A46     		mov	r2, r3
 2127 0010 40F26221 		movw	r1, #610
 2128 0014 0846     		mov	r0, r1
 2129 0016 FFF7FEFF 		bl	SUBGRF_SetDioIrqParams
 2130              	.LVL206:
 2131              	.L174:
1369:Middlewares/Third_Party/SubGHz_Phy/stm32_radio_driver/radio.c ****     {
 2132              		.loc 1 1369 5 view .LVU525
1369:Middlewares/Third_Party/SubGHz_Phy/stm32_radio_driver/radio.c ****     {
 2133              		.loc 1 1369 7 is_stmt 0 view .LVU526
 2134 001a 7CB9     		cbnz	r4, .L180
 2135              	.L175:
1372:Middlewares/Third_Party/SubGHz_Phy/stm32_radio_driver/radio.c ****     }
 2136              		.loc 1 1372 9 is_stmt 1 discriminator 1 view .LVU527
1377:Middlewares/Third_Party/SubGHz_Phy/stm32_radio_driver/radio.c **** 
 2137              		.loc 1 1377 27 discriminator 1 view .LVU528
1380:Middlewares/Third_Party/SubGHz_Phy/stm32_radio_driver/radio.c ****     /* ST_WORKAROUND_END */
 2138              		.loc 1 1380 5 discriminator 1 view .LVU529
 2139 001c 0F4C     		ldr	r4, .L181
 2140              	.LVL207:
1380:Middlewares/Third_Party/SubGHz_Phy/stm32_radio_driver/radio.c ****     /* ST_WORKAROUND_END */
 2141              		.loc 1 1380 5 is_stmt 0 discriminator 1 view .LVU530
 2142 001e 0021     		movs	r1, #0
 2143 0020 94F85600 		ldrb	r0, [r4, #86]	@ zero_extendqisi2
 2144 0024 FFF7FEFF 		bl	SUBGRF_SetSwitch
 2145              	.LVL208:
1383:Middlewares/Third_Party/SubGHz_Phy/stm32_radio_driver/radio.c ****     {
 2146              		.loc 1 1383 5 is_stmt 1 discriminator 1 view .LVU531
1383:Middlewares/Third_Party/SubGHz_Phy/stm32_radio_driver/radio.c ****     {
 2147              		.loc 1 1383 15 is_stmt 0 discriminator 1 view .LVU532
 2148 0028 6378     		ldrb	r3, [r4, #1]	@ zero_extendqisi2
1383:Middlewares/Third_Party/SubGHz_Phy/stm32_radio_driver/radio.c ****     {
 2149              		.loc 1 1383 7 discriminator 1 view .LVU533
 2150 002a 83B1     		cbz	r3, .L176
1385:Middlewares/Third_Party/SubGHz_Phy/stm32_radio_driver/radio.c ****     }
 2151              		.loc 1 1385 9 is_stmt 1 view .LVU534
 2152 002c 6FF07F40 		mvn	r0, #-16777216
 2153 0030 FFF7FEFF 		bl	SUBGRF_SetRx
 2154              	.LVL209:
 2155              	.L172:
1391:Middlewares/Third_Party/SubGHz_Phy/stm32_radio_driver/radio.c **** 
 2156              		.loc 1 1391 1 is_stmt 0 view .LVU535
 2157 0034 38BD     		pop	{r3, r4, r5, pc}
 2158              	.LVL210:
 2159              	.L179:
1359:Middlewares/Third_Party/SubGHz_Phy/stm32_radio_driver/radio.c ****     }
ARM GAS  C:\Users\NATHAN~1\AppData\Local\Temp\cc90iGN6.s 			page 76


 2160              		.loc 1 1359 7 is_stmt 1 view .LVU536
 2161 0036 FFF7FEFF 		bl	RFW_ReceiveInit
 2162              	.LVL211:
 2163 003a EEE7     		b	.L174
 2164              	.L180:
1371:Middlewares/Third_Party/SubGHz_Phy/stm32_radio_driver/radio.c ****         TimerStart( &RxTimeoutTimer );
 2165              		.loc 1 1371 9 view .LVU537
1371:Middlewares/Third_Party/SubGHz_Phy/stm32_radio_driver/radio.c ****         TimerStart( &RxTimeoutTimer );
 2166              		.loc 1 1371 9 view .LVU538
 2167 003c 084D     		ldr	r5, .L181+4
 2168 003e 2146     		mov	r1, r4
 2169 0040 2846     		mov	r0, r5
 2170 0042 FFF7FEFF 		bl	UTIL_TIMER_SetPeriod
 2171              	.LVL212:
1371:Middlewares/Third_Party/SubGHz_Phy/stm32_radio_driver/radio.c ****         TimerStart( &RxTimeoutTimer );
 2172              		.loc 1 1371 9 view .LVU539
1372:Middlewares/Third_Party/SubGHz_Phy/stm32_radio_driver/radio.c ****     }
 2173              		.loc 1 1372 9 view .LVU540
1372:Middlewares/Third_Party/SubGHz_Phy/stm32_radio_driver/radio.c ****     }
 2174              		.loc 1 1372 9 view .LVU541
 2175 0046 2846     		mov	r0, r5
 2176 0048 FFF7FEFF 		bl	UTIL_TIMER_Start
 2177              	.LVL213:
 2178 004c E6E7     		b	.L175
 2179              	.LVL214:
 2180              	.L176:
1389:Middlewares/Third_Party/SubGHz_Phy/stm32_radio_driver/radio.c ****     }
 2181              		.loc 1 1389 9 view .LVU542
1389:Middlewares/Third_Party/SubGHz_Phy/stm32_radio_driver/radio.c ****     }
 2182              		.loc 1 1389 29 is_stmt 0 view .LVU543
 2183 004e 034B     		ldr	r3, .L181
 2184 0050 9868     		ldr	r0, [r3, #8]
1389:Middlewares/Third_Party/SubGHz_Phy/stm32_radio_driver/radio.c ****     }
 2185              		.loc 1 1389 9 view .LVU544
 2186 0052 8001     		lsls	r0, r0, #6
 2187 0054 FFF7FEFF 		bl	SUBGRF_SetRx
 2188              	.LVL215:
1391:Middlewares/Third_Party/SubGHz_Phy/stm32_radio_driver/radio.c **** 
 2189              		.loc 1 1391 1 view .LVU545
 2190 0058 ECE7     		b	.L172
 2191              	.L182:
 2192 005a 00BF     		.align	2
 2193              	.L181:
 2194 005c 00000000 		.word	.LANCHOR3
 2195 0060 00000000 		.word	.LANCHOR4
 2196              		.cfi_endproc
 2197              	.LFE1007:
 2199              		.section	.text.RadioSleep,"ax",%progbits
 2200              		.align	1
 2201              		.syntax unified
 2202              		.thumb
 2203              		.thumb_func
 2205              	RadioSleep:
 2206              	.LFB1005:
1341:Middlewares/Third_Party/SubGHz_Phy/stm32_radio_driver/radio.c ****     SleepParams_t params = { 0 };
 2207              		.loc 1 1341 1 is_stmt 1 view -0
 2208              		.cfi_startproc
ARM GAS  C:\Users\NATHAN~1\AppData\Local\Temp\cc90iGN6.s 			page 77


 2209              		@ args = 0, pretend = 0, frame = 0
 2210              		@ frame_needed = 0, uses_anonymous_args = 0
 2211 0000 08B5     		push	{r3, lr}
 2212              	.LCFI32:
 2213              		.cfi_def_cfa_offset 8
 2214              		.cfi_offset 3, -8
 2215              		.cfi_offset 14, -4
1342:Middlewares/Third_Party/SubGHz_Phy/stm32_radio_driver/radio.c **** 
 2216              		.loc 1 1342 5 view .LVU547
1344:Middlewares/Third_Party/SubGHz_Phy/stm32_radio_driver/radio.c ****     SUBGRF_SetSleep( params );
 2217              		.loc 1 1344 5 view .LVU548
1345:Middlewares/Third_Party/SubGHz_Phy/stm32_radio_driver/radio.c **** 
 2218              		.loc 1 1345 5 view .LVU549
 2219 0002 4FF00400 		mov	r0, #4
 2220 0006 FFF7FEFF 		bl	SUBGRF_SetSleep
 2221              	.LVL216:
1347:Middlewares/Third_Party/SubGHz_Phy/stm32_radio_driver/radio.c **** }
 2222              		.loc 1 1347 5 view .LVU550
 2223 000a 0220     		movs	r0, #2
 2224 000c FFF7FEFF 		bl	HAL_Delay
 2225              	.LVL217:
1348:Middlewares/Third_Party/SubGHz_Phy/stm32_radio_driver/radio.c **** 
 2226              		.loc 1 1348 1 is_stmt 0 view .LVU551
 2227 0010 08BD     		pop	{r3, pc}
 2228              		.cfi_endproc
 2229              	.LFE1005:
 2231              		.section	.rodata.RadioSend.str1.4,"aMS",%progbits,1
 2232              		.align	2
 2233              	.LC8:
 2234 0000 52616469 		.ascii	"RadioSend Oversize\015\012\000"
 2234      6F53656E 
 2234      64204F76 
 2234      65727369 
 2234      7A650D0A 
 2235              		.section	.text.RadioSend,"ax",%progbits
 2236              		.align	1
 2237              		.syntax unified
 2238              		.thumb
 2239              		.thumb_func
 2241              	RadioSend:
 2242              	.LVL218:
 2243              	.LFB1004:
1235:Middlewares/Third_Party/SubGHz_Phy/stm32_radio_driver/radio.c ****     /* ST_WORKAROUND_BEGIN : Set the debug pin and update the radio switch */
 2244              		.loc 1 1235 1 is_stmt 1 view -0
 2245              		.cfi_startproc
 2246              		@ args = 0, pretend = 0, frame = 8
 2247              		@ frame_needed = 0, uses_anonymous_args = 0
1235:Middlewares/Third_Party/SubGHz_Phy/stm32_radio_driver/radio.c ****     /* ST_WORKAROUND_BEGIN : Set the debug pin and update the radio switch */
 2248              		.loc 1 1235 1 is_stmt 0 view .LVU553
 2249 0000 70B5     		push	{r4, r5, r6, lr}
 2250              	.LCFI33:
 2251              		.cfi_def_cfa_offset 16
 2252              		.cfi_offset 4, -16
 2253              		.cfi_offset 5, -12
 2254              		.cfi_offset 6, -8
 2255              		.cfi_offset 14, -4
 2256 0002 82B0     		sub	sp, sp, #8
ARM GAS  C:\Users\NATHAN~1\AppData\Local\Temp\cc90iGN6.s 			page 78


 2257              	.LCFI34:
 2258              		.cfi_def_cfa_offset 24
 2259 0004 0546     		mov	r5, r0
 2260 0006 0C46     		mov	r4, r1
1237:Middlewares/Third_Party/SubGHz_Phy/stm32_radio_driver/radio.c ****                             IRQ_TX_DONE | IRQ_RX_TX_TIMEOUT | IRQ_TX_DBG,
 2261              		.loc 1 1237 5 is_stmt 1 view .LVU554
 2262 0008 0023     		movs	r3, #0
 2263 000a 1A46     		mov	r2, r3
 2264 000c 40F20121 		movw	r1, #513
 2265              	.LVL219:
1237:Middlewares/Third_Party/SubGHz_Phy/stm32_radio_driver/radio.c ****                             IRQ_TX_DONE | IRQ_RX_TX_TIMEOUT | IRQ_TX_DBG,
 2266              		.loc 1 1237 5 is_stmt 0 view .LVU555
 2267 0010 0846     		mov	r0, r1
 2268              	.LVL220:
1237:Middlewares/Third_Party/SubGHz_Phy/stm32_radio_driver/radio.c ****                             IRQ_TX_DONE | IRQ_RX_TX_TIMEOUT | IRQ_TX_DBG,
 2269              		.loc 1 1237 5 view .LVU556
 2270 0012 FFF7FEFF 		bl	SUBGRF_SetDioIrqParams
 2271              	.LVL221:
1245:Middlewares/Third_Party/SubGHz_Phy/stm32_radio_driver/radio.c **** 
 2272              		.loc 1 1245 27 is_stmt 1 view .LVU557
1248:Middlewares/Third_Party/SubGHz_Phy/stm32_radio_driver/radio.c ****     /* WORKAROUND - Modulation Quality with 500 kHz LoRaTM Bandwidth*/
 2273              		.loc 1 1248 5 view .LVU558
 2274 0016 5A4E     		ldr	r6, .L203
 2275 0018 0121     		movs	r1, #1
 2276 001a 96F85600 		ldrb	r0, [r6, #86]	@ zero_extendqisi2
 2277 001e FFF7FEFF 		bl	SUBGRF_SetSwitch
 2278              	.LVL222:
1251:Middlewares/Third_Party/SubGHz_Phy/stm32_radio_driver/radio.c ****     {
 2279              		.loc 1 1251 5 view .LVU559
1251:Middlewares/Third_Party/SubGHz_Phy/stm32_radio_driver/radio.c ****     {
 2280              		.loc 1 1251 15 is_stmt 0 view .LVU560
 2281 0022 3378     		ldrb	r3, [r6]	@ zero_extendqisi2
1251:Middlewares/Third_Party/SubGHz_Phy/stm32_radio_driver/radio.c ****     {
 2282              		.loc 1 1251 7 view .LVU561
 2283 0024 012B     		cmp	r3, #1
 2284 0026 03D1     		bne	.L186
1251:Middlewares/Third_Party/SubGHz_Phy/stm32_radio_driver/radio.c ****     {
 2285              		.loc 1 1251 74 discriminator 1 view .LVU562
 2286 0028 96F85130 		ldrb	r3, [r6, #81]	@ zero_extendqisi2
1251:Middlewares/Third_Party/SubGHz_Phy/stm32_radio_driver/radio.c ****     {
 2287              		.loc 1 1251 35 discriminator 1 view .LVU563
 2288 002c 062B     		cmp	r3, #6
 2289 002e 12D0     		beq	.L200
 2290              	.L186:
1257:Middlewares/Third_Party/SubGHz_Phy/stm32_radio_driver/radio.c ****     }
 2291              		.loc 1 1257 9 is_stmt 1 view .LVU564
1257:Middlewares/Third_Party/SubGHz_Phy/stm32_radio_driver/radio.c ****     }
 2292              		.loc 1 1257 39 is_stmt 0 view .LVU565
 2293 0030 40F68900 		movw	r0, #2185
 2294 0034 FFF7FEFF 		bl	SUBGRF_ReadRegister
 2295              	.LVL223:
1257:Middlewares/Third_Party/SubGHz_Phy/stm32_radio_driver/radio.c ****     }
 2296              		.loc 1 1257 9 view .LVU566
 2297 0038 40F00401 		orr	r1, r0, #4
 2298 003c C9B2     		uxtb	r1, r1
 2299 003e 40F68900 		movw	r0, #2185
 2300 0042 FFF7FEFF 		bl	SUBGRF_WriteRegister
ARM GAS  C:\Users\NATHAN~1\AppData\Local\Temp\cc90iGN6.s 			page 79


 2301              	.LVL224:
 2302              	.L187:
1260:Middlewares/Third_Party/SubGHz_Phy/stm32_radio_driver/radio.c ****     {
 2303              		.loc 1 1260 5 is_stmt 1 view .LVU567
1260:Middlewares/Third_Party/SubGHz_Phy/stm32_radio_driver/radio.c ****     {
 2304              		.loc 1 1260 18 is_stmt 0 view .LVU568
 2305 0046 4E4B     		ldr	r3, .L203
 2306 0048 1B78     		ldrb	r3, [r3]	@ zero_extendqisi2
1260:Middlewares/Third_Party/SubGHz_Phy/stm32_radio_driver/radio.c ****     {
 2307              		.loc 1 1260 5 view .LVU569
 2308 004a 032B     		cmp	r3, #3
 2309 004c 18D8     		bhi	.L188
 2310 004e DFE803F0 		tbb	[pc, r3]
 2311              	.L190:
 2312 0052 22       		.byte	(.L193-.L190)/2
 2313 0053 0D       		.byte	(.L192-.L190)/2
 2314 0054 4D       		.byte	(.L191-.L190)/2
 2315 0055 5A       		.byte	(.L189-.L190)/2
 2316              		.p2align 1
 2317              	.L200:
1253:Middlewares/Third_Party/SubGHz_Phy/stm32_radio_driver/radio.c ****     }
 2318              		.loc 1 1253 9 is_stmt 1 view .LVU570
1253:Middlewares/Third_Party/SubGHz_Phy/stm32_radio_driver/radio.c ****     }
 2319              		.loc 1 1253 39 is_stmt 0 view .LVU571
 2320 0056 40F68900 		movw	r0, #2185
 2321 005a FFF7FEFF 		bl	SUBGRF_ReadRegister
 2322              	.LVL225:
1253:Middlewares/Third_Party/SubGHz_Phy/stm32_radio_driver/radio.c ****     }
 2323              		.loc 1 1253 9 view .LVU572
 2324 005e 00F0FB01 		and	r1, r0, #251
 2325 0062 40F68900 		movw	r0, #2185
 2326 0066 FFF7FEFF 		bl	SUBGRF_WriteRegister
 2327              	.LVL226:
 2328 006a ECE7     		b	.L187
 2329              	.L192:
1264:Middlewares/Third_Party/SubGHz_Phy/stm32_radio_driver/radio.c ****             SUBGRF_SetPacketParams( &SubgRf.PacketParams );
 2330              		.loc 1 1264 13 is_stmt 1 view .LVU573
1264:Middlewares/Third_Party/SubGHz_Phy/stm32_radio_driver/radio.c ****             SUBGRF_SetPacketParams( &SubgRf.PacketParams );
 2331              		.loc 1 1264 59 is_stmt 0 view .LVU574
 2332 006c 4448     		ldr	r0, .L203
 2333 006e C477     		strb	r4, [r0, #31]
1265:Middlewares/Third_Party/SubGHz_Phy/stm32_radio_driver/radio.c ****             SUBGRF_SendPayload( buffer, size, 0 );
 2334              		.loc 1 1265 13 is_stmt 1 view .LVU575
 2335 0070 0E30     		adds	r0, r0, #14
 2336 0072 FFF7FEFF 		bl	SUBGRF_SetPacketParams
 2337              	.LVL227:
1266:Middlewares/Third_Party/SubGHz_Phy/stm32_radio_driver/radio.c ****             break;
 2338              		.loc 1 1266 13 view .LVU576
 2339 0076 0022     		movs	r2, #0
 2340 0078 2146     		mov	r1, r4
 2341 007a 2846     		mov	r0, r5
 2342 007c FFF7FEFF 		bl	SUBGRF_SendPayload
 2343              	.LVL228:
1267:Middlewares/Third_Party/SubGHz_Phy/stm32_radio_driver/radio.c ****         }
 2344              		.loc 1 1267 13 view .LVU577
 2345              	.L188:
1336:Middlewares/Third_Party/SubGHz_Phy/stm32_radio_driver/radio.c ****     TimerStart( &TxTimeoutTimer );
ARM GAS  C:\Users\NATHAN~1\AppData\Local\Temp\cc90iGN6.s 			page 80


 2346              		.loc 1 1336 5 view .LVU578
1336:Middlewares/Third_Party/SubGHz_Phy/stm32_radio_driver/radio.c ****     TimerStart( &TxTimeoutTimer );
 2347              		.loc 1 1336 5 view .LVU579
 2348 0080 404C     		ldr	r4, .L203+4
 2349 0082 3F4B     		ldr	r3, .L203
 2350 0084 5968     		ldr	r1, [r3, #4]
 2351 0086 2046     		mov	r0, r4
 2352 0088 FFF7FEFF 		bl	UTIL_TIMER_SetPeriod
 2353              	.LVL229:
1336:Middlewares/Third_Party/SubGHz_Phy/stm32_radio_driver/radio.c ****     TimerStart( &TxTimeoutTimer );
 2354              		.loc 1 1336 5 view .LVU580
1337:Middlewares/Third_Party/SubGHz_Phy/stm32_radio_driver/radio.c **** }
 2355              		.loc 1 1337 5 view .LVU581
1337:Middlewares/Third_Party/SubGHz_Phy/stm32_radio_driver/radio.c **** }
 2356              		.loc 1 1337 5 view .LVU582
 2357 008c 2046     		mov	r0, r4
 2358 008e FFF7FEFF 		bl	UTIL_TIMER_Start
 2359              	.LVL230:
1337:Middlewares/Third_Party/SubGHz_Phy/stm32_radio_driver/radio.c **** }
 2360              		.loc 1 1337 5 view .LVU583
 2361              	.L185:
1338:Middlewares/Third_Party/SubGHz_Phy/stm32_radio_driver/radio.c **** 
 2362              		.loc 1 1338 1 is_stmt 0 view .LVU584
 2363 0092 02B0     		add	sp, sp, #8
 2364              	.LCFI35:
 2365              		.cfi_remember_state
 2366              		.cfi_def_cfa_offset 16
 2367              		@ sp needed
 2368 0094 70BD     		pop	{r4, r5, r6, pc}
 2369              	.LVL231:
 2370              	.L193:
 2371              	.LCFI36:
 2372              		.cfi_restore_state
1271:Middlewares/Third_Party/SubGHz_Phy/stm32_radio_driver/radio.c ****             {
 2373              		.loc 1 1271 13 is_stmt 1 view .LVU585
1271:Middlewares/Third_Party/SubGHz_Phy/stm32_radio_driver/radio.c ****             {
 2374              		.loc 1 1271 25 is_stmt 0 view .LVU586
 2375 0096 FFF7FEFF 		bl	RFW_Is_Init
 2376              	.LVL232:
1271:Middlewares/Third_Party/SubGHz_Phy/stm32_radio_driver/radio.c ****             {
 2377              		.loc 1 1271 16 view .LVU587
 2378 009a 0128     		cmp	r0, #1
 2379 009c 0AD0     		beq	.L201
1288:Middlewares/Third_Party/SubGHz_Phy/stm32_radio_driver/radio.c ****               SUBGRF_SetPacketParams( &SubgRf.PacketParams );
 2380              		.loc 1 1288 15 is_stmt 1 view .LVU588
1288:Middlewares/Third_Party/SubGHz_Phy/stm32_radio_driver/radio.c ****               SUBGRF_SetPacketParams( &SubgRf.PacketParams );
 2381              		.loc 1 1288 61 is_stmt 0 view .LVU589
 2382 009e 3848     		ldr	r0, .L203
 2383 00a0 8475     		strb	r4, [r0, #22]
1289:Middlewares/Third_Party/SubGHz_Phy/stm32_radio_driver/radio.c ****               SUBGRF_SendPayload( buffer, size, 0 );
 2384              		.loc 1 1289 15 is_stmt 1 view .LVU590
 2385 00a2 0E30     		adds	r0, r0, #14
 2386 00a4 FFF7FEFF 		bl	SUBGRF_SetPacketParams
 2387              	.LVL233:
1290:Middlewares/Third_Party/SubGHz_Phy/stm32_radio_driver/radio.c ****             }
 2388              		.loc 1 1290 15 view .LVU591
 2389 00a8 0022     		movs	r2, #0
ARM GAS  C:\Users\NATHAN~1\AppData\Local\Temp\cc90iGN6.s 			page 81


 2390 00aa 2146     		mov	r1, r4
 2391 00ac 2846     		mov	r0, r5
 2392 00ae FFF7FEFF 		bl	SUBGRF_SendPayload
 2393              	.LVL234:
 2394 00b2 E5E7     		b	.L188
 2395              	.L201:
 2396              	.LBB2:
1273:Middlewares/Third_Party/SubGHz_Phy/stm32_radio_driver/radio.c ****               if ( 0UL == RFW_TransmitInit( buffer,size, &outsize ) )
 2397              		.loc 1 1273 15 view .LVU592
1274:Middlewares/Third_Party/SubGHz_Phy/stm32_radio_driver/radio.c ****               {
 2398              		.loc 1 1274 15 view .LVU593
1274:Middlewares/Third_Party/SubGHz_Phy/stm32_radio_driver/radio.c ****               {
 2399              		.loc 1 1274 27 is_stmt 0 view .LVU594
 2400 00b4 0DF10702 		add	r2, sp, #7
 2401 00b8 2146     		mov	r1, r4
 2402 00ba 2846     		mov	r0, r5
 2403 00bc FFF7FEFF 		bl	RFW_TransmitInit
 2404              	.LVL235:
1274:Middlewares/Third_Party/SubGHz_Phy/stm32_radio_driver/radio.c ****               {
 2405              		.loc 1 1274 18 view .LVU595
 2406 00c0 68B9     		cbnz	r0, .L195
1276:Middlewares/Third_Party/SubGHz_Phy/stm32_radio_driver/radio.c ****                   SUBGRF_SetPacketParams( &SubgRf.PacketParams );
 2407              		.loc 1 1276 19 is_stmt 1 view .LVU596
1276:Middlewares/Third_Party/SubGHz_Phy/stm32_radio_driver/radio.c ****                   SUBGRF_SetPacketParams( &SubgRf.PacketParams );
 2408              		.loc 1 1276 65 is_stmt 0 view .LVU597
 2409 00c2 2F48     		ldr	r0, .L203
 2410 00c4 9DF80730 		ldrb	r3, [sp, #7]	@ zero_extendqisi2
 2411 00c8 8375     		strb	r3, [r0, #22]
1277:Middlewares/Third_Party/SubGHz_Phy/stm32_radio_driver/radio.c ****                   SUBGRF_SendPayload( buffer, outsize, 0 );
 2412              		.loc 1 1277 19 is_stmt 1 view .LVU598
 2413 00ca 0E30     		adds	r0, r0, #14
 2414 00cc FFF7FEFF 		bl	SUBGRF_SetPacketParams
 2415              	.LVL236:
1278:Middlewares/Third_Party/SubGHz_Phy/stm32_radio_driver/radio.c ****               }
 2416              		.loc 1 1278 19 view .LVU599
 2417 00d0 0022     		movs	r2, #0
 2418 00d2 9DF80710 		ldrb	r1, [sp, #7]	@ zero_extendqisi2
 2419 00d6 2846     		mov	r0, r5
 2420 00d8 FFF7FEFF 		bl	SUBGRF_SendPayload
 2421              	.LVL237:
 2422 00dc D0E7     		b	.L188
 2423              	.L195:
1282:Middlewares/Third_Party/SubGHz_Phy/stm32_radio_driver/radio.c ****                 return;
 2424              		.loc 1 1282 17 view .LVU600
1282:Middlewares/Third_Party/SubGHz_Phy/stm32_radio_driver/radio.c ****                 return;
 2425              		.loc 1 1282 17 view .LVU601
 2426 00de 2A4B     		ldr	r3, .L203+8
 2427 00e0 0122     		movs	r2, #1
 2428 00e2 0021     		movs	r1, #0
 2429 00e4 0220     		movs	r0, #2
 2430 00e6 FFF7FEFF 		bl	UTIL_ADV_TRACE_COND_FSend
 2431              	.LVL238:
1282:Middlewares/Third_Party/SubGHz_Phy/stm32_radio_driver/radio.c ****                 return;
 2432              		.loc 1 1282 17 view .LVU602
1283:Middlewares/Third_Party/SubGHz_Phy/stm32_radio_driver/radio.c ****               }
 2433              		.loc 1 1283 17 view .LVU603
 2434 00ea D2E7     		b	.L185
ARM GAS  C:\Users\NATHAN~1\AppData\Local\Temp\cc90iGN6.s 			page 82


 2435              	.L191:
1283:Middlewares/Third_Party/SubGHz_Phy/stm32_radio_driver/radio.c ****               }
 2436              		.loc 1 1283 17 is_stmt 0 view .LVU604
 2437              	.LBE2:
1296:Middlewares/Third_Party/SubGHz_Phy/stm32_radio_driver/radio.c ****             SubgRf.PacketParams.Params.Bpsk.PayloadLength = size;
 2438              		.loc 1 1296 13 is_stmt 1 view .LVU605
1296:Middlewares/Third_Party/SubGHz_Phy/stm32_radio_driver/radio.c ****             SubgRf.PacketParams.Params.Bpsk.PayloadLength = size;
 2439              		.loc 1 1296 44 is_stmt 0 view .LVU606
 2440 00ec 2448     		ldr	r0, .L203
 2441 00ee 0223     		movs	r3, #2
 2442 00f0 8373     		strb	r3, [r0, #14]
1297:Middlewares/Third_Party/SubGHz_Phy/stm32_radio_driver/radio.c ****             SUBGRF_SetPacketParams( &SubgRf.PacketParams );
 2443              		.loc 1 1297 13 is_stmt 1 view .LVU607
1297:Middlewares/Third_Party/SubGHz_Phy/stm32_radio_driver/radio.c ****             SUBGRF_SetPacketParams( &SubgRf.PacketParams );
 2444              		.loc 1 1297 59 is_stmt 0 view .LVU608
 2445 00f2 8476     		strb	r4, [r0, #26]
1298:Middlewares/Third_Party/SubGHz_Phy/stm32_radio_driver/radio.c ****             SUBGRF_SendPayload( buffer, size, 0 );
 2446              		.loc 1 1298 13 is_stmt 1 view .LVU609
 2447 00f4 0E30     		adds	r0, r0, #14
 2448 00f6 FFF7FEFF 		bl	SUBGRF_SetPacketParams
 2449              	.LVL239:
1299:Middlewares/Third_Party/SubGHz_Phy/stm32_radio_driver/radio.c ****             break;
 2450              		.loc 1 1299 13 view .LVU610
 2451 00fa 0022     		movs	r2, #0
 2452 00fc 2146     		mov	r1, r4
 2453 00fe 2846     		mov	r0, r5
 2454 0100 FFF7FEFF 		bl	SUBGRF_SendPayload
 2455              	.LVL240:
1300:Middlewares/Third_Party/SubGHz_Phy/stm32_radio_driver/radio.c ****         }
 2456              		.loc 1 1300 13 view .LVU611
 2457 0104 BCE7     		b	.L188
 2458              	.L189:
 2459              	.LBB3:
1307:Middlewares/Third_Party/SubGHz_Phy/stm32_radio_driver/radio.c **** 
 2460              		.loc 1 1307 13 view .LVU612
 2461 0106 2246     		mov	r2, r4
 2462 0108 2946     		mov	r1, r5
 2463 010a 2048     		ldr	r0, .L203+12
 2464 010c FFF7FEFF 		bl	payload_integration
 2465              	.LVL241:
1309:Middlewares/Third_Party/SubGHz_Phy/stm32_radio_driver/radio.c ****             SubgRf.PacketParams.Params.Bpsk.PayloadLength = size + 1;
 2466              		.loc 1 1309 13 view .LVU613
1309:Middlewares/Third_Party/SubGHz_Phy/stm32_radio_driver/radio.c ****             SubgRf.PacketParams.Params.Bpsk.PayloadLength = size + 1;
 2467              		.loc 1 1309 44 is_stmt 0 view .LVU614
 2468 0110 1B4E     		ldr	r6, .L203
 2469 0112 0223     		movs	r3, #2
 2470 0114 B373     		strb	r3, [r6, #14]
1310:Middlewares/Third_Party/SubGHz_Phy/stm32_radio_driver/radio.c ****             SUBGRF_SetPacketParams( &SubgRf.PacketParams );
 2471              		.loc 1 1310 13 is_stmt 1 view .LVU615
1310:Middlewares/Third_Party/SubGHz_Phy/stm32_radio_driver/radio.c ****             SUBGRF_SetPacketParams( &SubgRf.PacketParams );
 2472              		.loc 1 1310 66 is_stmt 0 view .LVU616
 2473 0116 651C     		adds	r5, r4, #1
 2474              	.LVL242:
1310:Middlewares/Third_Party/SubGHz_Phy/stm32_radio_driver/radio.c ****             SUBGRF_SetPacketParams( &SubgRf.PacketParams );
 2475              		.loc 1 1310 66 view .LVU617
 2476 0118 EDB2     		uxtb	r5, r5
1310:Middlewares/Third_Party/SubGHz_Phy/stm32_radio_driver/radio.c ****             SUBGRF_SetPacketParams( &SubgRf.PacketParams );
ARM GAS  C:\Users\NATHAN~1\AppData\Local\Temp\cc90iGN6.s 			page 83


 2477              		.loc 1 1310 59 view .LVU618
 2478 011a B576     		strb	r5, [r6, #26]
1311:Middlewares/Third_Party/SubGHz_Phy/stm32_radio_driver/radio.c **** 
 2479              		.loc 1 1311 13 is_stmt 1 view .LVU619
 2480 011c 06F10E00 		add	r0, r6, #14
 2481 0120 FFF7FEFF 		bl	SUBGRF_SetPacketParams
 2482              	.LVL243:
1313:Middlewares/Third_Party/SubGHz_Phy/stm32_radio_driver/radio.c ****             RadioWrite( 0x00F0, 0 ); // clean start-up MSB
 2483              		.loc 1 1313 13 view .LVU620
 2484 0124 0021     		movs	r1, #0
 2485 0126 F120     		movs	r0, #241
 2486 0128 FFF7FEFF 		bl	RadioWrite
 2487              	.LVL244:
1314:Middlewares/Third_Party/SubGHz_Phy/stm32_radio_driver/radio.c ****             if( SubgRf.ModulationParams.Params.Bpsk.BitRate == 100 )
 2488              		.loc 1 1314 13 view .LVU621
 2489 012c 0021     		movs	r1, #0
 2490 012e F020     		movs	r0, #240
 2491 0130 FFF7FEFF 		bl	RadioWrite
 2492              	.LVL245:
1315:Middlewares/Third_Party/SubGHz_Phy/stm32_radio_driver/radio.c ****             {
 2493              		.loc 1 1315 13 view .LVU622
1315:Middlewares/Third_Party/SubGHz_Phy/stm32_radio_driver/radio.c ****             {
 2494              		.loc 1 1315 52 is_stmt 0 view .LVU623
 2495 0134 B36C     		ldr	r3, [r6, #72]
1315:Middlewares/Third_Party/SubGHz_Phy/stm32_radio_driver/radio.c ****             {
 2496              		.loc 1 1315 15 view .LVU624
 2497 0136 642B     		cmp	r3, #100
 2498 0138 19D0     		beq	.L202
1322:Middlewares/Third_Party/SubGHz_Phy/stm32_radio_driver/radio.c ****                 RadioWrite( 0x00F2, 0x04 ); // clean end of frame MSB
 2499              		.loc 1 1322 17 is_stmt 1 view .LVU625
 2500 013a E121     		movs	r1, #225
 2501 013c F320     		movs	r0, #243
 2502 013e FFF7FEFF 		bl	RadioWrite
 2503              	.LVL246:
1323:Middlewares/Third_Party/SubGHz_Phy/stm32_radio_driver/radio.c ****             }
 2504              		.loc 1 1323 17 view .LVU626
 2505 0142 0421     		movs	r1, #4
 2506 0144 F220     		movs	r0, #242
 2507 0146 FFF7FEFF 		bl	RadioWrite
 2508              	.LVL247:
 2509              	.L198:
1326:Middlewares/Third_Party/SubGHz_Phy/stm32_radio_driver/radio.c ****             RadioWrite( 0x00F4, ( bitNum >> 8 ) & 0x00FF );    // limit frame
 2510              		.loc 1 1326 13 view .LVU627
1326:Middlewares/Third_Party/SubGHz_Phy/stm32_radio_driver/radio.c ****             RadioWrite( 0x00F4, ( bitNum >> 8 ) & 0x00FF );    // limit frame
 2511              		.loc 1 1326 44 is_stmt 0 view .LVU628
 2512 014a E100     		lsls	r1, r4, #3
1326:Middlewares/Third_Party/SubGHz_Phy/stm32_radio_driver/radio.c ****             RadioWrite( 0x00F4, ( bitNum >> 8 ) & 0x00FF );    // limit frame
 2513              		.loc 1 1326 22 view .LVU629
 2514 014c 8C1C     		adds	r4, r1, #2
 2515              	.LVL248:
1327:Middlewares/Third_Party/SubGHz_Phy/stm32_radio_driver/radio.c ****             RadioWrite( 0x00F5, bitNum & 0x00FF );             // limit frame
 2516              		.loc 1 1327 13 is_stmt 1 view .LVU630
 2517 014e 090A     		lsrs	r1, r1, #8
 2518 0150 F420     		movs	r0, #244
 2519 0152 FFF7FEFF 		bl	RadioWrite
 2520              	.LVL249:
1328:Middlewares/Third_Party/SubGHz_Phy/stm32_radio_driver/radio.c ****             SUBGRF_SendPayload( RadioBuffer, size+1 , 0xFFFFFF );
ARM GAS  C:\Users\NATHAN~1\AppData\Local\Temp\cc90iGN6.s 			page 84


 2521              		.loc 1 1328 13 view .LVU631
 2522 0156 04F0FE01 		and	r1, r4, #254
 2523 015a F520     		movs	r0, #245
 2524 015c FFF7FEFF 		bl	RadioWrite
 2525              	.LVL250:
1329:Middlewares/Third_Party/SubGHz_Phy/stm32_radio_driver/radio.c ****             break;
 2526              		.loc 1 1329 13 view .LVU632
 2527 0160 6FF07F42 		mvn	r2, #-16777216
 2528 0164 2946     		mov	r1, r5
 2529 0166 0948     		ldr	r0, .L203+12
 2530 0168 FFF7FEFF 		bl	SUBGRF_SendPayload
 2531              	.LVL251:
1330:Middlewares/Third_Party/SubGHz_Phy/stm32_radio_driver/radio.c ****         }
 2532              		.loc 1 1330 13 view .LVU633
 2533 016c 88E7     		b	.L188
 2534              	.LVL252:
 2535              	.L202:
1317:Middlewares/Third_Party/SubGHz_Phy/stm32_radio_driver/radio.c ****                 RadioWrite( 0x00F2, 0x1D ); // clean end of frame MSB
 2536              		.loc 1 1317 17 view .LVU634
 2537 016e 7021     		movs	r1, #112
 2538 0170 F320     		movs	r0, #243
 2539 0172 FFF7FEFF 		bl	RadioWrite
 2540              	.LVL253:
1318:Middlewares/Third_Party/SubGHz_Phy/stm32_radio_driver/radio.c ****             }
 2541              		.loc 1 1318 17 view .LVU635
 2542 0176 1D21     		movs	r1, #29
 2543 0178 F220     		movs	r0, #242
 2544 017a FFF7FEFF 		bl	RadioWrite
 2545              	.LVL254:
 2546 017e E4E7     		b	.L198
 2547              	.L204:
 2548              		.align	2
 2549              	.L203:
 2550 0180 00000000 		.word	.LANCHOR3
 2551 0184 00000000 		.word	.LANCHOR5
 2552 0188 00000000 		.word	.LC8
 2553 018c 00000000 		.word	.LANCHOR6
 2554              	.LBE3:
 2555              		.cfi_endproc
 2556              	.LFE1004:
 2558              		.section	.text.RadioSetModem,"ax",%progbits
 2559              		.align	1
 2560              		.syntax unified
 2561              		.thumb
 2562              		.thumb_func
 2564              	RadioSetModem:
 2565              	.LVL255:
 2566              	.LFB993:
 686:Middlewares/Third_Party/SubGHz_Phy/stm32_radio_driver/radio.c ****     SubgRf.Modem = modem;
 2567              		.loc 1 686 1 view -0
 2568              		.cfi_startproc
 2569              		@ args = 0, pretend = 0, frame = 0
 2570              		@ frame_needed = 0, uses_anonymous_args = 0
 686:Middlewares/Third_Party/SubGHz_Phy/stm32_radio_driver/radio.c ****     SubgRf.Modem = modem;
 2571              		.loc 1 686 1 is_stmt 0 view .LVU637
 2572 0000 10B5     		push	{r4, lr}
 2573              	.LCFI37:
ARM GAS  C:\Users\NATHAN~1\AppData\Local\Temp\cc90iGN6.s 			page 85


 2574              		.cfi_def_cfa_offset 8
 2575              		.cfi_offset 4, -8
 2576              		.cfi_offset 14, -4
 2577 0002 0446     		mov	r4, r0
 687:Middlewares/Third_Party/SubGHz_Phy/stm32_radio_driver/radio.c ****     RFW_SetRadioModem(modem);
 2578              		.loc 1 687 5 is_stmt 1 view .LVU638
 687:Middlewares/Third_Party/SubGHz_Phy/stm32_radio_driver/radio.c ****     RFW_SetRadioModem(modem);
 2579              		.loc 1 687 18 is_stmt 0 view .LVU639
 2580 0004 194B     		ldr	r3, .L214
 2581 0006 1870     		strb	r0, [r3]
 688:Middlewares/Third_Party/SubGHz_Phy/stm32_radio_driver/radio.c ****     switch( modem )
 2582              		.loc 1 688 5 is_stmt 1 view .LVU640
 2583 0008 FFF7FEFF 		bl	RFW_SetRadioModem
 2584              	.LVL256:
 689:Middlewares/Third_Party/SubGHz_Phy/stm32_radio_driver/radio.c ****     {
 2585              		.loc 1 689 5 view .LVU641
 2586 000c 013C     		subs	r4, r4, #1
 2587 000e 032C     		cmp	r4, #3
 2588 0010 03D8     		bhi	.L206
 2589 0012 DFE804F0 		tbb	[pc, r4]
 2590              	.L208:
 2591 0016 09       		.byte	(.L211-.L208)/2
 2592 0017 15       		.byte	(.L210-.L208)/2
 2593 0018 1C       		.byte	(.L209-.L208)/2
 2594 0019 23       		.byte	(.L207-.L208)/2
 2595              		.p2align 1
 2596              	.L206:
 693:Middlewares/Third_Party/SubGHz_Phy/stm32_radio_driver/radio.c ****         // When switching to GFSK mode the LoRa SyncWord register value is reset
 2597              		.loc 1 693 9 view .LVU642
 2598 001a 0020     		movs	r0, #0
 2599 001c FFF7FEFF 		bl	SUBGRF_SetPacketType
 2600              	.LVL257:
 696:Middlewares/Third_Party/SubGHz_Phy/stm32_radio_driver/radio.c ****         break;
 2601              		.loc 1 696 9 view .LVU643
 696:Middlewares/Third_Party/SubGHz_Phy/stm32_radio_driver/radio.c ****         break;
 2602              		.loc 1 696 38 is_stmt 0 view .LVU644
 2603 0020 124B     		ldr	r3, .L214
 2604 0022 0022     		movs	r2, #0
 2605 0024 5A73     		strb	r2, [r3, #13]
 697:Middlewares/Third_Party/SubGHz_Phy/stm32_radio_driver/radio.c ****     case MODEM_LORA:
 2606              		.loc 1 697 9 is_stmt 1 view .LVU645
 2607 0026 11E0     		b	.L205
 2608              	.L211:
 699:Middlewares/Third_Party/SubGHz_Phy/stm32_radio_driver/radio.c ****         // Public/Private network register is reset when switching modems
 2609              		.loc 1 699 9 view .LVU646
 2610 0028 0120     		movs	r0, #1
 2611 002a FFF7FEFF 		bl	SUBGRF_SetPacketType
 2612              	.LVL258:
 701:Middlewares/Third_Party/SubGHz_Phy/stm32_radio_driver/radio.c ****         {
 2613              		.loc 1 701 9 view .LVU647
 701:Middlewares/Third_Party/SubGHz_Phy/stm32_radio_driver/radio.c ****         {
 2614              		.loc 1 701 33 is_stmt 0 view .LVU648
 2615 002e 0F4B     		ldr	r3, .L214
 2616 0030 5A7B     		ldrb	r2, [r3, #13]	@ zero_extendqisi2
 701:Middlewares/Third_Party/SubGHz_Phy/stm32_radio_driver/radio.c ****         {
 2617              		.loc 1 701 65 view .LVU649
 2618 0032 187B     		ldrb	r0, [r3, #12]	@ zero_extendqisi2
ARM GAS  C:\Users\NATHAN~1\AppData\Local\Temp\cc90iGN6.s 			page 86


 701:Middlewares/Third_Party/SubGHz_Phy/stm32_radio_driver/radio.c ****         {
 2619              		.loc 1 701 11 view .LVU650
 2620 0034 8242     		cmp	r2, r0
 2621 0036 09D0     		beq	.L205
 703:Middlewares/Third_Party/SubGHz_Phy/stm32_radio_driver/radio.c ****             RadioSetPublicNetwork( SubgRf.PublicNetwork.Current );
 2622              		.loc 1 703 13 is_stmt 1 view .LVU651
 703:Middlewares/Third_Party/SubGHz_Phy/stm32_radio_driver/radio.c ****             RadioSetPublicNetwork( SubgRf.PublicNetwork.Current );
 2623              		.loc 1 703 42 is_stmt 0 view .LVU652
 2624 0038 5873     		strb	r0, [r3, #13]
 704:Middlewares/Third_Party/SubGHz_Phy/stm32_radio_driver/radio.c ****         }
 2625              		.loc 1 704 13 is_stmt 1 view .LVU653
 2626 003a FFF7FEFF 		bl	RadioSetPublicNetwork
 2627              	.LVL259:
 2628 003e 05E0     		b	.L205
 2629              	.L210:
 708:Middlewares/Third_Party/SubGHz_Phy/stm32_radio_driver/radio.c ****         // When switching to BPSK mode the LoRa SyncWord register value is reset
 2630              		.loc 1 708 9 view .LVU654
 2631 0040 0220     		movs	r0, #2
 2632 0042 FFF7FEFF 		bl	SUBGRF_SetPacketType
 2633              	.LVL260:
 711:Middlewares/Third_Party/SubGHz_Phy/stm32_radio_driver/radio.c ****         break;
 2634              		.loc 1 711 9 view .LVU655
 711:Middlewares/Third_Party/SubGHz_Phy/stm32_radio_driver/radio.c ****         break;
 2635              		.loc 1 711 38 is_stmt 0 view .LVU656
 2636 0046 094B     		ldr	r3, .L214
 2637 0048 0022     		movs	r2, #0
 2638 004a 5A73     		strb	r2, [r3, #13]
 712:Middlewares/Third_Party/SubGHz_Phy/stm32_radio_driver/radio.c ****     case MODEM_SIGFOX_TX:
 2639              		.loc 1 712 9 is_stmt 1 view .LVU657
 2640              	.L205:
 726:Middlewares/Third_Party/SubGHz_Phy/stm32_radio_driver/radio.c **** 
 2641              		.loc 1 726 1 is_stmt 0 view .LVU658
 2642 004c 10BD     		pop	{r4, pc}
 2643              	.L209:
 714:Middlewares/Third_Party/SubGHz_Phy/stm32_radio_driver/radio.c ****         // When switching to BPSK mode the LoRa SyncWord register value is reset
 2644              		.loc 1 714 9 is_stmt 1 view .LVU659
 2645 004e 0220     		movs	r0, #2
 2646 0050 FFF7FEFF 		bl	SUBGRF_SetPacketType
 2647              	.LVL261:
 717:Middlewares/Third_Party/SubGHz_Phy/stm32_radio_driver/radio.c ****         break;
 2648              		.loc 1 717 9 view .LVU660
 717:Middlewares/Third_Party/SubGHz_Phy/stm32_radio_driver/radio.c ****         break;
 2649              		.loc 1 717 38 is_stmt 0 view .LVU661
 2650 0054 054B     		ldr	r3, .L214
 2651 0056 0022     		movs	r2, #0
 2652 0058 5A73     		strb	r2, [r3, #13]
 718:Middlewares/Third_Party/SubGHz_Phy/stm32_radio_driver/radio.c ****     case MODEM_SIGFOX_RX:
 2653              		.loc 1 718 9 is_stmt 1 view .LVU662
 2654 005a F7E7     		b	.L205
 2655              	.L207:
 720:Middlewares/Third_Party/SubGHz_Phy/stm32_radio_driver/radio.c ****         // When switching to GFSK mode the LoRa SyncWord register value is reset
 2656              		.loc 1 720 9 view .LVU663
 2657 005c 0020     		movs	r0, #0
 2658 005e FFF7FEFF 		bl	SUBGRF_SetPacketType
 2659              	.LVL262:
 723:Middlewares/Third_Party/SubGHz_Phy/stm32_radio_driver/radio.c ****         break;
 2660              		.loc 1 723 9 view .LVU664
ARM GAS  C:\Users\NATHAN~1\AppData\Local\Temp\cc90iGN6.s 			page 87


 723:Middlewares/Third_Party/SubGHz_Phy/stm32_radio_driver/radio.c ****         break;
 2661              		.loc 1 723 38 is_stmt 0 view .LVU665
 2662 0062 024B     		ldr	r3, .L214
 2663 0064 0022     		movs	r2, #0
 2664 0066 5A73     		strb	r2, [r3, #13]
 724:Middlewares/Third_Party/SubGHz_Phy/stm32_radio_driver/radio.c ****     }
 2665              		.loc 1 724 9 is_stmt 1 view .LVU666
 726:Middlewares/Third_Party/SubGHz_Phy/stm32_radio_driver/radio.c **** 
 2666              		.loc 1 726 1 is_stmt 0 view .LVU667
 2667 0068 F0E7     		b	.L205
 2668              	.L215:
 2669 006a 00BF     		.align	2
 2670              	.L214:
 2671 006c 00000000 		.word	.LANCHOR3
 2672              		.cfi_endproc
 2673              	.LFE993:
 2675              		.section	.text.RadioSetTxGenericConfig,"ax",%progbits
 2676              		.align	1
 2677              		.syntax unified
 2678              		.thumb
 2679              		.thumb_func
 2681              	RadioSetTxGenericConfig:
 2682              	.LVL263:
 2683              	.LFB1030:
1781:Middlewares/Third_Party/SubGHz_Phy/stm32_radio_driver/radio.c **** 
1782:Middlewares/Third_Party/SubGHz_Phy/stm32_radio_driver/radio.c **** static int32_t RadioSetRxGenericConfig( GenericModems_t modem, RxConfigGeneric_t* config, uint32_t 
1783:Middlewares/Third_Party/SubGHz_Phy/stm32_radio_driver/radio.c **** {
1784:Middlewares/Third_Party/SubGHz_Phy/stm32_radio_driver/radio.c ****     int32_t status = 0;
1785:Middlewares/Third_Party/SubGHz_Phy/stm32_radio_driver/radio.c ****     uint8_t syncword[8] = {0};
1786:Middlewares/Third_Party/SubGHz_Phy/stm32_radio_driver/radio.c ****     uint8_t MaxPayloadLength;
1787:Middlewares/Third_Party/SubGHz_Phy/stm32_radio_driver/radio.c **** 
1788:Middlewares/Third_Party/SubGHz_Phy/stm32_radio_driver/radio.c ****     RFW_DeInit( ); /* switch Off FwPacketDecoding by default */
1789:Middlewares/Third_Party/SubGHz_Phy/stm32_radio_driver/radio.c **** 
1790:Middlewares/Third_Party/SubGHz_Phy/stm32_radio_driver/radio.c ****     if( rxContinuous != 0 )
1791:Middlewares/Third_Party/SubGHz_Phy/stm32_radio_driver/radio.c ****     {
1792:Middlewares/Third_Party/SubGHz_Phy/stm32_radio_driver/radio.c ****         symbTimeout = 0;
1793:Middlewares/Third_Party/SubGHz_Phy/stm32_radio_driver/radio.c ****     }
1794:Middlewares/Third_Party/SubGHz_Phy/stm32_radio_driver/radio.c ****     SubgRf.RxContinuous = ( rxContinuous == 0 ) ? false : true;
1795:Middlewares/Third_Party/SubGHz_Phy/stm32_radio_driver/radio.c **** 
1796:Middlewares/Third_Party/SubGHz_Phy/stm32_radio_driver/radio.c ****     switch( modem )
1797:Middlewares/Third_Party/SubGHz_Phy/stm32_radio_driver/radio.c ****     {
1798:Middlewares/Third_Party/SubGHz_Phy/stm32_radio_driver/radio.c ****     case GENERIC_FSK:
1799:Middlewares/Third_Party/SubGHz_Phy/stm32_radio_driver/radio.c ****         if( ( config->fsk.BitRate == 0 ) || ( config->fsk.PreambleLen == 0 ) )
1800:Middlewares/Third_Party/SubGHz_Phy/stm32_radio_driver/radio.c ****         {
1801:Middlewares/Third_Party/SubGHz_Phy/stm32_radio_driver/radio.c ****             return -1;
1802:Middlewares/Third_Party/SubGHz_Phy/stm32_radio_driver/radio.c ****         }
1803:Middlewares/Third_Party/SubGHz_Phy/stm32_radio_driver/radio.c ****         if( config->fsk.SyncWordLength > 8 )
1804:Middlewares/Third_Party/SubGHz_Phy/stm32_radio_driver/radio.c ****         {
1805:Middlewares/Third_Party/SubGHz_Phy/stm32_radio_driver/radio.c ****             return -1;
1806:Middlewares/Third_Party/SubGHz_Phy/stm32_radio_driver/radio.c ****         }
1807:Middlewares/Third_Party/SubGHz_Phy/stm32_radio_driver/radio.c ****         else
1808:Middlewares/Third_Party/SubGHz_Phy/stm32_radio_driver/radio.c ****         {
1809:Middlewares/Third_Party/SubGHz_Phy/stm32_radio_driver/radio.c ****             for(int i = 0; i < config->fsk.SyncWordLength; i++)
1810:Middlewares/Third_Party/SubGHz_Phy/stm32_radio_driver/radio.c ****             {
1811:Middlewares/Third_Party/SubGHz_Phy/stm32_radio_driver/radio.c ****                 syncword[i] = config->fsk.SyncWord[i];
1812:Middlewares/Third_Party/SubGHz_Phy/stm32_radio_driver/radio.c ****             }
1813:Middlewares/Third_Party/SubGHz_Phy/stm32_radio_driver/radio.c ****         }
ARM GAS  C:\Users\NATHAN~1\AppData\Local\Temp\cc90iGN6.s 			page 88


1814:Middlewares/Third_Party/SubGHz_Phy/stm32_radio_driver/radio.c **** 
1815:Middlewares/Third_Party/SubGHz_Phy/stm32_radio_driver/radio.c ****         SUBGRF_SetStopRxTimerOnPreambleDetect( ( config->fsk.StopTimerOnPreambleDetect == 0 ) ? fal
1816:Middlewares/Third_Party/SubGHz_Phy/stm32_radio_driver/radio.c **** 
1817:Middlewares/Third_Party/SubGHz_Phy/stm32_radio_driver/radio.c ****         SubgRf.ModulationParams.PacketType = PACKET_TYPE_GFSK;
1818:Middlewares/Third_Party/SubGHz_Phy/stm32_radio_driver/radio.c ****         SubgRf.ModulationParams.Params.Gfsk.BitRate = config->fsk.BitRate;
1819:Middlewares/Third_Party/SubGHz_Phy/stm32_radio_driver/radio.c ****         SubgRf.ModulationParams.Params.Gfsk.ModulationShaping = (RadioModShapings_t) config->fsk.Mo
1820:Middlewares/Third_Party/SubGHz_Phy/stm32_radio_driver/radio.c ****         SubgRf.ModulationParams.Params.Gfsk.Bandwidth = SUBGRF_GetFskBandwidthRegValue( config->fsk
1821:Middlewares/Third_Party/SubGHz_Phy/stm32_radio_driver/radio.c **** 
1822:Middlewares/Third_Party/SubGHz_Phy/stm32_radio_driver/radio.c ****         SubgRf.PacketParams.PacketType = PACKET_TYPE_GFSK;
1823:Middlewares/Third_Party/SubGHz_Phy/stm32_radio_driver/radio.c ****         SubgRf.PacketParams.Params.Gfsk.PreambleLength = ( config->fsk.PreambleLen ) << 3 ; // conv
1824:Middlewares/Third_Party/SubGHz_Phy/stm32_radio_driver/radio.c ****         SubgRf.PacketParams.Params.Gfsk.PreambleMinDetect = ( RadioPreambleDetection_t ) config->fs
1825:Middlewares/Third_Party/SubGHz_Phy/stm32_radio_driver/radio.c ****         SubgRf.PacketParams.Params.Gfsk.SyncWordLength = ( config->fsk.SyncWordLength ) << 3; // co
1826:Middlewares/Third_Party/SubGHz_Phy/stm32_radio_driver/radio.c ****         SubgRf.PacketParams.Params.Gfsk.AddrComp = ( RadioAddressComp_t ) config->fsk.AddrComp;
1827:Middlewares/Third_Party/SubGHz_Phy/stm32_radio_driver/radio.c **** 
1828:Middlewares/Third_Party/SubGHz_Phy/stm32_radio_driver/radio.c ****         if( config->fsk.LengthMode == RADIO_FSK_PACKET_FIXED_LENGTH )
1829:Middlewares/Third_Party/SubGHz_Phy/stm32_radio_driver/radio.c ****         {
1830:Middlewares/Third_Party/SubGHz_Phy/stm32_radio_driver/radio.c ****             SubgRf.PacketParams.Params.Gfsk.PayloadLength = config->fsk.MaxPayloadLength;
1831:Middlewares/Third_Party/SubGHz_Phy/stm32_radio_driver/radio.c ****         }
1832:Middlewares/Third_Party/SubGHz_Phy/stm32_radio_driver/radio.c ****         else if( config->fsk.LengthMode == RADIO_FSK_PACKET_2BYTES_LENGTH )
1833:Middlewares/Third_Party/SubGHz_Phy/stm32_radio_driver/radio.c ****         {
1834:Middlewares/Third_Party/SubGHz_Phy/stm32_radio_driver/radio.c ****           /* Set max in the radio, in long packet mode will be tuned based dynamically on received 
1835:Middlewares/Third_Party/SubGHz_Phy/stm32_radio_driver/radio.c ****           SubgRf.PacketParams.Params.Gfsk.PayloadLength = 0xFF;
1836:Middlewares/Third_Party/SubGHz_Phy/stm32_radio_driver/radio.c ****         }
1837:Middlewares/Third_Party/SubGHz_Phy/stm32_radio_driver/radio.c ****         else
1838:Middlewares/Third_Party/SubGHz_Phy/stm32_radio_driver/radio.c ****         {
1839:Middlewares/Third_Party/SubGHz_Phy/stm32_radio_driver/radio.c ****           /* Set max in the radio */
1840:Middlewares/Third_Party/SubGHz_Phy/stm32_radio_driver/radio.c ****           SubgRf.PacketParams.Params.Gfsk.PayloadLength = 0xFF;
1841:Middlewares/Third_Party/SubGHz_Phy/stm32_radio_driver/radio.c ****         }
1842:Middlewares/Third_Party/SubGHz_Phy/stm32_radio_driver/radio.c **** 
1843:Middlewares/Third_Party/SubGHz_Phy/stm32_radio_driver/radio.c ****         if( ( config->fsk.Whitening == RADIO_FSK_DC_IBM_WHITENING ) || ( config->fsk.LengthMode == 
1844:Middlewares/Third_Party/SubGHz_Phy/stm32_radio_driver/radio.c ****         {
1845:Middlewares/Third_Party/SubGHz_Phy/stm32_radio_driver/radio.c ****           /* Supports only RADIO_FSK_CRC_2_BYTES_IBM or RADIO_FSK_CRC_2_BYTES_CCIT*/
1846:Middlewares/Third_Party/SubGHz_Phy/stm32_radio_driver/radio.c ****           if( ( config->fsk.CrcLength != RADIO_FSK_CRC_2_BYTES_IBM ) && ( config->fsk.CrcLength != 
1847:Middlewares/Third_Party/SubGHz_Phy/stm32_radio_driver/radio.c ****           {
1848:Middlewares/Third_Party/SubGHz_Phy/stm32_radio_driver/radio.c ****             return -1;
1849:Middlewares/Third_Party/SubGHz_Phy/stm32_radio_driver/radio.c ****           }
1850:Middlewares/Third_Party/SubGHz_Phy/stm32_radio_driver/radio.c ****           ConfigGeneric_t ConfigGeneric;
1851:Middlewares/Third_Party/SubGHz_Phy/stm32_radio_driver/radio.c ****           ConfigGeneric.rtx = CONFIG_RX;
1852:Middlewares/Third_Party/SubGHz_Phy/stm32_radio_driver/radio.c ****           ConfigGeneric.RxConfig = config;
1853:Middlewares/Third_Party/SubGHz_Phy/stm32_radio_driver/radio.c ****           if( 0UL != RFW_Init( &ConfigGeneric, RadioEvents, &RxTimeoutTimer ) )
1854:Middlewares/Third_Party/SubGHz_Phy/stm32_radio_driver/radio.c ****           {
1855:Middlewares/Third_Party/SubGHz_Phy/stm32_radio_driver/radio.c ****             return -1;
1856:Middlewares/Third_Party/SubGHz_Phy/stm32_radio_driver/radio.c ****           }
1857:Middlewares/Third_Party/SubGHz_Phy/stm32_radio_driver/radio.c ****           /* Whitening off, will be processed by FW, switch off built-in radio whitening*/
1858:Middlewares/Third_Party/SubGHz_Phy/stm32_radio_driver/radio.c ****           SubgRf.PacketParams.Params.Gfsk.DcFree = ( RadioDcFree_t ) RADIO_FSK_DC_FREE_OFF;
1859:Middlewares/Third_Party/SubGHz_Phy/stm32_radio_driver/radio.c ****           /* Crc off, Crc processed by FW, switch off built-in radio Crc*/
1860:Middlewares/Third_Party/SubGHz_Phy/stm32_radio_driver/radio.c ****           SubgRf.PacketParams.Params.Gfsk.CrcLength = ( RadioCrcTypes_t ) RADIO_CRC_OFF;
1861:Middlewares/Third_Party/SubGHz_Phy/stm32_radio_driver/radio.c ****           /* Length contained in Tx, but will be processed by FW after de-whitening*/
1862:Middlewares/Third_Party/SubGHz_Phy/stm32_radio_driver/radio.c ****           SubgRf.PacketParams.Params.Gfsk.HeaderType = ( RadioPacketLengthModes_t ) RADIO_PACKET_FI
1863:Middlewares/Third_Party/SubGHz_Phy/stm32_radio_driver/radio.c ****         }
1864:Middlewares/Third_Party/SubGHz_Phy/stm32_radio_driver/radio.c ****         else
1865:Middlewares/Third_Party/SubGHz_Phy/stm32_radio_driver/radio.c ****         {
1866:Middlewares/Third_Party/SubGHz_Phy/stm32_radio_driver/radio.c ****           SubgRf.PacketParams.Params.Gfsk.CrcLength = ( RadioCrcTypes_t ) config->fsk.CrcLength;
1867:Middlewares/Third_Party/SubGHz_Phy/stm32_radio_driver/radio.c ****           SubgRf.PacketParams.Params.Gfsk.DcFree = ( RadioDcFree_t ) config->fsk.Whitening;
1868:Middlewares/Third_Party/SubGHz_Phy/stm32_radio_driver/radio.c ****           SubgRf.PacketParams.Params.Gfsk.HeaderType = ( RadioPacketLengthModes_t ) config->fsk.Len
1869:Middlewares/Third_Party/SubGHz_Phy/stm32_radio_driver/radio.c ****         }
1870:Middlewares/Third_Party/SubGHz_Phy/stm32_radio_driver/radio.c **** 
ARM GAS  C:\Users\NATHAN~1\AppData\Local\Temp\cc90iGN6.s 			page 89


1871:Middlewares/Third_Party/SubGHz_Phy/stm32_radio_driver/radio.c ****         RadioStandby( );
1872:Middlewares/Third_Party/SubGHz_Phy/stm32_radio_driver/radio.c ****         RadioSetModem( MODEM_FSK );
1873:Middlewares/Third_Party/SubGHz_Phy/stm32_radio_driver/radio.c ****         SUBGRF_SetModulationParams( &SubgRf.ModulationParams );
1874:Middlewares/Third_Party/SubGHz_Phy/stm32_radio_driver/radio.c ****         SUBGRF_SetPacketParams( &SubgRf.PacketParams );
1875:Middlewares/Third_Party/SubGHz_Phy/stm32_radio_driver/radio.c ****         SUBGRF_SetSyncWord( syncword );
1876:Middlewares/Third_Party/SubGHz_Phy/stm32_radio_driver/radio.c ****         SUBGRF_SetWhiteningSeed( config->fsk.whiteSeed );
1877:Middlewares/Third_Party/SubGHz_Phy/stm32_radio_driver/radio.c ****         SUBGRF_SetCrcPolynomial( config->fsk.CrcPolynomial );
1878:Middlewares/Third_Party/SubGHz_Phy/stm32_radio_driver/radio.c ****         /* timeout unused when SubgRf.RxContinuous */
1879:Middlewares/Third_Party/SubGHz_Phy/stm32_radio_driver/radio.c ****         SubgRf.RxTimeout = ( uint32_t )( ( symbTimeout * 1000 * 8 ) / config->fsk.BitRate );
1880:Middlewares/Third_Party/SubGHz_Phy/stm32_radio_driver/radio.c ****         break;
1881:Middlewares/Third_Party/SubGHz_Phy/stm32_radio_driver/radio.c ****     case GENERIC_LORA:
1882:Middlewares/Third_Party/SubGHz_Phy/stm32_radio_driver/radio.c ****         if( config->lora.PreambleLen == 0 )
1883:Middlewares/Third_Party/SubGHz_Phy/stm32_radio_driver/radio.c ****         {
1884:Middlewares/Third_Party/SubGHz_Phy/stm32_radio_driver/radio.c ****             return -1;
1885:Middlewares/Third_Party/SubGHz_Phy/stm32_radio_driver/radio.c ****         }
1886:Middlewares/Third_Party/SubGHz_Phy/stm32_radio_driver/radio.c **** 
1887:Middlewares/Third_Party/SubGHz_Phy/stm32_radio_driver/radio.c ****         if( config->lora.LengthMode == RADIO_LORA_PACKET_FIXED_LENGTH )
1888:Middlewares/Third_Party/SubGHz_Phy/stm32_radio_driver/radio.c ****         {
1889:Middlewares/Third_Party/SubGHz_Phy/stm32_radio_driver/radio.c ****             MaxPayloadLength = config->fsk.MaxPayloadLength;
1890:Middlewares/Third_Party/SubGHz_Phy/stm32_radio_driver/radio.c ****         }
1891:Middlewares/Third_Party/SubGHz_Phy/stm32_radio_driver/radio.c ****         else
1892:Middlewares/Third_Party/SubGHz_Phy/stm32_radio_driver/radio.c ****         {
1893:Middlewares/Third_Party/SubGHz_Phy/stm32_radio_driver/radio.c ****             MaxPayloadLength = 0xFF;
1894:Middlewares/Third_Party/SubGHz_Phy/stm32_radio_driver/radio.c ****         }
1895:Middlewares/Third_Party/SubGHz_Phy/stm32_radio_driver/radio.c ****         SUBGRF_SetStopRxTimerOnPreambleDetect( ( config->lora.StopTimerOnPreambleDetect == 0 ) ? fa
1896:Middlewares/Third_Party/SubGHz_Phy/stm32_radio_driver/radio.c ****         SUBGRF_SetLoRaSymbNumTimeout( symbTimeout );
1897:Middlewares/Third_Party/SubGHz_Phy/stm32_radio_driver/radio.c **** 
1898:Middlewares/Third_Party/SubGHz_Phy/stm32_radio_driver/radio.c ****         SubgRf.ModulationParams.PacketType = PACKET_TYPE_LORA;
1899:Middlewares/Third_Party/SubGHz_Phy/stm32_radio_driver/radio.c ****         SubgRf.ModulationParams.Params.LoRa.SpreadingFactor = ( RadioLoRaSpreadingFactors_t ) confi
1900:Middlewares/Third_Party/SubGHz_Phy/stm32_radio_driver/radio.c ****         SubgRf.ModulationParams.Params.LoRa.Bandwidth = ( RadioLoRaBandwidths_t ) config->lora.Band
1901:Middlewares/Third_Party/SubGHz_Phy/stm32_radio_driver/radio.c ****         SubgRf.ModulationParams.Params.LoRa.CodingRate = ( RadioLoRaCodingRates_t ) config->lora.Co
1902:Middlewares/Third_Party/SubGHz_Phy/stm32_radio_driver/radio.c ****         switch( config->lora.LowDatarateOptimize )
1903:Middlewares/Third_Party/SubGHz_Phy/stm32_radio_driver/radio.c ****         {
1904:Middlewares/Third_Party/SubGHz_Phy/stm32_radio_driver/radio.c ****         case RADIO_LORA_LOWDR_OPT_OFF:
1905:Middlewares/Third_Party/SubGHz_Phy/stm32_radio_driver/radio.c ****             SubgRf.ModulationParams.Params.LoRa.LowDatarateOptimize = 0;
1906:Middlewares/Third_Party/SubGHz_Phy/stm32_radio_driver/radio.c ****             break;
1907:Middlewares/Third_Party/SubGHz_Phy/stm32_radio_driver/radio.c ****         case RADIO_LORA_LOWDR_OPT_ON:
1908:Middlewares/Third_Party/SubGHz_Phy/stm32_radio_driver/radio.c ****             SubgRf.ModulationParams.Params.LoRa.LowDatarateOptimize = 1;
1909:Middlewares/Third_Party/SubGHz_Phy/stm32_radio_driver/radio.c ****             break;
1910:Middlewares/Third_Party/SubGHz_Phy/stm32_radio_driver/radio.c ****         case RADIO_LORA_LOWDR_OPT_AUTO:
1911:Middlewares/Third_Party/SubGHz_Phy/stm32_radio_driver/radio.c ****             if( ( config->lora.SpreadingFactor == RADIO_LORA_SF11 ) || ( config->lora.SpreadingFact
1912:Middlewares/Third_Party/SubGHz_Phy/stm32_radio_driver/radio.c ****             {
1913:Middlewares/Third_Party/SubGHz_Phy/stm32_radio_driver/radio.c ****               SubgRf.ModulationParams.Params.LoRa.LowDatarateOptimize = 1;
1914:Middlewares/Third_Party/SubGHz_Phy/stm32_radio_driver/radio.c ****             }
1915:Middlewares/Third_Party/SubGHz_Phy/stm32_radio_driver/radio.c ****             else
1916:Middlewares/Third_Party/SubGHz_Phy/stm32_radio_driver/radio.c ****             {
1917:Middlewares/Third_Party/SubGHz_Phy/stm32_radio_driver/radio.c ****               SubgRf.ModulationParams.Params.LoRa.LowDatarateOptimize = 0;
1918:Middlewares/Third_Party/SubGHz_Phy/stm32_radio_driver/radio.c ****             }
1919:Middlewares/Third_Party/SubGHz_Phy/stm32_radio_driver/radio.c ****             break;
1920:Middlewares/Third_Party/SubGHz_Phy/stm32_radio_driver/radio.c ****         default:
1921:Middlewares/Third_Party/SubGHz_Phy/stm32_radio_driver/radio.c ****             break;
1922:Middlewares/Third_Party/SubGHz_Phy/stm32_radio_driver/radio.c ****         }
1923:Middlewares/Third_Party/SubGHz_Phy/stm32_radio_driver/radio.c **** 
1924:Middlewares/Third_Party/SubGHz_Phy/stm32_radio_driver/radio.c ****         SubgRf.PacketParams.PacketType = PACKET_TYPE_LORA;
1925:Middlewares/Third_Party/SubGHz_Phy/stm32_radio_driver/radio.c ****         SubgRf.PacketParams.Params.LoRa.PreambleLength = config->lora.PreambleLen;
1926:Middlewares/Third_Party/SubGHz_Phy/stm32_radio_driver/radio.c ****         SubgRf.PacketParams.Params.LoRa.HeaderType = ( RadioLoRaPacketLengthsMode_t ) config->lora.
1927:Middlewares/Third_Party/SubGHz_Phy/stm32_radio_driver/radio.c ****         SubgRf.PacketParams.Params.LoRa.PayloadLength = MaxPayloadLength;
ARM GAS  C:\Users\NATHAN~1\AppData\Local\Temp\cc90iGN6.s 			page 90


1928:Middlewares/Third_Party/SubGHz_Phy/stm32_radio_driver/radio.c ****         SubgRf.PacketParams.Params.LoRa.CrcMode = ( RadioLoRaCrcModes_t ) config->lora.CrcMode;
1929:Middlewares/Third_Party/SubGHz_Phy/stm32_radio_driver/radio.c ****         SubgRf.PacketParams.Params.LoRa.InvertIQ = ( RadioLoRaIQModes_t ) config->lora.IqInverted;
1930:Middlewares/Third_Party/SubGHz_Phy/stm32_radio_driver/radio.c **** 
1931:Middlewares/Third_Party/SubGHz_Phy/stm32_radio_driver/radio.c ****         RadioStandby( );
1932:Middlewares/Third_Party/SubGHz_Phy/stm32_radio_driver/radio.c ****         RadioSetModem( MODEM_LORA );
1933:Middlewares/Third_Party/SubGHz_Phy/stm32_radio_driver/radio.c ****         SUBGRF_SetModulationParams( &SubgRf.ModulationParams );
1934:Middlewares/Third_Party/SubGHz_Phy/stm32_radio_driver/radio.c ****         SUBGRF_SetPacketParams( &SubgRf.PacketParams );
1935:Middlewares/Third_Party/SubGHz_Phy/stm32_radio_driver/radio.c **** 
1936:Middlewares/Third_Party/SubGHz_Phy/stm32_radio_driver/radio.c ****         // WORKAROUND - Optimizing the Inverted IQ Operation, see DS_SX1261-2_V1.2 datasheet chapte
1937:Middlewares/Third_Party/SubGHz_Phy/stm32_radio_driver/radio.c ****         if( SubgRf.PacketParams.Params.LoRa.InvertIQ == LORA_IQ_INVERTED )
1938:Middlewares/Third_Party/SubGHz_Phy/stm32_radio_driver/radio.c ****         {
1939:Middlewares/Third_Party/SubGHz_Phy/stm32_radio_driver/radio.c ****             // RegIqPolaritySetup = @address 0x0736
1940:Middlewares/Third_Party/SubGHz_Phy/stm32_radio_driver/radio.c ****             SUBGRF_WriteRegister( 0x0736, SUBGRF_ReadRegister( 0x0736 ) & ~( 1 << 2 ) );
1941:Middlewares/Third_Party/SubGHz_Phy/stm32_radio_driver/radio.c ****         }
1942:Middlewares/Third_Party/SubGHz_Phy/stm32_radio_driver/radio.c ****         else
1943:Middlewares/Third_Party/SubGHz_Phy/stm32_radio_driver/radio.c ****         {
1944:Middlewares/Third_Party/SubGHz_Phy/stm32_radio_driver/radio.c ****             // RegIqPolaritySetup @address 0x0736
1945:Middlewares/Third_Party/SubGHz_Phy/stm32_radio_driver/radio.c ****             SUBGRF_WriteRegister( 0x0736, SUBGRF_ReadRegister( 0x0736 ) | ( 1 << 2 ) );
1946:Middlewares/Third_Party/SubGHz_Phy/stm32_radio_driver/radio.c ****         }
1947:Middlewares/Third_Party/SubGHz_Phy/stm32_radio_driver/radio.c ****         // WORKAROUND END
1948:Middlewares/Third_Party/SubGHz_Phy/stm32_radio_driver/radio.c **** 
1949:Middlewares/Third_Party/SubGHz_Phy/stm32_radio_driver/radio.c ****         // Timeout Max, Timeout handled directly in SetRx function
1950:Middlewares/Third_Party/SubGHz_Phy/stm32_radio_driver/radio.c ****         SubgRf.RxTimeout = 0xFFFF;
1951:Middlewares/Third_Party/SubGHz_Phy/stm32_radio_driver/radio.c ****         break;
1952:Middlewares/Third_Party/SubGHz_Phy/stm32_radio_driver/radio.c ****     default:
1953:Middlewares/Third_Party/SubGHz_Phy/stm32_radio_driver/radio.c ****         break;
1954:Middlewares/Third_Party/SubGHz_Phy/stm32_radio_driver/radio.c ****     }
1955:Middlewares/Third_Party/SubGHz_Phy/stm32_radio_driver/radio.c ****     return status;
1956:Middlewares/Third_Party/SubGHz_Phy/stm32_radio_driver/radio.c **** }
1957:Middlewares/Third_Party/SubGHz_Phy/stm32_radio_driver/radio.c **** 
1958:Middlewares/Third_Party/SubGHz_Phy/stm32_radio_driver/radio.c **** static int32_t RadioSetTxGenericConfig( GenericModems_t modem, TxConfigGeneric_t* config, int8_t po
1959:Middlewares/Third_Party/SubGHz_Phy/stm32_radio_driver/radio.c **** {
 2684              		.loc 1 1959 1 is_stmt 1 view -0
 2685              		.cfi_startproc
 2686              		@ args = 0, pretend = 0, frame = 24
 2687              		@ frame_needed = 0, uses_anonymous_args = 0
 2688              		.loc 1 1959 1 is_stmt 0 view .LVU669
 2689 0000 2DE9F041 		push	{r4, r5, r6, r7, r8, lr}
 2690              	.LCFI38:
 2691              		.cfi_def_cfa_offset 24
 2692              		.cfi_offset 4, -24
 2693              		.cfi_offset 5, -20
 2694              		.cfi_offset 6, -16
 2695              		.cfi_offset 7, -12
 2696              		.cfi_offset 8, -8
 2697              		.cfi_offset 14, -4
 2698 0004 86B0     		sub	sp, sp, #24
 2699              	.LCFI39:
 2700              		.cfi_def_cfa_offset 48
 2701 0006 0546     		mov	r5, r0
 2702 0008 0C46     		mov	r4, r1
 2703 000a 1746     		mov	r7, r2
 2704 000c 1E46     		mov	r6, r3
1960:Middlewares/Third_Party/SubGHz_Phy/stm32_radio_driver/radio.c ****     uint8_t syncword[8] = {0};
 2705              		.loc 1 1960 5 is_stmt 1 view .LVU670
 2706              		.loc 1 1960 13 is_stmt 0 view .LVU671
 2707 000e 0023     		movs	r3, #0
ARM GAS  C:\Users\NATHAN~1\AppData\Local\Temp\cc90iGN6.s 			page 91


 2708              	.LVL264:
 2709              		.loc 1 1960 13 view .LVU672
 2710 0010 0493     		str	r3, [sp, #16]
 2711 0012 0593     		str	r3, [sp, #20]
1961:Middlewares/Third_Party/SubGHz_Phy/stm32_radio_driver/radio.c ****     RFW_DeInit( ); /* switch Off FwPacketDecoding by default */
 2712              		.loc 1 1961 5 is_stmt 1 view .LVU673
 2713 0014 FFF7FEFF 		bl	RFW_DeInit
 2714              	.LVL265:
1962:Middlewares/Third_Party/SubGHz_Phy/stm32_radio_driver/radio.c ****     switch( modem )
 2715              		.loc 1 1962 5 view .LVU674
 2716 0018 012D     		cmp	r5, #1
 2717 001a 00F08780 		beq	.L217
 2718 001e 022D     		cmp	r5, #2
 2719 0020 00F0EF80 		beq	.L218
 2720 0024 65B1     		cbz	r5, .L238
 2721              	.L219:
1963:Middlewares/Third_Party/SubGHz_Phy/stm32_radio_driver/radio.c ****     {
1964:Middlewares/Third_Party/SubGHz_Phy/stm32_radio_driver/radio.c ****     case GENERIC_FSK:
1965:Middlewares/Third_Party/SubGHz_Phy/stm32_radio_driver/radio.c ****         if( ( config->fsk.BitRate == 0 ) || ( config->fsk.PreambleLen == 0 ) )
1966:Middlewares/Third_Party/SubGHz_Phy/stm32_radio_driver/radio.c ****         {
1967:Middlewares/Third_Party/SubGHz_Phy/stm32_radio_driver/radio.c ****             return -1;
1968:Middlewares/Third_Party/SubGHz_Phy/stm32_radio_driver/radio.c ****         }
1969:Middlewares/Third_Party/SubGHz_Phy/stm32_radio_driver/radio.c ****         if( config->fsk.SyncWordLength > 8 )
1970:Middlewares/Third_Party/SubGHz_Phy/stm32_radio_driver/radio.c ****         {
1971:Middlewares/Third_Party/SubGHz_Phy/stm32_radio_driver/radio.c ****             return -1;
1972:Middlewares/Third_Party/SubGHz_Phy/stm32_radio_driver/radio.c ****         }
1973:Middlewares/Third_Party/SubGHz_Phy/stm32_radio_driver/radio.c ****         else
1974:Middlewares/Third_Party/SubGHz_Phy/stm32_radio_driver/radio.c ****         {
1975:Middlewares/Third_Party/SubGHz_Phy/stm32_radio_driver/radio.c ****             for(int i = 0; i < config->fsk.SyncWordLength; i++)
1976:Middlewares/Third_Party/SubGHz_Phy/stm32_radio_driver/radio.c ****             {
1977:Middlewares/Third_Party/SubGHz_Phy/stm32_radio_driver/radio.c ****                 syncword[i] = config->fsk.SyncWord[i];
1978:Middlewares/Third_Party/SubGHz_Phy/stm32_radio_driver/radio.c ****             }
1979:Middlewares/Third_Party/SubGHz_Phy/stm32_radio_driver/radio.c ****         }
1980:Middlewares/Third_Party/SubGHz_Phy/stm32_radio_driver/radio.c ****         SubgRf.ModulationParams.PacketType = PACKET_TYPE_GFSK;
1981:Middlewares/Third_Party/SubGHz_Phy/stm32_radio_driver/radio.c ****         SubgRf.ModulationParams.Params.Gfsk.BitRate = config->fsk.BitRate;
1982:Middlewares/Third_Party/SubGHz_Phy/stm32_radio_driver/radio.c ****         SubgRf.ModulationParams.Params.Gfsk.ModulationShaping = ( RadioModShapings_t ) config->fsk.
1983:Middlewares/Third_Party/SubGHz_Phy/stm32_radio_driver/radio.c ****         SubgRf.ModulationParams.Params.Gfsk.Bandwidth = SUBGRF_GetFskBandwidthRegValue( config->fsk
1984:Middlewares/Third_Party/SubGHz_Phy/stm32_radio_driver/radio.c ****         SubgRf.ModulationParams.Params.Gfsk.Fdev = config->fsk.FrequencyDeviation;
1985:Middlewares/Third_Party/SubGHz_Phy/stm32_radio_driver/radio.c ****     
1986:Middlewares/Third_Party/SubGHz_Phy/stm32_radio_driver/radio.c ****         SubgRf.PacketParams.PacketType = PACKET_TYPE_GFSK;
1987:Middlewares/Third_Party/SubGHz_Phy/stm32_radio_driver/radio.c ****         SubgRf.PacketParams.Params.Gfsk.PreambleLength = ( config->fsk.PreambleLen ) << 3; // conve
1988:Middlewares/Third_Party/SubGHz_Phy/stm32_radio_driver/radio.c ****         SubgRf.PacketParams.Params.Gfsk.PreambleMinDetect = RADIO_PREAMBLE_DETECTOR_08_BITS; // don
1989:Middlewares/Third_Party/SubGHz_Phy/stm32_radio_driver/radio.c ****         SubgRf.PacketParams.Params.Gfsk.SyncWordLength = ( config->fsk.SyncWordLength ) << 3; // co
1990:Middlewares/Third_Party/SubGHz_Phy/stm32_radio_driver/radio.c ****         SubgRf.PacketParams.Params.Gfsk.AddrComp = RADIO_ADDRESSCOMP_FILT_OFF; // don't care in tx
1991:Middlewares/Third_Party/SubGHz_Phy/stm32_radio_driver/radio.c **** 
1992:Middlewares/Third_Party/SubGHz_Phy/stm32_radio_driver/radio.c ****         if( ( config->fsk.Whitening == RADIO_FSK_DC_IBM_WHITENING ) || ( config->fsk.HeaderType == 
1993:Middlewares/Third_Party/SubGHz_Phy/stm32_radio_driver/radio.c ****         {
1994:Middlewares/Third_Party/SubGHz_Phy/stm32_radio_driver/radio.c ****             /* Supports only RADIO_FSK_CRC_2_BYTES_IBM or RADIO_FSK_CRC_2_BYTES_CCIT */
1995:Middlewares/Third_Party/SubGHz_Phy/stm32_radio_driver/radio.c ****             if( ( config->fsk.CrcLength != RADIO_FSK_CRC_2_BYTES_IBM ) && ( config->fsk.CrcLength !
1996:Middlewares/Third_Party/SubGHz_Phy/stm32_radio_driver/radio.c ****             {
1997:Middlewares/Third_Party/SubGHz_Phy/stm32_radio_driver/radio.c ****                 return -1;
1998:Middlewares/Third_Party/SubGHz_Phy/stm32_radio_driver/radio.c ****             }
1999:Middlewares/Third_Party/SubGHz_Phy/stm32_radio_driver/radio.c ****             ConfigGeneric_t ConfigGeneric;
2000:Middlewares/Third_Party/SubGHz_Phy/stm32_radio_driver/radio.c ****             ConfigGeneric.rtx = CONFIG_TX;
2001:Middlewares/Third_Party/SubGHz_Phy/stm32_radio_driver/radio.c ****             ConfigGeneric.TxConfig = config;
2002:Middlewares/Third_Party/SubGHz_Phy/stm32_radio_driver/radio.c ****             if( 0UL != RFW_Init( &ConfigGeneric, RadioEvents, &TxTimeoutTimer ) )
2003:Middlewares/Third_Party/SubGHz_Phy/stm32_radio_driver/radio.c ****             {
ARM GAS  C:\Users\NATHAN~1\AppData\Local\Temp\cc90iGN6.s 			page 92


2004:Middlewares/Third_Party/SubGHz_Phy/stm32_radio_driver/radio.c ****               return -1;
2005:Middlewares/Third_Party/SubGHz_Phy/stm32_radio_driver/radio.c ****             }
2006:Middlewares/Third_Party/SubGHz_Phy/stm32_radio_driver/radio.c ****             /* whitening off, will be processed by FW, switch off built-in radio whitening */
2007:Middlewares/Third_Party/SubGHz_Phy/stm32_radio_driver/radio.c ****             SubgRf.PacketParams.Params.Gfsk.DcFree = ( RadioDcFree_t ) RADIO_FSK_DC_FREE_OFF;
2008:Middlewares/Third_Party/SubGHz_Phy/stm32_radio_driver/radio.c ****             /* Crc processed by FW, switch off built-in radio Crc */
2009:Middlewares/Third_Party/SubGHz_Phy/stm32_radio_driver/radio.c ****             SubgRf.PacketParams.Params.Gfsk.CrcLength = (RadioCrcTypes_t) RADIO_CRC_OFF;
2010:Middlewares/Third_Party/SubGHz_Phy/stm32_radio_driver/radio.c ****             /* length contained in Tx, but will be processed by FW after de-whitening */
2011:Middlewares/Third_Party/SubGHz_Phy/stm32_radio_driver/radio.c ****             SubgRf.PacketParams.Params.Gfsk.HeaderType = ( RadioPacketLengthModes_t ) RADIO_PACKET_
2012:Middlewares/Third_Party/SubGHz_Phy/stm32_radio_driver/radio.c ****         }
2013:Middlewares/Third_Party/SubGHz_Phy/stm32_radio_driver/radio.c ****         else
2014:Middlewares/Third_Party/SubGHz_Phy/stm32_radio_driver/radio.c ****         {
2015:Middlewares/Third_Party/SubGHz_Phy/stm32_radio_driver/radio.c ****           SubgRf.PacketParams.Params.Gfsk.CrcLength = ( RadioCrcTypes_t ) config->fsk.CrcLength;
2016:Middlewares/Third_Party/SubGHz_Phy/stm32_radio_driver/radio.c ****           SubgRf.PacketParams.Params.Gfsk.DcFree = ( RadioDcFree_t ) config->fsk.Whitening;
2017:Middlewares/Third_Party/SubGHz_Phy/stm32_radio_driver/radio.c ****           SubgRf.PacketParams.Params.Gfsk.HeaderType = ( RadioPacketLengthModes_t ) config->fsk.Hea
2018:Middlewares/Third_Party/SubGHz_Phy/stm32_radio_driver/radio.c ****         }
2019:Middlewares/Third_Party/SubGHz_Phy/stm32_radio_driver/radio.c **** 
2020:Middlewares/Third_Party/SubGHz_Phy/stm32_radio_driver/radio.c ****         RadioStandby( );
2021:Middlewares/Third_Party/SubGHz_Phy/stm32_radio_driver/radio.c ****         RadioSetModem( MODEM_FSK );
2022:Middlewares/Third_Party/SubGHz_Phy/stm32_radio_driver/radio.c ****         SUBGRF_SetModulationParams( &SubgRf.ModulationParams );
2023:Middlewares/Third_Party/SubGHz_Phy/stm32_radio_driver/radio.c ****         SUBGRF_SetPacketParams( &SubgRf.PacketParams );
2024:Middlewares/Third_Party/SubGHz_Phy/stm32_radio_driver/radio.c ****         SUBGRF_SetSyncWord( syncword );
2025:Middlewares/Third_Party/SubGHz_Phy/stm32_radio_driver/radio.c ****         SUBGRF_SetWhiteningSeed( config->fsk.whiteSeed );
2026:Middlewares/Third_Party/SubGHz_Phy/stm32_radio_driver/radio.c ****         SUBGRF_SetCrcPolynomial(config->fsk.CrcPolynomial );
2027:Middlewares/Third_Party/SubGHz_Phy/stm32_radio_driver/radio.c ****         break;
2028:Middlewares/Third_Party/SubGHz_Phy/stm32_radio_driver/radio.c ****     case GENERIC_LORA:
2029:Middlewares/Third_Party/SubGHz_Phy/stm32_radio_driver/radio.c ****         SubgRf.ModulationParams.PacketType = PACKET_TYPE_LORA;
2030:Middlewares/Third_Party/SubGHz_Phy/stm32_radio_driver/radio.c ****         SubgRf.ModulationParams.Params.LoRa.SpreadingFactor = ( RadioLoRaSpreadingFactors_t ) confi
2031:Middlewares/Third_Party/SubGHz_Phy/stm32_radio_driver/radio.c ****         SubgRf.ModulationParams.Params.LoRa.Bandwidth = ( RadioLoRaBandwidths_t ) config->lora.Band
2032:Middlewares/Third_Party/SubGHz_Phy/stm32_radio_driver/radio.c ****         SubgRf.ModulationParams.Params.LoRa.CodingRate = ( RadioLoRaCodingRates_t ) config->lora.Co
2033:Middlewares/Third_Party/SubGHz_Phy/stm32_radio_driver/radio.c ****         switch( config->lora.LowDatarateOptimize )
2034:Middlewares/Third_Party/SubGHz_Phy/stm32_radio_driver/radio.c ****         {
2035:Middlewares/Third_Party/SubGHz_Phy/stm32_radio_driver/radio.c ****           case RADIO_LORA_LOWDR_OPT_OFF:
2036:Middlewares/Third_Party/SubGHz_Phy/stm32_radio_driver/radio.c ****             SubgRf.ModulationParams.Params.LoRa.LowDatarateOptimize = 0;
2037:Middlewares/Third_Party/SubGHz_Phy/stm32_radio_driver/radio.c ****             break;
2038:Middlewares/Third_Party/SubGHz_Phy/stm32_radio_driver/radio.c ****           case RADIO_LORA_LOWDR_OPT_ON:
2039:Middlewares/Third_Party/SubGHz_Phy/stm32_radio_driver/radio.c ****             SubgRf.ModulationParams.Params.LoRa.LowDatarateOptimize = 1;
2040:Middlewares/Third_Party/SubGHz_Phy/stm32_radio_driver/radio.c ****             break;
2041:Middlewares/Third_Party/SubGHz_Phy/stm32_radio_driver/radio.c ****           case RADIO_LORA_LOWDR_OPT_AUTO:
2042:Middlewares/Third_Party/SubGHz_Phy/stm32_radio_driver/radio.c ****             if( ( config->lora.SpreadingFactor == RADIO_LORA_SF11 ) || ( config->lora.SpreadingFact
2043:Middlewares/Third_Party/SubGHz_Phy/stm32_radio_driver/radio.c ****             {
2044:Middlewares/Third_Party/SubGHz_Phy/stm32_radio_driver/radio.c ****               SubgRf.ModulationParams.Params.LoRa.LowDatarateOptimize = 1;
2045:Middlewares/Third_Party/SubGHz_Phy/stm32_radio_driver/radio.c ****             }
2046:Middlewares/Third_Party/SubGHz_Phy/stm32_radio_driver/radio.c ****             else
2047:Middlewares/Third_Party/SubGHz_Phy/stm32_radio_driver/radio.c ****             {
2048:Middlewares/Third_Party/SubGHz_Phy/stm32_radio_driver/radio.c ****               SubgRf.ModulationParams.Params.LoRa.LowDatarateOptimize = 0;
2049:Middlewares/Third_Party/SubGHz_Phy/stm32_radio_driver/radio.c ****             }
2050:Middlewares/Third_Party/SubGHz_Phy/stm32_radio_driver/radio.c ****             break;
2051:Middlewares/Third_Party/SubGHz_Phy/stm32_radio_driver/radio.c ****           default:
2052:Middlewares/Third_Party/SubGHz_Phy/stm32_radio_driver/radio.c ****             break;
2053:Middlewares/Third_Party/SubGHz_Phy/stm32_radio_driver/radio.c ****         }
2054:Middlewares/Third_Party/SubGHz_Phy/stm32_radio_driver/radio.c **** 
2055:Middlewares/Third_Party/SubGHz_Phy/stm32_radio_driver/radio.c ****         SubgRf.PacketParams.PacketType = PACKET_TYPE_LORA;
2056:Middlewares/Third_Party/SubGHz_Phy/stm32_radio_driver/radio.c ****         SubgRf.PacketParams.Params.LoRa.PreambleLength = config->lora.PreambleLen;
2057:Middlewares/Third_Party/SubGHz_Phy/stm32_radio_driver/radio.c ****         SubgRf.PacketParams.Params.LoRa.HeaderType = ( RadioLoRaPacketLengthsMode_t ) config->lora.
2058:Middlewares/Third_Party/SubGHz_Phy/stm32_radio_driver/radio.c ****         SubgRf.PacketParams.Params.LoRa.CrcMode = ( RadioLoRaCrcModes_t ) config->lora.CrcMode;
2059:Middlewares/Third_Party/SubGHz_Phy/stm32_radio_driver/radio.c ****         SubgRf.PacketParams.Params.LoRa.InvertIQ = ( RadioLoRaIQModes_t ) config->lora.IqInverted;
2060:Middlewares/Third_Party/SubGHz_Phy/stm32_radio_driver/radio.c **** 
ARM GAS  C:\Users\NATHAN~1\AppData\Local\Temp\cc90iGN6.s 			page 93


2061:Middlewares/Third_Party/SubGHz_Phy/stm32_radio_driver/radio.c ****         RadioStandby( );
2062:Middlewares/Third_Party/SubGHz_Phy/stm32_radio_driver/radio.c ****         RadioSetModem( MODEM_LORA );
2063:Middlewares/Third_Party/SubGHz_Phy/stm32_radio_driver/radio.c ****         SUBGRF_SetModulationParams( &SubgRf.ModulationParams );
2064:Middlewares/Third_Party/SubGHz_Phy/stm32_radio_driver/radio.c ****         SUBGRF_SetPacketParams( &SubgRf.PacketParams );
2065:Middlewares/Third_Party/SubGHz_Phy/stm32_radio_driver/radio.c ****         // WORKAROUND - Modulation Quality with 500 kHz LoRa Bandwidth, see DS_SX1261-2_V1.2 datash
2066:Middlewares/Third_Party/SubGHz_Phy/stm32_radio_driver/radio.c ****         if( SubgRf.ModulationParams.Params.LoRa.Bandwidth == LORA_BW_500 )
2067:Middlewares/Third_Party/SubGHz_Phy/stm32_radio_driver/radio.c ****         {
2068:Middlewares/Third_Party/SubGHz_Phy/stm32_radio_driver/radio.c ****             // RegTxModulation = @address 0x0889
2069:Middlewares/Third_Party/SubGHz_Phy/stm32_radio_driver/radio.c ****             SUBGRF_WriteRegister( 0x0889, SUBGRF_ReadRegister( 0x0889 ) & ~( 1 << 2 ) );
2070:Middlewares/Third_Party/SubGHz_Phy/stm32_radio_driver/radio.c ****         }
2071:Middlewares/Third_Party/SubGHz_Phy/stm32_radio_driver/radio.c ****         else
2072:Middlewares/Third_Party/SubGHz_Phy/stm32_radio_driver/radio.c ****         {
2073:Middlewares/Third_Party/SubGHz_Phy/stm32_radio_driver/radio.c ****             // RegTxModulation = @address 0x0889
2074:Middlewares/Third_Party/SubGHz_Phy/stm32_radio_driver/radio.c ****             SUBGRF_WriteRegister( 0x0889, SUBGRF_ReadRegister( 0x0889 ) | ( 1 << 2 ) );
2075:Middlewares/Third_Party/SubGHz_Phy/stm32_radio_driver/radio.c ****         }
2076:Middlewares/Third_Party/SubGHz_Phy/stm32_radio_driver/radio.c ****         // WORKAROUND END
2077:Middlewares/Third_Party/SubGHz_Phy/stm32_radio_driver/radio.c ****         break;
2078:Middlewares/Third_Party/SubGHz_Phy/stm32_radio_driver/radio.c ****     case GENERIC_BPSK:
2079:Middlewares/Third_Party/SubGHz_Phy/stm32_radio_driver/radio.c ****         if( ( config->bpsk.BitRate == 0 ) || ( config->bpsk.BitRate > 1000 ) )
2080:Middlewares/Third_Party/SubGHz_Phy/stm32_radio_driver/radio.c ****         {
2081:Middlewares/Third_Party/SubGHz_Phy/stm32_radio_driver/radio.c ****             return -1;
2082:Middlewares/Third_Party/SubGHz_Phy/stm32_radio_driver/radio.c ****         }
2083:Middlewares/Third_Party/SubGHz_Phy/stm32_radio_driver/radio.c ****         RadioSetModem( MODEM_BPSK );
2084:Middlewares/Third_Party/SubGHz_Phy/stm32_radio_driver/radio.c ****         SubgRf.ModulationParams.PacketType = PACKET_TYPE_BPSK;
2085:Middlewares/Third_Party/SubGHz_Phy/stm32_radio_driver/radio.c ****         SubgRf.ModulationParams.Params.Bpsk.BitRate = config->bpsk.BitRate;
2086:Middlewares/Third_Party/SubGHz_Phy/stm32_radio_driver/radio.c ****         SubgRf.ModulationParams.Params.Bpsk.ModulationShaping = MOD_SHAPING_DBPSK;
2087:Middlewares/Third_Party/SubGHz_Phy/stm32_radio_driver/radio.c ****         SUBGRF_SetModulationParams( &SubgRf.ModulationParams );
2088:Middlewares/Third_Party/SubGHz_Phy/stm32_radio_driver/radio.c ****         break;
2089:Middlewares/Third_Party/SubGHz_Phy/stm32_radio_driver/radio.c ****     default:
2090:Middlewares/Third_Party/SubGHz_Phy/stm32_radio_driver/radio.c ****         break;
2091:Middlewares/Third_Party/SubGHz_Phy/stm32_radio_driver/radio.c ****     }
2092:Middlewares/Third_Party/SubGHz_Phy/stm32_radio_driver/radio.c **** 
2093:Middlewares/Third_Party/SubGHz_Phy/stm32_radio_driver/radio.c ****     SubgRf.AntSwitchPaSelect = SUBGRF_SetRfTxPower( power );
 2722              		.loc 1 2093 5 view .LVU675
 2723              		.loc 1 2093 32 is_stmt 0 view .LVU676
 2724 0026 3846     		mov	r0, r7
 2725 0028 FFF7FEFF 		bl	SUBGRF_SetRfTxPower
 2726              	.LVL266:
 2727              		.loc 1 2093 30 view .LVU677
 2728 002c 854C     		ldr	r4, .L242
 2729              	.LVL267:
 2730              		.loc 1 2093 30 view .LVU678
 2731 002e 84F85600 		strb	r0, [r4, #86]
2094:Middlewares/Third_Party/SubGHz_Phy/stm32_radio_driver/radio.c ****     RFW_SetAntSwitch( SubgRf.AntSwitchPaSelect );
 2732              		.loc 1 2094 5 is_stmt 1 view .LVU679
 2733 0032 FFF7FEFF 		bl	RFW_SetAntSwitch
 2734              	.LVL268:
2095:Middlewares/Third_Party/SubGHz_Phy/stm32_radio_driver/radio.c ****     SubgRf.TxTimeout = timeout;
 2735              		.loc 1 2095 5 view .LVU680
 2736              		.loc 1 2095 22 is_stmt 0 view .LVU681
 2737 0036 6660     		str	r6, [r4, #4]
2096:Middlewares/Third_Party/SubGHz_Phy/stm32_radio_driver/radio.c ****     return 0;
 2738              		.loc 1 2096 5 is_stmt 1 view .LVU682
 2739              		.loc 1 2096 12 is_stmt 0 view .LVU683
 2740 0038 0020     		movs	r0, #0
 2741              	.L216:
2097:Middlewares/Third_Party/SubGHz_Phy/stm32_radio_driver/radio.c **** }
ARM GAS  C:\Users\NATHAN~1\AppData\Local\Temp\cc90iGN6.s 			page 94


 2742              		.loc 1 2097 1 view .LVU684
 2743 003a 06B0     		add	sp, sp, #24
 2744              	.LCFI40:
 2745              		.cfi_remember_state
 2746              		.cfi_def_cfa_offset 24
 2747              		@ sp needed
 2748 003c BDE8F081 		pop	{r4, r5, r6, r7, r8, pc}
 2749              	.LVL269:
 2750              	.L238:
 2751              	.LCFI41:
 2752              		.cfi_restore_state
1965:Middlewares/Third_Party/SubGHz_Phy/stm32_radio_driver/radio.c ****         {
 2753              		.loc 1 1965 9 is_stmt 1 view .LVU685
1965:Middlewares/Third_Party/SubGHz_Phy/stm32_radio_driver/radio.c ****         {
 2754              		.loc 1 1965 26 is_stmt 0 view .LVU686
 2755 0040 A368     		ldr	r3, [r4, #8]
1965:Middlewares/Third_Party/SubGHz_Phy/stm32_radio_driver/radio.c ****         {
 2756              		.loc 1 1965 11 view .LVU687
 2757 0042 002B     		cmp	r3, #0
 2758 0044 00F0F280 		beq	.L233
1965:Middlewares/Third_Party/SubGHz_Phy/stm32_radio_driver/radio.c ****         {
 2759              		.loc 1 1965 58 discriminator 1 view .LVU688
 2760 0048 2369     		ldr	r3, [r4, #16]
1965:Middlewares/Third_Party/SubGHz_Phy/stm32_radio_driver/radio.c ****         {
 2761              		.loc 1 1965 42 discriminator 1 view .LVU689
 2762 004a 002B     		cmp	r3, #0
 2763 004c 00F0F180 		beq	.L234
1969:Middlewares/Third_Party/SubGHz_Phy/stm32_radio_driver/radio.c ****         {
 2764              		.loc 1 1969 9 is_stmt 1 view .LVU690
1969:Middlewares/Third_Party/SubGHz_Phy/stm32_radio_driver/radio.c ****         {
 2765              		.loc 1 1969 24 is_stmt 0 view .LVU691
 2766 0050 207D     		ldrb	r0, [r4, #20]	@ zero_extendqisi2
1969:Middlewares/Third_Party/SubGHz_Phy/stm32_radio_driver/radio.c ****         {
 2767              		.loc 1 1969 11 view .LVU692
 2768 0052 0828     		cmp	r0, #8
 2769 0054 00F2F080 		bhi	.L235
 2770              	.LBB4:
1975:Middlewares/Third_Party/SubGHz_Phy/stm32_radio_driver/radio.c ****             {
 2771              		.loc 1 1975 21 view .LVU693
 2772 0058 0021     		movs	r1, #0
 2773 005a 07E0     		b	.L221
 2774              	.LVL270:
 2775              	.L222:
1977:Middlewares/Third_Party/SubGHz_Phy/stm32_radio_driver/radio.c ****             }
 2776              		.loc 1 1977 17 is_stmt 1 discriminator 3 view .LVU694
1977:Middlewares/Third_Party/SubGHz_Phy/stm32_radio_driver/radio.c ****             }
 2777              		.loc 1 1977 42 is_stmt 0 discriminator 3 view .LVU695
 2778 005c A369     		ldr	r3, [r4, #24]
1977:Middlewares/Third_Party/SubGHz_Phy/stm32_radio_driver/radio.c ****             }
 2779              		.loc 1 1977 51 discriminator 3 view .LVU696
 2780 005e 5A5C     		ldrb	r2, [r3, r1]	@ zero_extendqisi2
1977:Middlewares/Third_Party/SubGHz_Phy/stm32_radio_driver/radio.c ****             }
 2781              		.loc 1 1977 29 discriminator 3 view .LVU697
 2782 0060 01F11803 		add	r3, r1, #24
 2783 0064 6B44     		add	r3, sp, r3
 2784 0066 03F8082C 		strb	r2, [r3, #-8]
1975:Middlewares/Third_Party/SubGHz_Phy/stm32_radio_driver/radio.c ****             {
ARM GAS  C:\Users\NATHAN~1\AppData\Local\Temp\cc90iGN6.s 			page 95


 2785              		.loc 1 1975 60 is_stmt 1 discriminator 3 view .LVU698
1975:Middlewares/Third_Party/SubGHz_Phy/stm32_radio_driver/radio.c ****             {
 2786              		.loc 1 1975 61 is_stmt 0 discriminator 3 view .LVU699
 2787 006a 0131     		adds	r1, r1, #1
 2788              	.LVL271:
 2789              	.L221:
1975:Middlewares/Third_Party/SubGHz_Phy/stm32_radio_driver/radio.c ****             {
 2790              		.loc 1 1975 28 is_stmt 1 discriminator 1 view .LVU700
1975:Middlewares/Third_Party/SubGHz_Phy/stm32_radio_driver/radio.c ****             {
 2791              		.loc 1 1975 13 is_stmt 0 discriminator 1 view .LVU701
 2792 006c 8842     		cmp	r0, r1
 2793 006e F5DC     		bgt	.L222
 2794              	.LBE4:
1980:Middlewares/Third_Party/SubGHz_Phy/stm32_radio_driver/radio.c ****         SubgRf.ModulationParams.Params.Gfsk.BitRate = config->fsk.BitRate;
 2795              		.loc 1 1980 9 is_stmt 1 view .LVU702
1980:Middlewares/Third_Party/SubGHz_Phy/stm32_radio_driver/radio.c ****         SubgRf.ModulationParams.Params.Gfsk.BitRate = config->fsk.BitRate;
 2796              		.loc 1 1980 44 is_stmt 0 view .LVU703
 2797 0070 744D     		ldr	r5, .L242
 2798 0072 4FF00008 		mov	r8, #0
 2799 0076 85F83880 		strb	r8, [r5, #56]
1981:Middlewares/Third_Party/SubGHz_Phy/stm32_radio_driver/radio.c ****         SubgRf.ModulationParams.Params.Gfsk.ModulationShaping = ( RadioModShapings_t ) config->fsk.
 2800              		.loc 1 1981 9 is_stmt 1 view .LVU704
1981:Middlewares/Third_Party/SubGHz_Phy/stm32_radio_driver/radio.c ****         SubgRf.ModulationParams.Params.Gfsk.ModulationShaping = ( RadioModShapings_t ) config->fsk.
 2801              		.loc 1 1981 66 is_stmt 0 view .LVU705
 2802 007a A368     		ldr	r3, [r4, #8]
1981:Middlewares/Third_Party/SubGHz_Phy/stm32_radio_driver/radio.c ****         SubgRf.ModulationParams.Params.Gfsk.ModulationShaping = ( RadioModShapings_t ) config->fsk.
 2803              		.loc 1 1981 53 view .LVU706
 2804 007c EB63     		str	r3, [r5, #60]
1982:Middlewares/Third_Party/SubGHz_Phy/stm32_radio_driver/radio.c ****         SubgRf.ModulationParams.Params.Gfsk.Bandwidth = SUBGRF_GetFskBandwidthRegValue( config->fsk
 2805              		.loc 1 1982 9 is_stmt 1 view .LVU707
1982:Middlewares/Third_Party/SubGHz_Phy/stm32_radio_driver/radio.c ****         SubgRf.ModulationParams.Params.Gfsk.Bandwidth = SUBGRF_GetFskBandwidthRegValue( config->fsk
 2806              		.loc 1 1982 99 is_stmt 0 view .LVU708
 2807 007e 2378     		ldrb	r3, [r4]	@ zero_extendqisi2
1982:Middlewares/Third_Party/SubGHz_Phy/stm32_radio_driver/radio.c ****         SubgRf.ModulationParams.Params.Gfsk.Bandwidth = SUBGRF_GetFskBandwidthRegValue( config->fsk
 2808              		.loc 1 1982 63 view .LVU709
 2809 0080 85F84430 		strb	r3, [r5, #68]
1983:Middlewares/Third_Party/SubGHz_Phy/stm32_radio_driver/radio.c ****         SubgRf.ModulationParams.Params.Gfsk.Fdev = config->fsk.FrequencyDeviation;
 2810              		.loc 1 1983 9 is_stmt 1 view .LVU710
1983:Middlewares/Third_Party/SubGHz_Phy/stm32_radio_driver/radio.c ****         SubgRf.ModulationParams.Params.Gfsk.Fdev = config->fsk.FrequencyDeviation;
 2811              		.loc 1 1983 57 is_stmt 0 view .LVU711
 2812 0084 6068     		ldr	r0, [r4, #4]
 2813 0086 FFF7FEFF 		bl	SUBGRF_GetFskBandwidthRegValue
 2814              	.LVL272:
1983:Middlewares/Third_Party/SubGHz_Phy/stm32_radio_driver/radio.c ****         SubgRf.ModulationParams.Params.Gfsk.Fdev = config->fsk.FrequencyDeviation;
 2815              		.loc 1 1983 55 view .LVU712
 2816 008a 85F84500 		strb	r0, [r5, #69]
1984:Middlewares/Third_Party/SubGHz_Phy/stm32_radio_driver/radio.c ****     
 2817              		.loc 1 1984 9 is_stmt 1 view .LVU713
1984:Middlewares/Third_Party/SubGHz_Phy/stm32_radio_driver/radio.c ****     
 2818              		.loc 1 1984 63 is_stmt 0 view .LVU714
 2819 008e E368     		ldr	r3, [r4, #12]
1984:Middlewares/Third_Party/SubGHz_Phy/stm32_radio_driver/radio.c ****     
 2820              		.loc 1 1984 50 view .LVU715
 2821 0090 2B64     		str	r3, [r5, #64]
1986:Middlewares/Third_Party/SubGHz_Phy/stm32_radio_driver/radio.c ****         SubgRf.PacketParams.Params.Gfsk.PreambleLength = ( config->fsk.PreambleLen ) << 3; // conve
 2822              		.loc 1 1986 9 is_stmt 1 view .LVU716
1986:Middlewares/Third_Party/SubGHz_Phy/stm32_radio_driver/radio.c ****         SubgRf.PacketParams.Params.Gfsk.PreambleLength = ( config->fsk.PreambleLen ) << 3; // conve
ARM GAS  C:\Users\NATHAN~1\AppData\Local\Temp\cc90iGN6.s 			page 96


 2823              		.loc 1 1986 40 is_stmt 0 view .LVU717
 2824 0092 85F80E80 		strb	r8, [r5, #14]
1987:Middlewares/Third_Party/SubGHz_Phy/stm32_radio_driver/radio.c ****         SubgRf.PacketParams.Params.Gfsk.PreambleMinDetect = RADIO_PREAMBLE_DETECTOR_08_BITS; // don
 2825              		.loc 1 1987 9 is_stmt 1 view .LVU718
1987:Middlewares/Third_Party/SubGHz_Phy/stm32_radio_driver/radio.c ****         SubgRf.PacketParams.Params.Gfsk.PreambleMinDetect = RADIO_PREAMBLE_DETECTOR_08_BITS; // don
 2826              		.loc 1 1987 71 is_stmt 0 view .LVU719
 2827 0096 2369     		ldr	r3, [r4, #16]
1987:Middlewares/Third_Party/SubGHz_Phy/stm32_radio_driver/radio.c ****         SubgRf.PacketParams.Params.Gfsk.PreambleMinDetect = RADIO_PREAMBLE_DETECTOR_08_BITS; // don
 2828              		.loc 1 1987 86 view .LVU720
 2829 0098 DB00     		lsls	r3, r3, #3
1987:Middlewares/Third_Party/SubGHz_Phy/stm32_radio_driver/radio.c ****         SubgRf.PacketParams.Params.Gfsk.PreambleMinDetect = RADIO_PREAMBLE_DETECTOR_08_BITS; // don
 2830              		.loc 1 1987 56 view .LVU721
 2831 009a 2B82     		strh	r3, [r5, #16]	@ movhi
1988:Middlewares/Third_Party/SubGHz_Phy/stm32_radio_driver/radio.c ****         SubgRf.PacketParams.Params.Gfsk.SyncWordLength = ( config->fsk.SyncWordLength ) << 3; // co
 2832              		.loc 1 1988 9 is_stmt 1 view .LVU722
1988:Middlewares/Third_Party/SubGHz_Phy/stm32_radio_driver/radio.c ****         SubgRf.PacketParams.Params.Gfsk.SyncWordLength = ( config->fsk.SyncWordLength ) << 3; // co
 2833              		.loc 1 1988 59 is_stmt 0 view .LVU723
 2834 009c 0423     		movs	r3, #4
 2835 009e AB74     		strb	r3, [r5, #18]
1989:Middlewares/Third_Party/SubGHz_Phy/stm32_radio_driver/radio.c ****         SubgRf.PacketParams.Params.Gfsk.AddrComp = RADIO_ADDRESSCOMP_FILT_OFF; // don't care in tx
 2836              		.loc 1 1989 9 is_stmt 1 view .LVU724
1989:Middlewares/Third_Party/SubGHz_Phy/stm32_radio_driver/radio.c ****         SubgRf.PacketParams.Params.Gfsk.AddrComp = RADIO_ADDRESSCOMP_FILT_OFF; // don't care in tx
 2837              		.loc 1 1989 71 is_stmt 0 view .LVU725
 2838 00a0 237D     		ldrb	r3, [r4, #20]	@ zero_extendqisi2
1989:Middlewares/Third_Party/SubGHz_Phy/stm32_radio_driver/radio.c ****         SubgRf.PacketParams.Params.Gfsk.AddrComp = RADIO_ADDRESSCOMP_FILT_OFF; // don't care in tx
 2839              		.loc 1 1989 89 view .LVU726
 2840 00a2 DB00     		lsls	r3, r3, #3
1989:Middlewares/Third_Party/SubGHz_Phy/stm32_radio_driver/radio.c ****         SubgRf.PacketParams.Params.Gfsk.AddrComp = RADIO_ADDRESSCOMP_FILT_OFF; // don't care in tx
 2841              		.loc 1 1989 56 view .LVU727
 2842 00a4 EB74     		strb	r3, [r5, #19]
1990:Middlewares/Third_Party/SubGHz_Phy/stm32_radio_driver/radio.c **** 
 2843              		.loc 1 1990 9 is_stmt 1 view .LVU728
1990:Middlewares/Third_Party/SubGHz_Phy/stm32_radio_driver/radio.c **** 
 2844              		.loc 1 1990 50 is_stmt 0 view .LVU729
 2845 00a6 85F81480 		strb	r8, [r5, #20]
1992:Middlewares/Third_Party/SubGHz_Phy/stm32_radio_driver/radio.c ****         {
 2846              		.loc 1 1992 9 is_stmt 1 view .LVU730
1992:Middlewares/Third_Party/SubGHz_Phy/stm32_radio_driver/radio.c ****         {
 2847              		.loc 1 1992 26 is_stmt 0 view .LVU731
 2848 00aa 94F82430 		ldrb	r3, [r4, #36]	@ zero_extendqisi2
1992:Middlewares/Third_Party/SubGHz_Phy/stm32_radio_driver/radio.c ****         {
 2849              		.loc 1 1992 11 view .LVU732
 2850 00ae 022B     		cmp	r3, #2
 2851 00b0 08D0     		beq	.L223
1992:Middlewares/Third_Party/SubGHz_Phy/stm32_radio_driver/radio.c ****         {
 2852              		.loc 1 1992 85 discriminator 1 view .LVU733
 2853 00b2 A27F     		ldrb	r2, [r4, #30]	@ zero_extendqisi2
1992:Middlewares/Third_Party/SubGHz_Phy/stm32_radio_driver/radio.c ****         {
 2854              		.loc 1 1992 69 discriminator 1 view .LVU734
 2855 00b4 022A     		cmp	r2, #2
 2856 00b6 05D0     		beq	.L223
2015:Middlewares/Third_Party/SubGHz_Phy/stm32_radio_driver/radio.c ****           SubgRf.PacketParams.Params.Gfsk.DcFree = ( RadioDcFree_t ) config->fsk.Whitening;
 2857              		.loc 1 2015 11 is_stmt 1 view .LVU735
2015:Middlewares/Third_Party/SubGHz_Phy/stm32_radio_driver/radio.c ****           SubgRf.PacketParams.Params.Gfsk.DcFree = ( RadioDcFree_t ) config->fsk.Whitening;
 2858              		.loc 1 2015 86 is_stmt 0 view .LVU736
 2859 00b8 E07F     		ldrb	r0, [r4, #31]	@ zero_extendqisi2
2015:Middlewares/Third_Party/SubGHz_Phy/stm32_radio_driver/radio.c ****           SubgRf.PacketParams.Params.Gfsk.DcFree = ( RadioDcFree_t ) config->fsk.Whitening;
ARM GAS  C:\Users\NATHAN~1\AppData\Local\Temp\cc90iGN6.s 			page 97


 2860              		.loc 1 2015 53 view .LVU737
 2861 00ba 6249     		ldr	r1, .L242
 2862 00bc C875     		strb	r0, [r1, #23]
2016:Middlewares/Third_Party/SubGHz_Phy/stm32_radio_driver/radio.c ****           SubgRf.PacketParams.Params.Gfsk.HeaderType = ( RadioPacketLengthModes_t ) config->fsk.Hea
 2863              		.loc 1 2016 11 is_stmt 1 view .LVU738
2016:Middlewares/Third_Party/SubGHz_Phy/stm32_radio_driver/radio.c ****           SubgRf.PacketParams.Params.Gfsk.HeaderType = ( RadioPacketLengthModes_t ) config->fsk.Hea
 2864              		.loc 1 2016 50 is_stmt 0 view .LVU739
 2865 00be 0B76     		strb	r3, [r1, #24]
2017:Middlewares/Third_Party/SubGHz_Phy/stm32_radio_driver/radio.c ****         }
 2866              		.loc 1 2017 11 is_stmt 1 view .LVU740
2017:Middlewares/Third_Party/SubGHz_Phy/stm32_radio_driver/radio.c ****         }
 2867              		.loc 1 2017 54 is_stmt 0 view .LVU741
 2868 00c0 4A75     		strb	r2, [r1, #21]
 2869 00c2 18E0     		b	.L227
 2870              	.L223:
 2871              	.LBB5:
1995:Middlewares/Third_Party/SubGHz_Phy/stm32_radio_driver/radio.c ****             {
 2872              		.loc 1 1995 13 is_stmt 1 view .LVU742
1995:Middlewares/Third_Party/SubGHz_Phy/stm32_radio_driver/radio.c ****             {
 2873              		.loc 1 1995 30 is_stmt 0 view .LVU743
 2874 00c4 E27F     		ldrb	r2, [r4, #31]	@ zero_extendqisi2
1995:Middlewares/Third_Party/SubGHz_Phy/stm32_radio_driver/radio.c ****             {
 2875              		.loc 1 1995 72 view .LVU744
 2876 00c6 02F10F03 		add	r3, r2, #15
 2877 00ca DBB2     		uxtb	r3, r3
1995:Middlewares/Third_Party/SubGHz_Phy/stm32_radio_driver/radio.c ****             {
 2878              		.loc 1 1995 15 view .LVU745
 2879 00cc 012B     		cmp	r3, #1
 2880 00ce 01D9     		bls	.L225
1995:Middlewares/Third_Party/SubGHz_Phy/stm32_radio_driver/radio.c ****             {
 2881              		.loc 1 1995 131 discriminator 1 view .LVU746
 2882 00d0 012A     		cmp	r2, #1
 2883 00d2 28D1     		bne	.L226
 2884              	.L225:
1999:Middlewares/Third_Party/SubGHz_Phy/stm32_radio_driver/radio.c ****             ConfigGeneric.rtx = CONFIG_TX;
 2885              		.loc 1 1999 13 is_stmt 1 view .LVU747
2000:Middlewares/Third_Party/SubGHz_Phy/stm32_radio_driver/radio.c ****             ConfigGeneric.TxConfig = config;
 2886              		.loc 1 2000 13 view .LVU748
2000:Middlewares/Third_Party/SubGHz_Phy/stm32_radio_driver/radio.c ****             ConfigGeneric.TxConfig = config;
 2887              		.loc 1 2000 31 is_stmt 0 view .LVU749
 2888 00d4 0123     		movs	r3, #1
 2889 00d6 8DF80C30 		strb	r3, [sp, #12]
2001:Middlewares/Third_Party/SubGHz_Phy/stm32_radio_driver/radio.c ****             if( 0UL != RFW_Init( &ConfigGeneric, RadioEvents, &TxTimeoutTimer ) )
 2890              		.loc 1 2001 13 is_stmt 1 view .LVU750
2001:Middlewares/Third_Party/SubGHz_Phy/stm32_radio_driver/radio.c ****             if( 0UL != RFW_Init( &ConfigGeneric, RadioEvents, &TxTimeoutTimer ) )
 2891              		.loc 1 2001 36 is_stmt 0 view .LVU751
 2892 00da 0194     		str	r4, [sp, #4]
2002:Middlewares/Third_Party/SubGHz_Phy/stm32_radio_driver/radio.c ****             {
 2893              		.loc 1 2002 13 is_stmt 1 view .LVU752
2002:Middlewares/Third_Party/SubGHz_Phy/stm32_radio_driver/radio.c ****             {
 2894              		.loc 1 2002 24 is_stmt 0 view .LVU753
 2895 00dc 5A4A     		ldr	r2, .L242+4
 2896 00de 5B4B     		ldr	r3, .L242+8
 2897 00e0 1968     		ldr	r1, [r3]
 2898 00e2 01A8     		add	r0, sp, #4
 2899 00e4 FFF7FEFF 		bl	RFW_Init
 2900              	.LVL273:
ARM GAS  C:\Users\NATHAN~1\AppData\Local\Temp\cc90iGN6.s 			page 98


2002:Middlewares/Third_Party/SubGHz_Phy/stm32_radio_driver/radio.c ****             {
 2901              		.loc 1 2002 15 view .LVU754
 2902 00e8 E8B9     		cbnz	r0, .L226
2007:Middlewares/Third_Party/SubGHz_Phy/stm32_radio_driver/radio.c ****             /* Crc processed by FW, switch off built-in radio Crc */
 2903              		.loc 1 2007 13 is_stmt 1 view .LVU755
2007:Middlewares/Third_Party/SubGHz_Phy/stm32_radio_driver/radio.c ****             /* Crc processed by FW, switch off built-in radio Crc */
 2904              		.loc 1 2007 52 is_stmt 0 view .LVU756
 2905 00ea 564B     		ldr	r3, .L242
 2906 00ec 0022     		movs	r2, #0
 2907 00ee 1A76     		strb	r2, [r3, #24]
2009:Middlewares/Third_Party/SubGHz_Phy/stm32_radio_driver/radio.c ****             /* length contained in Tx, but will be processed by FW after de-whitening */
 2908              		.loc 1 2009 13 is_stmt 1 view .LVU757
2009:Middlewares/Third_Party/SubGHz_Phy/stm32_radio_driver/radio.c ****             /* length contained in Tx, but will be processed by FW after de-whitening */
 2909              		.loc 1 2009 55 is_stmt 0 view .LVU758
 2910 00f0 0121     		movs	r1, #1
 2911 00f2 D975     		strb	r1, [r3, #23]
2011:Middlewares/Third_Party/SubGHz_Phy/stm32_radio_driver/radio.c ****         }
 2912              		.loc 1 2011 13 is_stmt 1 view .LVU759
2011:Middlewares/Third_Party/SubGHz_Phy/stm32_radio_driver/radio.c ****         }
 2913              		.loc 1 2011 56 is_stmt 0 view .LVU760
 2914 00f4 5A75     		strb	r2, [r3, #21]
 2915              	.L227:
2011:Middlewares/Third_Party/SubGHz_Phy/stm32_radio_driver/radio.c ****         }
 2916              		.loc 1 2011 56 view .LVU761
 2917              	.LBE5:
2020:Middlewares/Third_Party/SubGHz_Phy/stm32_radio_driver/radio.c ****         RadioSetModem( MODEM_FSK );
 2918              		.loc 1 2020 9 is_stmt 1 view .LVU762
 2919 00f6 FFF7FEFF 		bl	RadioStandby
 2920              	.LVL274:
2021:Middlewares/Third_Party/SubGHz_Phy/stm32_radio_driver/radio.c ****         SUBGRF_SetModulationParams( &SubgRf.ModulationParams );
 2921              		.loc 1 2021 9 view .LVU763
 2922 00fa 0020     		movs	r0, #0
 2923 00fc FFF7FEFF 		bl	RadioSetModem
 2924              	.LVL275:
2022:Middlewares/Third_Party/SubGHz_Phy/stm32_radio_driver/radio.c ****         SUBGRF_SetPacketParams( &SubgRf.PacketParams );
 2925              		.loc 1 2022 9 view .LVU764
 2926 0100 504D     		ldr	r5, .L242
 2927 0102 05F13800 		add	r0, r5, #56
 2928 0106 FFF7FEFF 		bl	SUBGRF_SetModulationParams
 2929              	.LVL276:
2023:Middlewares/Third_Party/SubGHz_Phy/stm32_radio_driver/radio.c ****         SUBGRF_SetSyncWord( syncword );
 2930              		.loc 1 2023 9 view .LVU765
 2931 010a 05F10E00 		add	r0, r5, #14
 2932 010e FFF7FEFF 		bl	SUBGRF_SetPacketParams
 2933              	.LVL277:
2024:Middlewares/Third_Party/SubGHz_Phy/stm32_radio_driver/radio.c ****         SUBGRF_SetWhiteningSeed( config->fsk.whiteSeed );
 2934              		.loc 1 2024 9 view .LVU766
 2935 0112 04A8     		add	r0, sp, #16
 2936 0114 FFF7FEFF 		bl	SUBGRF_SetSyncWord
 2937              	.LVL278:
2025:Middlewares/Third_Party/SubGHz_Phy/stm32_radio_driver/radio.c ****         SUBGRF_SetCrcPolynomial(config->fsk.CrcPolynomial );
 2938              		.loc 1 2025 9 view .LVU767
 2939 0118 A08B     		ldrh	r0, [r4, #28]
 2940 011a FFF7FEFF 		bl	SUBGRF_SetWhiteningSeed
 2941              	.LVL279:
2026:Middlewares/Third_Party/SubGHz_Phy/stm32_radio_driver/radio.c ****         break;
 2942              		.loc 1 2026 9 view .LVU768
ARM GAS  C:\Users\NATHAN~1\AppData\Local\Temp\cc90iGN6.s 			page 99


 2943 011e 208C     		ldrh	r0, [r4, #32]
 2944 0120 FFF7FEFF 		bl	SUBGRF_SetCrcPolynomial
 2945              	.LVL280:
2027:Middlewares/Third_Party/SubGHz_Phy/stm32_radio_driver/radio.c ****     case GENERIC_LORA:
 2946              		.loc 1 2027 9 view .LVU769
 2947 0124 7FE7     		b	.L219
 2948              	.L226:
 2949              	.LBB6:
1997:Middlewares/Third_Party/SubGHz_Phy/stm32_radio_driver/radio.c ****             }
 2950              		.loc 1 1997 24 is_stmt 0 discriminator 1 view .LVU770
 2951 0126 4FF0FF30 		mov	r0, #-1
 2952 012a 86E7     		b	.L216
 2953              	.L217:
1997:Middlewares/Third_Party/SubGHz_Phy/stm32_radio_driver/radio.c ****             }
 2954              		.loc 1 1997 24 discriminator 1 view .LVU771
 2955              	.LBE6:
2029:Middlewares/Third_Party/SubGHz_Phy/stm32_radio_driver/radio.c ****         SubgRf.ModulationParams.Params.LoRa.SpreadingFactor = ( RadioLoRaSpreadingFactors_t ) confi
 2956              		.loc 1 2029 9 is_stmt 1 view .LVU772
2029:Middlewares/Third_Party/SubGHz_Phy/stm32_radio_driver/radio.c ****         SubgRf.ModulationParams.Params.LoRa.SpreadingFactor = ( RadioLoRaSpreadingFactors_t ) confi
 2957              		.loc 1 2029 44 is_stmt 0 view .LVU773
 2958 012c 454B     		ldr	r3, .L242
 2959 012e 0122     		movs	r2, #1
 2960 0130 83F83820 		strb	r2, [r3, #56]
2030:Middlewares/Third_Party/SubGHz_Phy/stm32_radio_driver/radio.c ****         SubgRf.ModulationParams.Params.LoRa.Bandwidth = ( RadioLoRaBandwidths_t ) config->lora.Band
 2961              		.loc 1 2030 9 is_stmt 1 view .LVU774
2030:Middlewares/Third_Party/SubGHz_Phy/stm32_radio_driver/radio.c ****         SubgRf.ModulationParams.Params.LoRa.Bandwidth = ( RadioLoRaBandwidths_t ) config->lora.Band
 2962              		.loc 1 2030 107 is_stmt 0 view .LVU775
 2963 0134 94F82820 		ldrb	r2, [r4, #40]	@ zero_extendqisi2
2030:Middlewares/Third_Party/SubGHz_Phy/stm32_radio_driver/radio.c ****         SubgRf.ModulationParams.Params.LoRa.Bandwidth = ( RadioLoRaBandwidths_t ) config->lora.Band
 2964              		.loc 1 2030 61 view .LVU776
 2965 0138 83F85020 		strb	r2, [r3, #80]
2031:Middlewares/Third_Party/SubGHz_Phy/stm32_radio_driver/radio.c ****         SubgRf.ModulationParams.Params.LoRa.CodingRate = ( RadioLoRaCodingRates_t ) config->lora.Co
 2966              		.loc 1 2031 9 is_stmt 1 view .LVU777
2031:Middlewares/Third_Party/SubGHz_Phy/stm32_radio_driver/radio.c ****         SubgRf.ModulationParams.Params.LoRa.CodingRate = ( RadioLoRaCodingRates_t ) config->lora.Co
 2967              		.loc 1 2031 95 is_stmt 0 view .LVU778
 2968 013c 94F82920 		ldrb	r2, [r4, #41]	@ zero_extendqisi2
2031:Middlewares/Third_Party/SubGHz_Phy/stm32_radio_driver/radio.c ****         SubgRf.ModulationParams.Params.LoRa.CodingRate = ( RadioLoRaCodingRates_t ) config->lora.Co
 2969              		.loc 1 2031 55 view .LVU779
 2970 0140 83F85120 		strb	r2, [r3, #81]
2032:Middlewares/Third_Party/SubGHz_Phy/stm32_radio_driver/radio.c ****         switch( config->lora.LowDatarateOptimize )
 2971              		.loc 1 2032 9 is_stmt 1 view .LVU780
2032:Middlewares/Third_Party/SubGHz_Phy/stm32_radio_driver/radio.c ****         switch( config->lora.LowDatarateOptimize )
 2972              		.loc 1 2032 97 is_stmt 0 view .LVU781
 2973 0144 94F82A20 		ldrb	r2, [r4, #42]	@ zero_extendqisi2
2032:Middlewares/Third_Party/SubGHz_Phy/stm32_radio_driver/radio.c ****         switch( config->lora.LowDatarateOptimize )
 2974              		.loc 1 2032 56 view .LVU782
 2975 0148 83F85220 		strb	r2, [r3, #82]
2033:Middlewares/Third_Party/SubGHz_Phy/stm32_radio_driver/radio.c ****         {
 2976              		.loc 1 2033 9 is_stmt 1 view .LVU783
2033:Middlewares/Third_Party/SubGHz_Phy/stm32_radio_driver/radio.c ****         {
 2977              		.loc 1 2033 29 is_stmt 0 view .LVU784
 2978 014c 94F82B30 		ldrb	r3, [r4, #43]	@ zero_extendqisi2
 2979 0150 012B     		cmp	r3, #1
 2980 0152 36D0     		beq	.L228
 2981 0154 022B     		cmp	r3, #2
 2982 0156 39D0     		beq	.L229
 2983 0158 73B3     		cbz	r3, .L239
ARM GAS  C:\Users\NATHAN~1\AppData\Local\Temp\cc90iGN6.s 			page 100


 2984              	.L230:
2055:Middlewares/Third_Party/SubGHz_Phy/stm32_radio_driver/radio.c ****         SubgRf.PacketParams.Params.LoRa.PreambleLength = config->lora.PreambleLen;
 2985              		.loc 1 2055 9 is_stmt 1 view .LVU785
2055:Middlewares/Third_Party/SubGHz_Phy/stm32_radio_driver/radio.c ****         SubgRf.PacketParams.Params.LoRa.PreambleLength = config->lora.PreambleLen;
 2986              		.loc 1 2055 40 is_stmt 0 view .LVU786
 2987 015a 3A4D     		ldr	r5, .L242
 2988 015c 4FF00108 		mov	r8, #1
 2989 0160 85F80E80 		strb	r8, [r5, #14]
2056:Middlewares/Third_Party/SubGHz_Phy/stm32_radio_driver/radio.c ****         SubgRf.PacketParams.Params.LoRa.HeaderType = ( RadioLoRaPacketLengthsMode_t ) config->lora.
 2990              		.loc 1 2056 9 is_stmt 1 view .LVU787
2056:Middlewares/Third_Party/SubGHz_Phy/stm32_radio_driver/radio.c ****         SubgRf.PacketParams.Params.LoRa.HeaderType = ( RadioLoRaPacketLengthsMode_t ) config->lora.
 2991              		.loc 1 2056 70 is_stmt 0 view .LVU788
 2992 0164 A38D     		ldrh	r3, [r4, #44]
2056:Middlewares/Third_Party/SubGHz_Phy/stm32_radio_driver/radio.c ****         SubgRf.PacketParams.Params.LoRa.HeaderType = ( RadioLoRaPacketLengthsMode_t ) config->lora.
 2993              		.loc 1 2056 56 view .LVU789
 2994 0166 AB83     		strh	r3, [r5, #28]	@ movhi
2057:Middlewares/Third_Party/SubGHz_Phy/stm32_radio_driver/radio.c ****         SubgRf.PacketParams.Params.LoRa.CrcMode = ( RadioLoRaCrcModes_t ) config->lora.CrcMode;
 2995              		.loc 1 2057 9 is_stmt 1 view .LVU790
2057:Middlewares/Third_Party/SubGHz_Phy/stm32_radio_driver/radio.c ****         SubgRf.PacketParams.Params.LoRa.CrcMode = ( RadioLoRaCrcModes_t ) config->lora.CrcMode;
 2996              		.loc 1 2057 99 is_stmt 0 view .LVU791
 2997 0168 94F82E30 		ldrb	r3, [r4, #46]	@ zero_extendqisi2
2057:Middlewares/Third_Party/SubGHz_Phy/stm32_radio_driver/radio.c ****         SubgRf.PacketParams.Params.LoRa.CrcMode = ( RadioLoRaCrcModes_t ) config->lora.CrcMode;
 2998              		.loc 1 2057 52 view .LVU792
 2999 016c AB77     		strb	r3, [r5, #30]
2058:Middlewares/Third_Party/SubGHz_Phy/stm32_radio_driver/radio.c ****         SubgRf.PacketParams.Params.LoRa.InvertIQ = ( RadioLoRaIQModes_t ) config->lora.IqInverted;
 3000              		.loc 1 2058 9 is_stmt 1 view .LVU793
2058:Middlewares/Third_Party/SubGHz_Phy/stm32_radio_driver/radio.c ****         SubgRf.PacketParams.Params.LoRa.InvertIQ = ( RadioLoRaIQModes_t ) config->lora.IqInverted;
 3001              		.loc 1 2058 87 is_stmt 0 view .LVU794
 3002 016e 94F82F30 		ldrb	r3, [r4, #47]	@ zero_extendqisi2
2058:Middlewares/Third_Party/SubGHz_Phy/stm32_radio_driver/radio.c ****         SubgRf.PacketParams.Params.LoRa.InvertIQ = ( RadioLoRaIQModes_t ) config->lora.IqInverted;
 3003              		.loc 1 2058 49 view .LVU795
 3004 0172 85F82030 		strb	r3, [r5, #32]
2059:Middlewares/Third_Party/SubGHz_Phy/stm32_radio_driver/radio.c **** 
 3005              		.loc 1 2059 9 is_stmt 1 view .LVU796
2059:Middlewares/Third_Party/SubGHz_Phy/stm32_radio_driver/radio.c **** 
 3006              		.loc 1 2059 87 is_stmt 0 view .LVU797
 3007 0176 94F83030 		ldrb	r3, [r4, #48]	@ zero_extendqisi2
2059:Middlewares/Third_Party/SubGHz_Phy/stm32_radio_driver/radio.c **** 
 3008              		.loc 1 2059 50 view .LVU798
 3009 017a 85F82130 		strb	r3, [r5, #33]
2061:Middlewares/Third_Party/SubGHz_Phy/stm32_radio_driver/radio.c ****         RadioSetModem( MODEM_LORA );
 3010              		.loc 1 2061 9 is_stmt 1 view .LVU799
 3011 017e FFF7FEFF 		bl	RadioStandby
 3012              	.LVL281:
2062:Middlewares/Third_Party/SubGHz_Phy/stm32_radio_driver/radio.c ****         SUBGRF_SetModulationParams( &SubgRf.ModulationParams );
 3013              		.loc 1 2062 9 view .LVU800
 3014 0182 4046     		mov	r0, r8
 3015 0184 FFF7FEFF 		bl	RadioSetModem
 3016              	.LVL282:
2063:Middlewares/Third_Party/SubGHz_Phy/stm32_radio_driver/radio.c ****         SUBGRF_SetPacketParams( &SubgRf.PacketParams );
 3017              		.loc 1 2063 9 view .LVU801
 3018 0188 05F13800 		add	r0, r5, #56
 3019 018c FFF7FEFF 		bl	SUBGRF_SetModulationParams
 3020              	.LVL283:
2064:Middlewares/Third_Party/SubGHz_Phy/stm32_radio_driver/radio.c ****         // WORKAROUND - Modulation Quality with 500 kHz LoRa Bandwidth, see DS_SX1261-2_V1.2 datash
 3021              		.loc 1 2064 9 view .LVU802
 3022 0190 05F10E00 		add	r0, r5, #14
ARM GAS  C:\Users\NATHAN~1\AppData\Local\Temp\cc90iGN6.s 			page 101


 3023 0194 FFF7FEFF 		bl	SUBGRF_SetPacketParams
 3024              	.LVL284:
2066:Middlewares/Third_Party/SubGHz_Phy/stm32_radio_driver/radio.c ****         {
 3025              		.loc 1 2066 9 view .LVU803
2066:Middlewares/Third_Party/SubGHz_Phy/stm32_radio_driver/radio.c ****         {
 3026              		.loc 1 2066 48 is_stmt 0 view .LVU804
 3027 0198 95F85130 		ldrb	r3, [r5, #81]	@ zero_extendqisi2
2066:Middlewares/Third_Party/SubGHz_Phy/stm32_radio_driver/radio.c ****         {
 3028              		.loc 1 2066 11 view .LVU805
 3029 019c 062B     		cmp	r3, #6
 3030 019e 25D0     		beq	.L240
2074:Middlewares/Third_Party/SubGHz_Phy/stm32_radio_driver/radio.c ****         }
 3031              		.loc 1 2074 13 is_stmt 1 view .LVU806
2074:Middlewares/Third_Party/SubGHz_Phy/stm32_radio_driver/radio.c ****         }
 3032              		.loc 1 2074 43 is_stmt 0 view .LVU807
 3033 01a0 40F68900 		movw	r0, #2185
 3034 01a4 FFF7FEFF 		bl	SUBGRF_ReadRegister
 3035              	.LVL285:
2074:Middlewares/Third_Party/SubGHz_Phy/stm32_radio_driver/radio.c ****         }
 3036              		.loc 1 2074 13 view .LVU808
 3037 01a8 40F00401 		orr	r1, r0, #4
 3038 01ac C9B2     		uxtb	r1, r1
 3039 01ae 40F68900 		movw	r0, #2185
 3040 01b2 FFF7FEFF 		bl	SUBGRF_WriteRegister
 3041              	.LVL286:
 3042 01b6 36E7     		b	.L219
 3043              	.L239:
2036:Middlewares/Third_Party/SubGHz_Phy/stm32_radio_driver/radio.c ****             break;
 3044              		.loc 1 2036 13 is_stmt 1 view .LVU809
2036:Middlewares/Third_Party/SubGHz_Phy/stm32_radio_driver/radio.c ****             break;
 3045              		.loc 1 2036 69 is_stmt 0 view .LVU810
 3046 01b8 224B     		ldr	r3, .L242
 3047 01ba 0022     		movs	r2, #0
 3048 01bc 83F85320 		strb	r2, [r3, #83]
2037:Middlewares/Third_Party/SubGHz_Phy/stm32_radio_driver/radio.c ****           case RADIO_LORA_LOWDR_OPT_ON:
 3049              		.loc 1 2037 13 is_stmt 1 view .LVU811
 3050 01c0 CBE7     		b	.L230
 3051              	.L228:
2039:Middlewares/Third_Party/SubGHz_Phy/stm32_radio_driver/radio.c ****             break;
 3052              		.loc 1 2039 13 view .LVU812
2039:Middlewares/Third_Party/SubGHz_Phy/stm32_radio_driver/radio.c ****             break;
 3053              		.loc 1 2039 69 is_stmt 0 view .LVU813
 3054 01c2 204B     		ldr	r3, .L242
 3055 01c4 0122     		movs	r2, #1
 3056 01c6 83F85320 		strb	r2, [r3, #83]
2040:Middlewares/Third_Party/SubGHz_Phy/stm32_radio_driver/radio.c ****           case RADIO_LORA_LOWDR_OPT_AUTO:
 3057              		.loc 1 2040 13 is_stmt 1 view .LVU814
 3058 01ca C6E7     		b	.L230
 3059              	.L229:
2042:Middlewares/Third_Party/SubGHz_Phy/stm32_radio_driver/radio.c ****             {
 3060              		.loc 1 2042 13 view .LVU815
2042:Middlewares/Third_Party/SubGHz_Phy/stm32_radio_driver/radio.c ****             {
 3061              		.loc 1 2042 31 is_stmt 0 view .LVU816
 3062 01cc 94F82830 		ldrb	r3, [r4, #40]	@ zero_extendqisi2
2042:Middlewares/Third_Party/SubGHz_Phy/stm32_radio_driver/radio.c ****             {
 3063              		.loc 1 2042 69 view .LVU817
 3064 01d0 0B3B     		subs	r3, r3, #11
ARM GAS  C:\Users\NATHAN~1\AppData\Local\Temp\cc90iGN6.s 			page 102


 3065 01d2 DBB2     		uxtb	r3, r3
2042:Middlewares/Third_Party/SubGHz_Phy/stm32_radio_driver/radio.c ****             {
 3066              		.loc 1 2042 15 view .LVU818
 3067 01d4 012B     		cmp	r3, #1
 3068 01d6 04D9     		bls	.L241
2048:Middlewares/Third_Party/SubGHz_Phy/stm32_radio_driver/radio.c ****             }
 3069              		.loc 1 2048 15 is_stmt 1 view .LVU819
2048:Middlewares/Third_Party/SubGHz_Phy/stm32_radio_driver/radio.c ****             }
 3070              		.loc 1 2048 71 is_stmt 0 view .LVU820
 3071 01d8 1A4B     		ldr	r3, .L242
 3072 01da 0022     		movs	r2, #0
 3073 01dc 83F85320 		strb	r2, [r3, #83]
 3074 01e0 BBE7     		b	.L230
 3075              	.L241:
2044:Middlewares/Third_Party/SubGHz_Phy/stm32_radio_driver/radio.c ****             }
 3076              		.loc 1 2044 15 is_stmt 1 view .LVU821
2044:Middlewares/Third_Party/SubGHz_Phy/stm32_radio_driver/radio.c ****             }
 3077              		.loc 1 2044 71 is_stmt 0 view .LVU822
 3078 01e2 184B     		ldr	r3, .L242
 3079 01e4 0122     		movs	r2, #1
 3080 01e6 83F85320 		strb	r2, [r3, #83]
 3081 01ea B6E7     		b	.L230
 3082              	.L240:
2069:Middlewares/Third_Party/SubGHz_Phy/stm32_radio_driver/radio.c ****         }
 3083              		.loc 1 2069 13 is_stmt 1 view .LVU823
2069:Middlewares/Third_Party/SubGHz_Phy/stm32_radio_driver/radio.c ****         }
 3084              		.loc 1 2069 43 is_stmt 0 view .LVU824
 3085 01ec 40F68900 		movw	r0, #2185
 3086 01f0 FFF7FEFF 		bl	SUBGRF_ReadRegister
 3087              	.LVL287:
2069:Middlewares/Third_Party/SubGHz_Phy/stm32_radio_driver/radio.c ****         }
 3088              		.loc 1 2069 13 view .LVU825
 3089 01f4 00F0FB01 		and	r1, r0, #251
 3090 01f8 40F68900 		movw	r0, #2185
 3091 01fc FFF7FEFF 		bl	SUBGRF_WriteRegister
 3092              	.LVL288:
 3093 0200 11E7     		b	.L219
 3094              	.L218:
2079:Middlewares/Third_Party/SubGHz_Phy/stm32_radio_driver/radio.c ****         {
 3095              		.loc 1 2079 9 is_stmt 1 view .LVU826
2079:Middlewares/Third_Party/SubGHz_Phy/stm32_radio_driver/radio.c ****         {
 3096              		.loc 1 2079 27 is_stmt 0 view .LVU827
 3097 0202 636B     		ldr	r3, [r4, #52]
2079:Middlewares/Third_Party/SubGHz_Phy/stm32_radio_driver/radio.c ****         {
 3098              		.loc 1 2079 43 view .LVU828
 3099 0204 013B     		subs	r3, r3, #1
2079:Middlewares/Third_Party/SubGHz_Phy/stm32_radio_driver/radio.c ****         {
 3100              		.loc 1 2079 11 view .LVU829
 3101 0206 B3F57A7F 		cmp	r3, #1000
 3102 020a 18D2     		bcs	.L236
2083:Middlewares/Third_Party/SubGHz_Phy/stm32_radio_driver/radio.c ****         SubgRf.ModulationParams.PacketType = PACKET_TYPE_BPSK;
 3103              		.loc 1 2083 9 is_stmt 1 view .LVU830
 3104 020c 0220     		movs	r0, #2
 3105 020e FFF7FEFF 		bl	RadioSetModem
 3106              	.LVL289:
2084:Middlewares/Third_Party/SubGHz_Phy/stm32_radio_driver/radio.c ****         SubgRf.ModulationParams.Params.Bpsk.BitRate = config->bpsk.BitRate;
 3107              		.loc 1 2084 9 view .LVU831
ARM GAS  C:\Users\NATHAN~1\AppData\Local\Temp\cc90iGN6.s 			page 103


2084:Middlewares/Third_Party/SubGHz_Phy/stm32_radio_driver/radio.c ****         SubgRf.ModulationParams.Params.Bpsk.BitRate = config->bpsk.BitRate;
 3108              		.loc 1 2084 44 is_stmt 0 view .LVU832
 3109 0212 0C48     		ldr	r0, .L242
 3110 0214 0223     		movs	r3, #2
 3111 0216 80F83830 		strb	r3, [r0, #56]
2085:Middlewares/Third_Party/SubGHz_Phy/stm32_radio_driver/radio.c ****         SubgRf.ModulationParams.Params.Bpsk.ModulationShaping = MOD_SHAPING_DBPSK;
 3112              		.loc 1 2085 9 is_stmt 1 view .LVU833
2085:Middlewares/Third_Party/SubGHz_Phy/stm32_radio_driver/radio.c ****         SubgRf.ModulationParams.Params.Bpsk.ModulationShaping = MOD_SHAPING_DBPSK;
 3113              		.loc 1 2085 67 is_stmt 0 view .LVU834
 3114 021a 636B     		ldr	r3, [r4, #52]
2085:Middlewares/Third_Party/SubGHz_Phy/stm32_radio_driver/radio.c ****         SubgRf.ModulationParams.Params.Bpsk.ModulationShaping = MOD_SHAPING_DBPSK;
 3115              		.loc 1 2085 53 view .LVU835
 3116 021c 8364     		str	r3, [r0, #72]
2086:Middlewares/Third_Party/SubGHz_Phy/stm32_radio_driver/radio.c ****         SUBGRF_SetModulationParams( &SubgRf.ModulationParams );
 3117              		.loc 1 2086 9 is_stmt 1 view .LVU836
2086:Middlewares/Third_Party/SubGHz_Phy/stm32_radio_driver/radio.c ****         SUBGRF_SetModulationParams( &SubgRf.ModulationParams );
 3118              		.loc 1 2086 63 is_stmt 0 view .LVU837
 3119 021e 1623     		movs	r3, #22
 3120 0220 80F84C30 		strb	r3, [r0, #76]
2087:Middlewares/Third_Party/SubGHz_Phy/stm32_radio_driver/radio.c ****         break;
 3121              		.loc 1 2087 9 is_stmt 1 view .LVU838
 3122 0224 3830     		adds	r0, r0, #56
 3123 0226 FFF7FEFF 		bl	SUBGRF_SetModulationParams
 3124              	.LVL290:
2088:Middlewares/Third_Party/SubGHz_Phy/stm32_radio_driver/radio.c ****     default:
 3125              		.loc 1 2088 9 view .LVU839
 3126 022a FCE6     		b	.L219
 3127              	.L233:
1967:Middlewares/Third_Party/SubGHz_Phy/stm32_radio_driver/radio.c ****         }
 3128              		.loc 1 1967 20 is_stmt 0 view .LVU840
 3129 022c 4FF0FF30 		mov	r0, #-1
 3130 0230 03E7     		b	.L216
 3131              	.L234:
 3132 0232 4FF0FF30 		mov	r0, #-1
 3133 0236 00E7     		b	.L216
 3134              	.L235:
1971:Middlewares/Third_Party/SubGHz_Phy/stm32_radio_driver/radio.c ****         }
 3135              		.loc 1 1971 20 view .LVU841
 3136 0238 4FF0FF30 		mov	r0, #-1
 3137 023c FDE6     		b	.L216
 3138              	.L236:
2081:Middlewares/Third_Party/SubGHz_Phy/stm32_radio_driver/radio.c ****         }
 3139              		.loc 1 2081 20 view .LVU842
 3140 023e 4FF0FF30 		mov	r0, #-1
 3141 0242 FAE6     		b	.L216
 3142              	.L243:
 3143              		.align	2
 3144              	.L242:
 3145 0244 00000000 		.word	.LANCHOR3
 3146 0248 00000000 		.word	.LANCHOR5
 3147 024c 00000000 		.word	.LANCHOR1
 3148              		.cfi_endproc
 3149              	.LFE1030:
 3151              		.section	.text.RadioSetRxGenericConfig,"ax",%progbits
 3152              		.align	1
 3153              		.syntax unified
 3154              		.thumb
ARM GAS  C:\Users\NATHAN~1\AppData\Local\Temp\cc90iGN6.s 			page 104


 3155              		.thumb_func
 3157              	RadioSetRxGenericConfig:
 3158              	.LVL291:
 3159              	.LFB1029:
1783:Middlewares/Third_Party/SubGHz_Phy/stm32_radio_driver/radio.c ****     int32_t status = 0;
 3160              		.loc 1 1783 1 is_stmt 1 view -0
 3161              		.cfi_startproc
 3162              		@ args = 0, pretend = 0, frame = 24
 3163              		@ frame_needed = 0, uses_anonymous_args = 0
1783:Middlewares/Third_Party/SubGHz_Phy/stm32_radio_driver/radio.c ****     int32_t status = 0;
 3164              		.loc 1 1783 1 is_stmt 0 view .LVU844
 3165 0000 F0B5     		push	{r4, r5, r6, r7, lr}
 3166              	.LCFI42:
 3167              		.cfi_def_cfa_offset 20
 3168              		.cfi_offset 4, -20
 3169              		.cfi_offset 5, -16
 3170              		.cfi_offset 6, -12
 3171              		.cfi_offset 7, -8
 3172              		.cfi_offset 14, -4
 3173 0002 87B0     		sub	sp, sp, #28
 3174              	.LCFI43:
 3175              		.cfi_def_cfa_offset 48
 3176 0004 0746     		mov	r7, r0
 3177 0006 0C46     		mov	r4, r1
 3178 0008 1546     		mov	r5, r2
 3179 000a 1E46     		mov	r6, r3
1784:Middlewares/Third_Party/SubGHz_Phy/stm32_radio_driver/radio.c ****     uint8_t syncword[8] = {0};
 3180              		.loc 1 1784 5 is_stmt 1 view .LVU845
 3181              	.LVL292:
1785:Middlewares/Third_Party/SubGHz_Phy/stm32_radio_driver/radio.c ****     uint8_t MaxPayloadLength;
 3182              		.loc 1 1785 5 view .LVU846
1785:Middlewares/Third_Party/SubGHz_Phy/stm32_radio_driver/radio.c ****     uint8_t MaxPayloadLength;
 3183              		.loc 1 1785 13 is_stmt 0 view .LVU847
 3184 000c 0023     		movs	r3, #0
 3185              	.LVL293:
1785:Middlewares/Third_Party/SubGHz_Phy/stm32_radio_driver/radio.c ****     uint8_t MaxPayloadLength;
 3186              		.loc 1 1785 13 view .LVU848
 3187 000e 0493     		str	r3, [sp, #16]
 3188 0010 0593     		str	r3, [sp, #20]
1786:Middlewares/Third_Party/SubGHz_Phy/stm32_radio_driver/radio.c **** 
 3189              		.loc 1 1786 5 is_stmt 1 view .LVU849
1788:Middlewares/Third_Party/SubGHz_Phy/stm32_radio_driver/radio.c **** 
 3190              		.loc 1 1788 5 view .LVU850
 3191 0012 FFF7FEFF 		bl	RFW_DeInit
 3192              	.LVL294:
1790:Middlewares/Third_Party/SubGHz_Phy/stm32_radio_driver/radio.c ****     {
 3193              		.loc 1 1790 5 view .LVU851
1790:Middlewares/Third_Party/SubGHz_Phy/stm32_radio_driver/radio.c ****     {
 3194              		.loc 1 1790 7 is_stmt 0 view .LVU852
 3195 0016 05B1     		cbz	r5, .L245
1792:Middlewares/Third_Party/SubGHz_Phy/stm32_radio_driver/radio.c ****     }
 3196              		.loc 1 1792 21 view .LVU853
 3197 0018 0026     		movs	r6, #0
 3198              	.LVL295:
 3199              	.L245:
1794:Middlewares/Third_Party/SubGHz_Phy/stm32_radio_driver/radio.c **** 
 3200              		.loc 1 1794 5 is_stmt 1 view .LVU854
ARM GAS  C:\Users\NATHAN~1\AppData\Local\Temp\cc90iGN6.s 			page 105


1794:Middlewares/Third_Party/SubGHz_Phy/stm32_radio_driver/radio.c **** 
 3201              		.loc 1 1794 57 is_stmt 0 view .LVU855
 3202 001a 003D     		subs	r5, r5, #0
1794:Middlewares/Third_Party/SubGHz_Phy/stm32_radio_driver/radio.c **** 
 3203              		.loc 1 1794 57 view .LVU856
 3204 001c 18BF     		it	ne
 3205 001e 0125     		movne	r5, #1
 3206              	.LVL296:
1794:Middlewares/Third_Party/SubGHz_Phy/stm32_radio_driver/radio.c **** 
 3207              		.loc 1 1794 25 view .LVU857
 3208 0020 944B     		ldr	r3, .L278
 3209 0022 5D70     		strb	r5, [r3, #1]
1796:Middlewares/Third_Party/SubGHz_Phy/stm32_radio_driver/radio.c ****     {
 3210              		.loc 1 1796 5 is_stmt 1 view .LVU858
 3211 0024 2FB1     		cbz	r7, .L246
 3212 0026 012F     		cmp	r7, #1
 3213 0028 00F09580 		beq	.L247
 3214 002c 0020     		movs	r0, #0
 3215              	.LVL297:
 3216              	.L244:
1956:Middlewares/Third_Party/SubGHz_Phy/stm32_radio_driver/radio.c **** 
 3217              		.loc 1 1956 1 is_stmt 0 view .LVU859
 3218 002e 07B0     		add	sp, sp, #28
 3219              	.LCFI44:
 3220              		.cfi_remember_state
 3221              		.cfi_def_cfa_offset 20
 3222              		@ sp needed
 3223 0030 F0BD     		pop	{r4, r5, r6, r7, pc}
 3224              	.LVL298:
 3225              	.L246:
 3226              	.LCFI45:
 3227              		.cfi_restore_state
1799:Middlewares/Third_Party/SubGHz_Phy/stm32_radio_driver/radio.c ****         {
 3228              		.loc 1 1799 9 is_stmt 1 view .LVU860
1799:Middlewares/Third_Party/SubGHz_Phy/stm32_radio_driver/radio.c ****         {
 3229              		.loc 1 1799 26 is_stmt 0 view .LVU861
 3230 0032 E368     		ldr	r3, [r4, #12]
1799:Middlewares/Third_Party/SubGHz_Phy/stm32_radio_driver/radio.c ****         {
 3231              		.loc 1 1799 11 view .LVU862
 3232 0034 002B     		cmp	r3, #0
 3233 0036 00F01181 		beq	.L267
1799:Middlewares/Third_Party/SubGHz_Phy/stm32_radio_driver/radio.c ****         {
 3234              		.loc 1 1799 58 discriminator 1 view .LVU863
 3235 003a 2369     		ldr	r3, [r4, #16]
1799:Middlewares/Third_Party/SubGHz_Phy/stm32_radio_driver/radio.c ****         {
 3236              		.loc 1 1799 42 discriminator 1 view .LVU864
 3237 003c 002B     		cmp	r3, #0
 3238 003e 00F01081 		beq	.L268
1803:Middlewares/Third_Party/SubGHz_Phy/stm32_radio_driver/radio.c ****         {
 3239              		.loc 1 1803 9 is_stmt 1 view .LVU865
1803:Middlewares/Third_Party/SubGHz_Phy/stm32_radio_driver/radio.c ****         {
 3240              		.loc 1 1803 24 is_stmt 0 view .LVU866
 3241 0042 637D     		ldrb	r3, [r4, #21]	@ zero_extendqisi2
1803:Middlewares/Third_Party/SubGHz_Phy/stm32_radio_driver/radio.c ****         {
 3242              		.loc 1 1803 11 view .LVU867
 3243 0044 082B     		cmp	r3, #8
 3244 0046 00F20F81 		bhi	.L269
ARM GAS  C:\Users\NATHAN~1\AppData\Local\Temp\cc90iGN6.s 			page 106


 3245              	.LBB7:
1809:Middlewares/Third_Party/SubGHz_Phy/stm32_radio_driver/radio.c ****             {
 3246              		.loc 1 1809 21 view .LVU868
 3247 004a 0022     		movs	r2, #0
 3248 004c 07E0     		b	.L249
 3249              	.LVL299:
 3250              	.L250:
1811:Middlewares/Third_Party/SubGHz_Phy/stm32_radio_driver/radio.c ****             }
 3251              		.loc 1 1811 17 is_stmt 1 discriminator 3 view .LVU869
1811:Middlewares/Third_Party/SubGHz_Phy/stm32_radio_driver/radio.c ****             }
 3252              		.loc 1 1811 42 is_stmt 0 discriminator 3 view .LVU870
 3253 004e A169     		ldr	r1, [r4, #24]
1811:Middlewares/Third_Party/SubGHz_Phy/stm32_radio_driver/radio.c ****             }
 3254              		.loc 1 1811 51 discriminator 3 view .LVU871
 3255 0050 885C     		ldrb	r0, [r1, r2]	@ zero_extendqisi2
1811:Middlewares/Third_Party/SubGHz_Phy/stm32_radio_driver/radio.c ****             }
 3256              		.loc 1 1811 29 discriminator 3 view .LVU872
 3257 0052 02F11801 		add	r1, r2, #24
 3258 0056 6944     		add	r1, sp, r1
 3259 0058 01F8080C 		strb	r0, [r1, #-8]
1809:Middlewares/Third_Party/SubGHz_Phy/stm32_radio_driver/radio.c ****             {
 3260              		.loc 1 1809 60 is_stmt 1 discriminator 3 view .LVU873
1809:Middlewares/Third_Party/SubGHz_Phy/stm32_radio_driver/radio.c ****             {
 3261              		.loc 1 1809 61 is_stmt 0 discriminator 3 view .LVU874
 3262 005c 0132     		adds	r2, r2, #1
 3263              	.LVL300:
 3264              	.L249:
1809:Middlewares/Third_Party/SubGHz_Phy/stm32_radio_driver/radio.c ****             {
 3265              		.loc 1 1809 28 is_stmt 1 discriminator 1 view .LVU875
1809:Middlewares/Third_Party/SubGHz_Phy/stm32_radio_driver/radio.c ****             {
 3266              		.loc 1 1809 13 is_stmt 0 discriminator 1 view .LVU876
 3267 005e 9342     		cmp	r3, r2
 3268 0060 F5DC     		bgt	.L250
 3269              	.LBE7:
1815:Middlewares/Third_Party/SubGHz_Phy/stm32_radio_driver/radio.c **** 
 3270              		.loc 1 1815 9 is_stmt 1 view .LVU877
1815:Middlewares/Third_Party/SubGHz_Phy/stm32_radio_driver/radio.c **** 
 3271              		.loc 1 1815 61 is_stmt 0 view .LVU878
 3272 0062 2068     		ldr	r0, [r4]
1815:Middlewares/Third_Party/SubGHz_Phy/stm32_radio_driver/radio.c **** 
 3273              		.loc 1 1815 9 view .LVU879
 3274 0064 0038     		subs	r0, r0, #0
 3275 0066 18BF     		it	ne
 3276 0068 0120     		movne	r0, #1
 3277 006a FFF7FEFF 		bl	SUBGRF_SetStopRxTimerOnPreambleDetect
 3278              	.LVL301:
1817:Middlewares/Third_Party/SubGHz_Phy/stm32_radio_driver/radio.c ****         SubgRf.ModulationParams.Params.Gfsk.BitRate = config->fsk.BitRate;
 3279              		.loc 1 1817 9 is_stmt 1 view .LVU880
1817:Middlewares/Third_Party/SubGHz_Phy/stm32_radio_driver/radio.c ****         SubgRf.ModulationParams.Params.Gfsk.BitRate = config->fsk.BitRate;
 3280              		.loc 1 1817 44 is_stmt 0 view .LVU881
 3281 006e 814D     		ldr	r5, .L278
 3282 0070 0027     		movs	r7, #0
 3283 0072 85F83870 		strb	r7, [r5, #56]
1818:Middlewares/Third_Party/SubGHz_Phy/stm32_radio_driver/radio.c ****         SubgRf.ModulationParams.Params.Gfsk.ModulationShaping = (RadioModShapings_t) config->fsk.Mo
 3284              		.loc 1 1818 9 is_stmt 1 view .LVU882
1818:Middlewares/Third_Party/SubGHz_Phy/stm32_radio_driver/radio.c ****         SubgRf.ModulationParams.Params.Gfsk.ModulationShaping = (RadioModShapings_t) config->fsk.Mo
 3285              		.loc 1 1818 66 is_stmt 0 view .LVU883
ARM GAS  C:\Users\NATHAN~1\AppData\Local\Temp\cc90iGN6.s 			page 107


 3286 0076 E368     		ldr	r3, [r4, #12]
1818:Middlewares/Third_Party/SubGHz_Phy/stm32_radio_driver/radio.c ****         SubgRf.ModulationParams.Params.Gfsk.ModulationShaping = (RadioModShapings_t) config->fsk.Mo
 3287              		.loc 1 1818 53 view .LVU884
 3288 0078 EB63     		str	r3, [r5, #60]
1819:Middlewares/Third_Party/SubGHz_Phy/stm32_radio_driver/radio.c ****         SubgRf.ModulationParams.Params.Gfsk.Bandwidth = SUBGRF_GetFskBandwidthRegValue( config->fsk
 3289              		.loc 1 1819 9 is_stmt 1 view .LVU885
1819:Middlewares/Third_Party/SubGHz_Phy/stm32_radio_driver/radio.c ****         SubgRf.ModulationParams.Params.Gfsk.Bandwidth = SUBGRF_GetFskBandwidthRegValue( config->fsk
 3290              		.loc 1 1819 97 is_stmt 0 view .LVU886
 3291 007a 2379     		ldrb	r3, [r4, #4]	@ zero_extendqisi2
1819:Middlewares/Third_Party/SubGHz_Phy/stm32_radio_driver/radio.c ****         SubgRf.ModulationParams.Params.Gfsk.Bandwidth = SUBGRF_GetFskBandwidthRegValue( config->fsk
 3292              		.loc 1 1819 63 view .LVU887
 3293 007c 85F84430 		strb	r3, [r5, #68]
1820:Middlewares/Third_Party/SubGHz_Phy/stm32_radio_driver/radio.c **** 
 3294              		.loc 1 1820 9 is_stmt 1 view .LVU888
1820:Middlewares/Third_Party/SubGHz_Phy/stm32_radio_driver/radio.c **** 
 3295              		.loc 1 1820 57 is_stmt 0 view .LVU889
 3296 0080 A068     		ldr	r0, [r4, #8]
 3297 0082 FFF7FEFF 		bl	SUBGRF_GetFskBandwidthRegValue
 3298              	.LVL302:
1820:Middlewares/Third_Party/SubGHz_Phy/stm32_radio_driver/radio.c **** 
 3299              		.loc 1 1820 55 view .LVU890
 3300 0086 85F84500 		strb	r0, [r5, #69]
1822:Middlewares/Third_Party/SubGHz_Phy/stm32_radio_driver/radio.c ****         SubgRf.PacketParams.Params.Gfsk.PreambleLength = ( config->fsk.PreambleLen ) << 3 ; // conv
 3301              		.loc 1 1822 9 is_stmt 1 view .LVU891
1822:Middlewares/Third_Party/SubGHz_Phy/stm32_radio_driver/radio.c ****         SubgRf.PacketParams.Params.Gfsk.PreambleLength = ( config->fsk.PreambleLen ) << 3 ; // conv
 3302              		.loc 1 1822 40 is_stmt 0 view .LVU892
 3303 008a AF73     		strb	r7, [r5, #14]
1823:Middlewares/Third_Party/SubGHz_Phy/stm32_radio_driver/radio.c ****         SubgRf.PacketParams.Params.Gfsk.PreambleMinDetect = ( RadioPreambleDetection_t ) config->fs
 3304              		.loc 1 1823 9 is_stmt 1 view .LVU893
1823:Middlewares/Third_Party/SubGHz_Phy/stm32_radio_driver/radio.c ****         SubgRf.PacketParams.Params.Gfsk.PreambleMinDetect = ( RadioPreambleDetection_t ) config->fs
 3305              		.loc 1 1823 71 is_stmt 0 view .LVU894
 3306 008c 2369     		ldr	r3, [r4, #16]
1823:Middlewares/Third_Party/SubGHz_Phy/stm32_radio_driver/radio.c ****         SubgRf.PacketParams.Params.Gfsk.PreambleMinDetect = ( RadioPreambleDetection_t ) config->fs
 3307              		.loc 1 1823 86 view .LVU895
 3308 008e DB00     		lsls	r3, r3, #3
1823:Middlewares/Third_Party/SubGHz_Phy/stm32_radio_driver/radio.c ****         SubgRf.PacketParams.Params.Gfsk.PreambleMinDetect = ( RadioPreambleDetection_t ) config->fs
 3309              		.loc 1 1823 56 view .LVU896
 3310 0090 2B82     		strh	r3, [r5, #16]	@ movhi
1824:Middlewares/Third_Party/SubGHz_Phy/stm32_radio_driver/radio.c ****         SubgRf.PacketParams.Params.Gfsk.SyncWordLength = ( config->fsk.SyncWordLength ) << 3; // co
 3311              		.loc 1 1824 9 is_stmt 1 view .LVU897
1824:Middlewares/Third_Party/SubGHz_Phy/stm32_radio_driver/radio.c ****         SubgRf.PacketParams.Params.Gfsk.SyncWordLength = ( config->fsk.SyncWordLength ) << 3; // co
 3312              		.loc 1 1824 101 is_stmt 0 view .LVU898
 3313 0092 237D     		ldrb	r3, [r4, #20]	@ zero_extendqisi2
1824:Middlewares/Third_Party/SubGHz_Phy/stm32_radio_driver/radio.c ****         SubgRf.PacketParams.Params.Gfsk.SyncWordLength = ( config->fsk.SyncWordLength ) << 3; // co
 3314              		.loc 1 1824 59 view .LVU899
 3315 0094 AB74     		strb	r3, [r5, #18]
1825:Middlewares/Third_Party/SubGHz_Phy/stm32_radio_driver/radio.c ****         SubgRf.PacketParams.Params.Gfsk.AddrComp = ( RadioAddressComp_t ) config->fsk.AddrComp;
 3316              		.loc 1 1825 9 is_stmt 1 view .LVU900
1825:Middlewares/Third_Party/SubGHz_Phy/stm32_radio_driver/radio.c ****         SubgRf.PacketParams.Params.Gfsk.AddrComp = ( RadioAddressComp_t ) config->fsk.AddrComp;
 3317              		.loc 1 1825 71 is_stmt 0 view .LVU901
 3318 0096 637D     		ldrb	r3, [r4, #21]	@ zero_extendqisi2
1825:Middlewares/Third_Party/SubGHz_Phy/stm32_radio_driver/radio.c ****         SubgRf.PacketParams.Params.Gfsk.AddrComp = ( RadioAddressComp_t ) config->fsk.AddrComp;
 3319              		.loc 1 1825 89 view .LVU902
 3320 0098 DB00     		lsls	r3, r3, #3
1825:Middlewares/Third_Party/SubGHz_Phy/stm32_radio_driver/radio.c ****         SubgRf.PacketParams.Params.Gfsk.AddrComp = ( RadioAddressComp_t ) config->fsk.AddrComp;
 3321              		.loc 1 1825 56 view .LVU903
 3322 009a EB74     		strb	r3, [r5, #19]
ARM GAS  C:\Users\NATHAN~1\AppData\Local\Temp\cc90iGN6.s 			page 108


1826:Middlewares/Third_Party/SubGHz_Phy/stm32_radio_driver/radio.c **** 
 3323              		.loc 1 1826 9 is_stmt 1 view .LVU904
1826:Middlewares/Third_Party/SubGHz_Phy/stm32_radio_driver/radio.c **** 
 3324              		.loc 1 1826 86 is_stmt 0 view .LVU905
 3325 009c 94F82230 		ldrb	r3, [r4, #34]	@ zero_extendqisi2
1826:Middlewares/Third_Party/SubGHz_Phy/stm32_radio_driver/radio.c **** 
 3326              		.loc 1 1826 50 view .LVU906
 3327 00a0 2B75     		strb	r3, [r5, #20]
1828:Middlewares/Third_Party/SubGHz_Phy/stm32_radio_driver/radio.c ****         {
 3328              		.loc 1 1828 9 is_stmt 1 view .LVU907
1828:Middlewares/Third_Party/SubGHz_Phy/stm32_radio_driver/radio.c ****         {
 3329              		.loc 1 1828 24 is_stmt 0 view .LVU908
 3330 00a2 94F82330 		ldrb	r3, [r4, #35]	@ zero_extendqisi2
1828:Middlewares/Third_Party/SubGHz_Phy/stm32_radio_driver/radio.c ****         {
 3331              		.loc 1 1828 11 view .LVU909
 3332 00a6 73B9     		cbnz	r3, .L251
1830:Middlewares/Third_Party/SubGHz_Phy/stm32_radio_driver/radio.c ****         }
 3333              		.loc 1 1830 13 is_stmt 1 view .LVU910
1830:Middlewares/Third_Party/SubGHz_Phy/stm32_radio_driver/radio.c ****         }
 3334              		.loc 1 1830 72 is_stmt 0 view .LVU911
 3335 00a8 E169     		ldr	r1, [r4, #28]
1830:Middlewares/Third_Party/SubGHz_Phy/stm32_radio_driver/radio.c ****         }
 3336              		.loc 1 1830 59 view .LVU912
 3337 00aa A975     		strb	r1, [r5, #22]
 3338              	.L252:
1843:Middlewares/Third_Party/SubGHz_Phy/stm32_radio_driver/radio.c ****         {
 3339              		.loc 1 1843 9 is_stmt 1 view .LVU913
1843:Middlewares/Third_Party/SubGHz_Phy/stm32_radio_driver/radio.c ****         {
 3340              		.loc 1 1843 26 is_stmt 0 view .LVU914
 3341 00ac 94F82A20 		ldrb	r2, [r4, #42]	@ zero_extendqisi2
1843:Middlewares/Third_Party/SubGHz_Phy/stm32_radio_driver/radio.c ****         {
 3342              		.loc 1 1843 11 view .LVU915
 3343 00b0 022A     		cmp	r2, #2
 3344 00b2 12D0     		beq	.L254
1843:Middlewares/Third_Party/SubGHz_Phy/stm32_radio_driver/radio.c ****         {
 3345              		.loc 1 1843 69 discriminator 1 view .LVU916
 3346 00b4 022B     		cmp	r3, #2
 3347 00b6 10D0     		beq	.L254
1866:Middlewares/Third_Party/SubGHz_Phy/stm32_radio_driver/radio.c ****           SubgRf.PacketParams.Params.Gfsk.DcFree = ( RadioDcFree_t ) config->fsk.Whitening;
 3348              		.loc 1 1866 11 is_stmt 1 view .LVU917
1866:Middlewares/Third_Party/SubGHz_Phy/stm32_radio_driver/radio.c ****           SubgRf.PacketParams.Params.Gfsk.DcFree = ( RadioDcFree_t ) config->fsk.Whitening;
 3349              		.loc 1 1866 86 is_stmt 0 view .LVU918
 3350 00b8 94F82400 		ldrb	r0, [r4, #36]	@ zero_extendqisi2
1866:Middlewares/Third_Party/SubGHz_Phy/stm32_radio_driver/radio.c ****           SubgRf.PacketParams.Params.Gfsk.DcFree = ( RadioDcFree_t ) config->fsk.Whitening;
 3351              		.loc 1 1866 53 view .LVU919
 3352 00bc 6D49     		ldr	r1, .L278
 3353 00be C875     		strb	r0, [r1, #23]
1867:Middlewares/Third_Party/SubGHz_Phy/stm32_radio_driver/radio.c ****           SubgRf.PacketParams.Params.Gfsk.HeaderType = ( RadioPacketLengthModes_t ) config->fsk.Len
 3354              		.loc 1 1867 11 is_stmt 1 view .LVU920
1867:Middlewares/Third_Party/SubGHz_Phy/stm32_radio_driver/radio.c ****           SubgRf.PacketParams.Params.Gfsk.HeaderType = ( RadioPacketLengthModes_t ) config->fsk.Len
 3355              		.loc 1 1867 50 is_stmt 0 view .LVU921
 3356 00c0 0A76     		strb	r2, [r1, #24]
1868:Middlewares/Third_Party/SubGHz_Phy/stm32_radio_driver/radio.c ****         }
 3357              		.loc 1 1868 11 is_stmt 1 view .LVU922
1868:Middlewares/Third_Party/SubGHz_Phy/stm32_radio_driver/radio.c ****         }
 3358              		.loc 1 1868 54 is_stmt 0 view .LVU923
 3359 00c2 4B75     		strb	r3, [r1, #21]
ARM GAS  C:\Users\NATHAN~1\AppData\Local\Temp\cc90iGN6.s 			page 109


 3360 00c4 23E0     		b	.L258
 3361              	.L251:
1832:Middlewares/Third_Party/SubGHz_Phy/stm32_radio_driver/radio.c ****         {
 3362              		.loc 1 1832 14 is_stmt 1 view .LVU924
1832:Middlewares/Third_Party/SubGHz_Phy/stm32_radio_driver/radio.c ****         {
 3363              		.loc 1 1832 16 is_stmt 0 view .LVU925
 3364 00c6 022B     		cmp	r3, #2
 3365 00c8 03D0     		beq	.L273
1840:Middlewares/Third_Party/SubGHz_Phy/stm32_radio_driver/radio.c ****         }
 3366              		.loc 1 1840 11 is_stmt 1 view .LVU926
1840:Middlewares/Third_Party/SubGHz_Phy/stm32_radio_driver/radio.c ****         }
 3367              		.loc 1 1840 57 is_stmt 0 view .LVU927
 3368 00ca 6A4A     		ldr	r2, .L278
 3369 00cc FF21     		movs	r1, #255
 3370 00ce 9175     		strb	r1, [r2, #22]
 3371 00d0 ECE7     		b	.L252
 3372              	.L273:
1835:Middlewares/Third_Party/SubGHz_Phy/stm32_radio_driver/radio.c ****         }
 3373              		.loc 1 1835 11 is_stmt 1 view .LVU928
1835:Middlewares/Third_Party/SubGHz_Phy/stm32_radio_driver/radio.c ****         }
 3374              		.loc 1 1835 57 is_stmt 0 view .LVU929
 3375 00d2 684A     		ldr	r2, .L278
 3376 00d4 FF21     		movs	r1, #255
 3377 00d6 9175     		strb	r1, [r2, #22]
 3378 00d8 E8E7     		b	.L252
 3379              	.L254:
 3380              	.LBB8:
1846:Middlewares/Third_Party/SubGHz_Phy/stm32_radio_driver/radio.c ****           {
 3381              		.loc 1 1846 11 is_stmt 1 view .LVU930
1846:Middlewares/Third_Party/SubGHz_Phy/stm32_radio_driver/radio.c ****           {
 3382              		.loc 1 1846 28 is_stmt 0 view .LVU931
 3383 00da 94F82420 		ldrb	r2, [r4, #36]	@ zero_extendqisi2
1846:Middlewares/Third_Party/SubGHz_Phy/stm32_radio_driver/radio.c ****           {
 3384              		.loc 1 1846 70 view .LVU932
 3385 00de 02F10F03 		add	r3, r2, #15
 3386 00e2 DBB2     		uxtb	r3, r3
1846:Middlewares/Third_Party/SubGHz_Phy/stm32_radio_driver/radio.c ****           {
 3387              		.loc 1 1846 13 view .LVU933
 3388 00e4 012B     		cmp	r3, #1
 3389 00e6 01D9     		bls	.L256
1846:Middlewares/Third_Party/SubGHz_Phy/stm32_radio_driver/radio.c ****           {
 3390              		.loc 1 1846 129 discriminator 1 view .LVU934
 3391 00e8 012A     		cmp	r2, #1
 3392 00ea 31D1     		bne	.L257
 3393              	.L256:
1850:Middlewares/Third_Party/SubGHz_Phy/stm32_radio_driver/radio.c ****           ConfigGeneric.rtx = CONFIG_RX;
 3394              		.loc 1 1850 11 is_stmt 1 view .LVU935
1851:Middlewares/Third_Party/SubGHz_Phy/stm32_radio_driver/radio.c ****           ConfigGeneric.RxConfig = config;
 3395              		.loc 1 1851 11 view .LVU936
1851:Middlewares/Third_Party/SubGHz_Phy/stm32_radio_driver/radio.c ****           ConfigGeneric.RxConfig = config;
 3396              		.loc 1 1851 29 is_stmt 0 view .LVU937
 3397 00ec 0023     		movs	r3, #0
 3398 00ee 8DF80C30 		strb	r3, [sp, #12]
1852:Middlewares/Third_Party/SubGHz_Phy/stm32_radio_driver/radio.c ****           if( 0UL != RFW_Init( &ConfigGeneric, RadioEvents, &RxTimeoutTimer ) )
 3399              		.loc 1 1852 11 is_stmt 1 view .LVU938
1852:Middlewares/Third_Party/SubGHz_Phy/stm32_radio_driver/radio.c ****           if( 0UL != RFW_Init( &ConfigGeneric, RadioEvents, &RxTimeoutTimer ) )
 3400              		.loc 1 1852 34 is_stmt 0 view .LVU939
ARM GAS  C:\Users\NATHAN~1\AppData\Local\Temp\cc90iGN6.s 			page 110


 3401 00f2 0294     		str	r4, [sp, #8]
1853:Middlewares/Third_Party/SubGHz_Phy/stm32_radio_driver/radio.c ****           {
 3402              		.loc 1 1853 11 is_stmt 1 view .LVU940
1853:Middlewares/Third_Party/SubGHz_Phy/stm32_radio_driver/radio.c ****           {
 3403              		.loc 1 1853 22 is_stmt 0 view .LVU941
 3404 00f4 604A     		ldr	r2, .L278+4
 3405 00f6 614B     		ldr	r3, .L278+8
 3406 00f8 1968     		ldr	r1, [r3]
 3407 00fa 01A8     		add	r0, sp, #4
 3408 00fc FFF7FEFF 		bl	RFW_Init
 3409              	.LVL303:
1853:Middlewares/Third_Party/SubGHz_Phy/stm32_radio_driver/radio.c ****           {
 3410              		.loc 1 1853 13 view .LVU942
 3411 0100 30BB     		cbnz	r0, .L257
1858:Middlewares/Third_Party/SubGHz_Phy/stm32_radio_driver/radio.c ****           /* Crc off, Crc processed by FW, switch off built-in radio Crc*/
 3412              		.loc 1 1858 11 is_stmt 1 view .LVU943
1858:Middlewares/Third_Party/SubGHz_Phy/stm32_radio_driver/radio.c ****           /* Crc off, Crc processed by FW, switch off built-in radio Crc*/
 3413              		.loc 1 1858 50 is_stmt 0 view .LVU944
 3414 0102 5C4B     		ldr	r3, .L278
 3415 0104 0022     		movs	r2, #0
 3416 0106 1A76     		strb	r2, [r3, #24]
1860:Middlewares/Third_Party/SubGHz_Phy/stm32_radio_driver/radio.c ****           /* Length contained in Tx, but will be processed by FW after de-whitening*/
 3417              		.loc 1 1860 11 is_stmt 1 view .LVU945
1860:Middlewares/Third_Party/SubGHz_Phy/stm32_radio_driver/radio.c ****           /* Length contained in Tx, but will be processed by FW after de-whitening*/
 3418              		.loc 1 1860 53 is_stmt 0 view .LVU946
 3419 0108 0121     		movs	r1, #1
 3420 010a D975     		strb	r1, [r3, #23]
1862:Middlewares/Third_Party/SubGHz_Phy/stm32_radio_driver/radio.c ****         }
 3421              		.loc 1 1862 11 is_stmt 1 view .LVU947
1862:Middlewares/Third_Party/SubGHz_Phy/stm32_radio_driver/radio.c ****         }
 3422              		.loc 1 1862 54 is_stmt 0 view .LVU948
 3423 010c 5A75     		strb	r2, [r3, #21]
 3424              	.L258:
1862:Middlewares/Third_Party/SubGHz_Phy/stm32_radio_driver/radio.c ****         }
 3425              		.loc 1 1862 54 view .LVU949
 3426              	.LBE8:
1871:Middlewares/Third_Party/SubGHz_Phy/stm32_radio_driver/radio.c ****         RadioSetModem( MODEM_FSK );
 3427              		.loc 1 1871 9 is_stmt 1 view .LVU950
 3428 010e FFF7FEFF 		bl	RadioStandby
 3429              	.LVL304:
1872:Middlewares/Third_Party/SubGHz_Phy/stm32_radio_driver/radio.c ****         SUBGRF_SetModulationParams( &SubgRf.ModulationParams );
 3430              		.loc 1 1872 9 view .LVU951
 3431 0112 0020     		movs	r0, #0
 3432 0114 FFF7FEFF 		bl	RadioSetModem
 3433              	.LVL305:
1873:Middlewares/Third_Party/SubGHz_Phy/stm32_radio_driver/radio.c ****         SUBGRF_SetPacketParams( &SubgRf.PacketParams );
 3434              		.loc 1 1873 9 view .LVU952
 3435 0118 564D     		ldr	r5, .L278
 3436 011a 05F13800 		add	r0, r5, #56
 3437 011e FFF7FEFF 		bl	SUBGRF_SetModulationParams
 3438              	.LVL306:
1874:Middlewares/Third_Party/SubGHz_Phy/stm32_radio_driver/radio.c ****         SUBGRF_SetSyncWord( syncword );
 3439              		.loc 1 1874 9 view .LVU953
 3440 0122 05F10E00 		add	r0, r5, #14
 3441 0126 FFF7FEFF 		bl	SUBGRF_SetPacketParams
 3442              	.LVL307:
1875:Middlewares/Third_Party/SubGHz_Phy/stm32_radio_driver/radio.c ****         SUBGRF_SetWhiteningSeed( config->fsk.whiteSeed );
ARM GAS  C:\Users\NATHAN~1\AppData\Local\Temp\cc90iGN6.s 			page 111


 3443              		.loc 1 1875 9 view .LVU954
 3444 012a 04A8     		add	r0, sp, #16
 3445 012c FFF7FEFF 		bl	SUBGRF_SetSyncWord
 3446              	.LVL308:
1876:Middlewares/Third_Party/SubGHz_Phy/stm32_radio_driver/radio.c ****         SUBGRF_SetCrcPolynomial( config->fsk.CrcPolynomial );
 3447              		.loc 1 1876 9 view .LVU955
 3448 0130 208C     		ldrh	r0, [r4, #32]
 3449 0132 FFF7FEFF 		bl	SUBGRF_SetWhiteningSeed
 3450              	.LVL309:
1877:Middlewares/Third_Party/SubGHz_Phy/stm32_radio_driver/radio.c ****         /* timeout unused when SubgRf.RxContinuous */
 3451              		.loc 1 1877 9 view .LVU956
 3452 0136 E08C     		ldrh	r0, [r4, #38]
 3453 0138 FFF7FEFF 		bl	SUBGRF_SetCrcPolynomial
 3454              	.LVL310:
1879:Middlewares/Third_Party/SubGHz_Phy/stm32_radio_driver/radio.c ****         break;
 3455              		.loc 1 1879 9 view .LVU957
1879:Middlewares/Third_Party/SubGHz_Phy/stm32_radio_driver/radio.c ****         break;
 3456              		.loc 1 1879 63 is_stmt 0 view .LVU958
 3457 013c 4FF4FA53 		mov	r3, #8000
 3458 0140 03FB06F6 		mul	r6, r3, r6
 3459              	.LVL311:
1879:Middlewares/Third_Party/SubGHz_Phy/stm32_radio_driver/radio.c ****         break;
 3460              		.loc 1 1879 82 view .LVU959
 3461 0144 E368     		ldr	r3, [r4, #12]
1879:Middlewares/Third_Party/SubGHz_Phy/stm32_radio_driver/radio.c ****         break;
 3462              		.loc 1 1879 28 view .LVU960
 3463 0146 B6FBF3F6 		udiv	r6, r6, r3
1879:Middlewares/Third_Party/SubGHz_Phy/stm32_radio_driver/radio.c ****         break;
 3464              		.loc 1 1879 26 view .LVU961
 3465 014a AE60     		str	r6, [r5, #8]
1880:Middlewares/Third_Party/SubGHz_Phy/stm32_radio_driver/radio.c ****     case GENERIC_LORA:
 3466              		.loc 1 1880 9 is_stmt 1 view .LVU962
1955:Middlewares/Third_Party/SubGHz_Phy/stm32_radio_driver/radio.c **** }
 3467              		.loc 1 1955 12 is_stmt 0 view .LVU963
 3468 014c 0020     		movs	r0, #0
1880:Middlewares/Third_Party/SubGHz_Phy/stm32_radio_driver/radio.c ****     case GENERIC_LORA:
 3469              		.loc 1 1880 9 view .LVU964
 3470 014e 6EE7     		b	.L244
 3471              	.LVL312:
 3472              	.L257:
 3473              	.LBB9:
1848:Middlewares/Third_Party/SubGHz_Phy/stm32_radio_driver/radio.c ****           }
 3474              		.loc 1 1848 20 discriminator 1 view .LVU965
 3475 0150 4FF0FF30 		mov	r0, #-1
 3476 0154 6BE7     		b	.L244
 3477              	.L247:
1848:Middlewares/Third_Party/SubGHz_Phy/stm32_radio_driver/radio.c ****           }
 3478              		.loc 1 1848 20 discriminator 1 view .LVU966
 3479              	.LBE9:
1882:Middlewares/Third_Party/SubGHz_Phy/stm32_radio_driver/radio.c ****         {
 3480              		.loc 1 1882 9 is_stmt 1 view .LVU967
1882:Middlewares/Third_Party/SubGHz_Phy/stm32_radio_driver/radio.c ****         {
 3481              		.loc 1 1882 25 is_stmt 0 view .LVU968
 3482 0156 A38E     		ldrh	r3, [r4, #52]
1882:Middlewares/Third_Party/SubGHz_Phy/stm32_radio_driver/radio.c ****         {
 3483              		.loc 1 1882 11 view .LVU969
 3484 0158 002B     		cmp	r3, #0
ARM GAS  C:\Users\NATHAN~1\AppData\Local\Temp\cc90iGN6.s 			page 112


 3485 015a 00F08880 		beq	.L270
1887:Middlewares/Third_Party/SubGHz_Phy/stm32_radio_driver/radio.c ****         {
 3486              		.loc 1 1887 9 is_stmt 1 view .LVU970
1887:Middlewares/Third_Party/SubGHz_Phy/stm32_radio_driver/radio.c ****         {
 3487              		.loc 1 1887 25 is_stmt 0 view .LVU971
 3488 015e 94F83630 		ldrb	r3, [r4, #54]	@ zero_extendqisi2
1887:Middlewares/Third_Party/SubGHz_Phy/stm32_radio_driver/radio.c ****         {
 3489              		.loc 1 1887 11 view .LVU972
 3490 0162 012B     		cmp	r3, #1
 3491 0164 53D0     		beq	.L274
1893:Middlewares/Third_Party/SubGHz_Phy/stm32_radio_driver/radio.c ****         }
 3492              		.loc 1 1893 30 view .LVU973
 3493 0166 FF27     		movs	r7, #255
 3494              	.L259:
 3495              	.LVL313:
1895:Middlewares/Third_Party/SubGHz_Phy/stm32_radio_driver/radio.c ****         SUBGRF_SetLoRaSymbNumTimeout( symbTimeout );
 3496              		.loc 1 1895 9 is_stmt 1 view .LVU974
1895:Middlewares/Third_Party/SubGHz_Phy/stm32_radio_driver/radio.c ****         SUBGRF_SetLoRaSymbNumTimeout( symbTimeout );
 3497              		.loc 1 1895 62 is_stmt 0 view .LVU975
 3498 0168 E06A     		ldr	r0, [r4, #44]
1895:Middlewares/Third_Party/SubGHz_Phy/stm32_radio_driver/radio.c ****         SUBGRF_SetLoRaSymbNumTimeout( symbTimeout );
 3499              		.loc 1 1895 9 view .LVU976
 3500 016a 0038     		subs	r0, r0, #0
 3501 016c 18BF     		it	ne
 3502 016e 0120     		movne	r0, #1
 3503 0170 FFF7FEFF 		bl	SUBGRF_SetStopRxTimerOnPreambleDetect
 3504              	.LVL314:
1896:Middlewares/Third_Party/SubGHz_Phy/stm32_radio_driver/radio.c **** 
 3505              		.loc 1 1896 9 is_stmt 1 view .LVU977
 3506 0174 F0B2     		uxtb	r0, r6
 3507 0176 FFF7FEFF 		bl	SUBGRF_SetLoRaSymbNumTimeout
 3508              	.LVL315:
1898:Middlewares/Third_Party/SubGHz_Phy/stm32_radio_driver/radio.c ****         SubgRf.ModulationParams.Params.LoRa.SpreadingFactor = ( RadioLoRaSpreadingFactors_t ) confi
 3509              		.loc 1 1898 9 view .LVU978
1898:Middlewares/Third_Party/SubGHz_Phy/stm32_radio_driver/radio.c ****         SubgRf.ModulationParams.Params.LoRa.SpreadingFactor = ( RadioLoRaSpreadingFactors_t ) confi
 3510              		.loc 1 1898 44 is_stmt 0 view .LVU979
 3511 017a 3E4B     		ldr	r3, .L278
 3512 017c 0122     		movs	r2, #1
 3513 017e 83F83820 		strb	r2, [r3, #56]
1899:Middlewares/Third_Party/SubGHz_Phy/stm32_radio_driver/radio.c ****         SubgRf.ModulationParams.Params.LoRa.Bandwidth = ( RadioLoRaBandwidths_t ) config->lora.Band
 3514              		.loc 1 1899 9 is_stmt 1 view .LVU980
1899:Middlewares/Third_Party/SubGHz_Phy/stm32_radio_driver/radio.c ****         SubgRf.ModulationParams.Params.LoRa.Bandwidth = ( RadioLoRaBandwidths_t ) config->lora.Band
 3515              		.loc 1 1899 107 is_stmt 0 view .LVU981
 3516 0182 94F83020 		ldrb	r2, [r4, #48]	@ zero_extendqisi2
1899:Middlewares/Third_Party/SubGHz_Phy/stm32_radio_driver/radio.c ****         SubgRf.ModulationParams.Params.LoRa.Bandwidth = ( RadioLoRaBandwidths_t ) config->lora.Band
 3517              		.loc 1 1899 61 view .LVU982
 3518 0186 83F85020 		strb	r2, [r3, #80]
1900:Middlewares/Third_Party/SubGHz_Phy/stm32_radio_driver/radio.c ****         SubgRf.ModulationParams.Params.LoRa.CodingRate = ( RadioLoRaCodingRates_t ) config->lora.Co
 3519              		.loc 1 1900 9 is_stmt 1 view .LVU983
1900:Middlewares/Third_Party/SubGHz_Phy/stm32_radio_driver/radio.c ****         SubgRf.ModulationParams.Params.LoRa.CodingRate = ( RadioLoRaCodingRates_t ) config->lora.Co
 3520              		.loc 1 1900 95 is_stmt 0 view .LVU984
 3521 018a 94F83120 		ldrb	r2, [r4, #49]	@ zero_extendqisi2
1900:Middlewares/Third_Party/SubGHz_Phy/stm32_radio_driver/radio.c ****         SubgRf.ModulationParams.Params.LoRa.CodingRate = ( RadioLoRaCodingRates_t ) config->lora.Co
 3522              		.loc 1 1900 55 view .LVU985
 3523 018e 83F85120 		strb	r2, [r3, #81]
1901:Middlewares/Third_Party/SubGHz_Phy/stm32_radio_driver/radio.c ****         switch( config->lora.LowDatarateOptimize )
 3524              		.loc 1 1901 9 is_stmt 1 view .LVU986
ARM GAS  C:\Users\NATHAN~1\AppData\Local\Temp\cc90iGN6.s 			page 113


1901:Middlewares/Third_Party/SubGHz_Phy/stm32_radio_driver/radio.c ****         switch( config->lora.LowDatarateOptimize )
 3525              		.loc 1 1901 97 is_stmt 0 view .LVU987
 3526 0192 94F83220 		ldrb	r2, [r4, #50]	@ zero_extendqisi2
1901:Middlewares/Third_Party/SubGHz_Phy/stm32_radio_driver/radio.c ****         switch( config->lora.LowDatarateOptimize )
 3527              		.loc 1 1901 56 view .LVU988
 3528 0196 83F85220 		strb	r2, [r3, #82]
1902:Middlewares/Third_Party/SubGHz_Phy/stm32_radio_driver/radio.c ****         {
 3529              		.loc 1 1902 9 is_stmt 1 view .LVU989
1902:Middlewares/Third_Party/SubGHz_Phy/stm32_radio_driver/radio.c ****         {
 3530              		.loc 1 1902 29 is_stmt 0 view .LVU990
 3531 019a 94F83330 		ldrb	r3, [r4, #51]	@ zero_extendqisi2
 3532 019e 012B     		cmp	r3, #1
 3533 01a0 3CD0     		beq	.L260
 3534 01a2 022B     		cmp	r3, #2
 3535 01a4 3FD0     		beq	.L261
 3536 01a6 A3B3     		cbz	r3, .L275
 3537              	.L262:
1924:Middlewares/Third_Party/SubGHz_Phy/stm32_radio_driver/radio.c ****         SubgRf.PacketParams.Params.LoRa.PreambleLength = config->lora.PreambleLen;
 3538              		.loc 1 1924 9 is_stmt 1 view .LVU991
1924:Middlewares/Third_Party/SubGHz_Phy/stm32_radio_driver/radio.c ****         SubgRf.PacketParams.Params.LoRa.PreambleLength = config->lora.PreambleLen;
 3539              		.loc 1 1924 40 is_stmt 0 view .LVU992
 3540 01a8 324D     		ldr	r5, .L278
 3541 01aa 0126     		movs	r6, #1
 3542              	.LVL316:
1924:Middlewares/Third_Party/SubGHz_Phy/stm32_radio_driver/radio.c ****         SubgRf.PacketParams.Params.LoRa.PreambleLength = config->lora.PreambleLen;
 3543              		.loc 1 1924 40 view .LVU993
 3544 01ac AE73     		strb	r6, [r5, #14]
1925:Middlewares/Third_Party/SubGHz_Phy/stm32_radio_driver/radio.c ****         SubgRf.PacketParams.Params.LoRa.HeaderType = ( RadioLoRaPacketLengthsMode_t ) config->lora.
 3545              		.loc 1 1925 9 is_stmt 1 view .LVU994
1925:Middlewares/Third_Party/SubGHz_Phy/stm32_radio_driver/radio.c ****         SubgRf.PacketParams.Params.LoRa.HeaderType = ( RadioLoRaPacketLengthsMode_t ) config->lora.
 3546              		.loc 1 1925 70 is_stmt 0 view .LVU995
 3547 01ae A38E     		ldrh	r3, [r4, #52]
1925:Middlewares/Third_Party/SubGHz_Phy/stm32_radio_driver/radio.c ****         SubgRf.PacketParams.Params.LoRa.HeaderType = ( RadioLoRaPacketLengthsMode_t ) config->lora.
 3548              		.loc 1 1925 56 view .LVU996
 3549 01b0 AB83     		strh	r3, [r5, #28]	@ movhi
1926:Middlewares/Third_Party/SubGHz_Phy/stm32_radio_driver/radio.c ****         SubgRf.PacketParams.Params.LoRa.PayloadLength = MaxPayloadLength;
 3550              		.loc 1 1926 9 is_stmt 1 view .LVU997
1926:Middlewares/Third_Party/SubGHz_Phy/stm32_radio_driver/radio.c ****         SubgRf.PacketParams.Params.LoRa.PayloadLength = MaxPayloadLength;
 3551              		.loc 1 1926 99 is_stmt 0 view .LVU998
 3552 01b2 94F83630 		ldrb	r3, [r4, #54]	@ zero_extendqisi2
1926:Middlewares/Third_Party/SubGHz_Phy/stm32_radio_driver/radio.c ****         SubgRf.PacketParams.Params.LoRa.PayloadLength = MaxPayloadLength;
 3553              		.loc 1 1926 52 view .LVU999
 3554 01b6 AB77     		strb	r3, [r5, #30]
1927:Middlewares/Third_Party/SubGHz_Phy/stm32_radio_driver/radio.c ****         SubgRf.PacketParams.Params.LoRa.CrcMode = ( RadioLoRaCrcModes_t ) config->lora.CrcMode;
 3555              		.loc 1 1927 9 is_stmt 1 view .LVU1000
1927:Middlewares/Third_Party/SubGHz_Phy/stm32_radio_driver/radio.c ****         SubgRf.PacketParams.Params.LoRa.CrcMode = ( RadioLoRaCrcModes_t ) config->lora.CrcMode;
 3556              		.loc 1 1927 55 is_stmt 0 view .LVU1001
 3557 01b8 EF77     		strb	r7, [r5, #31]
1928:Middlewares/Third_Party/SubGHz_Phy/stm32_radio_driver/radio.c ****         SubgRf.PacketParams.Params.LoRa.InvertIQ = ( RadioLoRaIQModes_t ) config->lora.IqInverted;
 3558              		.loc 1 1928 9 is_stmt 1 view .LVU1002
1928:Middlewares/Third_Party/SubGHz_Phy/stm32_radio_driver/radio.c ****         SubgRf.PacketParams.Params.LoRa.InvertIQ = ( RadioLoRaIQModes_t ) config->lora.IqInverted;
 3559              		.loc 1 1928 87 is_stmt 0 view .LVU1003
 3560 01ba 94F83830 		ldrb	r3, [r4, #56]	@ zero_extendqisi2
1928:Middlewares/Third_Party/SubGHz_Phy/stm32_radio_driver/radio.c ****         SubgRf.PacketParams.Params.LoRa.InvertIQ = ( RadioLoRaIQModes_t ) config->lora.IqInverted;
 3561              		.loc 1 1928 49 view .LVU1004
 3562 01be 85F82030 		strb	r3, [r5, #32]
1929:Middlewares/Third_Party/SubGHz_Phy/stm32_radio_driver/radio.c **** 
ARM GAS  C:\Users\NATHAN~1\AppData\Local\Temp\cc90iGN6.s 			page 114


 3563              		.loc 1 1929 9 is_stmt 1 view .LVU1005
1929:Middlewares/Third_Party/SubGHz_Phy/stm32_radio_driver/radio.c **** 
 3564              		.loc 1 1929 87 is_stmt 0 view .LVU1006
 3565 01c2 94F83930 		ldrb	r3, [r4, #57]	@ zero_extendqisi2
1929:Middlewares/Third_Party/SubGHz_Phy/stm32_radio_driver/radio.c **** 
 3566              		.loc 1 1929 50 view .LVU1007
 3567 01c6 85F82130 		strb	r3, [r5, #33]
1931:Middlewares/Third_Party/SubGHz_Phy/stm32_radio_driver/radio.c ****         RadioSetModem( MODEM_LORA );
 3568              		.loc 1 1931 9 is_stmt 1 view .LVU1008
 3569 01ca FFF7FEFF 		bl	RadioStandby
 3570              	.LVL317:
1932:Middlewares/Third_Party/SubGHz_Phy/stm32_radio_driver/radio.c ****         SUBGRF_SetModulationParams( &SubgRf.ModulationParams );
 3571              		.loc 1 1932 9 view .LVU1009
 3572 01ce 3046     		mov	r0, r6
 3573 01d0 FFF7FEFF 		bl	RadioSetModem
 3574              	.LVL318:
1933:Middlewares/Third_Party/SubGHz_Phy/stm32_radio_driver/radio.c ****         SUBGRF_SetPacketParams( &SubgRf.PacketParams );
 3575              		.loc 1 1933 9 view .LVU1010
 3576 01d4 05F13800 		add	r0, r5, #56
 3577 01d8 FFF7FEFF 		bl	SUBGRF_SetModulationParams
 3578              	.LVL319:
1934:Middlewares/Third_Party/SubGHz_Phy/stm32_radio_driver/radio.c **** 
 3579              		.loc 1 1934 9 view .LVU1011
 3580 01dc 05F10E00 		add	r0, r5, #14
 3581 01e0 FFF7FEFF 		bl	SUBGRF_SetPacketParams
 3582              	.LVL320:
1937:Middlewares/Third_Party/SubGHz_Phy/stm32_radio_driver/radio.c ****         {
 3583              		.loc 1 1937 9 view .LVU1012
1937:Middlewares/Third_Party/SubGHz_Phy/stm32_radio_driver/radio.c ****         {
 3584              		.loc 1 1937 44 is_stmt 0 view .LVU1013
 3585 01e4 95F82130 		ldrb	r3, [r5, #33]	@ zero_extendqisi2
1937:Middlewares/Third_Party/SubGHz_Phy/stm32_radio_driver/radio.c ****         {
 3586              		.loc 1 1937 11 view .LVU1014
 3587 01e8 B342     		cmp	r3, r6
 3588 01ea 2CD0     		beq	.L276
1945:Middlewares/Third_Party/SubGHz_Phy/stm32_radio_driver/radio.c ****         }
 3589              		.loc 1 1945 13 is_stmt 1 view .LVU1015
1945:Middlewares/Third_Party/SubGHz_Phy/stm32_radio_driver/radio.c ****         }
 3590              		.loc 1 1945 43 is_stmt 0 view .LVU1016
 3591 01ec 40F23670 		movw	r0, #1846
 3592 01f0 FFF7FEFF 		bl	SUBGRF_ReadRegister
 3593              	.LVL321:
1945:Middlewares/Third_Party/SubGHz_Phy/stm32_radio_driver/radio.c ****         }
 3594              		.loc 1 1945 13 view .LVU1017
 3595 01f4 40F00401 		orr	r1, r0, #4
 3596 01f8 C9B2     		uxtb	r1, r1
 3597 01fa 40F23670 		movw	r0, #1846
 3598 01fe FFF7FEFF 		bl	SUBGRF_WriteRegister
 3599              	.LVL322:
 3600              	.L265:
1950:Middlewares/Third_Party/SubGHz_Phy/stm32_radio_driver/radio.c ****         break;
 3601              		.loc 1 1950 9 is_stmt 1 view .LVU1018
1950:Middlewares/Third_Party/SubGHz_Phy/stm32_radio_driver/radio.c ****         break;
 3602              		.loc 1 1950 26 is_stmt 0 view .LVU1019
 3603 0202 1C4B     		ldr	r3, .L278
 3604 0204 4FF6FF72 		movw	r2, #65535
 3605 0208 9A60     		str	r2, [r3, #8]
ARM GAS  C:\Users\NATHAN~1\AppData\Local\Temp\cc90iGN6.s 			page 115


1951:Middlewares/Third_Party/SubGHz_Phy/stm32_radio_driver/radio.c ****     default:
 3606              		.loc 1 1951 9 is_stmt 1 view .LVU1020
1955:Middlewares/Third_Party/SubGHz_Phy/stm32_radio_driver/radio.c **** }
 3607              		.loc 1 1955 12 is_stmt 0 view .LVU1021
 3608 020a 0020     		movs	r0, #0
1951:Middlewares/Third_Party/SubGHz_Phy/stm32_radio_driver/radio.c ****     default:
 3609              		.loc 1 1951 9 view .LVU1022
 3610 020c 0FE7     		b	.L244
 3611              	.LVL323:
 3612              	.L274:
1889:Middlewares/Third_Party/SubGHz_Phy/stm32_radio_driver/radio.c ****         }
 3613              		.loc 1 1889 13 is_stmt 1 view .LVU1023
1889:Middlewares/Third_Party/SubGHz_Phy/stm32_radio_driver/radio.c ****         }
 3614              		.loc 1 1889 30 is_stmt 0 view .LVU1024
 3615 020e 277F     		ldrb	r7, [r4, #28]	@ zero_extendqisi2
 3616              	.LVL324:
1889:Middlewares/Third_Party/SubGHz_Phy/stm32_radio_driver/radio.c ****         }
 3617              		.loc 1 1889 30 view .LVU1025
 3618 0210 AAE7     		b	.L259
 3619              	.L275:
1905:Middlewares/Third_Party/SubGHz_Phy/stm32_radio_driver/radio.c ****             break;
 3620              		.loc 1 1905 13 is_stmt 1 view .LVU1026
1905:Middlewares/Third_Party/SubGHz_Phy/stm32_radio_driver/radio.c ****             break;
 3621              		.loc 1 1905 69 is_stmt 0 view .LVU1027
 3622 0212 184B     		ldr	r3, .L278
 3623 0214 0022     		movs	r2, #0
 3624 0216 83F85320 		strb	r2, [r3, #83]
1906:Middlewares/Third_Party/SubGHz_Phy/stm32_radio_driver/radio.c ****         case RADIO_LORA_LOWDR_OPT_ON:
 3625              		.loc 1 1906 13 is_stmt 1 view .LVU1028
 3626 021a C5E7     		b	.L262
 3627              	.L260:
1908:Middlewares/Third_Party/SubGHz_Phy/stm32_radio_driver/radio.c ****             break;
 3628              		.loc 1 1908 13 view .LVU1029
1908:Middlewares/Third_Party/SubGHz_Phy/stm32_radio_driver/radio.c ****             break;
 3629              		.loc 1 1908 69 is_stmt 0 view .LVU1030
 3630 021c 154B     		ldr	r3, .L278
 3631 021e 0122     		movs	r2, #1
 3632 0220 83F85320 		strb	r2, [r3, #83]
1909:Middlewares/Third_Party/SubGHz_Phy/stm32_radio_driver/radio.c ****         case RADIO_LORA_LOWDR_OPT_AUTO:
 3633              		.loc 1 1909 13 is_stmt 1 view .LVU1031
 3634 0224 C0E7     		b	.L262
 3635              	.L261:
1911:Middlewares/Third_Party/SubGHz_Phy/stm32_radio_driver/radio.c ****             {
 3636              		.loc 1 1911 13 view .LVU1032
1911:Middlewares/Third_Party/SubGHz_Phy/stm32_radio_driver/radio.c ****             {
 3637              		.loc 1 1911 31 is_stmt 0 view .LVU1033
 3638 0226 94F83030 		ldrb	r3, [r4, #48]	@ zero_extendqisi2
1911:Middlewares/Third_Party/SubGHz_Phy/stm32_radio_driver/radio.c ****             {
 3639              		.loc 1 1911 69 view .LVU1034
 3640 022a 0B3B     		subs	r3, r3, #11
 3641 022c DBB2     		uxtb	r3, r3
1911:Middlewares/Third_Party/SubGHz_Phy/stm32_radio_driver/radio.c ****             {
 3642              		.loc 1 1911 15 view .LVU1035
 3643 022e 012B     		cmp	r3, #1
 3644 0230 04D9     		bls	.L277
1917:Middlewares/Third_Party/SubGHz_Phy/stm32_radio_driver/radio.c ****             }
 3645              		.loc 1 1917 15 is_stmt 1 view .LVU1036
ARM GAS  C:\Users\NATHAN~1\AppData\Local\Temp\cc90iGN6.s 			page 116


1917:Middlewares/Third_Party/SubGHz_Phy/stm32_radio_driver/radio.c ****             }
 3646              		.loc 1 1917 71 is_stmt 0 view .LVU1037
 3647 0232 104B     		ldr	r3, .L278
 3648 0234 0022     		movs	r2, #0
 3649 0236 83F85320 		strb	r2, [r3, #83]
 3650 023a B5E7     		b	.L262
 3651              	.L277:
1913:Middlewares/Third_Party/SubGHz_Phy/stm32_radio_driver/radio.c ****             }
 3652              		.loc 1 1913 15 is_stmt 1 view .LVU1038
1913:Middlewares/Third_Party/SubGHz_Phy/stm32_radio_driver/radio.c ****             }
 3653              		.loc 1 1913 71 is_stmt 0 view .LVU1039
 3654 023c 0D4B     		ldr	r3, .L278
 3655 023e 0122     		movs	r2, #1
 3656 0240 83F85320 		strb	r2, [r3, #83]
 3657 0244 B0E7     		b	.L262
 3658              	.LVL325:
 3659              	.L276:
1940:Middlewares/Third_Party/SubGHz_Phy/stm32_radio_driver/radio.c ****         }
 3660              		.loc 1 1940 13 is_stmt 1 view .LVU1040
1940:Middlewares/Third_Party/SubGHz_Phy/stm32_radio_driver/radio.c ****         }
 3661              		.loc 1 1940 43 is_stmt 0 view .LVU1041
 3662 0246 40F23670 		movw	r0, #1846
 3663 024a FFF7FEFF 		bl	SUBGRF_ReadRegister
 3664              	.LVL326:
1940:Middlewares/Third_Party/SubGHz_Phy/stm32_radio_driver/radio.c ****         }
 3665              		.loc 1 1940 13 view .LVU1042
 3666 024e 00F0FB01 		and	r1, r0, #251
 3667 0252 40F23670 		movw	r0, #1846
 3668 0256 FFF7FEFF 		bl	SUBGRF_WriteRegister
 3669              	.LVL327:
 3670 025a D2E7     		b	.L265
 3671              	.LVL328:
 3672              	.L267:
1801:Middlewares/Third_Party/SubGHz_Phy/stm32_radio_driver/radio.c ****         }
 3673              		.loc 1 1801 20 view .LVU1043
 3674 025c 4FF0FF30 		mov	r0, #-1
 3675 0260 E5E6     		b	.L244
 3676              	.L268:
 3677 0262 4FF0FF30 		mov	r0, #-1
 3678 0266 E2E6     		b	.L244
 3679              	.L269:
1805:Middlewares/Third_Party/SubGHz_Phy/stm32_radio_driver/radio.c ****         }
 3680              		.loc 1 1805 20 view .LVU1044
 3681 0268 4FF0FF30 		mov	r0, #-1
 3682 026c DFE6     		b	.L244
 3683              	.L270:
1884:Middlewares/Third_Party/SubGHz_Phy/stm32_radio_driver/radio.c ****         }
 3684              		.loc 1 1884 20 view .LVU1045
 3685 026e 4FF0FF30 		mov	r0, #-1
 3686 0272 DCE6     		b	.L244
 3687              	.L279:
 3688              		.align	2
 3689              	.L278:
 3690 0274 00000000 		.word	.LANCHOR3
 3691 0278 00000000 		.word	.LANCHOR4
 3692 027c 00000000 		.word	.LANCHOR1
 3693              		.cfi_endproc
ARM GAS  C:\Users\NATHAN~1\AppData\Local\Temp\cc90iGN6.s 			page 117


 3694              	.LFE1029:
 3696              		.section	.text.RadioSetPublicNetwork,"ax",%progbits
 3697              		.align	1
 3698              		.syntax unified
 3699              		.thumb
 3700              		.thumb_func
 3702              	RadioSetPublicNetwork:
 3703              	.LVL329:
 3704              	.LFB1018:
1506:Middlewares/Third_Party/SubGHz_Phy/stm32_radio_driver/radio.c ****     SubgRf.PublicNetwork.Current = SubgRf.PublicNetwork.Previous = enable;
 3705              		.loc 1 1506 1 is_stmt 1 view -0
 3706              		.cfi_startproc
 3707              		@ args = 0, pretend = 0, frame = 0
 3708              		@ frame_needed = 0, uses_anonymous_args = 0
1506:Middlewares/Third_Party/SubGHz_Phy/stm32_radio_driver/radio.c ****     SubgRf.PublicNetwork.Current = SubgRf.PublicNetwork.Previous = enable;
 3709              		.loc 1 1506 1 is_stmt 0 view .LVU1047
 3710 0000 10B5     		push	{r4, lr}
 3711              	.LCFI46:
 3712              		.cfi_def_cfa_offset 8
 3713              		.cfi_offset 4, -8
 3714              		.cfi_offset 14, -4
 3715 0002 0446     		mov	r4, r0
1507:Middlewares/Third_Party/SubGHz_Phy/stm32_radio_driver/radio.c **** 
 3716              		.loc 1 1507 5 is_stmt 1 view .LVU1048
1507:Middlewares/Third_Party/SubGHz_Phy/stm32_radio_driver/radio.c **** 
 3717              		.loc 1 1507 66 is_stmt 0 view .LVU1049
 3718 0004 0E4B     		ldr	r3, .L284
 3719 0006 1873     		strb	r0, [r3, #12]
1507:Middlewares/Third_Party/SubGHz_Phy/stm32_radio_driver/radio.c **** 
 3720              		.loc 1 1507 34 view .LVU1050
 3721 0008 5873     		strb	r0, [r3, #13]
1509:Middlewares/Third_Party/SubGHz_Phy/stm32_radio_driver/radio.c ****     if( enable == true )
 3722              		.loc 1 1509 5 is_stmt 1 view .LVU1051
 3723 000a 0120     		movs	r0, #1
 3724              	.LVL330:
1509:Middlewares/Third_Party/SubGHz_Phy/stm32_radio_driver/radio.c ****     if( enable == true )
 3725              		.loc 1 1509 5 is_stmt 0 view .LVU1052
 3726 000c FFF7FEFF 		bl	RadioSetModem
 3727              	.LVL331:
1510:Middlewares/Third_Party/SubGHz_Phy/stm32_radio_driver/radio.c ****     {
 3728              		.loc 1 1510 5 is_stmt 1 view .LVU1053
1510:Middlewares/Third_Party/SubGHz_Phy/stm32_radio_driver/radio.c ****     {
 3729              		.loc 1 1510 7 is_stmt 0 view .LVU1054
 3730 0010 54B1     		cbz	r4, .L281
1513:Middlewares/Third_Party/SubGHz_Phy/stm32_radio_driver/radio.c ****         SUBGRF_WriteRegister( REG_LR_SYNCWORD + 1, LORA_MAC_PUBLIC_SYNCWORD & 0xFF );
 3731              		.loc 1 1513 9 is_stmt 1 view .LVU1055
 3732 0012 3421     		movs	r1, #52
 3733 0014 4FF4E860 		mov	r0, #1856
 3734 0018 FFF7FEFF 		bl	SUBGRF_WriteRegister
 3735              	.LVL332:
1514:Middlewares/Third_Party/SubGHz_Phy/stm32_radio_driver/radio.c ****     }
 3736              		.loc 1 1514 9 view .LVU1056
 3737 001c 4421     		movs	r1, #68
 3738 001e 40F24170 		movw	r0, #1857
 3739 0022 FFF7FEFF 		bl	SUBGRF_WriteRegister
 3740              	.LVL333:
 3741              	.L280:
ARM GAS  C:\Users\NATHAN~1\AppData\Local\Temp\cc90iGN6.s 			page 118


1522:Middlewares/Third_Party/SubGHz_Phy/stm32_radio_driver/radio.c **** 
 3742              		.loc 1 1522 1 is_stmt 0 view .LVU1057
 3743 0026 10BD     		pop	{r4, pc}
 3744              	.L281:
1519:Middlewares/Third_Party/SubGHz_Phy/stm32_radio_driver/radio.c ****         SUBGRF_WriteRegister( REG_LR_SYNCWORD + 1, LORA_MAC_PRIVATE_SYNCWORD & 0xFF );
 3745              		.loc 1 1519 9 is_stmt 1 view .LVU1058
 3746 0028 1421     		movs	r1, #20
 3747 002a 4FF4E860 		mov	r0, #1856
 3748 002e FFF7FEFF 		bl	SUBGRF_WriteRegister
 3749              	.LVL334:
1520:Middlewares/Third_Party/SubGHz_Phy/stm32_radio_driver/radio.c ****     }
 3750              		.loc 1 1520 9 view .LVU1059
 3751 0032 2421     		movs	r1, #36
 3752 0034 40F24170 		movw	r0, #1857
 3753 0038 FFF7FEFF 		bl	SUBGRF_WriteRegister
 3754              	.LVL335:
1522:Middlewares/Third_Party/SubGHz_Phy/stm32_radio_driver/radio.c **** 
 3755              		.loc 1 1522 1 is_stmt 0 view .LVU1060
 3756 003c F3E7     		b	.L280
 3757              	.L285:
 3758 003e 00BF     		.align	2
 3759              	.L284:
 3760 0040 00000000 		.word	.LANCHOR3
 3761              		.cfi_endproc
 3762              	.LFE1018:
 3764              		.section	.text.RadioSetTxConfig,"ax",%progbits
 3765              		.align	1
 3766              		.syntax unified
 3767              		.thumb
 3768              		.thumb_func
 3770              	RadioSetTxConfig:
 3771              	.LVL336:
 3772              	.LFB998:
 979:Middlewares/Third_Party/SubGHz_Phy/stm32_radio_driver/radio.c ****     RFW_DeInit(); /* ST_WORKAROUND: Switch Off FwPacketDecoding by default */
 3773              		.loc 1 979 1 is_stmt 1 view -0
 3774              		.cfi_startproc
 3775              		@ args = 36, pretend = 0, frame = 8
 3776              		@ frame_needed = 0, uses_anonymous_args = 0
 979:Middlewares/Third_Party/SubGHz_Phy/stm32_radio_driver/radio.c ****     RFW_DeInit(); /* ST_WORKAROUND: Switch Off FwPacketDecoding by default */
 3777              		.loc 1 979 1 is_stmt 0 view .LVU1062
 3778 0000 2DE9F04F 		push	{r4, r5, r6, r7, r8, r9, r10, fp, lr}
 3779              	.LCFI47:
 3780              		.cfi_def_cfa_offset 36
 3781              		.cfi_offset 4, -36
 3782              		.cfi_offset 5, -32
 3783              		.cfi_offset 6, -28
 3784              		.cfi_offset 7, -24
 3785              		.cfi_offset 8, -20
 3786              		.cfi_offset 9, -16
 3787              		.cfi_offset 10, -12
 3788              		.cfi_offset 11, -8
 3789              		.cfi_offset 14, -4
 3790 0004 83B0     		sub	sp, sp, #12
 3791              	.LCFI48:
 3792              		.cfi_def_cfa_offset 48
 3793 0006 0446     		mov	r4, r0
 3794 0008 0D46     		mov	r5, r1
ARM GAS  C:\Users\NATHAN~1\AppData\Local\Temp\cc90iGN6.s 			page 119


 3795 000a 9146     		mov	r9, r2
 3796 000c 1F46     		mov	r7, r3
 3797 000e BDF83860 		ldrh	r6, [sp, #56]
 3798 0012 9DF83C80 		ldrb	r8, [sp, #60]	@ zero_extendqisi2
 3799 0016 9DF840A0 		ldrb	r10, [sp, #64]	@ zero_extendqisi2
 980:Middlewares/Third_Party/SubGHz_Phy/stm32_radio_driver/radio.c ****     switch( modem )
 3800              		.loc 1 980 5 is_stmt 1 view .LVU1063
 3801 001a FFF7FEFF 		bl	RFW_DeInit
 3802              	.LVL337:
 981:Middlewares/Third_Party/SubGHz_Phy/stm32_radio_driver/radio.c ****     {
 3803              		.loc 1 981 5 view .LVU1064
 3804 001e 012C     		cmp	r4, #1
 3805 0020 5AD0     		beq	.L287
 3806 0022 032C     		cmp	r4, #3
 3807 0024 00F0AB80 		beq	.L288
 3808 0028 64B1     		cbz	r4, .L300
 3809              	.L289:
1075:Middlewares/Third_Party/SubGHz_Phy/stm32_radio_driver/radio.c ****     RFW_SetAntSwitch( SubgRf.AntSwitchPaSelect ); /* ST_WORKAROUND: ?????? */
 3810              		.loc 1 1075 5 view .LVU1065
1075:Middlewares/Third_Party/SubGHz_Phy/stm32_radio_driver/radio.c ****     RFW_SetAntSwitch( SubgRf.AntSwitchPaSelect ); /* ST_WORKAROUND: ?????? */
 3811              		.loc 1 1075 32 is_stmt 0 view .LVU1066
 3812 002a 2846     		mov	r0, r5
 3813 002c FFF7FEFF 		bl	SUBGRF_SetRfTxPower
 3814              	.LVL338:
1075:Middlewares/Third_Party/SubGHz_Phy/stm32_radio_driver/radio.c ****     RFW_SetAntSwitch( SubgRf.AntSwitchPaSelect ); /* ST_WORKAROUND: ?????? */
 3815              		.loc 1 1075 30 view .LVU1067
 3816 0030 5B4C     		ldr	r4, .L303
 3817 0032 84F85600 		strb	r0, [r4, #86]
1076:Middlewares/Third_Party/SubGHz_Phy/stm32_radio_driver/radio.c ****     SubgRf.TxTimeout = timeout;
 3818              		.loc 1 1076 5 is_stmt 1 view .LVU1068
 3819 0036 FFF7FEFF 		bl	RFW_SetAntSwitch
 3820              	.LVL339:
1077:Middlewares/Third_Party/SubGHz_Phy/stm32_radio_driver/radio.c **** }
 3821              		.loc 1 1077 5 view .LVU1069
1077:Middlewares/Third_Party/SubGHz_Phy/stm32_radio_driver/radio.c **** }
 3822              		.loc 1 1077 22 is_stmt 0 view .LVU1070
 3823 003a 149B     		ldr	r3, [sp, #80]
 3824 003c 6360     		str	r3, [r4, #4]
1078:Middlewares/Third_Party/SubGHz_Phy/stm32_radio_driver/radio.c **** 
 3825              		.loc 1 1078 1 view .LVU1071
 3826 003e 03B0     		add	sp, sp, #12
 3827              	.LCFI49:
 3828              		.cfi_remember_state
 3829              		.cfi_def_cfa_offset 36
 3830              		@ sp needed
 3831 0040 BDE8F08F 		pop	{r4, r5, r6, r7, r8, r9, r10, fp, pc}
 3832              	.LVL340:
 3833              	.L300:
 3834              	.LCFI50:
 3835              		.cfi_restore_state
 3836              	.LBB10:
 984:Middlewares/Third_Party/SubGHz_Phy/stm32_radio_driver/radio.c ****             SubgRf.ModulationParams.Params.Gfsk.BitRate = datarate;
 3837              		.loc 1 984 13 is_stmt 1 view .LVU1072
 984:Middlewares/Third_Party/SubGHz_Phy/stm32_radio_driver/radio.c ****             SubgRf.ModulationParams.Params.Gfsk.BitRate = datarate;
 3838              		.loc 1 984 48 is_stmt 0 view .LVU1073
 3839 0044 564C     		ldr	r4, .L303
 3840 0046 4FF0000B 		mov	fp, #0
ARM GAS  C:\Users\NATHAN~1\AppData\Local\Temp\cc90iGN6.s 			page 120


 3841 004a 84F838B0 		strb	fp, [r4, #56]
 985:Middlewares/Third_Party/SubGHz_Phy/stm32_radio_driver/radio.c **** 
 3842              		.loc 1 985 13 is_stmt 1 view .LVU1074
 985:Middlewares/Third_Party/SubGHz_Phy/stm32_radio_driver/radio.c **** 
 3843              		.loc 1 985 57 is_stmt 0 view .LVU1075
 3844 004e 0C9B     		ldr	r3, [sp, #48]
 3845 0050 E363     		str	r3, [r4, #60]
 987:Middlewares/Third_Party/SubGHz_Phy/stm32_radio_driver/radio.c ****             SubgRf.ModulationParams.Params.Gfsk.Bandwidth = SUBGRF_GetFskBandwidthRegValue( bandwid
 3846              		.loc 1 987 13 is_stmt 1 view .LVU1076
 987:Middlewares/Third_Party/SubGHz_Phy/stm32_radio_driver/radio.c ****             SubgRf.ModulationParams.Params.Gfsk.Bandwidth = SUBGRF_GetFskBandwidthRegValue( bandwid
 3847              		.loc 1 987 67 is_stmt 0 view .LVU1077
 3848 0052 0B23     		movs	r3, #11
 3849 0054 84F84430 		strb	r3, [r4, #68]
 988:Middlewares/Third_Party/SubGHz_Phy/stm32_radio_driver/radio.c ****             SubgRf.ModulationParams.Params.Gfsk.Fdev = fdev;
 3850              		.loc 1 988 13 is_stmt 1 view .LVU1078
 988:Middlewares/Third_Party/SubGHz_Phy/stm32_radio_driver/radio.c ****             SubgRf.ModulationParams.Params.Gfsk.Fdev = fdev;
 3851              		.loc 1 988 61 is_stmt 0 view .LVU1079
 3852 0058 3846     		mov	r0, r7
 3853 005a FFF7FEFF 		bl	SUBGRF_GetFskBandwidthRegValue
 3854              	.LVL341:
 988:Middlewares/Third_Party/SubGHz_Phy/stm32_radio_driver/radio.c ****             SubgRf.ModulationParams.Params.Gfsk.Fdev = fdev;
 3855              		.loc 1 988 59 view .LVU1080
 3856 005e 84F84500 		strb	r0, [r4, #69]
 989:Middlewares/Third_Party/SubGHz_Phy/stm32_radio_driver/radio.c **** 
 3857              		.loc 1 989 13 is_stmt 1 view .LVU1081
 989:Middlewares/Third_Party/SubGHz_Phy/stm32_radio_driver/radio.c **** 
 3858              		.loc 1 989 54 is_stmt 0 view .LVU1082
 3859 0062 C4F84090 		str	r9, [r4, #64]
 991:Middlewares/Third_Party/SubGHz_Phy/stm32_radio_driver/radio.c ****             SubgRf.PacketParams.Params.Gfsk.PreambleLength = ( preambleLen << 3 ); // convert byte 
 3860              		.loc 1 991 13 is_stmt 1 view .LVU1083
 991:Middlewares/Third_Party/SubGHz_Phy/stm32_radio_driver/radio.c ****             SubgRf.PacketParams.Params.Gfsk.PreambleLength = ( preambleLen << 3 ); // convert byte 
 3861              		.loc 1 991 44 is_stmt 0 view .LVU1084
 3862 0066 84F80EB0 		strb	fp, [r4, #14]
 992:Middlewares/Third_Party/SubGHz_Phy/stm32_radio_driver/radio.c ****             SubgRf.PacketParams.Params.Gfsk.PreambleMinDetect = RADIO_PREAMBLE_DETECTOR_08_BITS;
 3863              		.loc 1 992 13 is_stmt 1 view .LVU1085
 992:Middlewares/Third_Party/SubGHz_Phy/stm32_radio_driver/radio.c ****             SubgRf.PacketParams.Params.Gfsk.PreambleMinDetect = RADIO_PREAMBLE_DETECTOR_08_BITS;
 3864              		.loc 1 992 76 is_stmt 0 view .LVU1086
 3865 006a F600     		lsls	r6, r6, #3
 992:Middlewares/Third_Party/SubGHz_Phy/stm32_radio_driver/radio.c ****             SubgRf.PacketParams.Params.Gfsk.PreambleMinDetect = RADIO_PREAMBLE_DETECTOR_08_BITS;
 3866              		.loc 1 992 60 view .LVU1087
 3867 006c 2682     		strh	r6, [r4, #16]	@ movhi
 993:Middlewares/Third_Party/SubGHz_Phy/stm32_radio_driver/radio.c ****             SubgRf.PacketParams.Params.Gfsk.SyncWordLength = 3 << 3 ; // convert byte into bit
 3868              		.loc 1 993 13 is_stmt 1 view .LVU1088
 993:Middlewares/Third_Party/SubGHz_Phy/stm32_radio_driver/radio.c ****             SubgRf.PacketParams.Params.Gfsk.SyncWordLength = 3 << 3 ; // convert byte into bit
 3869              		.loc 1 993 63 is_stmt 0 view .LVU1089
 3870 006e 0423     		movs	r3, #4
 3871 0070 A374     		strb	r3, [r4, #18]
 994:Middlewares/Third_Party/SubGHz_Phy/stm32_radio_driver/radio.c ****             SubgRf.PacketParams.Params.Gfsk.AddrComp = RADIO_ADDRESSCOMP_FILT_OFF;
 3872              		.loc 1 994 13 is_stmt 1 view .LVU1090
 994:Middlewares/Third_Party/SubGHz_Phy/stm32_radio_driver/radio.c ****             SubgRf.PacketParams.Params.Gfsk.AddrComp = RADIO_ADDRESSCOMP_FILT_OFF;
 3873              		.loc 1 994 60 is_stmt 0 view .LVU1091
 3874 0072 1823     		movs	r3, #24
 3875 0074 E374     		strb	r3, [r4, #19]
 995:Middlewares/Third_Party/SubGHz_Phy/stm32_radio_driver/radio.c ****             SubgRf.PacketParams.Params.Gfsk.HeaderType = ( fixLen == true ) ? RADIO_PACKET_FIXED_LE
 3876              		.loc 1 995 13 is_stmt 1 view .LVU1092
 995:Middlewares/Third_Party/SubGHz_Phy/stm32_radio_driver/radio.c ****             SubgRf.PacketParams.Params.Gfsk.HeaderType = ( fixLen == true ) ? RADIO_PACKET_FIXED_LE
 3877              		.loc 1 995 54 is_stmt 0 view .LVU1093
ARM GAS  C:\Users\NATHAN~1\AppData\Local\Temp\cc90iGN6.s 			page 121


 3878 0076 84F814B0 		strb	fp, [r4, #20]
 996:Middlewares/Third_Party/SubGHz_Phy/stm32_radio_driver/radio.c **** 
 3879              		.loc 1 996 13 is_stmt 1 view .LVU1094
 996:Middlewares/Third_Party/SubGHz_Phy/stm32_radio_driver/radio.c **** 
 3880              		.loc 1 996 105 is_stmt 0 view .LVU1095
 3881 007a 88F00108 		eor	r8, r8, #1
 996:Middlewares/Third_Party/SubGHz_Phy/stm32_radio_driver/radio.c **** 
 3882              		.loc 1 996 56 view .LVU1096
 3883 007e 84F81580 		strb	r8, [r4, #21]
 998:Middlewares/Third_Party/SubGHz_Phy/stm32_radio_driver/radio.c ****             {
 3884              		.loc 1 998 13 is_stmt 1 view .LVU1097
 998:Middlewares/Third_Party/SubGHz_Phy/stm32_radio_driver/radio.c ****             {
 3885              		.loc 1 998 15 is_stmt 0 view .LVU1098
 3886 0082 BAF1000F 		cmp	r10, #0
 3887 0086 23D0     		beq	.L290
1000:Middlewares/Third_Party/SubGHz_Phy/stm32_radio_driver/radio.c ****             }
 3888              		.loc 1 1000 17 is_stmt 1 view .LVU1099
1000:Middlewares/Third_Party/SubGHz_Phy/stm32_radio_driver/radio.c ****             }
 3889              		.loc 1 1000 59 is_stmt 0 view .LVU1100
 3890 0088 F222     		movs	r2, #242
 3891 008a E275     		strb	r2, [r4, #23]
 3892              	.L291:
1006:Middlewares/Third_Party/SubGHz_Phy/stm32_radio_driver/radio.c **** 
 3893              		.loc 1 1006 13 is_stmt 1 view .LVU1101
1006:Middlewares/Third_Party/SubGHz_Phy/stm32_radio_driver/radio.c **** 
 3894              		.loc 1 1006 52 is_stmt 0 view .LVU1102
 3895 008c 444C     		ldr	r4, .L303
 3896 008e 0123     		movs	r3, #1
 3897 0090 2376     		strb	r3, [r4, #24]
1008:Middlewares/Third_Party/SubGHz_Phy/stm32_radio_driver/radio.c ****             RadioSetModem( ( SubgRf.ModulationParams.PacketType == PACKET_TYPE_GFSK ) ? MODEM_FSK :
 3898              		.loc 1 1008 13 is_stmt 1 view .LVU1103
 3899 0092 FFF7FEFF 		bl	RadioStandby
 3900              	.LVL342:
1009:Middlewares/Third_Party/SubGHz_Phy/stm32_radio_driver/radio.c ****             SUBGRF_SetModulationParams( &SubgRf.ModulationParams );
 3901              		.loc 1 1009 13 view .LVU1104
1009:Middlewares/Third_Party/SubGHz_Phy/stm32_radio_driver/radio.c ****             SUBGRF_SetModulationParams( &SubgRf.ModulationParams );
 3902              		.loc 1 1009 53 is_stmt 0 view .LVU1105
 3903 0096 2646     		mov	r6, r4
 3904 0098 16F8380F 		ldrb	r0, [r6, #56]!	@ zero_extendqisi2
1009:Middlewares/Third_Party/SubGHz_Phy/stm32_radio_driver/radio.c ****             SUBGRF_SetModulationParams( &SubgRf.ModulationParams );
 3905              		.loc 1 1009 13 view .LVU1106
 3906 009c 0038     		subs	r0, r0, #0
 3907 009e 18BF     		it	ne
 3908 00a0 0120     		movne	r0, #1
 3909 00a2 FFF7FEFF 		bl	RadioSetModem
 3910              	.LVL343:
1010:Middlewares/Third_Party/SubGHz_Phy/stm32_radio_driver/radio.c ****             SUBGRF_SetPacketParams( &SubgRf.PacketParams );
 3911              		.loc 1 1010 13 is_stmt 1 view .LVU1107
 3912 00a6 3046     		mov	r0, r6
 3913 00a8 FFF7FEFF 		bl	SUBGRF_SetModulationParams
 3914              	.LVL344:
1011:Middlewares/Third_Party/SubGHz_Phy/stm32_radio_driver/radio.c ****             SUBGRF_SetSyncWord( ( uint8_t[] ){ 0xC1, 0x94, 0xC1, 0x00, 0x00, 0x00, 0x00, 0x00 } );
 3915              		.loc 1 1011 13 view .LVU1108
 3916 00ac 04F10E00 		add	r0, r4, #14
 3917 00b0 FFF7FEFF 		bl	SUBGRF_SetPacketParams
 3918              	.LVL345:
1012:Middlewares/Third_Party/SubGHz_Phy/stm32_radio_driver/radio.c ****             SUBGRF_SetWhiteningSeed( 0x01FF );
ARM GAS  C:\Users\NATHAN~1\AppData\Local\Temp\cc90iGN6.s 			page 122


 3919              		.loc 1 1012 13 view .LVU1109
1012:Middlewares/Third_Party/SubGHz_Phy/stm32_radio_driver/radio.c ****             SUBGRF_SetWhiteningSeed( 0x01FF );
 3920              		.loc 1 1012 46 is_stmt 0 view .LVU1110
 3921 00b4 3B4A     		ldr	r2, .L303+4
 3922 00b6 6B46     		mov	r3, sp
 3923 00b8 92E80300 		ldm	r2, {r0, r1}
 3924 00bc 83E80300 		stm	r3, {r0, r1}
1012:Middlewares/Third_Party/SubGHz_Phy/stm32_radio_driver/radio.c ****             SUBGRF_SetWhiteningSeed( 0x01FF );
 3925              		.loc 1 1012 13 view .LVU1111
 3926 00c0 1846     		mov	r0, r3
 3927 00c2 FFF7FEFF 		bl	SUBGRF_SetSyncWord
 3928              	.LVL346:
1013:Middlewares/Third_Party/SubGHz_Phy/stm32_radio_driver/radio.c ****             break;
 3929              		.loc 1 1013 13 is_stmt 1 view .LVU1112
 3930 00c6 40F2FF10 		movw	r0, #511
 3931 00ca FFF7FEFF 		bl	SUBGRF_SetWhiteningSeed
 3932              	.LVL347:
1014:Middlewares/Third_Party/SubGHz_Phy/stm32_radio_driver/radio.c **** 
 3933              		.loc 1 1014 13 view .LVU1113
 3934 00ce ACE7     		b	.L289
 3935              	.L290:
1004:Middlewares/Third_Party/SubGHz_Phy/stm32_radio_driver/radio.c ****             }
 3936              		.loc 1 1004 17 view .LVU1114
1004:Middlewares/Third_Party/SubGHz_Phy/stm32_radio_driver/radio.c ****             }
 3937              		.loc 1 1004 59 is_stmt 0 view .LVU1115
 3938 00d0 334B     		ldr	r3, .L303
 3939 00d2 0122     		movs	r2, #1
 3940 00d4 DA75     		strb	r2, [r3, #23]
 3941 00d6 D9E7     		b	.L291
 3942              	.L287:
1017:Middlewares/Third_Party/SubGHz_Phy/stm32_radio_driver/radio.c ****             SubgRf.ModulationParams.Params.LoRa.SpreadingFactor = ( RadioLoRaSpreadingFactors_t ) d
 3943              		.loc 1 1017 13 is_stmt 1 view .LVU1116
1017:Middlewares/Third_Party/SubGHz_Phy/stm32_radio_driver/radio.c ****             SubgRf.ModulationParams.Params.LoRa.SpreadingFactor = ( RadioLoRaSpreadingFactors_t ) d
 3944              		.loc 1 1017 48 is_stmt 0 view .LVU1117
 3945 00d8 314A     		ldr	r2, .L303
 3946 00da 0123     		movs	r3, #1
 3947 00dc 82F83830 		strb	r3, [r2, #56]
1018:Middlewares/Third_Party/SubGHz_Phy/stm32_radio_driver/radio.c ****             SubgRf.ModulationParams.Params.LoRa.Bandwidth =  Bandwidths[bandwidth];
 3948              		.loc 1 1018 13 is_stmt 1 view .LVU1118
1018:Middlewares/Third_Party/SubGHz_Phy/stm32_radio_driver/radio.c ****             SubgRf.ModulationParams.Params.LoRa.Bandwidth =  Bandwidths[bandwidth];
 3949              		.loc 1 1018 67 is_stmt 0 view .LVU1119
 3950 00e0 0C9B     		ldr	r3, [sp, #48]
 3951 00e2 DBB2     		uxtb	r3, r3
1018:Middlewares/Third_Party/SubGHz_Phy/stm32_radio_driver/radio.c ****             SubgRf.ModulationParams.Params.LoRa.Bandwidth =  Bandwidths[bandwidth];
 3952              		.loc 1 1018 65 view .LVU1120
 3953 00e4 82F85030 		strb	r3, [r2, #80]
1019:Middlewares/Third_Party/SubGHz_Phy/stm32_radio_driver/radio.c ****             SubgRf.ModulationParams.Params.LoRa.CodingRate= ( RadioLoRaCodingRates_t )coderate;
 3954              		.loc 1 1019 13 is_stmt 1 view .LVU1121
1019:Middlewares/Third_Party/SubGHz_Phy/stm32_radio_driver/radio.c ****             SubgRf.ModulationParams.Params.LoRa.CodingRate= ( RadioLoRaCodingRates_t )coderate;
 3955              		.loc 1 1019 72 is_stmt 0 view .LVU1122
 3956 00e8 2F49     		ldr	r1, .L303+8
 3957 00ea C95D     		ldrb	r1, [r1, r7]	@ zero_extendqisi2
1019:Middlewares/Third_Party/SubGHz_Phy/stm32_radio_driver/radio.c ****             SubgRf.ModulationParams.Params.LoRa.CodingRate= ( RadioLoRaCodingRates_t )coderate;
 3958              		.loc 1 1019 59 view .LVU1123
 3959 00ec 82F85110 		strb	r1, [r2, #81]
1020:Middlewares/Third_Party/SubGHz_Phy/stm32_radio_driver/radio.c **** 
 3960              		.loc 1 1020 13 is_stmt 1 view .LVU1124
ARM GAS  C:\Users\NATHAN~1\AppData\Local\Temp\cc90iGN6.s 			page 123


1020:Middlewares/Third_Party/SubGHz_Phy/stm32_radio_driver/radio.c **** 
 3961              		.loc 1 1020 59 is_stmt 0 view .LVU1125
 3962 00f0 9DF83410 		ldrb	r1, [sp, #52]	@ zero_extendqisi2
 3963 00f4 82F85210 		strb	r1, [r2, #82]
1022:Middlewares/Third_Party/SubGHz_Phy/stm32_radio_driver/radio.c ****                 ( ( bandwidth == 1 ) && ( datarate == 12 ) ) )
 3964              		.loc 1 1022 13 is_stmt 1 view .LVU1126
1022:Middlewares/Third_Party/SubGHz_Phy/stm32_radio_driver/radio.c ****                 ( ( bandwidth == 1 ) && ( datarate == 12 ) ) )
 3965              		.loc 1 1022 15 is_stmt 0 view .LVU1127
 3966 00f8 1FB9     		cbnz	r7, .L292
1022:Middlewares/Third_Party/SubGHz_Phy/stm32_radio_driver/radio.c ****                 ( ( bandwidth == 1 ) && ( datarate == 12 ) ) )
 3967              		.loc 1 1022 62 discriminator 1 view .LVU1128
 3968 00fa 0C9A     		ldr	r2, [sp, #48]
 3969 00fc 0B3A     		subs	r2, r2, #11
1022:Middlewares/Third_Party/SubGHz_Phy/stm32_radio_driver/radio.c ****                 ( ( bandwidth == 1 ) && ( datarate == 12 ) ) )
 3970              		.loc 1 1022 38 discriminator 1 view .LVU1129
 3971 00fe 012A     		cmp	r2, #1
 3972 0100 2FD9     		bls	.L293
 3973              	.L292:
1022:Middlewares/Third_Party/SubGHz_Phy/stm32_radio_driver/radio.c ****                 ( ( bandwidth == 1 ) && ( datarate == 12 ) ) )
 3974              		.loc 1 1022 88 discriminator 3 view .LVU1130
 3975 0102 012F     		cmp	r7, #1
 3976 0104 2AD0     		beq	.L301
 3977              	.L294:
1029:Middlewares/Third_Party/SubGHz_Phy/stm32_radio_driver/radio.c ****             }
 3978              		.loc 1 1029 17 is_stmt 1 view .LVU1131
1029:Middlewares/Third_Party/SubGHz_Phy/stm32_radio_driver/radio.c ****             }
 3979              		.loc 1 1029 73 is_stmt 0 view .LVU1132
 3980 0106 264A     		ldr	r2, .L303
 3981 0108 0021     		movs	r1, #0
 3982 010a 82F85310 		strb	r1, [r2, #83]
 3983              	.L295:
1032:Middlewares/Third_Party/SubGHz_Phy/stm32_radio_driver/radio.c **** 
 3984              		.loc 1 1032 13 is_stmt 1 view .LVU1133
1032:Middlewares/Third_Party/SubGHz_Phy/stm32_radio_driver/radio.c **** 
 3985              		.loc 1 1032 44 is_stmt 0 view .LVU1134
 3986 010e 244A     		ldr	r2, .L303
 3987 0110 0121     		movs	r1, #1
 3988 0112 9173     		strb	r1, [r2, #14]
1034:Middlewares/Third_Party/SubGHz_Phy/stm32_radio_driver/radio.c ****                 ( SubgRf.ModulationParams.Params.LoRa.SpreadingFactor == LORA_SF6 ) )
 3989              		.loc 1 1034 13 is_stmt 1 view .LVU1135
1034:Middlewares/Third_Party/SubGHz_Phy/stm32_radio_driver/radio.c ****                 ( SubgRf.ModulationParams.Params.LoRa.SpreadingFactor == LORA_SF6 ) )
 3990              		.loc 1 1034 85 is_stmt 0 view .LVU1136
 3991 0114 053B     		subs	r3, r3, #5
 3992 0116 DBB2     		uxtb	r3, r3
1034:Middlewares/Third_Party/SubGHz_Phy/stm32_radio_driver/radio.c ****                 ( SubgRf.ModulationParams.Params.LoRa.SpreadingFactor == LORA_SF6 ) )
 3993              		.loc 1 1034 15 view .LVU1137
 3994 0118 8B42     		cmp	r3, r1
 3995 011a 27D9     		bls	.L302
1048:Middlewares/Third_Party/SubGHz_Phy/stm32_radio_driver/radio.c ****             }
 3996              		.loc 1 1048 17 is_stmt 1 view .LVU1138
1048:Middlewares/Third_Party/SubGHz_Phy/stm32_radio_driver/radio.c ****             }
 3997              		.loc 1 1048 64 is_stmt 0 view .LVU1139
 3998 011c 204B     		ldr	r3, .L303
 3999 011e 9E83     		strh	r6, [r3, #28]	@ movhi
 4000              	.L298:
1050:Middlewares/Third_Party/SubGHz_Phy/stm32_radio_driver/radio.c ****             SubgRf.PacketParams.Params.LoRa.PayloadLength = MaxPayloadLength;
 4001              		.loc 1 1050 13 is_stmt 1 view .LVU1140
ARM GAS  C:\Users\NATHAN~1\AppData\Local\Temp\cc90iGN6.s 			page 124


1050:Middlewares/Third_Party/SubGHz_Phy/stm32_radio_driver/radio.c ****             SubgRf.PacketParams.Params.LoRa.PayloadLength = MaxPayloadLength;
 4002              		.loc 1 1050 56 is_stmt 0 view .LVU1141
 4003 0120 1F4C     		ldr	r4, .L303
 4004 0122 84F81E80 		strb	r8, [r4, #30]
1051:Middlewares/Third_Party/SubGHz_Phy/stm32_radio_driver/radio.c ****             SubgRf.PacketParams.Params.LoRa.CrcMode = ( RadioLoRaCrcModes_t )crcOn;
 4005              		.loc 1 1051 13 is_stmt 1 view .LVU1142
1051:Middlewares/Third_Party/SubGHz_Phy/stm32_radio_driver/radio.c ****             SubgRf.PacketParams.Params.LoRa.CrcMode = ( RadioLoRaCrcModes_t )crcOn;
 4006              		.loc 1 1051 59 is_stmt 0 view .LVU1143
 4007 0126 214B     		ldr	r3, .L303+12
 4008 0128 1B78     		ldrb	r3, [r3]	@ zero_extendqisi2
 4009 012a E377     		strb	r3, [r4, #31]
1052:Middlewares/Third_Party/SubGHz_Phy/stm32_radio_driver/radio.c ****             SubgRf.PacketParams.Params.LoRa.InvertIQ = ( RadioLoRaIQModes_t )iqInverted;
 4010              		.loc 1 1052 13 is_stmt 1 view .LVU1144
1052:Middlewares/Third_Party/SubGHz_Phy/stm32_radio_driver/radio.c ****             SubgRf.PacketParams.Params.LoRa.InvertIQ = ( RadioLoRaIQModes_t )iqInverted;
 4011              		.loc 1 1052 53 is_stmt 0 view .LVU1145
 4012 012c 84F820A0 		strb	r10, [r4, #32]
1053:Middlewares/Third_Party/SubGHz_Phy/stm32_radio_driver/radio.c **** 
 4013              		.loc 1 1053 13 is_stmt 1 view .LVU1146
1053:Middlewares/Third_Party/SubGHz_Phy/stm32_radio_driver/radio.c **** 
 4014              		.loc 1 1053 54 is_stmt 0 view .LVU1147
 4015 0130 9DF84C30 		ldrb	r3, [sp, #76]	@ zero_extendqisi2
 4016 0134 84F82130 		strb	r3, [r4, #33]
1055:Middlewares/Third_Party/SubGHz_Phy/stm32_radio_driver/radio.c ****             RadioSetModem( ( SubgRf.ModulationParams.PacketType == PACKET_TYPE_GFSK ) ? MODEM_FSK :
 4017              		.loc 1 1055 13 is_stmt 1 view .LVU1148
 4018 0138 FFF7FEFF 		bl	RadioStandby
 4019              	.LVL348:
1056:Middlewares/Third_Party/SubGHz_Phy/stm32_radio_driver/radio.c ****             SUBGRF_SetModulationParams( &SubgRf.ModulationParams );
 4020              		.loc 1 1056 13 view .LVU1149
1056:Middlewares/Third_Party/SubGHz_Phy/stm32_radio_driver/radio.c ****             SUBGRF_SetModulationParams( &SubgRf.ModulationParams );
 4021              		.loc 1 1056 53 is_stmt 0 view .LVU1150
 4022 013c 2646     		mov	r6, r4
 4023 013e 16F8380F 		ldrb	r0, [r6, #56]!	@ zero_extendqisi2
1056:Middlewares/Third_Party/SubGHz_Phy/stm32_radio_driver/radio.c ****             SUBGRF_SetModulationParams( &SubgRf.ModulationParams );
 4024              		.loc 1 1056 13 view .LVU1151
 4025 0142 0038     		subs	r0, r0, #0
 4026 0144 18BF     		it	ne
 4027 0146 0120     		movne	r0, #1
 4028 0148 FFF7FEFF 		bl	RadioSetModem
 4029              	.LVL349:
1057:Middlewares/Third_Party/SubGHz_Phy/stm32_radio_driver/radio.c ****             SUBGRF_SetPacketParams( &SubgRf.PacketParams );
 4030              		.loc 1 1057 13 is_stmt 1 view .LVU1152
 4031 014c 3046     		mov	r0, r6
 4032 014e FFF7FEFF 		bl	SUBGRF_SetModulationParams
 4033              	.LVL350:
1058:Middlewares/Third_Party/SubGHz_Phy/stm32_radio_driver/radio.c ****             break;
 4034              		.loc 1 1058 13 view .LVU1153
 4035 0152 04F10E00 		add	r0, r4, #14
 4036 0156 FFF7FEFF 		bl	SUBGRF_SetPacketParams
 4037              	.LVL351:
1059:Middlewares/Third_Party/SubGHz_Phy/stm32_radio_driver/radio.c **** 
 4038              		.loc 1 1059 13 view .LVU1154
 4039 015a 66E7     		b	.L289
 4040              	.L301:
1023:Middlewares/Third_Party/SubGHz_Phy/stm32_radio_driver/radio.c ****             {
 4041              		.loc 1 1023 38 is_stmt 0 view .LVU1155
 4042 015c 0C9A     		ldr	r2, [sp, #48]
 4043 015e 0C2A     		cmp	r2, #12
ARM GAS  C:\Users\NATHAN~1\AppData\Local\Temp\cc90iGN6.s 			page 125


 4044 0160 D1D1     		bne	.L294
 4045              	.L293:
1025:Middlewares/Third_Party/SubGHz_Phy/stm32_radio_driver/radio.c ****             }
 4046              		.loc 1 1025 17 is_stmt 1 view .LVU1156
1025:Middlewares/Third_Party/SubGHz_Phy/stm32_radio_driver/radio.c ****             }
 4047              		.loc 1 1025 73 is_stmt 0 view .LVU1157
 4048 0162 0F4A     		ldr	r2, .L303
 4049 0164 0121     		movs	r1, #1
 4050 0166 82F85310 		strb	r1, [r2, #83]
 4051 016a D0E7     		b	.L295
 4052              	.L302:
1037:Middlewares/Third_Party/SubGHz_Phy/stm32_radio_driver/radio.c ****                 {
 4053              		.loc 1 1037 17 is_stmt 1 view .LVU1158
1037:Middlewares/Third_Party/SubGHz_Phy/stm32_radio_driver/radio.c ****                 {
 4054              		.loc 1 1037 19 is_stmt 0 view .LVU1159
 4055 016c 0B2E     		cmp	r6, #11
 4056 016e 03D8     		bhi	.L297
1039:Middlewares/Third_Party/SubGHz_Phy/stm32_radio_driver/radio.c ****                 }
 4057              		.loc 1 1039 21 is_stmt 1 view .LVU1160
1039:Middlewares/Third_Party/SubGHz_Phy/stm32_radio_driver/radio.c ****                 }
 4058              		.loc 1 1039 68 is_stmt 0 view .LVU1161
 4059 0170 1346     		mov	r3, r2
 4060 0172 0C22     		movs	r2, #12
 4061 0174 9A83     		strh	r2, [r3, #28]	@ movhi
 4062 0176 D3E7     		b	.L298
 4063              	.L297:
1043:Middlewares/Third_Party/SubGHz_Phy/stm32_radio_driver/radio.c ****                 }
 4064              		.loc 1 1043 21 is_stmt 1 view .LVU1162
1043:Middlewares/Third_Party/SubGHz_Phy/stm32_radio_driver/radio.c ****                 }
 4065              		.loc 1 1043 68 is_stmt 0 view .LVU1163
 4066 0178 094B     		ldr	r3, .L303
 4067 017a 9E83     		strh	r6, [r3, #28]	@ movhi
 4068 017c D0E7     		b	.L298
 4069              	.L288:
1062:Middlewares/Third_Party/SubGHz_Phy/stm32_radio_driver/radio.c ****             SubgRf.ModulationParams.PacketType = PACKET_TYPE_BPSK;
 4070              		.loc 1 1062 13 is_stmt 1 view .LVU1164
 4071 017e 0320     		movs	r0, #3
 4072 0180 FFF7FEFF 		bl	RadioSetModem
 4073              	.LVL352:
1063:Middlewares/Third_Party/SubGHz_Phy/stm32_radio_driver/radio.c ****             SubgRf.ModulationParams.Params.Bpsk.BitRate           = datarate;
 4074              		.loc 1 1063 13 view .LVU1165
1063:Middlewares/Third_Party/SubGHz_Phy/stm32_radio_driver/radio.c ****             SubgRf.ModulationParams.Params.Bpsk.BitRate           = datarate;
 4075              		.loc 1 1063 48 is_stmt 0 view .LVU1166
 4076 0184 0648     		ldr	r0, .L303
 4077 0186 0223     		movs	r3, #2
 4078 0188 80F83830 		strb	r3, [r0, #56]
1064:Middlewares/Third_Party/SubGHz_Phy/stm32_radio_driver/radio.c ****             SubgRf.ModulationParams.Params.Bpsk.ModulationShaping = MOD_SHAPING_DBPSK;
 4079              		.loc 1 1064 13 is_stmt 1 view .LVU1167
1064:Middlewares/Third_Party/SubGHz_Phy/stm32_radio_driver/radio.c ****             SubgRf.ModulationParams.Params.Bpsk.ModulationShaping = MOD_SHAPING_DBPSK;
 4080              		.loc 1 1064 67 is_stmt 0 view .LVU1168
 4081 018c 0C9B     		ldr	r3, [sp, #48]
 4082 018e 8364     		str	r3, [r0, #72]
1065:Middlewares/Third_Party/SubGHz_Phy/stm32_radio_driver/radio.c ****             SUBGRF_SetModulationParams( &SubgRf.ModulationParams );
 4083              		.loc 1 1065 13 is_stmt 1 view .LVU1169
1065:Middlewares/Third_Party/SubGHz_Phy/stm32_radio_driver/radio.c ****             SUBGRF_SetModulationParams( &SubgRf.ModulationParams );
 4084              		.loc 1 1065 67 is_stmt 0 view .LVU1170
 4085 0190 1623     		movs	r3, #22
ARM GAS  C:\Users\NATHAN~1\AppData\Local\Temp\cc90iGN6.s 			page 126


 4086 0192 80F84C30 		strb	r3, [r0, #76]
1066:Middlewares/Third_Party/SubGHz_Phy/stm32_radio_driver/radio.c ****             break;
 4087              		.loc 1 1066 13 is_stmt 1 view .LVU1171
 4088 0196 3830     		adds	r0, r0, #56
 4089 0198 FFF7FEFF 		bl	SUBGRF_SetModulationParams
 4090              	.LVL353:
1067:Middlewares/Third_Party/SubGHz_Phy/stm32_radio_driver/radio.c **** 
 4091              		.loc 1 1067 13 view .LVU1172
 4092 019c 45E7     		b	.L289
 4093              	.L304:
 4094 019e 00BF     		.align	2
 4095              	.L303:
 4096 01a0 00000000 		.word	.LANCHOR3
 4097 01a4 00000000 		.word	.LANCHOR7
 4098 01a8 00000000 		.word	.LANCHOR0
 4099 01ac 00000000 		.word	.LANCHOR2
 4100              	.LBE10:
 4101              		.cfi_endproc
 4102              	.LFE998:
 4104              		.section	.text.RadioSetRxConfig,"ax",%progbits
 4105              		.align	1
 4106              		.syntax unified
 4107              		.thumb
 4108              		.thumb_func
 4110              	RadioSetRxConfig:
 4111              	.LVL354:
 4112              	.LFB997:
 798:Middlewares/Third_Party/SubGHz_Phy/stm32_radio_driver/radio.c **** 
 4113              		.loc 1 798 1 view -0
 4114              		.cfi_startproc
 4115              		@ args = 40, pretend = 0, frame = 24
 4116              		@ frame_needed = 0, uses_anonymous_args = 0
 798:Middlewares/Third_Party/SubGHz_Phy/stm32_radio_driver/radio.c **** 
 4117              		.loc 1 798 1 is_stmt 0 view .LVU1174
 4118 0000 2DE9F04F 		push	{r4, r5, r6, r7, r8, r9, r10, fp, lr}
 4119              	.LCFI51:
 4120              		.cfi_def_cfa_offset 36
 4121              		.cfi_offset 4, -36
 4122              		.cfi_offset 5, -32
 4123              		.cfi_offset 6, -28
 4124              		.cfi_offset 7, -24
 4125              		.cfi_offset 8, -20
 4126              		.cfi_offset 9, -16
 4127              		.cfi_offset 10, -12
 4128              		.cfi_offset 11, -8
 4129              		.cfi_offset 14, -4
 4130 0004 87B0     		sub	sp, sp, #28
 4131              	.LCFI52:
 4132              		.cfi_def_cfa_offset 64
 4133 0006 0446     		mov	r4, r0
 4134 0008 0E46     		mov	r6, r1
 4135 000a 1546     		mov	r5, r2
 4136 000c 0193     		str	r3, [sp, #4]
 4137 000e BDF84490 		ldrh	r9, [sp, #68]
 4138 0012 BDF848A0 		ldrh	r10, [sp, #72]
 4139 0016 9DF84C70 		ldrb	r7, [sp, #76]	@ zero_extendqisi2
 4140 001a 9DF854B0 		ldrb	fp, [sp, #84]	@ zero_extendqisi2
ARM GAS  C:\Users\NATHAN~1\AppData\Local\Temp\cc90iGN6.s 			page 127


 4141 001e 9DF86480 		ldrb	r8, [sp, #100]	@ zero_extendqisi2
 800:Middlewares/Third_Party/SubGHz_Phy/stm32_radio_driver/radio.c ****     SubgRf.RxContinuous = rxContinuous;
 4142              		.loc 1 800 5 is_stmt 1 view .LVU1175
 801:Middlewares/Third_Party/SubGHz_Phy/stm32_radio_driver/radio.c ****     RFW_DeInit(); /* ST_WORKAROUND: Switch Off FwPacketDecoding by default */
 4143              		.loc 1 801 5 view .LVU1176
 801:Middlewares/Third_Party/SubGHz_Phy/stm32_radio_driver/radio.c ****     RFW_DeInit(); /* ST_WORKAROUND: Switch Off FwPacketDecoding by default */
 4144              		.loc 1 801 25 is_stmt 0 view .LVU1177
 4145 0022 AF4B     		ldr	r3, .L330
 4146              	.LVL355:
 801:Middlewares/Third_Party/SubGHz_Phy/stm32_radio_driver/radio.c ****     RFW_DeInit(); /* ST_WORKAROUND: Switch Off FwPacketDecoding by default */
 4147              		.loc 1 801 25 view .LVU1178
 4148 0024 83F80180 		strb	r8, [r3, #1]
 802:Middlewares/Third_Party/SubGHz_Phy/stm32_radio_driver/radio.c ****     if( rxContinuous == true )
 4149              		.loc 1 802 5 is_stmt 1 view .LVU1179
 4150 0028 FFF7FEFF 		bl	RFW_DeInit
 4151              	.LVL356:
 803:Middlewares/Third_Party/SubGHz_Phy/stm32_radio_driver/radio.c ****     {
 4152              		.loc 1 803 5 view .LVU1180
 803:Middlewares/Third_Party/SubGHz_Phy/stm32_radio_driver/radio.c ****     {
 4153              		.loc 1 803 7 is_stmt 0 view .LVU1181
 4154 002c B8F1000F 		cmp	r8, #0
 4155 0030 01D0     		beq	.L306
 805:Middlewares/Third_Party/SubGHz_Phy/stm32_radio_driver/radio.c ****     }
 4156              		.loc 1 805 21 view .LVU1182
 4157 0032 4FF0000A 		mov	r10, #0
 4158              	.L306:
 4159              	.LVL357:
 807:Middlewares/Third_Party/SubGHz_Phy/stm32_radio_driver/radio.c ****     {
 4160              		.loc 1 807 5 is_stmt 1 view .LVU1183
 807:Middlewares/Third_Party/SubGHz_Phy/stm32_radio_driver/radio.c ****     {
 4161              		.loc 1 807 7 is_stmt 0 view .LVU1184
 4162 0036 6FB1     		cbz	r7, .L307
 809:Middlewares/Third_Party/SubGHz_Phy/stm32_radio_driver/radio.c ****     }
 4163              		.loc 1 809 9 is_stmt 1 view .LVU1185
 809:Middlewares/Third_Party/SubGHz_Phy/stm32_radio_driver/radio.c ****     }
 4164              		.loc 1 809 26 is_stmt 0 view .LVU1186
 4165 0038 9DF85020 		ldrb	r2, [sp, #80]	@ zero_extendqisi2
 4166 003c A94B     		ldr	r3, .L330+4
 4167 003e 1A70     		strb	r2, [r3]
 4168              	.L308:
 816:Middlewares/Third_Party/SubGHz_Phy/stm32_radio_driver/radio.c ****     {
 4169              		.loc 1 816 5 is_stmt 1 view .LVU1187
 4170 0040 012C     		cmp	r4, #1
 4171 0042 00F0D680 		beq	.L309
 4172 0046 042C     		cmp	r4, #4
 4173 0048 08D0     		beq	.L310
 4174 004a 002C     		cmp	r4, #0
 4175 004c 7CD0     		beq	.L326
 4176              	.LVL358:
 4177              	.L305:
 972:Middlewares/Third_Party/SubGHz_Phy/stm32_radio_driver/radio.c **** 
 4178              		.loc 1 972 1 is_stmt 0 view .LVU1188
 4179 004e 07B0     		add	sp, sp, #28
 4180              	.LCFI53:
 4181              		.cfi_remember_state
 4182              		.cfi_def_cfa_offset 36
 4183              		@ sp needed
ARM GAS  C:\Users\NATHAN~1\AppData\Local\Temp\cc90iGN6.s 			page 128


 4184 0050 BDE8F08F 		pop	{r4, r5, r6, r7, r8, r9, r10, fp, pc}
 4185              	.LVL359:
 4186              	.L307:
 4187              	.LCFI54:
 4188              		.cfi_restore_state
 813:Middlewares/Third_Party/SubGHz_Phy/stm32_radio_driver/radio.c ****     }
 4189              		.loc 1 813 9 is_stmt 1 view .LVU1189
 813:Middlewares/Third_Party/SubGHz_Phy/stm32_radio_driver/radio.c ****     }
 4190              		.loc 1 813 26 is_stmt 0 view .LVU1190
 4191 0054 A34B     		ldr	r3, .L330+4
 4192 0056 FF22     		movs	r2, #255
 4193 0058 1A70     		strb	r2, [r3]
 4194 005a F1E7     		b	.L308
 4195              	.L310:
 4196              	.LBB11:
 819:Middlewares/Third_Party/SubGHz_Phy/stm32_radio_driver/radio.c ****             SubgRf.ModulationParams.PacketType = PACKET_TYPE_GFSK;
 4197              		.loc 1 819 13 is_stmt 1 view .LVU1191
 4198 005c 0120     		movs	r0, #1
 4199 005e FFF7FEFF 		bl	SUBGRF_SetStopRxTimerOnPreambleDetect
 4200              	.LVL360:
 820:Middlewares/Third_Party/SubGHz_Phy/stm32_radio_driver/radio.c **** 
 4201              		.loc 1 820 13 view .LVU1192
 820:Middlewares/Third_Party/SubGHz_Phy/stm32_radio_driver/radio.c **** 
 4202              		.loc 1 820 48 is_stmt 0 view .LVU1193
 4203 0062 9F4C     		ldr	r4, .L330
 4204 0064 0027     		movs	r7, #0
 4205 0066 84F83870 		strb	r7, [r4, #56]
 822:Middlewares/Third_Party/SubGHz_Phy/stm32_radio_driver/radio.c ****             SubgRf.ModulationParams.Params.Gfsk.ModulationShaping = MOD_SHAPING_G_BT_05;
 4206              		.loc 1 822 13 is_stmt 1 view .LVU1194
 822:Middlewares/Third_Party/SubGHz_Phy/stm32_radio_driver/radio.c ****             SubgRf.ModulationParams.Params.Gfsk.ModulationShaping = MOD_SHAPING_G_BT_05;
 4207              		.loc 1 822 57 is_stmt 0 view .LVU1195
 4208 006a E563     		str	r5, [r4, #60]
 823:Middlewares/Third_Party/SubGHz_Phy/stm32_radio_driver/radio.c ****             SubgRf.ModulationParams.Params.Gfsk.Fdev = 800;
 4209              		.loc 1 823 13 is_stmt 1 view .LVU1196
 823:Middlewares/Third_Party/SubGHz_Phy/stm32_radio_driver/radio.c ****             SubgRf.ModulationParams.Params.Gfsk.Fdev = 800;
 4210              		.loc 1 823 67 is_stmt 0 view .LVU1197
 4211 006c 0923     		movs	r3, #9
 4212 006e 84F84430 		strb	r3, [r4, #68]
 824:Middlewares/Third_Party/SubGHz_Phy/stm32_radio_driver/radio.c ****             SubgRf.ModulationParams.Params.Gfsk.Bandwidth = SUBGRF_GetFskBandwidthRegValue( bandwid
 4213              		.loc 1 824 13 is_stmt 1 view .LVU1198
 824:Middlewares/Third_Party/SubGHz_Phy/stm32_radio_driver/radio.c ****             SubgRf.ModulationParams.Params.Gfsk.Bandwidth = SUBGRF_GetFskBandwidthRegValue( bandwid
 4214              		.loc 1 824 54 is_stmt 0 view .LVU1199
 4215 0072 4FF44873 		mov	r3, #800
 4216 0076 2364     		str	r3, [r4, #64]
 825:Middlewares/Third_Party/SubGHz_Phy/stm32_radio_driver/radio.c **** 
 4217              		.loc 1 825 13 is_stmt 1 view .LVU1200
 825:Middlewares/Third_Party/SubGHz_Phy/stm32_radio_driver/radio.c **** 
 4218              		.loc 1 825 61 is_stmt 0 view .LVU1201
 4219 0078 3046     		mov	r0, r6
 4220 007a FFF7FEFF 		bl	SUBGRF_GetFskBandwidthRegValue
 4221              	.LVL361:
 825:Middlewares/Third_Party/SubGHz_Phy/stm32_radio_driver/radio.c **** 
 4222              		.loc 1 825 59 view .LVU1202
 4223 007e 84F84500 		strb	r0, [r4, #69]
 827:Middlewares/Third_Party/SubGHz_Phy/stm32_radio_driver/radio.c ****             SubgRf.PacketParams.Params.Gfsk.PreambleLength = ( preambleLen << 3 ); // convert byte 
 4224              		.loc 1 827 13 is_stmt 1 view .LVU1203
 827:Middlewares/Third_Party/SubGHz_Phy/stm32_radio_driver/radio.c ****             SubgRf.PacketParams.Params.Gfsk.PreambleLength = ( preambleLen << 3 ); // convert byte 
ARM GAS  C:\Users\NATHAN~1\AppData\Local\Temp\cc90iGN6.s 			page 129


 4225              		.loc 1 827 44 is_stmt 0 view .LVU1204
 4226 0082 A773     		strb	r7, [r4, #14]
 828:Middlewares/Third_Party/SubGHz_Phy/stm32_radio_driver/radio.c ****             SubgRf.PacketParams.Params.Gfsk.PreambleMinDetect = RADIO_PREAMBLE_DETECTOR_OFF;
 4227              		.loc 1 828 13 is_stmt 1 view .LVU1205
 828:Middlewares/Third_Party/SubGHz_Phy/stm32_radio_driver/radio.c ****             SubgRf.PacketParams.Params.Gfsk.PreambleMinDetect = RADIO_PREAMBLE_DETECTOR_OFF;
 4228              		.loc 1 828 76 is_stmt 0 view .LVU1206
 4229 0084 4FEAC909 		lsl	r9, r9, #3
 828:Middlewares/Third_Party/SubGHz_Phy/stm32_radio_driver/radio.c ****             SubgRf.PacketParams.Params.Gfsk.PreambleMinDetect = RADIO_PREAMBLE_DETECTOR_OFF;
 4230              		.loc 1 828 60 view .LVU1207
 4231 0088 A4F81090 		strh	r9, [r4, #16]	@ movhi
 829:Middlewares/Third_Party/SubGHz_Phy/stm32_radio_driver/radio.c ****             SubgRf.PacketParams.Params.Gfsk.SyncWordLength = 2 << 3; // convert byte into bit
 4232              		.loc 1 829 13 is_stmt 1 view .LVU1208
 829:Middlewares/Third_Party/SubGHz_Phy/stm32_radio_driver/radio.c ****             SubgRf.PacketParams.Params.Gfsk.SyncWordLength = 2 << 3; // convert byte into bit
 4233              		.loc 1 829 63 is_stmt 0 view .LVU1209
 4234 008c A774     		strb	r7, [r4, #18]
 830:Middlewares/Third_Party/SubGHz_Phy/stm32_radio_driver/radio.c ****             SubgRf.PacketParams.Params.Gfsk.AddrComp = RADIO_ADDRESSCOMP_FILT_OFF;
 4235              		.loc 1 830 13 is_stmt 1 view .LVU1210
 830:Middlewares/Third_Party/SubGHz_Phy/stm32_radio_driver/radio.c ****             SubgRf.PacketParams.Params.Gfsk.AddrComp = RADIO_ADDRESSCOMP_FILT_OFF;
 4236              		.loc 1 830 60 is_stmt 0 view .LVU1211
 4237 008e 1023     		movs	r3, #16
 4238 0090 E374     		strb	r3, [r4, #19]
 831:Middlewares/Third_Party/SubGHz_Phy/stm32_radio_driver/radio.c ****             SubgRf.PacketParams.Params.Gfsk.HeaderType = RADIO_PACKET_FIXED_LENGTH;
 4239              		.loc 1 831 13 is_stmt 1 view .LVU1212
 831:Middlewares/Third_Party/SubGHz_Phy/stm32_radio_driver/radio.c ****             SubgRf.PacketParams.Params.Gfsk.HeaderType = RADIO_PACKET_FIXED_LENGTH;
 4240              		.loc 1 831 54 is_stmt 0 view .LVU1213
 4241 0092 2775     		strb	r7, [r4, #20]
 832:Middlewares/Third_Party/SubGHz_Phy/stm32_radio_driver/radio.c ****             SubgRf.PacketParams.Params.Gfsk.PayloadLength = MaxPayloadLength;
 4242              		.loc 1 832 13 is_stmt 1 view .LVU1214
 832:Middlewares/Third_Party/SubGHz_Phy/stm32_radio_driver/radio.c ****             SubgRf.PacketParams.Params.Gfsk.PayloadLength = MaxPayloadLength;
 4243              		.loc 1 832 56 is_stmt 0 view .LVU1215
 4244 0094 6775     		strb	r7, [r4, #21]
 833:Middlewares/Third_Party/SubGHz_Phy/stm32_radio_driver/radio.c ****             SubgRf.PacketParams.Params.Gfsk.CrcLength = RADIO_CRC_OFF;
 4245              		.loc 1 833 13 is_stmt 1 view .LVU1216
 833:Middlewares/Third_Party/SubGHz_Phy/stm32_radio_driver/radio.c ****             SubgRf.PacketParams.Params.Gfsk.CrcLength = RADIO_CRC_OFF;
 4246              		.loc 1 833 59 is_stmt 0 view .LVU1217
 4247 0096 934B     		ldr	r3, .L330+4
 4248 0098 1B78     		ldrb	r3, [r3]	@ zero_extendqisi2
 4249 009a A375     		strb	r3, [r4, #22]
 834:Middlewares/Third_Party/SubGHz_Phy/stm32_radio_driver/radio.c **** 
 4250              		.loc 1 834 13 is_stmt 1 view .LVU1218
 834:Middlewares/Third_Party/SubGHz_Phy/stm32_radio_driver/radio.c **** 
 4251              		.loc 1 834 55 is_stmt 0 view .LVU1219
 4252 009c 0123     		movs	r3, #1
 4253 009e E375     		strb	r3, [r4, #23]
 836:Middlewares/Third_Party/SubGHz_Phy/stm32_radio_driver/radio.c **** 
 4254              		.loc 1 836 13 is_stmt 1 view .LVU1220
 836:Middlewares/Third_Party/SubGHz_Phy/stm32_radio_driver/radio.c **** 
 4255              		.loc 1 836 52 is_stmt 0 view .LVU1221
 4256 00a0 2776     		strb	r7, [r4, #24]
 838:Middlewares/Third_Party/SubGHz_Phy/stm32_radio_driver/radio.c ****             SUBGRF_SetModulationParams( &SubgRf.ModulationParams );
 4257              		.loc 1 838 13 is_stmt 1 view .LVU1222
 4258 00a2 0420     		movs	r0, #4
 4259 00a4 FFF7FEFF 		bl	RadioSetModem
 4260              	.LVL362:
 839:Middlewares/Third_Party/SubGHz_Phy/stm32_radio_driver/radio.c ****             SUBGRF_SetPacketParams( &SubgRf.PacketParams );
 4261              		.loc 1 839 13 view .LVU1223
 4262 00a8 04F13800 		add	r0, r4, #56
ARM GAS  C:\Users\NATHAN~1\AppData\Local\Temp\cc90iGN6.s 			page 130


 4263 00ac FFF7FEFF 		bl	SUBGRF_SetModulationParams
 4264              	.LVL363:
 840:Middlewares/Third_Party/SubGHz_Phy/stm32_radio_driver/radio.c ****             SUBGRF_SetSyncWord( ( uint8_t[] ){0xB2, 0x27, 0x00, 0x00, 0x00, 0x00, 0x00, 0x00 } );
 4265              		.loc 1 840 13 view .LVU1224
 4266 00b0 04F10E00 		add	r0, r4, #14
 4267 00b4 FFF7FEFF 		bl	SUBGRF_SetPacketParams
 4268              	.LVL364:
 841:Middlewares/Third_Party/SubGHz_Phy/stm32_radio_driver/radio.c ****             SUBGRF_SetWhiteningSeed( 0x01FF );
 4269              		.loc 1 841 13 view .LVU1225
 841:Middlewares/Third_Party/SubGHz_Phy/stm32_radio_driver/radio.c ****             SUBGRF_SetWhiteningSeed( 0x01FF );
 4270              		.loc 1 841 46 is_stmt 0 view .LVU1226
 4271 00b8 02AB     		add	r3, sp, #8
 4272 00ba 8B4A     		ldr	r2, .L330+8
 4273 00bc 92E80300 		ldm	r2, {r0, r1}
 4274 00c0 83E80300 		stm	r3, {r0, r1}
 841:Middlewares/Third_Party/SubGHz_Phy/stm32_radio_driver/radio.c ****             SUBGRF_SetWhiteningSeed( 0x01FF );
 4275              		.loc 1 841 13 view .LVU1227
 4276 00c4 1846     		mov	r0, r3
 4277 00c6 FFF7FEFF 		bl	SUBGRF_SetSyncWord
 4278              	.LVL365:
 842:Middlewares/Third_Party/SubGHz_Phy/stm32_radio_driver/radio.c **** 
 4279              		.loc 1 842 13 is_stmt 1 view .LVU1228
 4280 00ca 40F2FF10 		movw	r0, #511
 4281 00ce FFF7FEFF 		bl	SUBGRF_SetWhiteningSeed
 4282              	.LVL366:
 845:Middlewares/Third_Party/SubGHz_Phy/stm32_radio_driver/radio.c ****             modReg&=RADIO_BIT_MASK(4);
 4283              		.loc 1 845 13 view .LVU1229
 845:Middlewares/Third_Party/SubGHz_Phy/stm32_radio_driver/radio.c ****             modReg&=RADIO_BIT_MASK(4);
 4284              		.loc 1 845 21 is_stmt 0 view .LVU1230
 4285 00d2 40F6B800 		movw	r0, #2232
 4286 00d6 FFF7FEFF 		bl	RadioRead
 4287              	.LVL367:
 846:Middlewares/Third_Party/SubGHz_Phy/stm32_radio_driver/radio.c ****             RadioWrite(0x8b8, modReg);
 4288              		.loc 1 846 13 is_stmt 1 view .LVU1231
 847:Middlewares/Third_Party/SubGHz_Phy/stm32_radio_driver/radio.c ****             /* Lower the threshold of cfo_reset */
 4289              		.loc 1 847 13 view .LVU1232
 4290 00da 00F0EF01 		and	r1, r0, #239
 4291 00de 40F6B800 		movw	r0, #2232
 4292              	.LVL368:
 847:Middlewares/Third_Party/SubGHz_Phy/stm32_radio_driver/radio.c ****             /* Lower the threshold of cfo_reset */
 4293              		.loc 1 847 13 is_stmt 0 view .LVU1233
 4294 00e2 FFF7FEFF 		bl	RadioWrite
 4295              	.LVL369:
 849:Middlewares/Third_Party/SubGHz_Phy/stm32_radio_driver/radio.c **** 
 4296              		.loc 1 849 13 is_stmt 1 view .LVU1234
 4297 00e6 0421     		movs	r1, #4
 4298 00e8 40F6B900 		movw	r0, #2233
 4299 00ec FFF7FEFF 		bl	RadioWrite
 4300              	.LVL370:
 852:Middlewares/Third_Party/SubGHz_Phy/stm32_radio_driver/radio.c ****             modReg&=( RADIO_BIT_MASK(2) & RADIO_BIT_MASK(3) & RADIO_BIT_MASK(4) );
 4301              		.loc 1 852 13 view .LVU1235
 852:Middlewares/Third_Party/SubGHz_Phy/stm32_radio_driver/radio.c ****             modReg&=( RADIO_BIT_MASK(2) & RADIO_BIT_MASK(3) & RADIO_BIT_MASK(4) );
 4302              		.loc 1 852 21 is_stmt 0 view .LVU1236
 4303 00f0 40F69B00 		movw	r0, #2203
 4304 00f4 FFF7FEFF 		bl	RadioRead
 4305              	.LVL371:
 853:Middlewares/Third_Party/SubGHz_Phy/stm32_radio_driver/radio.c ****             RadioWrite(0x89b, (modReg| (0x1<<3) ) );
ARM GAS  C:\Users\NATHAN~1\AppData\Local\Temp\cc90iGN6.s 			page 131


 4306              		.loc 1 853 13 is_stmt 1 view .LVU1237
 853:Middlewares/Third_Party/SubGHz_Phy/stm32_radio_driver/radio.c ****             RadioWrite(0x89b, (modReg| (0x1<<3) ) );
 4307              		.loc 1 853 19 is_stmt 0 view .LVU1238
 4308 00f8 00F0E301 		and	r1, r0, #227
 4309              	.LVL372:
 854:Middlewares/Third_Party/SubGHz_Phy/stm32_radio_driver/radio.c **** 
 4310              		.loc 1 854 13 is_stmt 1 view .LVU1239
 4311 00fc 41F00801 		orr	r1, r1, #8
 4312              	.LVL373:
 854:Middlewares/Third_Party/SubGHz_Phy/stm32_radio_driver/radio.c **** 
 4313              		.loc 1 854 13 is_stmt 0 view .LVU1240
 4314 0100 40F69B00 		movw	r0, #2203
 4315              	.LVL374:
 854:Middlewares/Third_Party/SubGHz_Phy/stm32_radio_driver/radio.c **** 
 4316              		.loc 1 854 13 view .LVU1241
 4317 0104 FFF7FEFF 		bl	RadioWrite
 4318              	.LVL375:
 857:Middlewares/Third_Party/SubGHz_Phy/stm32_radio_driver/radio.c ****             modReg&=( RADIO_BIT_MASK(3) & RADIO_BIT_MASK(4) );
 4319              		.loc 1 857 13 is_stmt 1 view .LVU1242
 857:Middlewares/Third_Party/SubGHz_Phy/stm32_radio_driver/radio.c ****             modReg&=( RADIO_BIT_MASK(3) & RADIO_BIT_MASK(4) );
 4320              		.loc 1 857 21 is_stmt 0 view .LVU1243
 4321 0108 40F2D160 		movw	r0, #1745
 4322 010c FFF7FEFF 		bl	RadioRead
 4323              	.LVL376:
 858:Middlewares/Third_Party/SubGHz_Phy/stm32_radio_driver/radio.c ****             RadioWrite(0x6d1, (modReg| (0x3<<3) ));
 4324              		.loc 1 858 13 is_stmt 1 view .LVU1244
 858:Middlewares/Third_Party/SubGHz_Phy/stm32_radio_driver/radio.c ****             RadioWrite(0x6d1, (modReg| (0x3<<3) ));
 4325              		.loc 1 858 19 is_stmt 0 view .LVU1245
 4326 0110 00F0E701 		and	r1, r0, #231
 4327              	.LVL377:
 859:Middlewares/Third_Party/SubGHz_Phy/stm32_radio_driver/radio.c **** 
 4328              		.loc 1 859 13 is_stmt 1 view .LVU1246
 4329 0114 41F01801 		orr	r1, r1, #24
 4330              	.LVL378:
 859:Middlewares/Third_Party/SubGHz_Phy/stm32_radio_driver/radio.c **** 
 4331              		.loc 1 859 13 is_stmt 0 view .LVU1247
 4332 0118 40F2D160 		movw	r0, #1745
 4333              	.LVL379:
 859:Middlewares/Third_Party/SubGHz_Phy/stm32_radio_driver/radio.c **** 
 4334              		.loc 1 859 13 view .LVU1248
 4335 011c FFF7FEFF 		bl	RadioWrite
 4336              	.LVL380:
 862:Middlewares/Third_Party/SubGHz_Phy/stm32_radio_driver/radio.c ****             modReg&=( RADIO_BIT_MASK(4) & RADIO_BIT_MASK(5) & RADIO_BIT_MASK(6) );
 4337              		.loc 1 862 13 is_stmt 1 view .LVU1249
 862:Middlewares/Third_Party/SubGHz_Phy/stm32_radio_driver/radio.c ****             modReg&=( RADIO_BIT_MASK(4) & RADIO_BIT_MASK(5) & RADIO_BIT_MASK(6) );
 4338              		.loc 1 862 21 is_stmt 0 view .LVU1250
 4339 0120 40F2AC60 		movw	r0, #1708
 4340 0124 FFF7FEFF 		bl	RadioRead
 4341              	.LVL381:
 863:Middlewares/Third_Party/SubGHz_Phy/stm32_radio_driver/radio.c ****             RadioWrite(0x6ac, (modReg| (0x5<<4) ));
 4342              		.loc 1 863 13 is_stmt 1 view .LVU1251
 863:Middlewares/Third_Party/SubGHz_Phy/stm32_radio_driver/radio.c ****             RadioWrite(0x6ac, (modReg| (0x5<<4) ));
 4343              		.loc 1 863 19 is_stmt 0 view .LVU1252
 4344 0128 00F08F01 		and	r1, r0, #143
 4345              	.LVL382:
 864:Middlewares/Third_Party/SubGHz_Phy/stm32_radio_driver/radio.c ****             /*timeout unused when SubgRf.RxContinuous*/
 4346              		.loc 1 864 13 is_stmt 1 view .LVU1253
ARM GAS  C:\Users\NATHAN~1\AppData\Local\Temp\cc90iGN6.s 			page 132


 4347 012c 41F05001 		orr	r1, r1, #80
 4348              	.LVL383:
 864:Middlewares/Third_Party/SubGHz_Phy/stm32_radio_driver/radio.c ****             /*timeout unused when SubgRf.RxContinuous*/
 4349              		.loc 1 864 13 is_stmt 0 view .LVU1254
 4350 0130 40F2AC60 		movw	r0, #1708
 4351              	.LVL384:
 864:Middlewares/Third_Party/SubGHz_Phy/stm32_radio_driver/radio.c ****             /*timeout unused when SubgRf.RxContinuous*/
 4352              		.loc 1 864 13 view .LVU1255
 4353 0134 FFF7FEFF 		bl	RadioWrite
 4354              	.LVL385:
 866:Middlewares/Third_Party/SubGHz_Phy/stm32_radio_driver/radio.c ****             break;
 4355              		.loc 1 866 13 is_stmt 1 view .LVU1256
 866:Middlewares/Third_Party/SubGHz_Phy/stm32_radio_driver/radio.c ****             break;
 4356              		.loc 1 866 63 is_stmt 0 view .LVU1257
 4357 0138 4FF4FA53 		mov	r3, #8000
 4358 013c 03FB0AFA 		mul	r10, r3, r10
 4359              	.LVL386:
 866:Middlewares/Third_Party/SubGHz_Phy/stm32_radio_driver/radio.c ****             break;
 4360              		.loc 1 866 32 view .LVU1258
 4361 0140 BAFBF5F5 		udiv	r5, r10, r5
 4362              	.LVL387:
 866:Middlewares/Third_Party/SubGHz_Phy/stm32_radio_driver/radio.c ****             break;
 4363              		.loc 1 866 30 view .LVU1259
 4364 0144 A560     		str	r5, [r4, #8]
 867:Middlewares/Third_Party/SubGHz_Phy/stm32_radio_driver/radio.c ****         case MODEM_FSK:
 4365              		.loc 1 867 13 is_stmt 1 view .LVU1260
 4366 0146 82E7     		b	.L305
 4367              	.LVL388:
 4368              	.L326:
 869:Middlewares/Third_Party/SubGHz_Phy/stm32_radio_driver/radio.c ****             SubgRf.ModulationParams.PacketType = PACKET_TYPE_GFSK;
 4369              		.loc 1 869 13 view .LVU1261
 4370 0148 0020     		movs	r0, #0
 4371 014a FFF7FEFF 		bl	SUBGRF_SetStopRxTimerOnPreambleDetect
 4372              	.LVL389:
 870:Middlewares/Third_Party/SubGHz_Phy/stm32_radio_driver/radio.c **** 
 4373              		.loc 1 870 13 view .LVU1262
 870:Middlewares/Third_Party/SubGHz_Phy/stm32_radio_driver/radio.c **** 
 4374              		.loc 1 870 48 is_stmt 0 view .LVU1263
 4375 014e 644C     		ldr	r4, .L330
 4376 0150 4FF00008 		mov	r8, #0
 4377 0154 84F83880 		strb	r8, [r4, #56]
 872:Middlewares/Third_Party/SubGHz_Phy/stm32_radio_driver/radio.c ****             SubgRf.ModulationParams.Params.Gfsk.ModulationShaping = MOD_SHAPING_G_BT_1;
 4378              		.loc 1 872 13 is_stmt 1 view .LVU1264
 872:Middlewares/Third_Party/SubGHz_Phy/stm32_radio_driver/radio.c ****             SubgRf.ModulationParams.Params.Gfsk.ModulationShaping = MOD_SHAPING_G_BT_1;
 4379              		.loc 1 872 57 is_stmt 0 view .LVU1265
 4380 0158 E563     		str	r5, [r4, #60]
 873:Middlewares/Third_Party/SubGHz_Phy/stm32_radio_driver/radio.c ****             SubgRf.ModulationParams.Params.Gfsk.Bandwidth = SUBGRF_GetFskBandwidthRegValue( bandwid
 4381              		.loc 1 873 13 is_stmt 1 view .LVU1266
 873:Middlewares/Third_Party/SubGHz_Phy/stm32_radio_driver/radio.c ****             SubgRf.ModulationParams.Params.Gfsk.Bandwidth = SUBGRF_GetFskBandwidthRegValue( bandwid
 4382              		.loc 1 873 67 is_stmt 0 view .LVU1267
 4383 015a 0B23     		movs	r3, #11
 4384 015c 84F84430 		strb	r3, [r4, #68]
 874:Middlewares/Third_Party/SubGHz_Phy/stm32_radio_driver/radio.c **** 
 4385              		.loc 1 874 13 is_stmt 1 view .LVU1268
 874:Middlewares/Third_Party/SubGHz_Phy/stm32_radio_driver/radio.c **** 
 4386              		.loc 1 874 61 is_stmt 0 view .LVU1269
 4387 0160 3046     		mov	r0, r6
ARM GAS  C:\Users\NATHAN~1\AppData\Local\Temp\cc90iGN6.s 			page 133


 4388 0162 FFF7FEFF 		bl	SUBGRF_GetFskBandwidthRegValue
 4389              	.LVL390:
 874:Middlewares/Third_Party/SubGHz_Phy/stm32_radio_driver/radio.c **** 
 4390              		.loc 1 874 59 view .LVU1270
 4391 0166 84F84500 		strb	r0, [r4, #69]
 876:Middlewares/Third_Party/SubGHz_Phy/stm32_radio_driver/radio.c ****             SubgRf.PacketParams.Params.Gfsk.PreambleLength = ( preambleLen << 3 ); // convert byte 
 4392              		.loc 1 876 13 is_stmt 1 view .LVU1271
 876:Middlewares/Third_Party/SubGHz_Phy/stm32_radio_driver/radio.c ****             SubgRf.PacketParams.Params.Gfsk.PreambleLength = ( preambleLen << 3 ); // convert byte 
 4393              		.loc 1 876 44 is_stmt 0 view .LVU1272
 4394 016a 84F80E80 		strb	r8, [r4, #14]
 877:Middlewares/Third_Party/SubGHz_Phy/stm32_radio_driver/radio.c ****             SubgRf.PacketParams.Params.Gfsk.PreambleMinDetect = RADIO_PREAMBLE_DETECTOR_08_BITS;
 4395              		.loc 1 877 13 is_stmt 1 view .LVU1273
 877:Middlewares/Third_Party/SubGHz_Phy/stm32_radio_driver/radio.c ****             SubgRf.PacketParams.Params.Gfsk.PreambleMinDetect = RADIO_PREAMBLE_DETECTOR_08_BITS;
 4396              		.loc 1 877 76 is_stmt 0 view .LVU1274
 4397 016e 4FEAC909 		lsl	r9, r9, #3
 877:Middlewares/Third_Party/SubGHz_Phy/stm32_radio_driver/radio.c ****             SubgRf.PacketParams.Params.Gfsk.PreambleMinDetect = RADIO_PREAMBLE_DETECTOR_08_BITS;
 4398              		.loc 1 877 60 view .LVU1275
 4399 0172 A4F81090 		strh	r9, [r4, #16]	@ movhi
 878:Middlewares/Third_Party/SubGHz_Phy/stm32_radio_driver/radio.c ****             SubgRf.PacketParams.Params.Gfsk.SyncWordLength = 3 << 3; // convert byte into bit
 4400              		.loc 1 878 13 is_stmt 1 view .LVU1276
 878:Middlewares/Third_Party/SubGHz_Phy/stm32_radio_driver/radio.c ****             SubgRf.PacketParams.Params.Gfsk.SyncWordLength = 3 << 3; // convert byte into bit
 4401              		.loc 1 878 63 is_stmt 0 view .LVU1277
 4402 0176 0423     		movs	r3, #4
 4403 0178 A374     		strb	r3, [r4, #18]
 879:Middlewares/Third_Party/SubGHz_Phy/stm32_radio_driver/radio.c ****             SubgRf.PacketParams.Params.Gfsk.AddrComp = RADIO_ADDRESSCOMP_FILT_OFF;
 4404              		.loc 1 879 13 is_stmt 1 view .LVU1278
 879:Middlewares/Third_Party/SubGHz_Phy/stm32_radio_driver/radio.c ****             SubgRf.PacketParams.Params.Gfsk.AddrComp = RADIO_ADDRESSCOMP_FILT_OFF;
 4405              		.loc 1 879 60 is_stmt 0 view .LVU1279
 4406 017a 1823     		movs	r3, #24
 4407 017c E374     		strb	r3, [r4, #19]
 880:Middlewares/Third_Party/SubGHz_Phy/stm32_radio_driver/radio.c ****             SubgRf.PacketParams.Params.Gfsk.HeaderType = ( fixLen == true ) ? RADIO_PACKET_FIXED_LE
 4408              		.loc 1 880 13 is_stmt 1 view .LVU1280
 880:Middlewares/Third_Party/SubGHz_Phy/stm32_radio_driver/radio.c ****             SubgRf.PacketParams.Params.Gfsk.HeaderType = ( fixLen == true ) ? RADIO_PACKET_FIXED_LE
 4409              		.loc 1 880 54 is_stmt 0 view .LVU1281
 4410 017e 84F81480 		strb	r8, [r4, #20]
 881:Middlewares/Third_Party/SubGHz_Phy/stm32_radio_driver/radio.c ****             SubgRf.PacketParams.Params.Gfsk.PayloadLength = MaxPayloadLength;
 4411              		.loc 1 881 13 is_stmt 1 view .LVU1282
 881:Middlewares/Third_Party/SubGHz_Phy/stm32_radio_driver/radio.c ****             SubgRf.PacketParams.Params.Gfsk.PayloadLength = MaxPayloadLength;
 4412              		.loc 1 881 105 is_stmt 0 view .LVU1283
 4413 0182 87F00107 		eor	r7, r7, #1
 881:Middlewares/Third_Party/SubGHz_Phy/stm32_radio_driver/radio.c ****             SubgRf.PacketParams.Params.Gfsk.PayloadLength = MaxPayloadLength;
 4414              		.loc 1 881 56 view .LVU1284
 4415 0186 6775     		strb	r7, [r4, #21]
 882:Middlewares/Third_Party/SubGHz_Phy/stm32_radio_driver/radio.c ****             if( crcOn == true )
 4416              		.loc 1 882 13 is_stmt 1 view .LVU1285
 882:Middlewares/Third_Party/SubGHz_Phy/stm32_radio_driver/radio.c ****             if( crcOn == true )
 4417              		.loc 1 882 59 is_stmt 0 view .LVU1286
 4418 0188 564B     		ldr	r3, .L330+4
 4419 018a 1B78     		ldrb	r3, [r3]	@ zero_extendqisi2
 4420 018c A375     		strb	r3, [r4, #22]
 883:Middlewares/Third_Party/SubGHz_Phy/stm32_radio_driver/radio.c ****             {
 4421              		.loc 1 883 13 is_stmt 1 view .LVU1287
 883:Middlewares/Third_Party/SubGHz_Phy/stm32_radio_driver/radio.c ****             {
 4422              		.loc 1 883 15 is_stmt 0 view .LVU1288
 4423 018e BBF1000F 		cmp	fp, #0
 4424 0192 2AD0     		beq	.L313
 885:Middlewares/Third_Party/SubGHz_Phy/stm32_radio_driver/radio.c ****             }
ARM GAS  C:\Users\NATHAN~1\AppData\Local\Temp\cc90iGN6.s 			page 134


 4425              		.loc 1 885 17 is_stmt 1 view .LVU1289
 885:Middlewares/Third_Party/SubGHz_Phy/stm32_radio_driver/radio.c ****             }
 4426              		.loc 1 885 59 is_stmt 0 view .LVU1290
 4427 0194 F222     		movs	r2, #242
 4428 0196 E275     		strb	r2, [r4, #23]
 4429              	.L314:
 891:Middlewares/Third_Party/SubGHz_Phy/stm32_radio_driver/radio.c **** 
 4430              		.loc 1 891 13 is_stmt 1 view .LVU1291
 891:Middlewares/Third_Party/SubGHz_Phy/stm32_radio_driver/radio.c **** 
 4431              		.loc 1 891 52 is_stmt 0 view .LVU1292
 4432 0198 514C     		ldr	r4, .L330
 4433 019a 0123     		movs	r3, #1
 4434 019c 2376     		strb	r3, [r4, #24]
 893:Middlewares/Third_Party/SubGHz_Phy/stm32_radio_driver/radio.c ****             RadioSetModem( ( SubgRf.ModulationParams.PacketType == PACKET_TYPE_GFSK ) ? MODEM_FSK :
 4435              		.loc 1 893 13 is_stmt 1 view .LVU1293
 4436 019e FFF7FEFF 		bl	RadioStandby
 4437              	.LVL391:
 894:Middlewares/Third_Party/SubGHz_Phy/stm32_radio_driver/radio.c ****             SUBGRF_SetModulationParams( &SubgRf.ModulationParams );
 4438              		.loc 1 894 13 view .LVU1294
 894:Middlewares/Third_Party/SubGHz_Phy/stm32_radio_driver/radio.c ****             SUBGRF_SetModulationParams( &SubgRf.ModulationParams );
 4439              		.loc 1 894 53 is_stmt 0 view .LVU1295
 4440 01a2 2646     		mov	r6, r4
 4441              	.LVL392:
 894:Middlewares/Third_Party/SubGHz_Phy/stm32_radio_driver/radio.c ****             SUBGRF_SetModulationParams( &SubgRf.ModulationParams );
 4442              		.loc 1 894 53 view .LVU1296
 4443 01a4 16F8380F 		ldrb	r0, [r6, #56]!	@ zero_extendqisi2
 894:Middlewares/Third_Party/SubGHz_Phy/stm32_radio_driver/radio.c ****             SUBGRF_SetModulationParams( &SubgRf.ModulationParams );
 4444              		.loc 1 894 13 view .LVU1297
 4445 01a8 0038     		subs	r0, r0, #0
 4446 01aa 18BF     		it	ne
 4447 01ac 0120     		movne	r0, #1
 4448 01ae FFF7FEFF 		bl	RadioSetModem
 4449              	.LVL393:
 895:Middlewares/Third_Party/SubGHz_Phy/stm32_radio_driver/radio.c ****             SUBGRF_SetPacketParams( &SubgRf.PacketParams );
 4450              		.loc 1 895 13 is_stmt 1 view .LVU1298
 4451 01b2 3046     		mov	r0, r6
 4452 01b4 FFF7FEFF 		bl	SUBGRF_SetModulationParams
 4453              	.LVL394:
 896:Middlewares/Third_Party/SubGHz_Phy/stm32_radio_driver/radio.c ****             SUBGRF_SetSyncWord( ( uint8_t[] ){ 0xC1, 0x94, 0xC1, 0x00, 0x00, 0x00, 0x00, 0x00 } );
 4454              		.loc 1 896 13 view .LVU1299
 4455 01b8 04F10E00 		add	r0, r4, #14
 4456 01bc FFF7FEFF 		bl	SUBGRF_SetPacketParams
 4457              	.LVL395:
 897:Middlewares/Third_Party/SubGHz_Phy/stm32_radio_driver/radio.c ****             SUBGRF_SetWhiteningSeed( 0x01FF );
 4458              		.loc 1 897 13 view .LVU1300
 897:Middlewares/Third_Party/SubGHz_Phy/stm32_radio_driver/radio.c ****             SUBGRF_SetWhiteningSeed( 0x01FF );
 4459              		.loc 1 897 46 is_stmt 0 view .LVU1301
 4460 01c0 4A4A     		ldr	r2, .L330+12
 4461 01c2 04AB     		add	r3, sp, #16
 4462 01c4 92E80300 		ldm	r2, {r0, r1}
 4463 01c8 83E80300 		stm	r3, {r0, r1}
 897:Middlewares/Third_Party/SubGHz_Phy/stm32_radio_driver/radio.c ****             SUBGRF_SetWhiteningSeed( 0x01FF );
 4464              		.loc 1 897 13 view .LVU1302
 4465 01cc 1846     		mov	r0, r3
 4466 01ce FFF7FEFF 		bl	SUBGRF_SetSyncWord
 4467              	.LVL396:
 898:Middlewares/Third_Party/SubGHz_Phy/stm32_radio_driver/radio.c **** 
ARM GAS  C:\Users\NATHAN~1\AppData\Local\Temp\cc90iGN6.s 			page 135


 4468              		.loc 1 898 13 is_stmt 1 view .LVU1303
 4469 01d2 40F2FF10 		movw	r0, #511
 4470 01d6 FFF7FEFF 		bl	SUBGRF_SetWhiteningSeed
 4471              	.LVL397:
 901:Middlewares/Third_Party/SubGHz_Phy/stm32_radio_driver/radio.c ****             break;
 4472              		.loc 1 901 13 view .LVU1304
 901:Middlewares/Third_Party/SubGHz_Phy/stm32_radio_driver/radio.c ****             break;
 4473              		.loc 1 901 63 is_stmt 0 view .LVU1305
 4474 01da 4FF4FA53 		mov	r3, #8000
 4475 01de 03FB0AFA 		mul	r10, r3, r10
 4476              	.LVL398:
 901:Middlewares/Third_Party/SubGHz_Phy/stm32_radio_driver/radio.c ****             break;
 4477              		.loc 1 901 32 view .LVU1306
 4478 01e2 BAFBF5F5 		udiv	r5, r10, r5
 4479              	.LVL399:
 901:Middlewares/Third_Party/SubGHz_Phy/stm32_radio_driver/radio.c ****             break;
 4480              		.loc 1 901 30 view .LVU1307
 4481 01e6 A560     		str	r5, [r4, #8]
 902:Middlewares/Third_Party/SubGHz_Phy/stm32_radio_driver/radio.c **** 
 4482              		.loc 1 902 13 is_stmt 1 view .LVU1308
 4483 01e8 31E7     		b	.L305
 4484              	.LVL400:
 4485              	.L313:
 889:Middlewares/Third_Party/SubGHz_Phy/stm32_radio_driver/radio.c ****             }
 4486              		.loc 1 889 17 view .LVU1309
 889:Middlewares/Third_Party/SubGHz_Phy/stm32_radio_driver/radio.c ****             }
 4487              		.loc 1 889 59 is_stmt 0 view .LVU1310
 4488 01ea 3D4B     		ldr	r3, .L330
 4489 01ec 0122     		movs	r2, #1
 4490 01ee DA75     		strb	r2, [r3, #23]
 4491 01f0 D2E7     		b	.L314
 4492              	.L309:
 905:Middlewares/Third_Party/SubGHz_Phy/stm32_radio_driver/radio.c ****             SubgRf.ModulationParams.PacketType = PACKET_TYPE_LORA;
 4493              		.loc 1 905 13 is_stmt 1 view .LVU1311
 4494 01f2 0020     		movs	r0, #0
 4495 01f4 FFF7FEFF 		bl	SUBGRF_SetStopRxTimerOnPreambleDetect
 4496              	.LVL401:
 906:Middlewares/Third_Party/SubGHz_Phy/stm32_radio_driver/radio.c ****             SubgRf.ModulationParams.Params.LoRa.SpreadingFactor = ( RadioLoRaSpreadingFactors_t )da
 4497              		.loc 1 906 13 view .LVU1312
 906:Middlewares/Third_Party/SubGHz_Phy/stm32_radio_driver/radio.c ****             SubgRf.ModulationParams.Params.LoRa.SpreadingFactor = ( RadioLoRaSpreadingFactors_t )da
 4498              		.loc 1 906 48 is_stmt 0 view .LVU1313
 4499 01f8 394A     		ldr	r2, .L330
 4500 01fa 0123     		movs	r3, #1
 4501 01fc 82F83830 		strb	r3, [r2, #56]
 907:Middlewares/Third_Party/SubGHz_Phy/stm32_radio_driver/radio.c ****             SubgRf.ModulationParams.Params.LoRa.Bandwidth = Bandwidths[bandwidth];
 4502              		.loc 1 907 13 is_stmt 1 view .LVU1314
 907:Middlewares/Third_Party/SubGHz_Phy/stm32_radio_driver/radio.c ****             SubgRf.ModulationParams.Params.LoRa.Bandwidth = Bandwidths[bandwidth];
 4503              		.loc 1 907 67 is_stmt 0 view .LVU1315
 4504 0200 EBB2     		uxtb	r3, r5
 907:Middlewares/Third_Party/SubGHz_Phy/stm32_radio_driver/radio.c ****             SubgRf.ModulationParams.Params.LoRa.Bandwidth = Bandwidths[bandwidth];
 4505              		.loc 1 907 65 view .LVU1316
 4506 0202 82F85030 		strb	r3, [r2, #80]
 908:Middlewares/Third_Party/SubGHz_Phy/stm32_radio_driver/radio.c ****             SubgRf.ModulationParams.Params.LoRa.CodingRate = ( RadioLoRaCodingRates_t )coderate;
 4507              		.loc 1 908 13 is_stmt 1 view .LVU1317
 908:Middlewares/Third_Party/SubGHz_Phy/stm32_radio_driver/radio.c ****             SubgRf.ModulationParams.Params.LoRa.CodingRate = ( RadioLoRaCodingRates_t )coderate;
 4508              		.loc 1 908 71 is_stmt 0 view .LVU1318
 4509 0206 3A49     		ldr	r1, .L330+16
ARM GAS  C:\Users\NATHAN~1\AppData\Local\Temp\cc90iGN6.s 			page 136


 4510 0208 895D     		ldrb	r1, [r1, r6]	@ zero_extendqisi2
 908:Middlewares/Third_Party/SubGHz_Phy/stm32_radio_driver/radio.c ****             SubgRf.ModulationParams.Params.LoRa.CodingRate = ( RadioLoRaCodingRates_t )coderate;
 4511              		.loc 1 908 59 view .LVU1319
 4512 020a 82F85110 		strb	r1, [r2, #81]
 909:Middlewares/Third_Party/SubGHz_Phy/stm32_radio_driver/radio.c **** 
 4513              		.loc 1 909 13 is_stmt 1 view .LVU1320
 909:Middlewares/Third_Party/SubGHz_Phy/stm32_radio_driver/radio.c **** 
 4514              		.loc 1 909 60 is_stmt 0 view .LVU1321
 4515 020e 0199     		ldr	r1, [sp, #4]
 4516 0210 82F85210 		strb	r1, [r2, #82]
 911:Middlewares/Third_Party/SubGHz_Phy/stm32_radio_driver/radio.c ****                 ( ( bandwidth == 1 ) && ( datarate == 12 ) ) )
 4517              		.loc 1 911 13 is_stmt 1 view .LVU1322
 911:Middlewares/Third_Party/SubGHz_Phy/stm32_radio_driver/radio.c ****                 ( ( bandwidth == 1 ) && ( datarate == 12 ) ) )
 4518              		.loc 1 911 15 is_stmt 0 view .LVU1323
 4519 0214 1EB9     		cbnz	r6, .L315
 911:Middlewares/Third_Party/SubGHz_Phy/stm32_radio_driver/radio.c ****                 ( ( bandwidth == 1 ) && ( datarate == 12 ) ) )
 4520              		.loc 1 911 62 discriminator 1 view .LVU1324
 4521 0216 A5F10B02 		sub	r2, r5, #11
 911:Middlewares/Third_Party/SubGHz_Phy/stm32_radio_driver/radio.c ****                 ( ( bandwidth == 1 ) && ( datarate == 12 ) ) )
 4522              		.loc 1 911 38 discriminator 1 view .LVU1325
 4523 021a 012A     		cmp	r2, #1
 4524 021c 45D9     		bls	.L316
 4525              	.L315:
 911:Middlewares/Third_Party/SubGHz_Phy/stm32_radio_driver/radio.c ****                 ( ( bandwidth == 1 ) && ( datarate == 12 ) ) )
 4526              		.loc 1 911 88 discriminator 3 view .LVU1326
 4527 021e 012E     		cmp	r6, #1
 4528 0220 41D0     		beq	.L327
 4529              	.L317:
 918:Middlewares/Third_Party/SubGHz_Phy/stm32_radio_driver/radio.c ****             }
 4530              		.loc 1 918 17 is_stmt 1 view .LVU1327
 918:Middlewares/Third_Party/SubGHz_Phy/stm32_radio_driver/radio.c ****             }
 4531              		.loc 1 918 73 is_stmt 0 view .LVU1328
 4532 0222 2F4A     		ldr	r2, .L330
 4533 0224 0021     		movs	r1, #0
 4534 0226 82F85310 		strb	r1, [r2, #83]
 4535              	.L318:
 921:Middlewares/Third_Party/SubGHz_Phy/stm32_radio_driver/radio.c **** 
 4536              		.loc 1 921 13 is_stmt 1 view .LVU1329
 921:Middlewares/Third_Party/SubGHz_Phy/stm32_radio_driver/radio.c **** 
 4537              		.loc 1 921 44 is_stmt 0 view .LVU1330
 4538 022a 2D4A     		ldr	r2, .L330
 4539 022c 0121     		movs	r1, #1
 4540 022e 9173     		strb	r1, [r2, #14]
 923:Middlewares/Third_Party/SubGHz_Phy/stm32_radio_driver/radio.c ****                 ( SubgRf.ModulationParams.Params.LoRa.SpreadingFactor == LORA_SF6 ) )
 4541              		.loc 1 923 13 is_stmt 1 view .LVU1331
 923:Middlewares/Third_Party/SubGHz_Phy/stm32_radio_driver/radio.c ****                 ( SubgRf.ModulationParams.Params.LoRa.SpreadingFactor == LORA_SF6 ) )
 4542              		.loc 1 923 85 is_stmt 0 view .LVU1332
 4543 0230 053B     		subs	r3, r3, #5
 4544 0232 DBB2     		uxtb	r3, r3
 923:Middlewares/Third_Party/SubGHz_Phy/stm32_radio_driver/radio.c ****                 ( SubgRf.ModulationParams.Params.LoRa.SpreadingFactor == LORA_SF6 ) )
 4545              		.loc 1 923 15 view .LVU1333
 4546 0234 8B42     		cmp	r3, r1
 4547 0236 3DD9     		bls	.L328
 937:Middlewares/Third_Party/SubGHz_Phy/stm32_radio_driver/radio.c ****             }
 4548              		.loc 1 937 17 is_stmt 1 view .LVU1334
 937:Middlewares/Third_Party/SubGHz_Phy/stm32_radio_driver/radio.c ****             }
 4549              		.loc 1 937 64 is_stmt 0 view .LVU1335
ARM GAS  C:\Users\NATHAN~1\AppData\Local\Temp\cc90iGN6.s 			page 137


 4550 0238 294B     		ldr	r3, .L330
 4551 023a A3F81C90 		strh	r9, [r3, #28]	@ movhi
 4552              	.L321:
 940:Middlewares/Third_Party/SubGHz_Phy/stm32_radio_driver/radio.c **** 
 4553              		.loc 1 940 13 is_stmt 1 view .LVU1336
 940:Middlewares/Third_Party/SubGHz_Phy/stm32_radio_driver/radio.c **** 
 4554              		.loc 1 940 56 is_stmt 0 view .LVU1337
 4555 023e 284C     		ldr	r4, .L330
 4556 0240 A777     		strb	r7, [r4, #30]
 942:Middlewares/Third_Party/SubGHz_Phy/stm32_radio_driver/radio.c ****             SubgRf.PacketParams.Params.LoRa.CrcMode = ( RadioLoRaCrcModes_t )crcOn;
 4557              		.loc 1 942 13 is_stmt 1 view .LVU1338
 942:Middlewares/Third_Party/SubGHz_Phy/stm32_radio_driver/radio.c ****             SubgRf.PacketParams.Params.LoRa.CrcMode = ( RadioLoRaCrcModes_t )crcOn;
 4558              		.loc 1 942 59 is_stmt 0 view .LVU1339
 4559 0242 284B     		ldr	r3, .L330+4
 4560 0244 1B78     		ldrb	r3, [r3]	@ zero_extendqisi2
 4561 0246 E377     		strb	r3, [r4, #31]
 943:Middlewares/Third_Party/SubGHz_Phy/stm32_radio_driver/radio.c ****             SubgRf.PacketParams.Params.LoRa.InvertIQ = ( RadioLoRaIQModes_t )iqInverted;
 4562              		.loc 1 943 13 is_stmt 1 view .LVU1340
 943:Middlewares/Third_Party/SubGHz_Phy/stm32_radio_driver/radio.c ****             SubgRf.PacketParams.Params.LoRa.InvertIQ = ( RadioLoRaIQModes_t )iqInverted;
 4563              		.loc 1 943 53 is_stmt 0 view .LVU1341
 4564 0248 84F820B0 		strb	fp, [r4, #32]
 944:Middlewares/Third_Party/SubGHz_Phy/stm32_radio_driver/radio.c **** 
 4565              		.loc 1 944 13 is_stmt 1 view .LVU1342
 944:Middlewares/Third_Party/SubGHz_Phy/stm32_radio_driver/radio.c **** 
 4566              		.loc 1 944 54 is_stmt 0 view .LVU1343
 4567 024c 9DF86030 		ldrb	r3, [sp, #96]	@ zero_extendqisi2
 4568 0250 84F82130 		strb	r3, [r4, #33]
 946:Middlewares/Third_Party/SubGHz_Phy/stm32_radio_driver/radio.c ****             RadioSetModem( ( SubgRf.ModulationParams.PacketType == PACKET_TYPE_GFSK ) ? MODEM_FSK :
 4569              		.loc 1 946 13 is_stmt 1 view .LVU1344
 4570 0254 FFF7FEFF 		bl	RadioStandby
 4571              	.LVL402:
 947:Middlewares/Third_Party/SubGHz_Phy/stm32_radio_driver/radio.c ****             SUBGRF_SetModulationParams( &SubgRf.ModulationParams );
 4572              		.loc 1 947 13 view .LVU1345
 947:Middlewares/Third_Party/SubGHz_Phy/stm32_radio_driver/radio.c ****             SUBGRF_SetModulationParams( &SubgRf.ModulationParams );
 4573              		.loc 1 947 53 is_stmt 0 view .LVU1346
 4574 0258 2546     		mov	r5, r4
 4575              	.LVL403:
 947:Middlewares/Third_Party/SubGHz_Phy/stm32_radio_driver/radio.c ****             SUBGRF_SetModulationParams( &SubgRf.ModulationParams );
 4576              		.loc 1 947 53 view .LVU1347
 4577 025a 15F8380F 		ldrb	r0, [r5, #56]!	@ zero_extendqisi2
 947:Middlewares/Third_Party/SubGHz_Phy/stm32_radio_driver/radio.c ****             SUBGRF_SetModulationParams( &SubgRf.ModulationParams );
 4578              		.loc 1 947 13 view .LVU1348
 4579 025e 0038     		subs	r0, r0, #0
 4580 0260 18BF     		it	ne
 4581 0262 0120     		movne	r0, #1
 4582 0264 FFF7FEFF 		bl	RadioSetModem
 4583              	.LVL404:
 948:Middlewares/Third_Party/SubGHz_Phy/stm32_radio_driver/radio.c ****             SUBGRF_SetPacketParams( &SubgRf.PacketParams );
 4584              		.loc 1 948 13 is_stmt 1 view .LVU1349
 4585 0268 2846     		mov	r0, r5
 4586 026a FFF7FEFF 		bl	SUBGRF_SetModulationParams
 4587              	.LVL405:
 949:Middlewares/Third_Party/SubGHz_Phy/stm32_radio_driver/radio.c ****             SUBGRF_SetLoRaSymbNumTimeout( symbTimeout );
 4588              		.loc 1 949 13 view .LVU1350
 4589 026e 04F10E00 		add	r0, r4, #14
 4590 0272 FFF7FEFF 		bl	SUBGRF_SetPacketParams
 4591              	.LVL406:
ARM GAS  C:\Users\NATHAN~1\AppData\Local\Temp\cc90iGN6.s 			page 138


 950:Middlewares/Third_Party/SubGHz_Phy/stm32_radio_driver/radio.c **** 
 4592              		.loc 1 950 13 view .LVU1351
 4593 0276 5FFA8AF0 		uxtb	r0, r10
 4594 027a FFF7FEFF 		bl	SUBGRF_SetLoRaSymbNumTimeout
 4595              	.LVL407:
 953:Middlewares/Third_Party/SubGHz_Phy/stm32_radio_driver/radio.c ****             {
 4596              		.loc 1 953 13 view .LVU1352
 953:Middlewares/Third_Party/SubGHz_Phy/stm32_radio_driver/radio.c ****             {
 4597              		.loc 1 953 48 is_stmt 0 view .LVU1353
 4598 027e 94F82130 		ldrb	r3, [r4, #33]	@ zero_extendqisi2
 953:Middlewares/Third_Party/SubGHz_Phy/stm32_radio_driver/radio.c ****             {
 4599              		.loc 1 953 15 view .LVU1354
 4600 0282 012B     		cmp	r3, #1
 4601 0284 21D0     		beq	.L329
 961:Middlewares/Third_Party/SubGHz_Phy/stm32_radio_driver/radio.c ****             }
 4602              		.loc 1 961 17 is_stmt 1 view .LVU1355
 961:Middlewares/Third_Party/SubGHz_Phy/stm32_radio_driver/radio.c ****             }
 4603              		.loc 1 961 47 is_stmt 0 view .LVU1356
 4604 0286 40F23670 		movw	r0, #1846
 4605 028a FFF7FEFF 		bl	SUBGRF_ReadRegister
 4606              	.LVL408:
 961:Middlewares/Third_Party/SubGHz_Phy/stm32_radio_driver/radio.c ****             }
 4607              		.loc 1 961 17 view .LVU1357
 4608 028e 40F00401 		orr	r1, r0, #4
 4609 0292 C9B2     		uxtb	r1, r1
 4610 0294 40F23670 		movw	r0, #1846
 4611 0298 FFF7FEFF 		bl	SUBGRF_WriteRegister
 4612              	.LVL409:
 4613              	.L323:
 966:Middlewares/Third_Party/SubGHz_Phy/stm32_radio_driver/radio.c **** 
 4614              		.loc 1 966 13 is_stmt 1 view .LVU1358
 966:Middlewares/Third_Party/SubGHz_Phy/stm32_radio_driver/radio.c **** 
 4615              		.loc 1 966 30 is_stmt 0 view .LVU1359
 4616 029c 104B     		ldr	r3, .L330
 4617 029e 4FF6FF72 		movw	r2, #65535
 4618 02a2 9A60     		str	r2, [r3, #8]
 968:Middlewares/Third_Party/SubGHz_Phy/stm32_radio_driver/radio.c ****         default:
 4619              		.loc 1 968 13 is_stmt 1 view .LVU1360
 4620              	.LBE11:
 972:Middlewares/Third_Party/SubGHz_Phy/stm32_radio_driver/radio.c **** 
 4621              		.loc 1 972 1 is_stmt 0 view .LVU1361
 4622 02a4 D3E6     		b	.L305
 4623              	.LVL410:
 4624              	.L327:
 4625              	.LBB12:
 912:Middlewares/Third_Party/SubGHz_Phy/stm32_radio_driver/radio.c ****             {
 4626              		.loc 1 912 38 view .LVU1362
 4627 02a6 0C2D     		cmp	r5, #12
 4628 02a8 BBD1     		bne	.L317
 4629              	.L316:
 914:Middlewares/Third_Party/SubGHz_Phy/stm32_radio_driver/radio.c ****             }
 4630              		.loc 1 914 17 is_stmt 1 view .LVU1363
 914:Middlewares/Third_Party/SubGHz_Phy/stm32_radio_driver/radio.c ****             }
 4631              		.loc 1 914 73 is_stmt 0 view .LVU1364
 4632 02aa 0D4A     		ldr	r2, .L330
 4633 02ac 0121     		movs	r1, #1
 4634 02ae 82F85310 		strb	r1, [r2, #83]
ARM GAS  C:\Users\NATHAN~1\AppData\Local\Temp\cc90iGN6.s 			page 139


 4635 02b2 BAE7     		b	.L318
 4636              	.L328:
 926:Middlewares/Third_Party/SubGHz_Phy/stm32_radio_driver/radio.c ****                 {
 4637              		.loc 1 926 17 is_stmt 1 view .LVU1365
 926:Middlewares/Third_Party/SubGHz_Phy/stm32_radio_driver/radio.c ****                 {
 4638              		.loc 1 926 19 is_stmt 0 view .LVU1366
 4639 02b4 B9F10B0F 		cmp	r9, #11
 4640 02b8 03D8     		bhi	.L320
 928:Middlewares/Third_Party/SubGHz_Phy/stm32_radio_driver/radio.c ****                 }
 4641              		.loc 1 928 21 is_stmt 1 view .LVU1367
 928:Middlewares/Third_Party/SubGHz_Phy/stm32_radio_driver/radio.c ****                 }
 4642              		.loc 1 928 68 is_stmt 0 view .LVU1368
 4643 02ba 1346     		mov	r3, r2
 4644 02bc 0C22     		movs	r2, #12
 4645 02be 9A83     		strh	r2, [r3, #28]	@ movhi
 4646 02c0 BDE7     		b	.L321
 4647              	.L320:
 932:Middlewares/Third_Party/SubGHz_Phy/stm32_radio_driver/radio.c ****                 }
 4648              		.loc 1 932 21 is_stmt 1 view .LVU1369
 932:Middlewares/Third_Party/SubGHz_Phy/stm32_radio_driver/radio.c ****                 }
 4649              		.loc 1 932 68 is_stmt 0 view .LVU1370
 4650 02c2 074B     		ldr	r3, .L330
 4651 02c4 A3F81C90 		strh	r9, [r3, #28]	@ movhi
 4652 02c8 B9E7     		b	.L321
 4653              	.LVL411:
 4654              	.L329:
 956:Middlewares/Third_Party/SubGHz_Phy/stm32_radio_driver/radio.c ****             }
 4655              		.loc 1 956 17 is_stmt 1 view .LVU1371
 956:Middlewares/Third_Party/SubGHz_Phy/stm32_radio_driver/radio.c ****             }
 4656              		.loc 1 956 47 is_stmt 0 view .LVU1372
 4657 02ca 40F23670 		movw	r0, #1846
 4658 02ce FFF7FEFF 		bl	SUBGRF_ReadRegister
 4659              	.LVL412:
 956:Middlewares/Third_Party/SubGHz_Phy/stm32_radio_driver/radio.c ****             }
 4660              		.loc 1 956 17 view .LVU1373
 4661 02d2 00F0FB01 		and	r1, r0, #251
 4662 02d6 40F23670 		movw	r0, #1846
 4663 02da FFF7FEFF 		bl	SUBGRF_WriteRegister
 4664              	.LVL413:
 4665 02de DDE7     		b	.L323
 4666              	.L331:
 4667              		.align	2
 4668              	.L330:
 4669 02e0 00000000 		.word	.LANCHOR3
 4670 02e4 00000000 		.word	.LANCHOR2
 4671 02e8 08000000 		.word	.LANCHOR7+8
 4672 02ec 00000000 		.word	.LANCHOR7
 4673 02f0 00000000 		.word	.LANCHOR0
 4674              	.LBE12:
 4675              		.cfi_endproc
 4676              	.LFE997:
 4678              		.section	.text.RadioRandom,"ax",%progbits
 4679              		.align	1
 4680              		.syntax unified
 4681              		.thumb
 4682              		.thumb_func
 4684              	RadioRandom:
ARM GAS  C:\Users\NATHAN~1\AppData\Local\Temp\cc90iGN6.s 			page 140


 4685              	.LFB996:
 774:Middlewares/Third_Party/SubGHz_Phy/stm32_radio_driver/radio.c ****     uint32_t rnd = 0;
 4686              		.loc 1 774 1 is_stmt 1 view -0
 4687              		.cfi_startproc
 4688              		@ args = 0, pretend = 0, frame = 0
 4689              		@ frame_needed = 0, uses_anonymous_args = 0
 4690 0000 08B5     		push	{r3, lr}
 4691              	.LCFI55:
 4692              		.cfi_def_cfa_offset 8
 4693              		.cfi_offset 3, -8
 4694              		.cfi_offset 14, -4
 775:Middlewares/Third_Party/SubGHz_Phy/stm32_radio_driver/radio.c **** 
 4695              		.loc 1 775 5 view .LVU1375
 4696              	.LVL414:
 781:Middlewares/Third_Party/SubGHz_Phy/stm32_radio_driver/radio.c **** 
 4697              		.loc 1 781 5 view .LVU1376
 4698 0002 0120     		movs	r0, #1
 4699 0004 FFF7FEFF 		bl	RadioSetModem
 4700              	.LVL415:
 784:Middlewares/Third_Party/SubGHz_Phy/stm32_radio_driver/radio.c **** 
 4701              		.loc 1 784 5 view .LVU1377
 4702 0008 0023     		movs	r3, #0
 4703 000a 1A46     		mov	r2, r3
 4704 000c 1946     		mov	r1, r3
 4705 000e 1846     		mov	r0, r3
 4706 0010 FFF7FEFF 		bl	SUBGRF_SetDioIrqParams
 4707              	.LVL416:
 786:Middlewares/Third_Party/SubGHz_Phy/stm32_radio_driver/radio.c **** 
 4708              		.loc 1 786 5 view .LVU1378
 786:Middlewares/Third_Party/SubGHz_Phy/stm32_radio_driver/radio.c **** 
 4709              		.loc 1 786 11 is_stmt 0 view .LVU1379
 4710 0014 FFF7FEFF 		bl	SUBGRF_GetRandom
 4711              	.LVL417:
 788:Middlewares/Third_Party/SubGHz_Phy/stm32_radio_driver/radio.c **** }
 4712              		.loc 1 788 5 is_stmt 1 view .LVU1380
 789:Middlewares/Third_Party/SubGHz_Phy/stm32_radio_driver/radio.c **** 
 4713              		.loc 1 789 1 is_stmt 0 view .LVU1381
 4714 0018 08BD     		pop	{r3, pc}
 4715              		.cfi_endproc
 4716              	.LFE996:
 4718              		.section	.text.RadioIsChannelFree,"ax",%progbits
 4719              		.align	1
 4720              		.syntax unified
 4721              		.thumb
 4722              		.thumb_func
 4724              	RadioIsChannelFree:
 4725              	.LVL418:
 4726              	.LFB995:
 734:Middlewares/Third_Party/SubGHz_Phy/stm32_radio_driver/radio.c ****     bool status = true;
 4727              		.loc 1 734 1 is_stmt 1 view -0
 4728              		.cfi_startproc
 4729              		@ args = 0, pretend = 0, frame = 0
 4730              		@ frame_needed = 0, uses_anonymous_args = 0
 734:Middlewares/Third_Party/SubGHz_Phy/stm32_radio_driver/radio.c ****     bool status = true;
 4731              		.loc 1 734 1 is_stmt 0 view .LVU1383
 4732 0000 F0B5     		push	{r4, r5, r6, r7, lr}
 4733              	.LCFI56:
ARM GAS  C:\Users\NATHAN~1\AppData\Local\Temp\cc90iGN6.s 			page 141


 4734              		.cfi_def_cfa_offset 20
 4735              		.cfi_offset 4, -20
 4736              		.cfi_offset 5, -16
 4737              		.cfi_offset 6, -12
 4738              		.cfi_offset 7, -8
 4739              		.cfi_offset 14, -4
 4740 0002 8BB0     		sub	sp, sp, #44
 4741              	.LCFI57:
 4742              		.cfi_def_cfa_offset 64
 4743 0004 0446     		mov	r4, r0
 4744 0006 0F46     		mov	r7, r1
 4745 0008 1646     		mov	r6, r2
 4746 000a 1D46     		mov	r5, r3
 735:Middlewares/Third_Party/SubGHz_Phy/stm32_radio_driver/radio.c ****     int16_t rssi = 0;
 4747              		.loc 1 735 5 is_stmt 1 view .LVU1384
 4748              	.LVL419:
 736:Middlewares/Third_Party/SubGHz_Phy/stm32_radio_driver/radio.c ****     uint32_t carrierSenseTime = 0;
 4749              		.loc 1 736 5 view .LVU1385
 737:Middlewares/Third_Party/SubGHz_Phy/stm32_radio_driver/radio.c **** 
 4750              		.loc 1 737 5 view .LVU1386
 740:Middlewares/Third_Party/SubGHz_Phy/stm32_radio_driver/radio.c ****     /* ST_WORKAROUND_END */
 4751              		.loc 1 740 5 view .LVU1387
 4752 000c FFF7FEFF 		bl	RadioStandby
 4753              	.LVL420:
 743:Middlewares/Third_Party/SubGHz_Phy/stm32_radio_driver/radio.c **** 
 4754              		.loc 1 743 5 view .LVU1388
 4755 0010 0020     		movs	r0, #0
 4756 0012 FFF7FEFF 		bl	RadioSetModem
 4757              	.LVL421:
 745:Middlewares/Third_Party/SubGHz_Phy/stm32_radio_driver/radio.c **** 
 4758              		.loc 1 745 5 view .LVU1389
 4759 0016 2046     		mov	r0, r4
 4760 0018 FFF7FEFF 		bl	RadioSetChannel
 4761              	.LVL422:
 748:Middlewares/Third_Party/SubGHz_Phy/stm32_radio_driver/radio.c ****                       0, false, 0, 0, false, true );
 4762              		.loc 1 748 5 view .LVU1390
 4763 001c 0123     		movs	r3, #1
 4764 001e 0993     		str	r3, [sp, #36]
 4765 0020 0024     		movs	r4, #0
 4766              	.LVL423:
 748:Middlewares/Third_Party/SubGHz_Phy/stm32_radio_driver/radio.c ****                       0, false, 0, 0, false, true );
 4767              		.loc 1 748 5 is_stmt 0 view .LVU1391
 4768 0022 0894     		str	r4, [sp, #32]
 4769 0024 0794     		str	r4, [sp, #28]
 4770 0026 0694     		str	r4, [sp, #24]
 4771 0028 0594     		str	r4, [sp, #20]
 4772 002a 0494     		str	r4, [sp, #16]
 4773 002c 0394     		str	r4, [sp, #12]
 4774 002e 0294     		str	r4, [sp, #8]
 4775 0030 0323     		movs	r3, #3
 4776 0032 0193     		str	r3, [sp, #4]
 4777 0034 0097     		str	r7, [sp]
 4778 0036 2346     		mov	r3, r4
 4779 0038 4FF41672 		mov	r2, #600
 4780 003c 3946     		mov	r1, r7
 4781 003e 2046     		mov	r0, r4
 4782 0040 FFF7FEFF 		bl	RadioSetRxConfig
ARM GAS  C:\Users\NATHAN~1\AppData\Local\Temp\cc90iGN6.s 			page 142


 4783              	.LVL424:
 750:Middlewares/Third_Party/SubGHz_Phy/stm32_radio_driver/radio.c **** 
 4784              		.loc 1 750 5 is_stmt 1 view .LVU1392
 4785 0044 2046     		mov	r0, r4
 4786 0046 FFF7FEFF 		bl	RadioRx
 4787              	.LVL425:
 752:Middlewares/Third_Party/SubGHz_Phy/stm32_radio_driver/radio.c **** 
 4788              		.loc 1 752 5 view .LVU1393
 4789 004a FFF7FEFF 		bl	RadioGetWakeupTime
 4790              	.LVL426:
 4791 004e FFF7FEFF 		bl	HAL_Delay
 4792              	.LVL427:
 754:Middlewares/Third_Party/SubGHz_Phy/stm32_radio_driver/radio.c **** 
 4793              		.loc 1 754 5 view .LVU1394
 754:Middlewares/Third_Party/SubGHz_Phy/stm32_radio_driver/radio.c **** 
 4794              		.loc 1 754 24 is_stmt 0 view .LVU1395
 4795 0052 FFF7FEFF 		bl	UTIL_TIMER_GetCurrentTime
 4796              	.LVL428:
 4797 0056 0446     		mov	r4, r0
 4798              	.LVL429:
 757:Middlewares/Third_Party/SubGHz_Phy/stm32_radio_driver/radio.c ****     {
 4799              		.loc 1 757 5 is_stmt 1 view .LVU1396
 4800              	.L335:
 757:Middlewares/Third_Party/SubGHz_Phy/stm32_radio_driver/radio.c ****     {
 4801              		.loc 1 757 10 view .LVU1397
 757:Middlewares/Third_Party/SubGHz_Phy/stm32_radio_driver/radio.c ****     {
 4802              		.loc 1 757 12 is_stmt 0 view .LVU1398
 4803 0058 2046     		mov	r0, r4
 4804 005a FFF7FEFF 		bl	UTIL_TIMER_GetElapsedTime
 4805              	.LVL430:
 757:Middlewares/Third_Party/SubGHz_Phy/stm32_radio_driver/radio.c ****     {
 4806              		.loc 1 757 10 view .LVU1399
 4807 005e A842     		cmp	r0, r5
 4808 0060 06D2     		bcs	.L340
 759:Middlewares/Third_Party/SubGHz_Phy/stm32_radio_driver/radio.c **** 
 4809              		.loc 1 759 9 is_stmt 1 view .LVU1400
 759:Middlewares/Third_Party/SubGHz_Phy/stm32_radio_driver/radio.c **** 
 4810              		.loc 1 759 16 is_stmt 0 view .LVU1401
 4811 0062 0020     		movs	r0, #0
 4812 0064 FFF7FEFF 		bl	RadioRssi
 4813              	.LVL431:
 761:Middlewares/Third_Party/SubGHz_Phy/stm32_radio_driver/radio.c ****         {
 4814              		.loc 1 761 9 is_stmt 1 view .LVU1402
 761:Middlewares/Third_Party/SubGHz_Phy/stm32_radio_driver/radio.c ****         {
 4815              		.loc 1 761 11 is_stmt 0 view .LVU1403
 4816 0068 B042     		cmp	r0, r6
 4817 006a F5DD     		ble	.L335
 763:Middlewares/Third_Party/SubGHz_Phy/stm32_radio_driver/radio.c ****             break;
 4818              		.loc 1 763 20 view .LVU1404
 4819 006c 0024     		movs	r4, #0
 4820              	.LVL432:
 763:Middlewares/Third_Party/SubGHz_Phy/stm32_radio_driver/radio.c ****             break;
 4821              		.loc 1 763 20 view .LVU1405
 4822 006e 00E0     		b	.L336
 4823              	.LVL433:
 4824              	.L340:
 735:Middlewares/Third_Party/SubGHz_Phy/stm32_radio_driver/radio.c ****     int16_t rssi = 0;
ARM GAS  C:\Users\NATHAN~1\AppData\Local\Temp\cc90iGN6.s 			page 143


 4825              		.loc 1 735 10 view .LVU1406
 4826 0070 0124     		movs	r4, #1
 4827              	.LVL434:
 4828              	.L336:
 768:Middlewares/Third_Party/SubGHz_Phy/stm32_radio_driver/radio.c ****     /* ST_WORKAROUND_END */
 4829              		.loc 1 768 5 is_stmt 1 view .LVU1407
 4830 0072 FFF7FEFF 		bl	RadioStandby
 4831              	.LVL435:
 770:Middlewares/Third_Party/SubGHz_Phy/stm32_radio_driver/radio.c **** }
 4832              		.loc 1 770 5 view .LVU1408
 771:Middlewares/Third_Party/SubGHz_Phy/stm32_radio_driver/radio.c **** 
 4833              		.loc 1 771 1 is_stmt 0 view .LVU1409
 4834 0076 2046     		mov	r0, r4
 4835 0078 0BB0     		add	sp, sp, #44
 4836              	.LCFI58:
 4837              		.cfi_def_cfa_offset 20
 4838              		@ sp needed
 4839 007a F0BD     		pop	{r4, r5, r6, r7, pc}
 771:Middlewares/Third_Party/SubGHz_Phy/stm32_radio_driver/radio.c **** 
 4840              		.loc 1 771 1 view .LVU1410
 4841              		.cfi_endproc
 4842              	.LFE995:
 4844              		.section	.text.RadioInit,"ax",%progbits
 4845              		.align	1
 4846              		.syntax unified
 4847              		.thumb
 4848              		.thumb_func
 4850              	RadioInit:
 4851              	.LVL436:
 4852              	.LFB991:
 641:Middlewares/Third_Party/SubGHz_Phy/stm32_radio_driver/radio.c ****     RadioEvents = events;
 4853              		.loc 1 641 1 is_stmt 1 view -0
 4854              		.cfi_startproc
 4855              		@ args = 0, pretend = 0, frame = 0
 4856              		@ frame_needed = 0, uses_anonymous_args = 0
 641:Middlewares/Third_Party/SubGHz_Phy/stm32_radio_driver/radio.c ****     RadioEvents = events;
 4857              		.loc 1 641 1 is_stmt 0 view .LVU1412
 4858 0000 70B5     		push	{r4, r5, r6, lr}
 4859              	.LCFI59:
 4860              		.cfi_def_cfa_offset 16
 4861              		.cfi_offset 4, -16
 4862              		.cfi_offset 5, -12
 4863              		.cfi_offset 6, -8
 4864              		.cfi_offset 14, -4
 4865 0002 82B0     		sub	sp, sp, #8
 4866              	.LCFI60:
 4867              		.cfi_def_cfa_offset 24
 642:Middlewares/Third_Party/SubGHz_Phy/stm32_radio_driver/radio.c **** 
 4868              		.loc 1 642 5 is_stmt 1 view .LVU1413
 642:Middlewares/Third_Party/SubGHz_Phy/stm32_radio_driver/radio.c **** 
 4869              		.loc 1 642 17 is_stmt 0 view .LVU1414
 4870 0004 1D4B     		ldr	r3, .L343
 4871 0006 1860     		str	r0, [r3]
 644:Middlewares/Third_Party/SubGHz_Phy/stm32_radio_driver/radio.c ****     SubgRf.TxTimeout = 0;
 4872              		.loc 1 644 5 is_stmt 1 view .LVU1415
 644:Middlewares/Third_Party/SubGHz_Phy/stm32_radio_driver/radio.c ****     SubgRf.TxTimeout = 0;
 4873              		.loc 1 644 25 is_stmt 0 view .LVU1416
ARM GAS  C:\Users\NATHAN~1\AppData\Local\Temp\cc90iGN6.s 			page 144


 4874 0008 1D4B     		ldr	r3, .L343+4
 4875 000a 0024     		movs	r4, #0
 4876 000c 5C70     		strb	r4, [r3, #1]
 645:Middlewares/Third_Party/SubGHz_Phy/stm32_radio_driver/radio.c ****     SubgRf.RxTimeout = 0;
 4877              		.loc 1 645 5 is_stmt 1 view .LVU1417
 645:Middlewares/Third_Party/SubGHz_Phy/stm32_radio_driver/radio.c ****     SubgRf.RxTimeout = 0;
 4878              		.loc 1 645 22 is_stmt 0 view .LVU1418
 4879 000e 5C60     		str	r4, [r3, #4]
 646:Middlewares/Third_Party/SubGHz_Phy/stm32_radio_driver/radio.c **** 
 4880              		.loc 1 646 5 is_stmt 1 view .LVU1419
 646:Middlewares/Third_Party/SubGHz_Phy/stm32_radio_driver/radio.c **** 
 4881              		.loc 1 646 22 is_stmt 0 view .LVU1420
 4882 0010 9C60     		str	r4, [r3, #8]
 648:Middlewares/Third_Party/SubGHz_Phy/stm32_radio_driver/radio.c ****     /*SubgRf.publicNetwork set to false*/
 4883              		.loc 1 648 5 is_stmt 1 view .LVU1421
 4884 0012 1C48     		ldr	r0, .L343+8
 4885              	.LVL437:
 648:Middlewares/Third_Party/SubGHz_Phy/stm32_radio_driver/radio.c ****     /*SubgRf.publicNetwork set to false*/
 4886              		.loc 1 648 5 is_stmt 0 view .LVU1422
 4887 0014 FFF7FEFF 		bl	SUBGRF_Init
 4888              	.LVL438:
 650:Middlewares/Third_Party/SubGHz_Phy/stm32_radio_driver/radio.c **** 
 4889              		.loc 1 650 5 is_stmt 1 view .LVU1423
 4890 0018 2046     		mov	r0, r4
 4891 001a FFF7FEFF 		bl	RadioSetPublicNetwork
 4892              	.LVL439:
 652:Middlewares/Third_Party/SubGHz_Phy/stm32_radio_driver/radio.c **** 
 4893              		.loc 1 652 29 view .LVU1424
 654:Middlewares/Third_Party/SubGHz_Phy/stm32_radio_driver/radio.c **** 
 4894              		.loc 1 654 5 view .LVU1425
 4895 001e FFF7FEFF 		bl	SUBGRF_SetRegulatorMode
 4896              	.LVL440:
 656:Middlewares/Third_Party/SubGHz_Phy/stm32_radio_driver/radio.c ****     SUBGRF_SetTxParams(RFO_LP, 0, RADIO_RAMP_200_US);
 4897              		.loc 1 656 5 view .LVU1426
 4898 0022 2146     		mov	r1, r4
 4899 0024 2046     		mov	r0, r4
 4900 0026 FFF7FEFF 		bl	SUBGRF_SetBufferBaseAddress
 4901              	.LVL441:
 657:Middlewares/Third_Party/SubGHz_Phy/stm32_radio_driver/radio.c ****     SUBGRF_SetDioIrqParams( IRQ_RADIO_ALL, IRQ_RADIO_ALL, IRQ_RADIO_NONE, IRQ_RADIO_NONE );
 4902              		.loc 1 657 5 view .LVU1427
 4903 002a 0422     		movs	r2, #4
 4904 002c 2146     		mov	r1, r4
 4905 002e 0120     		movs	r0, #1
 4906 0030 FFF7FEFF 		bl	SUBGRF_SetTxParams
 4907              	.LVL442:
 658:Middlewares/Third_Party/SubGHz_Phy/stm32_radio_driver/radio.c **** 
 4908              		.loc 1 658 5 view .LVU1428
 4909 0034 2346     		mov	r3, r4
 4910 0036 2246     		mov	r2, r4
 4911 0038 4FF6FF71 		movw	r1, #65535
 4912 003c 0846     		mov	r0, r1
 4913 003e FFF7FEFF 		bl	SUBGRF_SetDioIrqParams
 4914              	.LVL443:
 661:Middlewares/Third_Party/SubGHz_Phy/stm32_radio_driver/radio.c ****     /* ST_WORKAROUND_END */
 4915              		.loc 1 661 5 view .LVU1429
 4916 0042 FFF7FEFF 		bl	RadioSleep
 4917              	.LVL444:
ARM GAS  C:\Users\NATHAN~1\AppData\Local\Temp\cc90iGN6.s 			page 145


 664:Middlewares/Third_Party/SubGHz_Phy/stm32_radio_driver/radio.c ****     TimerInit( &RxTimeoutTimer, RadioOnRxTimeoutIrq );
 4918              		.loc 1 664 5 view .LVU1430
 664:Middlewares/Third_Party/SubGHz_Phy/stm32_radio_driver/radio.c ****     TimerInit( &RxTimeoutTimer, RadioOnRxTimeoutIrq );
 4919              		.loc 1 664 5 view .LVU1431
 4920 0046 104E     		ldr	r6, .L343+12
 4921 0048 0094     		str	r4, [sp]
 4922 004a 104B     		ldr	r3, .L343+16
 4923 004c 2246     		mov	r2, r4
 4924 004e 4FF0FF31 		mov	r1, #-1
 4925 0052 3046     		mov	r0, r6
 4926 0054 FFF7FEFF 		bl	UTIL_TIMER_Create
 4927              	.LVL445:
 664:Middlewares/Third_Party/SubGHz_Phy/stm32_radio_driver/radio.c ****     TimerInit( &RxTimeoutTimer, RadioOnRxTimeoutIrq );
 4928              		.loc 1 664 5 view .LVU1432
 665:Middlewares/Third_Party/SubGHz_Phy/stm32_radio_driver/radio.c ****     TimerStop( &TxTimeoutTimer );
 4929              		.loc 1 665 5 view .LVU1433
 665:Middlewares/Third_Party/SubGHz_Phy/stm32_radio_driver/radio.c ****     TimerStop( &TxTimeoutTimer );
 4930              		.loc 1 665 5 view .LVU1434
 4931 0058 0D4D     		ldr	r5, .L343+20
 4932 005a 0094     		str	r4, [sp]
 4933 005c 0D4B     		ldr	r3, .L343+24
 4934 005e 2246     		mov	r2, r4
 4935 0060 4FF0FF31 		mov	r1, #-1
 4936 0064 2846     		mov	r0, r5
 4937 0066 FFF7FEFF 		bl	UTIL_TIMER_Create
 4938              	.LVL446:
 665:Middlewares/Third_Party/SubGHz_Phy/stm32_radio_driver/radio.c ****     TimerStop( &TxTimeoutTimer );
 4939              		.loc 1 665 5 view .LVU1435
 666:Middlewares/Third_Party/SubGHz_Phy/stm32_radio_driver/radio.c ****     TimerStop( &RxTimeoutTimer );
 4940              		.loc 1 666 5 view .LVU1436
 666:Middlewares/Third_Party/SubGHz_Phy/stm32_radio_driver/radio.c ****     TimerStop( &RxTimeoutTimer );
 4941              		.loc 1 666 5 view .LVU1437
 4942 006a 3046     		mov	r0, r6
 4943 006c FFF7FEFF 		bl	UTIL_TIMER_Stop
 4944              	.LVL447:
 666:Middlewares/Third_Party/SubGHz_Phy/stm32_radio_driver/radio.c ****     TimerStop( &RxTimeoutTimer );
 4945              		.loc 1 666 5 view .LVU1438
 667:Middlewares/Third_Party/SubGHz_Phy/stm32_radio_driver/radio.c **** }
 4946              		.loc 1 667 5 view .LVU1439
 667:Middlewares/Third_Party/SubGHz_Phy/stm32_radio_driver/radio.c **** }
 4947              		.loc 1 667 5 view .LVU1440
 4948 0070 2846     		mov	r0, r5
 4949 0072 FFF7FEFF 		bl	UTIL_TIMER_Stop
 4950              	.LVL448:
 667:Middlewares/Third_Party/SubGHz_Phy/stm32_radio_driver/radio.c **** }
 4951              		.loc 1 667 5 view .LVU1441
 668:Middlewares/Third_Party/SubGHz_Phy/stm32_radio_driver/radio.c **** 
 4952              		.loc 1 668 1 is_stmt 0 view .LVU1442
 4953 0076 02B0     		add	sp, sp, #8
 4954              	.LCFI61:
 4955              		.cfi_def_cfa_offset 16
 4956              		@ sp needed
 4957 0078 70BD     		pop	{r4, r5, r6, pc}
 4958              	.L344:
 4959 007a 00BF     		.align	2
 4960              	.L343:
 4961 007c 00000000 		.word	.LANCHOR1
ARM GAS  C:\Users\NATHAN~1\AppData\Local\Temp\cc90iGN6.s 			page 146


 4962 0080 00000000 		.word	.LANCHOR3
 4963 0084 00000000 		.word	RadioOnDioIrq
 4964 0088 00000000 		.word	.LANCHOR5
 4965 008c 00000000 		.word	RadioOnTxTimeoutIrq
 4966 0090 00000000 		.word	.LANCHOR4
 4967 0094 00000000 		.word	RadioOnRxTimeoutIrq
 4968              		.cfi_endproc
 4969              	.LFE991:
 4971              		.global	RxTimeoutTimer
 4972              		.global	TxTimeoutTimer
 4973              		.global	SubgRf
 4974              		.global	Bandwidths
 4975              		.global	Radio
 4976              		.section	.rodata
 4977              		.align	2
 4978              		.set	.LANCHOR7,. + 0
 4979              	.LC0:
 4980 0000 C1       		.byte	-63
 4981 0001 94       		.byte	-108
 4982 0002 C1       		.byte	-63
 4983 0003 00       		.byte	0
 4984 0004 00       		.byte	0
 4985 0005 00       		.byte	0
 4986 0006 00       		.byte	0
 4987 0007 00       		.byte	0
 4988              	.LC1:
 4989 0008 B2       		.byte	-78
 4990 0009 27       		.byte	39
 4991 000a 00       		.byte	0
 4992 000b 00       		.byte	0
 4993 000c 00       		.byte	0
 4994 000d 00       		.byte	0
 4995 000e 00       		.byte	0
 4996 000f 00       		.byte	0
 4997              		.section	.bss.RadioBuffer,"aw",%nobits
 4998              		.align	2
 4999              		.set	.LANCHOR6,. + 0
 5002              	RadioBuffer:
 5003 0000 00000000 		.space	255
 5003      00000000 
 5003      00000000 
 5003      00000000 
 5003      00000000 
 5004              		.section	.bss.RadioEvents,"aw",%nobits
 5005              		.align	2
 5006              		.set	.LANCHOR1,. + 0
 5009              	RadioEvents:
 5010 0000 00000000 		.space	4
 5011              		.section	.bss.RxTimeoutTimer,"aw",%nobits
 5012              		.align	2
 5013              		.set	.LANCHOR4,. + 0
 5016              	RxTimeoutTimer:
 5017 0000 00000000 		.space	24
 5017      00000000 
 5017      00000000 
 5017      00000000 
 5017      00000000 
ARM GAS  C:\Users\NATHAN~1\AppData\Local\Temp\cc90iGN6.s 			page 147


 5018              		.section	.bss.SubgRf,"aw",%nobits
 5019              		.align	2
 5020              		.set	.LANCHOR3,. + 0
 5023              	SubgRf:
 5024 0000 00000000 		.space	88
 5024      00000000 
 5024      00000000 
 5024      00000000 
 5024      00000000 
 5025              		.section	.bss.TxTimeoutTimer,"aw",%nobits
 5026              		.align	2
 5027              		.set	.LANCHOR5,. + 0
 5030              	TxTimeoutTimer:
 5031 0000 00000000 		.space	24
 5031      00000000 
 5031      00000000 
 5031      00000000 
 5031      00000000 
 5032              		.section	.data.MaxPayloadLength,"aw"
 5033              		.set	.LANCHOR2,. + 0
 5036              	MaxPayloadLength:
 5037 0000 FF       		.byte	-1
 5038              		.section	.rodata.Bandwidths,"a"
 5039              		.align	2
 5040              		.set	.LANCHOR0,. + 0
 5043              	Bandwidths:
 5044 0000 04       		.byte	4
 5045 0001 05       		.byte	5
 5046 0002 06       		.byte	6
 5047              		.section	.rodata.Radio,"a"
 5048              		.align	2
 5051              	Radio:
 5052 0000 00000000 		.word	RadioInit
 5053 0004 00000000 		.word	RadioGetStatus
 5054 0008 00000000 		.word	RadioSetModem
 5055 000c 00000000 		.word	RadioSetChannel
 5056 0010 00000000 		.word	RadioIsChannelFree
 5057 0014 00000000 		.word	RadioRandom
 5058 0018 00000000 		.word	RadioSetRxConfig
 5059 001c 00000000 		.word	RadioSetTxConfig
 5060 0020 00000000 		.word	RadioCheckRfFrequency
 5061 0024 00000000 		.word	RadioTimeOnAir
 5062 0028 00000000 		.word	RadioSend
 5063 002c 00000000 		.word	RadioSleep
 5064 0030 00000000 		.word	RadioStandby
 5065 0034 00000000 		.word	RadioRx
 5066 0038 00000000 		.word	RadioStartCad
 5067 003c 00000000 		.word	RadioSetTxContinuousWave
 5068 0040 00000000 		.word	RadioRssi
 5069 0044 00000000 		.word	RadioWrite
 5070 0048 00000000 		.word	RadioRead
 5071 004c 00000000 		.word	RadioWriteRegisters
 5072 0050 00000000 		.word	RadioReadRegisters
 5073 0054 00000000 		.word	RadioSetMaxPayloadLength
 5074 0058 00000000 		.word	RadioSetPublicNetwork
 5075 005c 00000000 		.word	RadioGetWakeupTime
 5076 0060 00000000 		.word	RadioIrqProcess
ARM GAS  C:\Users\NATHAN~1\AppData\Local\Temp\cc90iGN6.s 			page 148


 5077 0064 00000000 		.word	RadioRxBoosted
 5078 0068 00000000 		.word	RadioSetRxDutyCycle
 5079 006c 00000000 		.word	RadioTxPrbs
 5080 0070 00000000 		.word	RadioTxCw
 5081 0074 00000000 		.word	RadioSetRxGenericConfig
 5082 0078 00000000 		.word	RadioSetTxGenericConfig
 5083 007c 00000000 		.word	RFW_TransmitLongPacket
 5084 0080 00000000 		.word	RFW_ReceiveLongPacket
 5085              		.text
 5086              	.Letext0:
 5087              		.file 2 "c:\\program files (x86)\\gnu arm embedded toolchain\\10 2021.10\\arm-none-eabi\\include\\
 5088              		.file 3 "c:\\program files (x86)\\gnu arm embedded toolchain\\10 2021.10\\arm-none-eabi\\include\\
 5089              		.file 4 "Utilities/timer/stm32_timer.h"
 5090              		.file 5 "Middlewares/Third_Party/SubGHz_Phy/radio.h"
 5091              		.file 6 "Middlewares/Third_Party/SubGHz_Phy/radio_ex.h"
 5092              		.file 7 "Middlewares/Third_Party/SubGHz_Phy/stm32_radio_driver/radio_fw.h"
 5093              		.file 8 "Middlewares/Third_Party/SubGHz_Phy/stm32_radio_driver/radio_driver.h"
 5094              		.file 9 "Drivers/STM32WLxx_HAL_Driver/Inc/stm32wlxx_ll_dma.h"
 5095              		.file 10 "Utilities/trace/adv_trace/stm32_adv_trace.h"
 5096              		.file 11 "Drivers/STM32WLxx_HAL_Driver/Inc/stm32wlxx_hal.h"
ARM GAS  C:\Users\NATHAN~1\AppData\Local\Temp\cc90iGN6.s 			page 149


DEFINED SYMBOLS
                            *ABS*:00000000 radio.c
C:\Users\NATHAN~1\AppData\Local\Temp\cc90iGN6.s:18     .text.RadioCheckRfFrequency:00000000 $t
C:\Users\NATHAN~1\AppData\Local\Temp\cc90iGN6.s:23     .text.RadioCheckRfFrequency:00000000 RadioCheckRfFrequency
C:\Users\NATHAN~1\AppData\Local\Temp\cc90iGN6.s:42     .text.RadioGetLoRaBandwidthInHz:00000000 $t
C:\Users\NATHAN~1\AppData\Local\Temp\cc90iGN6.s:47     .text.RadioGetLoRaBandwidthInHz:00000000 RadioGetLoRaBandwidthInHz
C:\Users\NATHAN~1\AppData\Local\Temp\cc90iGN6.s:61     .text.RadioGetLoRaBandwidthInHz:00000008 $d
C:\Users\NATHAN~1\AppData\Local\Temp\cc90iGN6.s:170    .text.RadioGetLoRaBandwidthInHz:00000050 $d
C:\Users\NATHAN~1\AppData\Local\Temp\cc90iGN6.s:177    .text.RadioGetGfskTimeOnAirNumerator:00000000 $t
C:\Users\NATHAN~1\AppData\Local\Temp\cc90iGN6.s:182    .text.RadioGetGfskTimeOnAirNumerator:00000000 RadioGetGfskTimeOnAirNumerator
C:\Users\NATHAN~1\AppData\Local\Temp\cc90iGN6.s:234    .text.RadioGetLoRaTimeOnAirNumerator:00000000 $t
C:\Users\NATHAN~1\AppData\Local\Temp\cc90iGN6.s:239    .text.RadioGetLoRaTimeOnAirNumerator:00000000 RadioGetLoRaTimeOnAirNumerator
C:\Users\NATHAN~1\AppData\Local\Temp\cc90iGN6.s:415    .text.RadioTimeOnAir:00000000 $t
C:\Users\NATHAN~1\AppData\Local\Temp\cc90iGN6.s:420    .text.RadioTimeOnAir:00000000 RadioTimeOnAir
C:\Users\NATHAN~1\AppData\Local\Temp\cc90iGN6.s:531    .text.RadioTimeOnAir:00000070 $d
C:\Users\NATHAN~1\AppData\Local\Temp\cc90iGN6.s:536    .text.RadioOnTxTimeoutProcess:00000000 $t
C:\Users\NATHAN~1\AppData\Local\Temp\cc90iGN6.s:541    .text.RadioOnTxTimeoutProcess:00000000 RadioOnTxTimeoutProcess
C:\Users\NATHAN~1\AppData\Local\Temp\cc90iGN6.s:572    .text.RadioOnTxTimeoutProcess:00000010 $d
C:\Users\NATHAN~1\AppData\Local\Temp\cc90iGN6.s:577    .text.RadioOnTxTimeoutIrq:00000000 $t
C:\Users\NATHAN~1\AppData\Local\Temp\cc90iGN6.s:582    .text.RadioOnTxTimeoutIrq:00000000 RadioOnTxTimeoutIrq
C:\Users\NATHAN~1\AppData\Local\Temp\cc90iGN6.s:604    .text.RadioOnRxTimeoutProcess:00000000 $t
C:\Users\NATHAN~1\AppData\Local\Temp\cc90iGN6.s:609    .text.RadioOnRxTimeoutProcess:00000000 RadioOnRxTimeoutProcess
C:\Users\NATHAN~1\AppData\Local\Temp\cc90iGN6.s:640    .text.RadioOnRxTimeoutProcess:00000010 $d
C:\Users\NATHAN~1\AppData\Local\Temp\cc90iGN6.s:645    .text.RadioOnRxTimeoutIrq:00000000 $t
C:\Users\NATHAN~1\AppData\Local\Temp\cc90iGN6.s:650    .text.RadioOnRxTimeoutIrq:00000000 RadioOnRxTimeoutIrq
C:\Users\NATHAN~1\AppData\Local\Temp\cc90iGN6.s:672    .text.payload_integration:00000000 $t
C:\Users\NATHAN~1\AppData\Local\Temp\cc90iGN6.s:677    .text.payload_integration:00000000 payload_integration
C:\Users\NATHAN~1\AppData\Local\Temp\cc90iGN6.s:850    .text.RadioSetMaxPayloadLength:00000000 $t
C:\Users\NATHAN~1\AppData\Local\Temp\cc90iGN6.s:855    .text.RadioSetMaxPayloadLength:00000000 RadioSetMaxPayloadLength
C:\Users\NATHAN~1\AppData\Local\Temp\cc90iGN6.s:920    .text.RadioSetMaxPayloadLength:00000030 $d
C:\Users\NATHAN~1\AppData\Local\Temp\cc90iGN6.s:926    .text.RadioRead:00000000 $t
C:\Users\NATHAN~1\AppData\Local\Temp\cc90iGN6.s:931    .text.RadioRead:00000000 RadioRead
C:\Users\NATHAN~1\AppData\Local\Temp\cc90iGN6.s:954    .text.RadioWrite:00000000 $t
C:\Users\NATHAN~1\AppData\Local\Temp\cc90iGN6.s:959    .text.RadioWrite:00000000 RadioWrite
C:\Users\NATHAN~1\AppData\Local\Temp\cc90iGN6.s:981    .text.RadioTxCw:00000000 $t
C:\Users\NATHAN~1\AppData\Local\Temp\cc90iGN6.s:986    .text.RadioTxCw:00000000 RadioTxCw
C:\Users\NATHAN~1\AppData\Local\Temp\cc90iGN6.s:1016   .text.RadioTxPrbs:00000000 $t
C:\Users\NATHAN~1\AppData\Local\Temp\cc90iGN6.s:1021   .text.RadioTxPrbs:00000000 RadioTxPrbs
C:\Users\NATHAN~1\AppData\Local\Temp\cc90iGN6.s:1055   .text.RadioTxPrbs:00000024 $d
C:\Users\NATHAN~1\AppData\Local\Temp\cc90iGN6.s:1061   .text.RadioSetRxDutyCycle:00000000 $t
C:\Users\NATHAN~1\AppData\Local\Temp\cc90iGN6.s:1066   .text.RadioSetRxDutyCycle:00000000 RadioSetRxDutyCycle
C:\Users\NATHAN~1\AppData\Local\Temp\cc90iGN6.s:1105   .text.RadioSetRxDutyCycle:0000001c $d
C:\Users\NATHAN~1\AppData\Local\Temp\cc90iGN6.s:1110   .text.RadioRxBoosted:00000000 $t
C:\Users\NATHAN~1\AppData\Local\Temp\cc90iGN6.s:1115   .text.RadioRxBoosted:00000000 RadioRxBoosted
C:\Users\NATHAN~1\AppData\Local\Temp\cc90iGN6.s:1207   .text.RadioRxBoosted:0000005c $d
C:\Users\NATHAN~1\AppData\Local\Temp\cc90iGN6.s:1213   .text.RadioStandby:00000000 $t
C:\Users\NATHAN~1\AppData\Local\Temp\cc90iGN6.s:1218   .text.RadioStandby:00000000 RadioStandby
C:\Users\NATHAN~1\AppData\Local\Temp\cc90iGN6.s:1239   .text.RadioGetStatus:00000000 $t
C:\Users\NATHAN~1\AppData\Local\Temp\cc90iGN6.s:1244   .text.RadioGetStatus:00000000 RadioGetStatus
C:\Users\NATHAN~1\AppData\Local\Temp\cc90iGN6.s:1287   .rodata.RadioIrqProcess.str1.4:00000000 $d
C:\Users\NATHAN~1\AppData\Local\Temp\cc90iGN6.s:1306   .text.RadioIrqProcess:00000000 $t
C:\Users\NATHAN~1\AppData\Local\Temp\cc90iGN6.s:1311   .text.RadioIrqProcess:00000000 RadioIrqProcess
C:\Users\NATHAN~1\AppData\Local\Temp\cc90iGN6.s:1348   .text.RadioIrqProcess:0000002a $d
C:\Users\NATHAN~1\AppData\Local\Temp\cc90iGN6.s:1380   .text.RadioIrqProcess:0000006a $t
C:\Users\NATHAN~1\AppData\Local\Temp\cc90iGN6.s:1797   .text.RadioIrqProcess:00000280 $d
C:\Users\NATHAN~1\AppData\Local\Temp\cc90iGN6.s:1814   .text.RadioOnDioIrq:00000000 $t
C:\Users\NATHAN~1\AppData\Local\Temp\cc90iGN6.s:1819   .text.RadioOnDioIrq:00000000 RadioOnDioIrq
ARM GAS  C:\Users\NATHAN~1\AppData\Local\Temp\cc90iGN6.s 			page 150


C:\Users\NATHAN~1\AppData\Local\Temp\cc90iGN6.s:1844   .text.RadioOnDioIrq:00000010 $d
C:\Users\NATHAN~1\AppData\Local\Temp\cc90iGN6.s:1849   .text.RadioGetWakeupTime:00000000 $t
C:\Users\NATHAN~1\AppData\Local\Temp\cc90iGN6.s:1854   .text.RadioGetWakeupTime:00000000 RadioGetWakeupTime
C:\Users\NATHAN~1\AppData\Local\Temp\cc90iGN6.s:1876   .text.RadioReadRegisters:00000000 $t
C:\Users\NATHAN~1\AppData\Local\Temp\cc90iGN6.s:1881   .text.RadioReadRegisters:00000000 RadioReadRegisters
C:\Users\NATHAN~1\AppData\Local\Temp\cc90iGN6.s:1903   .text.RadioWriteRegisters:00000000 $t
C:\Users\NATHAN~1\AppData\Local\Temp\cc90iGN6.s:1908   .text.RadioWriteRegisters:00000000 RadioWriteRegisters
C:\Users\NATHAN~1\AppData\Local\Temp\cc90iGN6.s:1930   .text.RadioRssi:00000000 $t
C:\Users\NATHAN~1\AppData\Local\Temp\cc90iGN6.s:1935   .text.RadioRssi:00000000 RadioRssi
C:\Users\NATHAN~1\AppData\Local\Temp\cc90iGN6.s:1959   .text.RadioSetTxContinuousWave:00000000 $t
C:\Users\NATHAN~1\AppData\Local\Temp\cc90iGN6.s:1964   .text.RadioSetTxContinuousWave:00000000 RadioSetTxContinuousWave
C:\Users\NATHAN~1\AppData\Local\Temp\cc90iGN6.s:2022   .text.RadioSetTxContinuousWave:00000034 $d
C:\Users\NATHAN~1\AppData\Local\Temp\cc90iGN6.s:2027   .text.RadioSetChannel:00000000 $t
C:\Users\NATHAN~1\AppData\Local\Temp\cc90iGN6.s:2032   .text.RadioSetChannel:00000000 RadioSetChannel
C:\Users\NATHAN~1\AppData\Local\Temp\cc90iGN6.s:2054   .text.RadioStartCad:00000000 $t
C:\Users\NATHAN~1\AppData\Local\Temp\cc90iGN6.s:2059   .text.RadioStartCad:00000000 RadioStartCad
C:\Users\NATHAN~1\AppData\Local\Temp\cc90iGN6.s:2091   .text.RadioStartCad:00000024 $d
C:\Users\NATHAN~1\AppData\Local\Temp\cc90iGN6.s:2096   .text.RadioRx:00000000 $t
C:\Users\NATHAN~1\AppData\Local\Temp\cc90iGN6.s:2101   .text.RadioRx:00000000 RadioRx
C:\Users\NATHAN~1\AppData\Local\Temp\cc90iGN6.s:2194   .text.RadioRx:0000005c $d
C:\Users\NATHAN~1\AppData\Local\Temp\cc90iGN6.s:2200   .text.RadioSleep:00000000 $t
C:\Users\NATHAN~1\AppData\Local\Temp\cc90iGN6.s:2205   .text.RadioSleep:00000000 RadioSleep
C:\Users\NATHAN~1\AppData\Local\Temp\cc90iGN6.s:2232   .rodata.RadioSend.str1.4:00000000 $d
C:\Users\NATHAN~1\AppData\Local\Temp\cc90iGN6.s:2236   .text.RadioSend:00000000 $t
C:\Users\NATHAN~1\AppData\Local\Temp\cc90iGN6.s:2241   .text.RadioSend:00000000 RadioSend
C:\Users\NATHAN~1\AppData\Local\Temp\cc90iGN6.s:2312   .text.RadioSend:00000052 $d
C:\Users\NATHAN~1\AppData\Local\Temp\cc90iGN6.s:2316   .text.RadioSend:00000056 $t
C:\Users\NATHAN~1\AppData\Local\Temp\cc90iGN6.s:2550   .text.RadioSend:00000180 $d
C:\Users\NATHAN~1\AppData\Local\Temp\cc90iGN6.s:2559   .text.RadioSetModem:00000000 $t
C:\Users\NATHAN~1\AppData\Local\Temp\cc90iGN6.s:2564   .text.RadioSetModem:00000000 RadioSetModem
C:\Users\NATHAN~1\AppData\Local\Temp\cc90iGN6.s:2591   .text.RadioSetModem:00000016 $d
C:\Users\NATHAN~1\AppData\Local\Temp\cc90iGN6.s:2595   .text.RadioSetModem:0000001a $t
C:\Users\NATHAN~1\AppData\Local\Temp\cc90iGN6.s:3702   .text.RadioSetPublicNetwork:00000000 RadioSetPublicNetwork
C:\Users\NATHAN~1\AppData\Local\Temp\cc90iGN6.s:2671   .text.RadioSetModem:0000006c $d
C:\Users\NATHAN~1\AppData\Local\Temp\cc90iGN6.s:2676   .text.RadioSetTxGenericConfig:00000000 $t
C:\Users\NATHAN~1\AppData\Local\Temp\cc90iGN6.s:2681   .text.RadioSetTxGenericConfig:00000000 RadioSetTxGenericConfig
C:\Users\NATHAN~1\AppData\Local\Temp\cc90iGN6.s:3145   .text.RadioSetTxGenericConfig:00000244 $d
C:\Users\NATHAN~1\AppData\Local\Temp\cc90iGN6.s:3152   .text.RadioSetRxGenericConfig:00000000 $t
C:\Users\NATHAN~1\AppData\Local\Temp\cc90iGN6.s:3157   .text.RadioSetRxGenericConfig:00000000 RadioSetRxGenericConfig
C:\Users\NATHAN~1\AppData\Local\Temp\cc90iGN6.s:3690   .text.RadioSetRxGenericConfig:00000274 $d
C:\Users\NATHAN~1\AppData\Local\Temp\cc90iGN6.s:3697   .text.RadioSetPublicNetwork:00000000 $t
C:\Users\NATHAN~1\AppData\Local\Temp\cc90iGN6.s:3760   .text.RadioSetPublicNetwork:00000040 $d
C:\Users\NATHAN~1\AppData\Local\Temp\cc90iGN6.s:3765   .text.RadioSetTxConfig:00000000 $t
C:\Users\NATHAN~1\AppData\Local\Temp\cc90iGN6.s:3770   .text.RadioSetTxConfig:00000000 RadioSetTxConfig
C:\Users\NATHAN~1\AppData\Local\Temp\cc90iGN6.s:4096   .text.RadioSetTxConfig:000001a0 $d
C:\Users\NATHAN~1\AppData\Local\Temp\cc90iGN6.s:4105   .text.RadioSetRxConfig:00000000 $t
C:\Users\NATHAN~1\AppData\Local\Temp\cc90iGN6.s:4110   .text.RadioSetRxConfig:00000000 RadioSetRxConfig
C:\Users\NATHAN~1\AppData\Local\Temp\cc90iGN6.s:4669   .text.RadioSetRxConfig:000002e0 $d
C:\Users\NATHAN~1\AppData\Local\Temp\cc90iGN6.s:4679   .text.RadioRandom:00000000 $t
C:\Users\NATHAN~1\AppData\Local\Temp\cc90iGN6.s:4684   .text.RadioRandom:00000000 RadioRandom
C:\Users\NATHAN~1\AppData\Local\Temp\cc90iGN6.s:4719   .text.RadioIsChannelFree:00000000 $t
C:\Users\NATHAN~1\AppData\Local\Temp\cc90iGN6.s:4724   .text.RadioIsChannelFree:00000000 RadioIsChannelFree
C:\Users\NATHAN~1\AppData\Local\Temp\cc90iGN6.s:4845   .text.RadioInit:00000000 $t
C:\Users\NATHAN~1\AppData\Local\Temp\cc90iGN6.s:4850   .text.RadioInit:00000000 RadioInit
C:\Users\NATHAN~1\AppData\Local\Temp\cc90iGN6.s:4961   .text.RadioInit:0000007c $d
C:\Users\NATHAN~1\AppData\Local\Temp\cc90iGN6.s:5016   .bss.RxTimeoutTimer:00000000 RxTimeoutTimer
C:\Users\NATHAN~1\AppData\Local\Temp\cc90iGN6.s:5030   .bss.TxTimeoutTimer:00000000 TxTimeoutTimer
ARM GAS  C:\Users\NATHAN~1\AppData\Local\Temp\cc90iGN6.s 			page 151


C:\Users\NATHAN~1\AppData\Local\Temp\cc90iGN6.s:5023   .bss.SubgRf:00000000 SubgRf
C:\Users\NATHAN~1\AppData\Local\Temp\cc90iGN6.s:5043   .rodata.Bandwidths:00000000 Bandwidths
C:\Users\NATHAN~1\AppData\Local\Temp\cc90iGN6.s:5051   .rodata.Radio:00000000 Radio
C:\Users\NATHAN~1\AppData\Local\Temp\cc90iGN6.s:4977   .rodata:00000000 $d
C:\Users\NATHAN~1\AppData\Local\Temp\cc90iGN6.s:4998   .bss.RadioBuffer:00000000 $d
C:\Users\NATHAN~1\AppData\Local\Temp\cc90iGN6.s:5002   .bss.RadioBuffer:00000000 RadioBuffer
C:\Users\NATHAN~1\AppData\Local\Temp\cc90iGN6.s:5005   .bss.RadioEvents:00000000 $d
C:\Users\NATHAN~1\AppData\Local\Temp\cc90iGN6.s:5009   .bss.RadioEvents:00000000 RadioEvents
C:\Users\NATHAN~1\AppData\Local\Temp\cc90iGN6.s:5012   .bss.RxTimeoutTimer:00000000 $d
C:\Users\NATHAN~1\AppData\Local\Temp\cc90iGN6.s:5019   .bss.SubgRf:00000000 $d
C:\Users\NATHAN~1\AppData\Local\Temp\cc90iGN6.s:5026   .bss.TxTimeoutTimer:00000000 $d
C:\Users\NATHAN~1\AppData\Local\Temp\cc90iGN6.s:5036   .data.MaxPayloadLength:00000000 MaxPayloadLength
C:\Users\NATHAN~1\AppData\Local\Temp\cc90iGN6.s:5039   .rodata.Bandwidths:00000000 $d
C:\Users\NATHAN~1\AppData\Local\Temp\cc90iGN6.s:5048   .rodata.Radio:00000000 $d
C:\Users\NATHAN~1\AppData\Local\Temp\cc90iGN6.s:72     .text.RadioGetLoRaBandwidthInHz:00000013 $d
C:\Users\NATHAN~1\AppData\Local\Temp\cc90iGN6.s:72     .text.RadioGetLoRaBandwidthInHz:00000014 $t

UNDEFINED SYMBOLS
SUBGRF_SetPacketParams
SUBGRF_ReadRegister
SUBGRF_WriteRegister
SUBGRF_SetRfTxPower
SUBGRF_SetSwitch
SUBGRF_SetTxContinuousWave
SUBGRF_SetTxInfinitePreamble
SUBGRF_SetTx
SUBGRF_SetRxDutyCycle
RFW_Is_Init
SUBGRF_SetDioIrqParams
SUBGRF_SetRxBoosted
RFW_ReceiveInit
UTIL_TIMER_SetPeriod
UTIL_TIMER_Start
SUBGRF_SetStandby
SUBGRF_GetOperatingMode
UTIL_ADV_TRACE_COND_FSend
UTIL_TIMER_Stop
RFW_Is_LongPacketModeEnabled
RFW_DeInit_TxLongPacket
SUBGRF_GetPayload
SUBGRF_GetPacketStatus
SUBGRF_GetCFO
RFW_ReceivePayload
SUBGRF_GetRadioWakeUpTime
SUBGRF_ReadRegisters
SUBGRF_WriteRegisters
SUBGRF_GetRssiInst
SUBGRF_SetRfFrequency
SUBGRF_SetCad
SUBGRF_SetRx
SUBGRF_SetSleep
HAL_Delay
SUBGRF_SendPayload
RFW_TransmitInit
RFW_SetRadioModem
SUBGRF_SetPacketType
RFW_DeInit
ARM GAS  C:\Users\NATHAN~1\AppData\Local\Temp\cc90iGN6.s 			page 152


RFW_SetAntSwitch
SUBGRF_GetFskBandwidthRegValue
RFW_Init
SUBGRF_SetModulationParams
SUBGRF_SetSyncWord
SUBGRF_SetWhiteningSeed
SUBGRF_SetCrcPolynomial
SUBGRF_SetStopRxTimerOnPreambleDetect
SUBGRF_SetLoRaSymbNumTimeout
SUBGRF_GetRandom
UTIL_TIMER_GetCurrentTime
UTIL_TIMER_GetElapsedTime
SUBGRF_Init
SUBGRF_SetRegulatorMode
SUBGRF_SetBufferBaseAddress
SUBGRF_SetTxParams
UTIL_TIMER_Create
RFW_TransmitLongPacket
RFW_ReceiveLongPacket
