ARM GAS  C:\Users\NATHAN~1\AppData\Local\Temp\ccFQkcZc.s 			page 1


   1              		.cpu cortex-m4
   2              		.arch armv7e-m
   3              		.fpu softvfp
   4              		.eabi_attribute 20, 1
   5              		.eabi_attribute 21, 1
   6              		.eabi_attribute 23, 3
   7              		.eabi_attribute 24, 1
   8              		.eabi_attribute 25, 1
   9              		.eabi_attribute 26, 1
  10              		.eabi_attribute 30, 1
  11              		.eabi_attribute 34, 1
  12              		.eabi_attribute 18, 4
  13              		.file	"RegionKR920.c"
  14              		.text
  15              	.Ltext0:
  16              		.cfi_sections	.debug_frame
  17              		.section	.text.RegionKR920GetPhyParam,"ax",%progbits
  18              		.align	1
  19              		.global	RegionKR920GetPhyParam
  20              		.syntax unified
  21              		.thumb
  22              		.thumb_func
  24              	RegionKR920GetPhyParam:
  25              	.LVL0:
  26              	.LFB104:
  27              		.file 1 "Middlewares/Third_Party/LoRaWAN/Mac/Region/RegionKR920.c"
   1:Middlewares/Third_Party/LoRaWAN/Mac/Region/RegionKR920.c **** /*!
   2:Middlewares/Third_Party/LoRaWAN/Mac/Region/RegionKR920.c ****  * \file      RegionKR920.c
   3:Middlewares/Third_Party/LoRaWAN/Mac/Region/RegionKR920.c ****  *
   4:Middlewares/Third_Party/LoRaWAN/Mac/Region/RegionKR920.c ****  * \brief     Region implementation for KR920
   5:Middlewares/Third_Party/LoRaWAN/Mac/Region/RegionKR920.c ****  *
   6:Middlewares/Third_Party/LoRaWAN/Mac/Region/RegionKR920.c ****  * \copyright Revised BSD License, see section \ref LICENSE.
   7:Middlewares/Third_Party/LoRaWAN/Mac/Region/RegionKR920.c ****  *
   8:Middlewares/Third_Party/LoRaWAN/Mac/Region/RegionKR920.c ****  * \code
   9:Middlewares/Third_Party/LoRaWAN/Mac/Region/RegionKR920.c ****  *                ______                              _
  10:Middlewares/Third_Party/LoRaWAN/Mac/Region/RegionKR920.c ****  *               / _____)             _              | |
  11:Middlewares/Third_Party/LoRaWAN/Mac/Region/RegionKR920.c ****  *              ( (____  _____ ____ _| |_ _____  ____| |__
  12:Middlewares/Third_Party/LoRaWAN/Mac/Region/RegionKR920.c ****  *               \____ \| ___ |    (_   _) ___ |/ ___)  _ \
  13:Middlewares/Third_Party/LoRaWAN/Mac/Region/RegionKR920.c ****  *               _____) ) ____| | | || |_| ____( (___| | | |
  14:Middlewares/Third_Party/LoRaWAN/Mac/Region/RegionKR920.c ****  *              (______/|_____)_|_|_| \__)_____)\____)_| |_|
  15:Middlewares/Third_Party/LoRaWAN/Mac/Region/RegionKR920.c ****  *              (C)2013-2017 Semtech
  16:Middlewares/Third_Party/LoRaWAN/Mac/Region/RegionKR920.c ****  *
  17:Middlewares/Third_Party/LoRaWAN/Mac/Region/RegionKR920.c ****  *               ___ _____ _   ___ _  _____ ___  ___  ___ ___
  18:Middlewares/Third_Party/LoRaWAN/Mac/Region/RegionKR920.c ****  *              / __|_   _/_\ / __| |/ / __/ _ \| _ \/ __| __|
  19:Middlewares/Third_Party/LoRaWAN/Mac/Region/RegionKR920.c ****  *              \__ \ | |/ _ \ (__| ' <| _| (_) |   / (__| _|
  20:Middlewares/Third_Party/LoRaWAN/Mac/Region/RegionKR920.c ****  *              |___/ |_/_/ \_\___|_|\_\_| \___/|_|_\\___|___|
  21:Middlewares/Third_Party/LoRaWAN/Mac/Region/RegionKR920.c ****  *              embedded.connectivity.solutions===============
  22:Middlewares/Third_Party/LoRaWAN/Mac/Region/RegionKR920.c ****  *
  23:Middlewares/Third_Party/LoRaWAN/Mac/Region/RegionKR920.c ****  * \endcode
  24:Middlewares/Third_Party/LoRaWAN/Mac/Region/RegionKR920.c ****  *
  25:Middlewares/Third_Party/LoRaWAN/Mac/Region/RegionKR920.c ****  * \author    Miguel Luis ( Semtech )
  26:Middlewares/Third_Party/LoRaWAN/Mac/Region/RegionKR920.c ****  *
  27:Middlewares/Third_Party/LoRaWAN/Mac/Region/RegionKR920.c ****  * \author    Gregory Cristian ( Semtech )
  28:Middlewares/Third_Party/LoRaWAN/Mac/Region/RegionKR920.c ****  *
  29:Middlewares/Third_Party/LoRaWAN/Mac/Region/RegionKR920.c ****  * \author    Daniel Jaeckle ( STACKFORCE )
  30:Middlewares/Third_Party/LoRaWAN/Mac/Region/RegionKR920.c **** */
  31:Middlewares/Third_Party/LoRaWAN/Mac/Region/RegionKR920.c **** /**
ARM GAS  C:\Users\NATHAN~1\AppData\Local\Temp\ccFQkcZc.s 			page 2


  32:Middlewares/Third_Party/LoRaWAN/Mac/Region/RegionKR920.c ****   ******************************************************************************
  33:Middlewares/Third_Party/LoRaWAN/Mac/Region/RegionKR920.c ****   *
  34:Middlewares/Third_Party/LoRaWAN/Mac/Region/RegionKR920.c ****   *          Portions COPYRIGHT 2020 STMicroelectronics
  35:Middlewares/Third_Party/LoRaWAN/Mac/Region/RegionKR920.c ****   *
  36:Middlewares/Third_Party/LoRaWAN/Mac/Region/RegionKR920.c ****   * @file    RegionKR920.c
  37:Middlewares/Third_Party/LoRaWAN/Mac/Region/RegionKR920.c ****   * @author  MCD Application Team
  38:Middlewares/Third_Party/LoRaWAN/Mac/Region/RegionKR920.c ****   * @brief   Region implementation for KR920
  39:Middlewares/Third_Party/LoRaWAN/Mac/Region/RegionKR920.c ****   ******************************************************************************
  40:Middlewares/Third_Party/LoRaWAN/Mac/Region/RegionKR920.c ****   */
  41:Middlewares/Third_Party/LoRaWAN/Mac/Region/RegionKR920.c **** #include "radio.h"
  42:Middlewares/Third_Party/LoRaWAN/Mac/Region/RegionKR920.c **** #include "RegionCommon.h"
  43:Middlewares/Third_Party/LoRaWAN/Mac/Region/RegionKR920.c **** #include "RegionKR920.h"
  44:Middlewares/Third_Party/LoRaWAN/Mac/Region/RegionKR920.c **** #include "lorawan_conf.h"  /* REGION_* */
  45:Middlewares/Third_Party/LoRaWAN/Mac/Region/RegionKR920.c **** 
  46:Middlewares/Third_Party/LoRaWAN/Mac/Region/RegionKR920.c **** // Definitions
  47:Middlewares/Third_Party/LoRaWAN/Mac/Region/RegionKR920.c **** #define CHANNELS_MASK_SIZE                1
  48:Middlewares/Third_Party/LoRaWAN/Mac/Region/RegionKR920.c **** 
  49:Middlewares/Third_Party/LoRaWAN/Mac/Region/RegionKR920.c **** /*!
  50:Middlewares/Third_Party/LoRaWAN/Mac/Region/RegionKR920.c ****  * Specifies the reception bandwidth to be used while executing the LBT
  51:Middlewares/Third_Party/LoRaWAN/Mac/Region/RegionKR920.c ****  * Max channel bandwidth is 200 kHz
  52:Middlewares/Third_Party/LoRaWAN/Mac/Region/RegionKR920.c ****  */
  53:Middlewares/Third_Party/LoRaWAN/Mac/Region/RegionKR920.c **** #define KR920_LBT_RX_BANDWIDTH            200000
  54:Middlewares/Third_Party/LoRaWAN/Mac/Region/RegionKR920.c **** 
  55:Middlewares/Third_Party/LoRaWAN/Mac/Region/RegionKR920.c **** #if defined( REGION_KR920 )
  56:Middlewares/Third_Party/LoRaWAN/Mac/Region/RegionKR920.c **** /*
  57:Middlewares/Third_Party/LoRaWAN/Mac/Region/RegionKR920.c ****  * Non-volatile module context.
  58:Middlewares/Third_Party/LoRaWAN/Mac/Region/RegionKR920.c ****  */
  59:Middlewares/Third_Party/LoRaWAN/Mac/Region/RegionKR920.c **** static RegionNvmDataGroup1_t* RegionNvmGroup1;
  60:Middlewares/Third_Party/LoRaWAN/Mac/Region/RegionKR920.c **** static RegionNvmDataGroup2_t* RegionNvmGroup2;
  61:Middlewares/Third_Party/LoRaWAN/Mac/Region/RegionKR920.c **** 
  62:Middlewares/Third_Party/LoRaWAN/Mac/Region/RegionKR920.c **** // Static functions
  63:Middlewares/Third_Party/LoRaWAN/Mac/Region/RegionKR920.c **** static int8_t GetMaxEIRP( uint32_t freq )
  64:Middlewares/Third_Party/LoRaWAN/Mac/Region/RegionKR920.c **** {
  65:Middlewares/Third_Party/LoRaWAN/Mac/Region/RegionKR920.c ****     if( freq >= 922100000 )
  66:Middlewares/Third_Party/LoRaWAN/Mac/Region/RegionKR920.c ****     {// Limit to 14dBm
  67:Middlewares/Third_Party/LoRaWAN/Mac/Region/RegionKR920.c ****         return KR920_DEFAULT_MAX_EIRP_HIGH;
  68:Middlewares/Third_Party/LoRaWAN/Mac/Region/RegionKR920.c ****     }
  69:Middlewares/Third_Party/LoRaWAN/Mac/Region/RegionKR920.c ****     // Limit to 10dBm
  70:Middlewares/Third_Party/LoRaWAN/Mac/Region/RegionKR920.c ****     return KR920_DEFAULT_MAX_EIRP_LOW;
  71:Middlewares/Third_Party/LoRaWAN/Mac/Region/RegionKR920.c **** }
  72:Middlewares/Third_Party/LoRaWAN/Mac/Region/RegionKR920.c **** 
  73:Middlewares/Third_Party/LoRaWAN/Mac/Region/RegionKR920.c **** static bool VerifyRfFreq( uint32_t freq )
  74:Middlewares/Third_Party/LoRaWAN/Mac/Region/RegionKR920.c **** {
  75:Middlewares/Third_Party/LoRaWAN/Mac/Region/RegionKR920.c ****     uint32_t tmpFreq = freq;
  76:Middlewares/Third_Party/LoRaWAN/Mac/Region/RegionKR920.c **** 
  77:Middlewares/Third_Party/LoRaWAN/Mac/Region/RegionKR920.c ****     // Check radio driver support
  78:Middlewares/Third_Party/LoRaWAN/Mac/Region/RegionKR920.c ****     if( Radio.CheckRfFrequency( tmpFreq ) == false )
  79:Middlewares/Third_Party/LoRaWAN/Mac/Region/RegionKR920.c ****     {
  80:Middlewares/Third_Party/LoRaWAN/Mac/Region/RegionKR920.c ****         return false;
  81:Middlewares/Third_Party/LoRaWAN/Mac/Region/RegionKR920.c ****     }
  82:Middlewares/Third_Party/LoRaWAN/Mac/Region/RegionKR920.c **** 
  83:Middlewares/Third_Party/LoRaWAN/Mac/Region/RegionKR920.c ****     // Verify if the frequency is valid. The frequency must be in a specified
  84:Middlewares/Third_Party/LoRaWAN/Mac/Region/RegionKR920.c ****     // range and can be set to specific values.
  85:Middlewares/Third_Party/LoRaWAN/Mac/Region/RegionKR920.c ****     if( ( tmpFreq >= 920900000 ) && ( tmpFreq <=923300000 ) )
  86:Middlewares/Third_Party/LoRaWAN/Mac/Region/RegionKR920.c ****     {
  87:Middlewares/Third_Party/LoRaWAN/Mac/Region/RegionKR920.c ****         // Range ok, check for specific value
  88:Middlewares/Third_Party/LoRaWAN/Mac/Region/RegionKR920.c ****         tmpFreq -= 920900000;
ARM GAS  C:\Users\NATHAN~1\AppData\Local\Temp\ccFQkcZc.s 			page 3


  89:Middlewares/Third_Party/LoRaWAN/Mac/Region/RegionKR920.c ****         if( ( tmpFreq % 200000 ) == 0 )
  90:Middlewares/Third_Party/LoRaWAN/Mac/Region/RegionKR920.c ****         {
  91:Middlewares/Third_Party/LoRaWAN/Mac/Region/RegionKR920.c ****             return true;
  92:Middlewares/Third_Party/LoRaWAN/Mac/Region/RegionKR920.c ****         }
  93:Middlewares/Third_Party/LoRaWAN/Mac/Region/RegionKR920.c ****     }
  94:Middlewares/Third_Party/LoRaWAN/Mac/Region/RegionKR920.c ****     return false;
  95:Middlewares/Third_Party/LoRaWAN/Mac/Region/RegionKR920.c **** }
  96:Middlewares/Third_Party/LoRaWAN/Mac/Region/RegionKR920.c **** 
  97:Middlewares/Third_Party/LoRaWAN/Mac/Region/RegionKR920.c **** static TimerTime_t GetTimeOnAir( int8_t datarate, uint16_t pktLen )
  98:Middlewares/Third_Party/LoRaWAN/Mac/Region/RegionKR920.c **** {
  99:Middlewares/Third_Party/LoRaWAN/Mac/Region/RegionKR920.c ****     int8_t phyDr = DataratesKR920[datarate];
 100:Middlewares/Third_Party/LoRaWAN/Mac/Region/RegionKR920.c ****     uint32_t bandwidth = RegionCommonGetBandwidth( datarate, BandwidthsKR920 );
 101:Middlewares/Third_Party/LoRaWAN/Mac/Region/RegionKR920.c **** 
 102:Middlewares/Third_Party/LoRaWAN/Mac/Region/RegionKR920.c ****     return Radio.TimeOnAir( MODEM_LORA, bandwidth, phyDr, 1, 8, false, pktLen, true );
 103:Middlewares/Third_Party/LoRaWAN/Mac/Region/RegionKR920.c **** }
 104:Middlewares/Third_Party/LoRaWAN/Mac/Region/RegionKR920.c **** #endif /* REGION_KR920 */
 105:Middlewares/Third_Party/LoRaWAN/Mac/Region/RegionKR920.c **** 
 106:Middlewares/Third_Party/LoRaWAN/Mac/Region/RegionKR920.c **** PhyParam_t RegionKR920GetPhyParam( GetPhyParams_t* getPhy )
 107:Middlewares/Third_Party/LoRaWAN/Mac/Region/RegionKR920.c **** {
  28              		.loc 1 107 1 view -0
  29              		.cfi_startproc
  30              		@ args = 0, pretend = 0, frame = 8
  31              		@ frame_needed = 0, uses_anonymous_args = 0
  32              		@ link register save eliminated.
  33              		.loc 1 107 1 is_stmt 0 view .LVU1
  34 0000 82B0     		sub	sp, sp, #8
  35              	.LCFI0:
  36              		.cfi_def_cfa_offset 8
 108:Middlewares/Third_Party/LoRaWAN/Mac/Region/RegionKR920.c ****     PhyParam_t phyParam = { 0 };
  37              		.loc 1 108 5 is_stmt 1 view .LVU2
  38              		.loc 1 108 16 is_stmt 0 view .LVU3
  39 0002 0020     		movs	r0, #0
  40              	.LVL1:
  41              		.loc 1 108 16 view .LVU4
  42 0004 0090     		str	r0, [sp]
 109:Middlewares/Third_Party/LoRaWAN/Mac/Region/RegionKR920.c **** 
 110:Middlewares/Third_Party/LoRaWAN/Mac/Region/RegionKR920.c **** #if defined( REGION_KR920 )
 111:Middlewares/Third_Party/LoRaWAN/Mac/Region/RegionKR920.c ****     switch( getPhy->Attribute )
 112:Middlewares/Third_Party/LoRaWAN/Mac/Region/RegionKR920.c ****     {
 113:Middlewares/Third_Party/LoRaWAN/Mac/Region/RegionKR920.c ****         case PHY_MIN_RX_DR:
 114:Middlewares/Third_Party/LoRaWAN/Mac/Region/RegionKR920.c ****         {
 115:Middlewares/Third_Party/LoRaWAN/Mac/Region/RegionKR920.c ****             phyParam.Value = KR920_RX_MIN_DATARATE;
 116:Middlewares/Third_Party/LoRaWAN/Mac/Region/RegionKR920.c ****             break;
 117:Middlewares/Third_Party/LoRaWAN/Mac/Region/RegionKR920.c ****         }
 118:Middlewares/Third_Party/LoRaWAN/Mac/Region/RegionKR920.c ****         case PHY_MIN_TX_DR:
 119:Middlewares/Third_Party/LoRaWAN/Mac/Region/RegionKR920.c ****         {
 120:Middlewares/Third_Party/LoRaWAN/Mac/Region/RegionKR920.c ****             phyParam.Value = KR920_TX_MIN_DATARATE;
 121:Middlewares/Third_Party/LoRaWAN/Mac/Region/RegionKR920.c ****             break;
 122:Middlewares/Third_Party/LoRaWAN/Mac/Region/RegionKR920.c ****         }
 123:Middlewares/Third_Party/LoRaWAN/Mac/Region/RegionKR920.c ****         case PHY_DEF_TX_DR:
 124:Middlewares/Third_Party/LoRaWAN/Mac/Region/RegionKR920.c ****         {
 125:Middlewares/Third_Party/LoRaWAN/Mac/Region/RegionKR920.c ****             phyParam.Value = KR920_DEFAULT_DATARATE;
 126:Middlewares/Third_Party/LoRaWAN/Mac/Region/RegionKR920.c ****             break;
 127:Middlewares/Third_Party/LoRaWAN/Mac/Region/RegionKR920.c ****         }
 128:Middlewares/Third_Party/LoRaWAN/Mac/Region/RegionKR920.c ****         case PHY_NEXT_LOWER_TX_DR:
 129:Middlewares/Third_Party/LoRaWAN/Mac/Region/RegionKR920.c ****         {
 130:Middlewares/Third_Party/LoRaWAN/Mac/Region/RegionKR920.c ****             RegionCommonGetNextLowerTxDrParams_t nextLowerTxDrParams =
ARM GAS  C:\Users\NATHAN~1\AppData\Local\Temp\ccFQkcZc.s 			page 4


 131:Middlewares/Third_Party/LoRaWAN/Mac/Region/RegionKR920.c ****             {
 132:Middlewares/Third_Party/LoRaWAN/Mac/Region/RegionKR920.c ****                 .CurrentDr = getPhy->Datarate,
 133:Middlewares/Third_Party/LoRaWAN/Mac/Region/RegionKR920.c ****                 .MaxDr = ( int8_t )KR920_TX_MAX_DATARATE,
 134:Middlewares/Third_Party/LoRaWAN/Mac/Region/RegionKR920.c ****                 .MinDr = ( int8_t )KR920_TX_MIN_DATARATE,
 135:Middlewares/Third_Party/LoRaWAN/Mac/Region/RegionKR920.c ****                 .NbChannels = KR920_MAX_NB_CHANNELS,
 136:Middlewares/Third_Party/LoRaWAN/Mac/Region/RegionKR920.c ****                 .ChannelsMask = RegionNvmGroup2->ChannelsMask,
 137:Middlewares/Third_Party/LoRaWAN/Mac/Region/RegionKR920.c ****                 .Channels = RegionNvmGroup2->Channels,
 138:Middlewares/Third_Party/LoRaWAN/Mac/Region/RegionKR920.c ****             };
 139:Middlewares/Third_Party/LoRaWAN/Mac/Region/RegionKR920.c ****             phyParam.Value = RegionCommonGetNextLowerTxDr( &nextLowerTxDrParams );
 140:Middlewares/Third_Party/LoRaWAN/Mac/Region/RegionKR920.c ****             break;
 141:Middlewares/Third_Party/LoRaWAN/Mac/Region/RegionKR920.c ****         }
 142:Middlewares/Third_Party/LoRaWAN/Mac/Region/RegionKR920.c ****         case PHY_MAX_TX_POWER:
 143:Middlewares/Third_Party/LoRaWAN/Mac/Region/RegionKR920.c ****         {
 144:Middlewares/Third_Party/LoRaWAN/Mac/Region/RegionKR920.c ****             phyParam.Value = KR920_MAX_TX_POWER;
 145:Middlewares/Third_Party/LoRaWAN/Mac/Region/RegionKR920.c ****             break;
 146:Middlewares/Third_Party/LoRaWAN/Mac/Region/RegionKR920.c ****         }
 147:Middlewares/Third_Party/LoRaWAN/Mac/Region/RegionKR920.c ****         case PHY_DEF_TX_POWER:
 148:Middlewares/Third_Party/LoRaWAN/Mac/Region/RegionKR920.c ****         {
 149:Middlewares/Third_Party/LoRaWAN/Mac/Region/RegionKR920.c ****             phyParam.Value = KR920_DEFAULT_TX_POWER;
 150:Middlewares/Third_Party/LoRaWAN/Mac/Region/RegionKR920.c ****             break;
 151:Middlewares/Third_Party/LoRaWAN/Mac/Region/RegionKR920.c ****         }
 152:Middlewares/Third_Party/LoRaWAN/Mac/Region/RegionKR920.c ****         case PHY_DEF_ADR_ACK_LIMIT:
 153:Middlewares/Third_Party/LoRaWAN/Mac/Region/RegionKR920.c ****         {
 154:Middlewares/Third_Party/LoRaWAN/Mac/Region/RegionKR920.c ****             phyParam.Value = REGION_COMMON_DEFAULT_ADR_ACK_LIMIT;
 155:Middlewares/Third_Party/LoRaWAN/Mac/Region/RegionKR920.c ****             break;
 156:Middlewares/Third_Party/LoRaWAN/Mac/Region/RegionKR920.c ****         }
 157:Middlewares/Third_Party/LoRaWAN/Mac/Region/RegionKR920.c ****         case PHY_DEF_ADR_ACK_DELAY:
 158:Middlewares/Third_Party/LoRaWAN/Mac/Region/RegionKR920.c ****         {
 159:Middlewares/Third_Party/LoRaWAN/Mac/Region/RegionKR920.c ****             phyParam.Value = REGION_COMMON_DEFAULT_ADR_ACK_DELAY;
 160:Middlewares/Third_Party/LoRaWAN/Mac/Region/RegionKR920.c ****             break;
 161:Middlewares/Third_Party/LoRaWAN/Mac/Region/RegionKR920.c ****         }
 162:Middlewares/Third_Party/LoRaWAN/Mac/Region/RegionKR920.c ****         case PHY_MAX_PAYLOAD:
 163:Middlewares/Third_Party/LoRaWAN/Mac/Region/RegionKR920.c ****         {
 164:Middlewares/Third_Party/LoRaWAN/Mac/Region/RegionKR920.c ****             phyParam.Value = MaxPayloadOfDatarateKR920[getPhy->Datarate];
 165:Middlewares/Third_Party/LoRaWAN/Mac/Region/RegionKR920.c ****             break;
 166:Middlewares/Third_Party/LoRaWAN/Mac/Region/RegionKR920.c ****         }
 167:Middlewares/Third_Party/LoRaWAN/Mac/Region/RegionKR920.c ****         /* ST_WORKAROUND_BEGIN: Keep repeater feature */
 168:Middlewares/Third_Party/LoRaWAN/Mac/Region/RegionKR920.c ****         case PHY_MAX_PAYLOAD_REPEATER:
 169:Middlewares/Third_Party/LoRaWAN/Mac/Region/RegionKR920.c ****         {
 170:Middlewares/Third_Party/LoRaWAN/Mac/Region/RegionKR920.c ****             phyParam.Value = MaxPayloadOfDatarateRepeaterKR920[getPhy->Datarate];
 171:Middlewares/Third_Party/LoRaWAN/Mac/Region/RegionKR920.c ****             break;
 172:Middlewares/Third_Party/LoRaWAN/Mac/Region/RegionKR920.c ****         }
 173:Middlewares/Third_Party/LoRaWAN/Mac/Region/RegionKR920.c ****         /* ST_WORKAROUND_END */
 174:Middlewares/Third_Party/LoRaWAN/Mac/Region/RegionKR920.c ****         case PHY_DUTY_CYCLE:
 175:Middlewares/Third_Party/LoRaWAN/Mac/Region/RegionKR920.c ****         {
 176:Middlewares/Third_Party/LoRaWAN/Mac/Region/RegionKR920.c ****             phyParam.Value = KR920_DUTY_CYCLE_ENABLED;
 177:Middlewares/Third_Party/LoRaWAN/Mac/Region/RegionKR920.c ****             break;
 178:Middlewares/Third_Party/LoRaWAN/Mac/Region/RegionKR920.c ****         }
 179:Middlewares/Third_Party/LoRaWAN/Mac/Region/RegionKR920.c ****         case PHY_MAX_RX_WINDOW:
 180:Middlewares/Third_Party/LoRaWAN/Mac/Region/RegionKR920.c ****         {
 181:Middlewares/Third_Party/LoRaWAN/Mac/Region/RegionKR920.c ****             phyParam.Value = KR920_MAX_RX_WINDOW;
 182:Middlewares/Third_Party/LoRaWAN/Mac/Region/RegionKR920.c ****             break;
 183:Middlewares/Third_Party/LoRaWAN/Mac/Region/RegionKR920.c ****         }
 184:Middlewares/Third_Party/LoRaWAN/Mac/Region/RegionKR920.c ****         case PHY_RECEIVE_DELAY1:
 185:Middlewares/Third_Party/LoRaWAN/Mac/Region/RegionKR920.c ****         {
 186:Middlewares/Third_Party/LoRaWAN/Mac/Region/RegionKR920.c ****             phyParam.Value = REGION_COMMON_DEFAULT_RECEIVE_DELAY1;
 187:Middlewares/Third_Party/LoRaWAN/Mac/Region/RegionKR920.c ****             break;
ARM GAS  C:\Users\NATHAN~1\AppData\Local\Temp\ccFQkcZc.s 			page 5


 188:Middlewares/Third_Party/LoRaWAN/Mac/Region/RegionKR920.c ****         }
 189:Middlewares/Third_Party/LoRaWAN/Mac/Region/RegionKR920.c ****         case PHY_RECEIVE_DELAY2:
 190:Middlewares/Third_Party/LoRaWAN/Mac/Region/RegionKR920.c ****         {
 191:Middlewares/Third_Party/LoRaWAN/Mac/Region/RegionKR920.c ****             phyParam.Value = REGION_COMMON_DEFAULT_RECEIVE_DELAY2;
 192:Middlewares/Third_Party/LoRaWAN/Mac/Region/RegionKR920.c ****             break;
 193:Middlewares/Third_Party/LoRaWAN/Mac/Region/RegionKR920.c ****         }
 194:Middlewares/Third_Party/LoRaWAN/Mac/Region/RegionKR920.c ****         case PHY_JOIN_ACCEPT_DELAY1:
 195:Middlewares/Third_Party/LoRaWAN/Mac/Region/RegionKR920.c ****         {
 196:Middlewares/Third_Party/LoRaWAN/Mac/Region/RegionKR920.c ****             phyParam.Value = REGION_COMMON_DEFAULT_JOIN_ACCEPT_DELAY1;
 197:Middlewares/Third_Party/LoRaWAN/Mac/Region/RegionKR920.c ****             break;
 198:Middlewares/Third_Party/LoRaWAN/Mac/Region/RegionKR920.c ****         }
 199:Middlewares/Third_Party/LoRaWAN/Mac/Region/RegionKR920.c ****         case PHY_JOIN_ACCEPT_DELAY2:
 200:Middlewares/Third_Party/LoRaWAN/Mac/Region/RegionKR920.c ****         {
 201:Middlewares/Third_Party/LoRaWAN/Mac/Region/RegionKR920.c ****             phyParam.Value = REGION_COMMON_DEFAULT_JOIN_ACCEPT_DELAY2;
 202:Middlewares/Third_Party/LoRaWAN/Mac/Region/RegionKR920.c ****             break;
 203:Middlewares/Third_Party/LoRaWAN/Mac/Region/RegionKR920.c ****         }
 204:Middlewares/Third_Party/LoRaWAN/Mac/Region/RegionKR920.c ****         case PHY_MAX_FCNT_GAP:
 205:Middlewares/Third_Party/LoRaWAN/Mac/Region/RegionKR920.c ****         {
 206:Middlewares/Third_Party/LoRaWAN/Mac/Region/RegionKR920.c ****             phyParam.Value = REGION_COMMON_DEFAULT_MAX_FCNT_GAP;
 207:Middlewares/Third_Party/LoRaWAN/Mac/Region/RegionKR920.c ****             break;
 208:Middlewares/Third_Party/LoRaWAN/Mac/Region/RegionKR920.c ****         }
 209:Middlewares/Third_Party/LoRaWAN/Mac/Region/RegionKR920.c ****         case PHY_ACK_TIMEOUT:
 210:Middlewares/Third_Party/LoRaWAN/Mac/Region/RegionKR920.c ****         {
 211:Middlewares/Third_Party/LoRaWAN/Mac/Region/RegionKR920.c ****             phyParam.Value = ( REGION_COMMON_DEFAULT_ACK_TIMEOUT + randr( -REGION_COMMON_DEFAULT_AC
 212:Middlewares/Third_Party/LoRaWAN/Mac/Region/RegionKR920.c ****             break;
 213:Middlewares/Third_Party/LoRaWAN/Mac/Region/RegionKR920.c ****         }
 214:Middlewares/Third_Party/LoRaWAN/Mac/Region/RegionKR920.c ****         case PHY_DEF_DR1_OFFSET:
 215:Middlewares/Third_Party/LoRaWAN/Mac/Region/RegionKR920.c ****         {
 216:Middlewares/Third_Party/LoRaWAN/Mac/Region/RegionKR920.c ****             phyParam.Value = REGION_COMMON_DEFAULT_RX1_DR_OFFSET;
 217:Middlewares/Third_Party/LoRaWAN/Mac/Region/RegionKR920.c ****             break;
 218:Middlewares/Third_Party/LoRaWAN/Mac/Region/RegionKR920.c ****         }
 219:Middlewares/Third_Party/LoRaWAN/Mac/Region/RegionKR920.c ****         case PHY_DEF_RX2_FREQUENCY:
 220:Middlewares/Third_Party/LoRaWAN/Mac/Region/RegionKR920.c ****         {
 221:Middlewares/Third_Party/LoRaWAN/Mac/Region/RegionKR920.c ****             phyParam.Value = KR920_RX_WND_2_FREQ;
 222:Middlewares/Third_Party/LoRaWAN/Mac/Region/RegionKR920.c ****             break;
 223:Middlewares/Third_Party/LoRaWAN/Mac/Region/RegionKR920.c ****         }
 224:Middlewares/Third_Party/LoRaWAN/Mac/Region/RegionKR920.c ****         case PHY_DEF_RX2_DR:
 225:Middlewares/Third_Party/LoRaWAN/Mac/Region/RegionKR920.c ****         {
 226:Middlewares/Third_Party/LoRaWAN/Mac/Region/RegionKR920.c ****             phyParam.Value = KR920_RX_WND_2_DR;
 227:Middlewares/Third_Party/LoRaWAN/Mac/Region/RegionKR920.c ****             break;
 228:Middlewares/Third_Party/LoRaWAN/Mac/Region/RegionKR920.c ****         }
 229:Middlewares/Third_Party/LoRaWAN/Mac/Region/RegionKR920.c ****         case PHY_CHANNELS_MASK:
 230:Middlewares/Third_Party/LoRaWAN/Mac/Region/RegionKR920.c ****         {
 231:Middlewares/Third_Party/LoRaWAN/Mac/Region/RegionKR920.c ****             phyParam.ChannelsMask = RegionNvmGroup2->ChannelsMask;
 232:Middlewares/Third_Party/LoRaWAN/Mac/Region/RegionKR920.c ****             break;
 233:Middlewares/Third_Party/LoRaWAN/Mac/Region/RegionKR920.c ****         }
 234:Middlewares/Third_Party/LoRaWAN/Mac/Region/RegionKR920.c ****         case PHY_CHANNELS_DEFAULT_MASK:
 235:Middlewares/Third_Party/LoRaWAN/Mac/Region/RegionKR920.c ****         {
 236:Middlewares/Third_Party/LoRaWAN/Mac/Region/RegionKR920.c ****             phyParam.ChannelsMask = RegionNvmGroup2->ChannelsDefaultMask;
 237:Middlewares/Third_Party/LoRaWAN/Mac/Region/RegionKR920.c ****             break;
 238:Middlewares/Third_Party/LoRaWAN/Mac/Region/RegionKR920.c ****         }
 239:Middlewares/Third_Party/LoRaWAN/Mac/Region/RegionKR920.c ****         case PHY_MAX_NB_CHANNELS:
 240:Middlewares/Third_Party/LoRaWAN/Mac/Region/RegionKR920.c ****         {
 241:Middlewares/Third_Party/LoRaWAN/Mac/Region/RegionKR920.c ****             phyParam.Value = KR920_MAX_NB_CHANNELS;
 242:Middlewares/Third_Party/LoRaWAN/Mac/Region/RegionKR920.c ****             break;
 243:Middlewares/Third_Party/LoRaWAN/Mac/Region/RegionKR920.c ****         }
 244:Middlewares/Third_Party/LoRaWAN/Mac/Region/RegionKR920.c ****         case PHY_CHANNELS:
ARM GAS  C:\Users\NATHAN~1\AppData\Local\Temp\ccFQkcZc.s 			page 6


 245:Middlewares/Third_Party/LoRaWAN/Mac/Region/RegionKR920.c ****         {
 246:Middlewares/Third_Party/LoRaWAN/Mac/Region/RegionKR920.c ****             phyParam.Channels = RegionNvmGroup2->Channels;
 247:Middlewares/Third_Party/LoRaWAN/Mac/Region/RegionKR920.c ****             break;
 248:Middlewares/Third_Party/LoRaWAN/Mac/Region/RegionKR920.c ****         }
 249:Middlewares/Third_Party/LoRaWAN/Mac/Region/RegionKR920.c ****         case PHY_DEF_UPLINK_DWELL_TIME:
 250:Middlewares/Third_Party/LoRaWAN/Mac/Region/RegionKR920.c ****         {
 251:Middlewares/Third_Party/LoRaWAN/Mac/Region/RegionKR920.c ****             phyParam.Value = KR920_DEFAULT_UPLINK_DWELL_TIME;
 252:Middlewares/Third_Party/LoRaWAN/Mac/Region/RegionKR920.c ****             break;
 253:Middlewares/Third_Party/LoRaWAN/Mac/Region/RegionKR920.c ****         }
 254:Middlewares/Third_Party/LoRaWAN/Mac/Region/RegionKR920.c ****         case PHY_DEF_DOWNLINK_DWELL_TIME:
 255:Middlewares/Third_Party/LoRaWAN/Mac/Region/RegionKR920.c ****         {
 256:Middlewares/Third_Party/LoRaWAN/Mac/Region/RegionKR920.c ****             phyParam.Value = REGION_COMMON_DEFAULT_DOWNLINK_DWELL_TIME;
 257:Middlewares/Third_Party/LoRaWAN/Mac/Region/RegionKR920.c ****             break;
 258:Middlewares/Third_Party/LoRaWAN/Mac/Region/RegionKR920.c ****         }
 259:Middlewares/Third_Party/LoRaWAN/Mac/Region/RegionKR920.c ****         case PHY_DEF_MAX_EIRP:
 260:Middlewares/Third_Party/LoRaWAN/Mac/Region/RegionKR920.c ****         {
 261:Middlewares/Third_Party/LoRaWAN/Mac/Region/RegionKR920.c ****             // We set the higher maximum EIRP as default value.
 262:Middlewares/Third_Party/LoRaWAN/Mac/Region/RegionKR920.c ****             // The reason for this is, that the frequency may
 263:Middlewares/Third_Party/LoRaWAN/Mac/Region/RegionKR920.c ****             // change during a channel selection for the next uplink.
 264:Middlewares/Third_Party/LoRaWAN/Mac/Region/RegionKR920.c ****             // The value has to be recalculated in the TX configuration.
 265:Middlewares/Third_Party/LoRaWAN/Mac/Region/RegionKR920.c ****             phyParam.fValue = KR920_DEFAULT_MAX_EIRP_HIGH;
 266:Middlewares/Third_Party/LoRaWAN/Mac/Region/RegionKR920.c ****             break;
 267:Middlewares/Third_Party/LoRaWAN/Mac/Region/RegionKR920.c ****         }
 268:Middlewares/Third_Party/LoRaWAN/Mac/Region/RegionKR920.c ****         case PHY_DEF_ANTENNA_GAIN:
 269:Middlewares/Third_Party/LoRaWAN/Mac/Region/RegionKR920.c ****         {
 270:Middlewares/Third_Party/LoRaWAN/Mac/Region/RegionKR920.c ****             phyParam.fValue = KR920_DEFAULT_ANTENNA_GAIN;
 271:Middlewares/Third_Party/LoRaWAN/Mac/Region/RegionKR920.c ****             break;
 272:Middlewares/Third_Party/LoRaWAN/Mac/Region/RegionKR920.c ****         }
 273:Middlewares/Third_Party/LoRaWAN/Mac/Region/RegionKR920.c ****         case PHY_BEACON_CHANNEL_FREQ:
 274:Middlewares/Third_Party/LoRaWAN/Mac/Region/RegionKR920.c ****         {
 275:Middlewares/Third_Party/LoRaWAN/Mac/Region/RegionKR920.c ****             phyParam.Value = KR920_BEACON_CHANNEL_FREQ;
 276:Middlewares/Third_Party/LoRaWAN/Mac/Region/RegionKR920.c ****             break;
 277:Middlewares/Third_Party/LoRaWAN/Mac/Region/RegionKR920.c ****         }
 278:Middlewares/Third_Party/LoRaWAN/Mac/Region/RegionKR920.c ****         case PHY_BEACON_FORMAT:
 279:Middlewares/Third_Party/LoRaWAN/Mac/Region/RegionKR920.c ****         {
 280:Middlewares/Third_Party/LoRaWAN/Mac/Region/RegionKR920.c ****             phyParam.BeaconFormat.BeaconSize = KR920_BEACON_SIZE;
 281:Middlewares/Third_Party/LoRaWAN/Mac/Region/RegionKR920.c ****             phyParam.BeaconFormat.Rfu1Size = KR920_RFU1_SIZE;
 282:Middlewares/Third_Party/LoRaWAN/Mac/Region/RegionKR920.c ****             phyParam.BeaconFormat.Rfu2Size = KR920_RFU2_SIZE;
 283:Middlewares/Third_Party/LoRaWAN/Mac/Region/RegionKR920.c ****             break;
 284:Middlewares/Third_Party/LoRaWAN/Mac/Region/RegionKR920.c ****         }
 285:Middlewares/Third_Party/LoRaWAN/Mac/Region/RegionKR920.c ****         case PHY_BEACON_CHANNEL_DR:
 286:Middlewares/Third_Party/LoRaWAN/Mac/Region/RegionKR920.c ****         {
 287:Middlewares/Third_Party/LoRaWAN/Mac/Region/RegionKR920.c ****             phyParam.Value = KR920_BEACON_CHANNEL_DR;
 288:Middlewares/Third_Party/LoRaWAN/Mac/Region/RegionKR920.c ****             break;
 289:Middlewares/Third_Party/LoRaWAN/Mac/Region/RegionKR920.c ****         }
 290:Middlewares/Third_Party/LoRaWAN/Mac/Region/RegionKR920.c ****         case PHY_PING_SLOT_CHANNEL_FREQ:
 291:Middlewares/Third_Party/LoRaWAN/Mac/Region/RegionKR920.c ****         {
 292:Middlewares/Third_Party/LoRaWAN/Mac/Region/RegionKR920.c ****             phyParam.Value = KR920_PING_SLOT_CHANNEL_FREQ;
 293:Middlewares/Third_Party/LoRaWAN/Mac/Region/RegionKR920.c ****             break;
 294:Middlewares/Third_Party/LoRaWAN/Mac/Region/RegionKR920.c ****         }
 295:Middlewares/Third_Party/LoRaWAN/Mac/Region/RegionKR920.c ****         case PHY_PING_SLOT_CHANNEL_DR:
 296:Middlewares/Third_Party/LoRaWAN/Mac/Region/RegionKR920.c ****         {
 297:Middlewares/Third_Party/LoRaWAN/Mac/Region/RegionKR920.c ****             phyParam.Value = KR920_PING_SLOT_CHANNEL_DR;
 298:Middlewares/Third_Party/LoRaWAN/Mac/Region/RegionKR920.c ****             break;
 299:Middlewares/Third_Party/LoRaWAN/Mac/Region/RegionKR920.c ****         }
 300:Middlewares/Third_Party/LoRaWAN/Mac/Region/RegionKR920.c ****         case PHY_SF_FROM_DR:
 301:Middlewares/Third_Party/LoRaWAN/Mac/Region/RegionKR920.c ****         {
ARM GAS  C:\Users\NATHAN~1\AppData\Local\Temp\ccFQkcZc.s 			page 7


 302:Middlewares/Third_Party/LoRaWAN/Mac/Region/RegionKR920.c ****             phyParam.Value = DataratesKR920[getPhy->Datarate];
 303:Middlewares/Third_Party/LoRaWAN/Mac/Region/RegionKR920.c ****             break;
 304:Middlewares/Third_Party/LoRaWAN/Mac/Region/RegionKR920.c ****         }
 305:Middlewares/Third_Party/LoRaWAN/Mac/Region/RegionKR920.c ****         case PHY_BW_FROM_DR:
 306:Middlewares/Third_Party/LoRaWAN/Mac/Region/RegionKR920.c ****         {
 307:Middlewares/Third_Party/LoRaWAN/Mac/Region/RegionKR920.c ****             phyParam.Value = RegionCommonGetBandwidth( getPhy->Datarate, BandwidthsKR920 );
 308:Middlewares/Third_Party/LoRaWAN/Mac/Region/RegionKR920.c ****             break;
 309:Middlewares/Third_Party/LoRaWAN/Mac/Region/RegionKR920.c ****         }
 310:Middlewares/Third_Party/LoRaWAN/Mac/Region/RegionKR920.c ****         default:
 311:Middlewares/Third_Party/LoRaWAN/Mac/Region/RegionKR920.c ****         {
 312:Middlewares/Third_Party/LoRaWAN/Mac/Region/RegionKR920.c ****             break;
 313:Middlewares/Third_Party/LoRaWAN/Mac/Region/RegionKR920.c ****         }
 314:Middlewares/Third_Party/LoRaWAN/Mac/Region/RegionKR920.c ****     }
 315:Middlewares/Third_Party/LoRaWAN/Mac/Region/RegionKR920.c **** 
 316:Middlewares/Third_Party/LoRaWAN/Mac/Region/RegionKR920.c **** #endif /* REGION_KR920 */
 317:Middlewares/Third_Party/LoRaWAN/Mac/Region/RegionKR920.c ****     return phyParam;
  43              		.loc 1 317 5 is_stmt 1 view .LVU5
  44              		.loc 1 317 12 is_stmt 0 view .LVU6
  45 0006 0190     		str	r0, [sp, #4]
 318:Middlewares/Third_Party/LoRaWAN/Mac/Region/RegionKR920.c **** }
  46              		.loc 1 318 1 view .LVU7
  47 0008 02B0     		add	sp, sp, #8
  48              	.LCFI1:
  49              		.cfi_def_cfa_offset 0
  50              		@ sp needed
  51 000a 7047     		bx	lr
  52              		.cfi_endproc
  53              	.LFE104:
  55              		.section	.text.RegionKR920SetBandTxDone,"ax",%progbits
  56              		.align	1
  57              		.global	RegionKR920SetBandTxDone
  58              		.syntax unified
  59              		.thumb
  60              		.thumb_func
  62              	RegionKR920SetBandTxDone:
  63              	.LVL2:
  64              	.LFB105:
 319:Middlewares/Third_Party/LoRaWAN/Mac/Region/RegionKR920.c **** 
 320:Middlewares/Third_Party/LoRaWAN/Mac/Region/RegionKR920.c **** void RegionKR920SetBandTxDone( SetBandTxDoneParams_t* txDone )
 321:Middlewares/Third_Party/LoRaWAN/Mac/Region/RegionKR920.c **** {
  65              		.loc 1 321 1 is_stmt 1 view -0
  66              		.cfi_startproc
  67              		@ args = 0, pretend = 0, frame = 0
  68              		@ frame_needed = 0, uses_anonymous_args = 0
  69              		@ link register save eliminated.
 322:Middlewares/Third_Party/LoRaWAN/Mac/Region/RegionKR920.c **** #if defined( REGION_KR920 )
 323:Middlewares/Third_Party/LoRaWAN/Mac/Region/RegionKR920.c ****     RegionCommonSetBandTxDone( &RegionNvmGroup1->Bands[RegionNvmGroup2->Channels[txDone->Channel].B
 324:Middlewares/Third_Party/LoRaWAN/Mac/Region/RegionKR920.c ****                                txDone->LastTxAirTime, txDone->Joined, txDone->ElapsedTimeSinceStart
 325:Middlewares/Third_Party/LoRaWAN/Mac/Region/RegionKR920.c **** #endif /* REGION_KR920 */
 326:Middlewares/Third_Party/LoRaWAN/Mac/Region/RegionKR920.c **** }
  70              		.loc 1 326 1 view .LVU9
  71 0000 7047     		bx	lr
  72              		.cfi_endproc
  73              	.LFE105:
  75              		.section	.text.RegionKR920InitDefaults,"ax",%progbits
  76              		.align	1
  77              		.global	RegionKR920InitDefaults
ARM GAS  C:\Users\NATHAN~1\AppData\Local\Temp\ccFQkcZc.s 			page 8


  78              		.syntax unified
  79              		.thumb
  80              		.thumb_func
  82              	RegionKR920InitDefaults:
  83              	.LVL3:
  84              	.LFB106:
 327:Middlewares/Third_Party/LoRaWAN/Mac/Region/RegionKR920.c **** 
 328:Middlewares/Third_Party/LoRaWAN/Mac/Region/RegionKR920.c **** void RegionKR920InitDefaults( InitDefaultsParams_t* params )
 329:Middlewares/Third_Party/LoRaWAN/Mac/Region/RegionKR920.c **** {
  85              		.loc 1 329 1 view -0
  86              		.cfi_startproc
  87              		@ args = 0, pretend = 0, frame = 0
  88              		@ frame_needed = 0, uses_anonymous_args = 0
  89              		@ link register save eliminated.
 330:Middlewares/Third_Party/LoRaWAN/Mac/Region/RegionKR920.c **** #if defined( REGION_KR920 )
 331:Middlewares/Third_Party/LoRaWAN/Mac/Region/RegionKR920.c ****     Band_t bands[KR920_MAX_NB_BANDS] =
 332:Middlewares/Third_Party/LoRaWAN/Mac/Region/RegionKR920.c ****     {
 333:Middlewares/Third_Party/LoRaWAN/Mac/Region/RegionKR920.c ****         KR920_BAND0
 334:Middlewares/Third_Party/LoRaWAN/Mac/Region/RegionKR920.c ****     };
 335:Middlewares/Third_Party/LoRaWAN/Mac/Region/RegionKR920.c **** 
 336:Middlewares/Third_Party/LoRaWAN/Mac/Region/RegionKR920.c ****     switch( params->Type )
 337:Middlewares/Third_Party/LoRaWAN/Mac/Region/RegionKR920.c ****     {
 338:Middlewares/Third_Party/LoRaWAN/Mac/Region/RegionKR920.c ****         case INIT_TYPE_DEFAULTS:
 339:Middlewares/Third_Party/LoRaWAN/Mac/Region/RegionKR920.c ****         {
 340:Middlewares/Third_Party/LoRaWAN/Mac/Region/RegionKR920.c ****             if( ( params->NvmGroup1 == NULL ) || ( params->NvmGroup2 == NULL ) )
 341:Middlewares/Third_Party/LoRaWAN/Mac/Region/RegionKR920.c ****             {
 342:Middlewares/Third_Party/LoRaWAN/Mac/Region/RegionKR920.c ****                 return;
 343:Middlewares/Third_Party/LoRaWAN/Mac/Region/RegionKR920.c ****             }
 344:Middlewares/Third_Party/LoRaWAN/Mac/Region/RegionKR920.c **** 
 345:Middlewares/Third_Party/LoRaWAN/Mac/Region/RegionKR920.c ****             RegionNvmGroup1 = (RegionNvmDataGroup1_t*) params->NvmGroup1;
 346:Middlewares/Third_Party/LoRaWAN/Mac/Region/RegionKR920.c ****             RegionNvmGroup2 = (RegionNvmDataGroup2_t*) params->NvmGroup2;
 347:Middlewares/Third_Party/LoRaWAN/Mac/Region/RegionKR920.c **** 
 348:Middlewares/Third_Party/LoRaWAN/Mac/Region/RegionKR920.c ****             // Initialize bands
 349:Middlewares/Third_Party/LoRaWAN/Mac/Region/RegionKR920.c ****             memcpy1( ( uint8_t* )RegionNvmGroup1->Bands, ( uint8_t* )bands, sizeof( Band_t ) * KR92
 350:Middlewares/Third_Party/LoRaWAN/Mac/Region/RegionKR920.c **** 
 351:Middlewares/Third_Party/LoRaWAN/Mac/Region/RegionKR920.c ****             // Default channels
 352:Middlewares/Third_Party/LoRaWAN/Mac/Region/RegionKR920.c ****             RegionNvmGroup2->Channels[0] = ( ChannelParams_t ) KR920_LC1;
 353:Middlewares/Third_Party/LoRaWAN/Mac/Region/RegionKR920.c ****             RegionNvmGroup2->Channels[1] = ( ChannelParams_t ) KR920_LC2;
 354:Middlewares/Third_Party/LoRaWAN/Mac/Region/RegionKR920.c ****             RegionNvmGroup2->Channels[2] = ( ChannelParams_t ) KR920_LC3;
 355:Middlewares/Third_Party/LoRaWAN/Mac/Region/RegionKR920.c **** 
 356:Middlewares/Third_Party/LoRaWAN/Mac/Region/RegionKR920.c ****             // Default ChannelsMask
 357:Middlewares/Third_Party/LoRaWAN/Mac/Region/RegionKR920.c ****             RegionNvmGroup2->ChannelsDefaultMask[0] = LC( 1 ) + LC( 2 ) + LC( 3 );
 358:Middlewares/Third_Party/LoRaWAN/Mac/Region/RegionKR920.c **** 
 359:Middlewares/Third_Party/LoRaWAN/Mac/Region/RegionKR920.c ****             // Update the channels mask
 360:Middlewares/Third_Party/LoRaWAN/Mac/Region/RegionKR920.c ****             RegionCommonChanMaskCopy( RegionNvmGroup2->ChannelsMask, RegionNvmGroup2->ChannelsDefau
 361:Middlewares/Third_Party/LoRaWAN/Mac/Region/RegionKR920.c ****             break;
 362:Middlewares/Third_Party/LoRaWAN/Mac/Region/RegionKR920.c ****         }
 363:Middlewares/Third_Party/LoRaWAN/Mac/Region/RegionKR920.c ****         case INIT_TYPE_RESET_TO_DEFAULT_CHANNELS:
 364:Middlewares/Third_Party/LoRaWAN/Mac/Region/RegionKR920.c ****         {
 365:Middlewares/Third_Party/LoRaWAN/Mac/Region/RegionKR920.c ****             // Reset Channels Rx1Frequency to default 0
 366:Middlewares/Third_Party/LoRaWAN/Mac/Region/RegionKR920.c ****             RegionNvmGroup2->Channels[0].Rx1Frequency = 0;
 367:Middlewares/Third_Party/LoRaWAN/Mac/Region/RegionKR920.c ****             RegionNvmGroup2->Channels[1].Rx1Frequency = 0;
 368:Middlewares/Third_Party/LoRaWAN/Mac/Region/RegionKR920.c ****             RegionNvmGroup2->Channels[2].Rx1Frequency = 0;
 369:Middlewares/Third_Party/LoRaWAN/Mac/Region/RegionKR920.c ****             // Update the channels mask
 370:Middlewares/Third_Party/LoRaWAN/Mac/Region/RegionKR920.c ****             RegionCommonChanMaskCopy( RegionNvmGroup2->ChannelsMask, RegionNvmGroup2->ChannelsDefau
 371:Middlewares/Third_Party/LoRaWAN/Mac/Region/RegionKR920.c ****             break;
 372:Middlewares/Third_Party/LoRaWAN/Mac/Region/RegionKR920.c ****         }
ARM GAS  C:\Users\NATHAN~1\AppData\Local\Temp\ccFQkcZc.s 			page 9


 373:Middlewares/Third_Party/LoRaWAN/Mac/Region/RegionKR920.c ****         case INIT_TYPE_ACTIVATE_DEFAULT_CHANNELS:
 374:Middlewares/Third_Party/LoRaWAN/Mac/Region/RegionKR920.c ****         {
 375:Middlewares/Third_Party/LoRaWAN/Mac/Region/RegionKR920.c ****             // Restore channels default mask
 376:Middlewares/Third_Party/LoRaWAN/Mac/Region/RegionKR920.c ****             RegionNvmGroup2->ChannelsMask[0] |= RegionNvmGroup2->ChannelsDefaultMask[0];
 377:Middlewares/Third_Party/LoRaWAN/Mac/Region/RegionKR920.c ****             break;
 378:Middlewares/Third_Party/LoRaWAN/Mac/Region/RegionKR920.c ****         }
 379:Middlewares/Third_Party/LoRaWAN/Mac/Region/RegionKR920.c ****         default:
 380:Middlewares/Third_Party/LoRaWAN/Mac/Region/RegionKR920.c ****         {
 381:Middlewares/Third_Party/LoRaWAN/Mac/Region/RegionKR920.c ****             break;
 382:Middlewares/Third_Party/LoRaWAN/Mac/Region/RegionKR920.c ****         }
 383:Middlewares/Third_Party/LoRaWAN/Mac/Region/RegionKR920.c ****     }
 384:Middlewares/Third_Party/LoRaWAN/Mac/Region/RegionKR920.c **** #endif /* REGION_KR920 */
 385:Middlewares/Third_Party/LoRaWAN/Mac/Region/RegionKR920.c **** }
  90              		.loc 1 385 1 view .LVU11
  91 0000 7047     		bx	lr
  92              		.cfi_endproc
  93              	.LFE106:
  95              		.section	.text.RegionKR920Verify,"ax",%progbits
  96              		.align	1
  97              		.global	RegionKR920Verify
  98              		.syntax unified
  99              		.thumb
 100              		.thumb_func
 102              	RegionKR920Verify:
 103              	.LVL4:
 104              	.LFB107:
 386:Middlewares/Third_Party/LoRaWAN/Mac/Region/RegionKR920.c **** 
 387:Middlewares/Third_Party/LoRaWAN/Mac/Region/RegionKR920.c **** bool RegionKR920Verify( VerifyParams_t* verify, PhyAttribute_t phyAttribute )
 388:Middlewares/Third_Party/LoRaWAN/Mac/Region/RegionKR920.c **** {
 105              		.loc 1 388 1 view -0
 106              		.cfi_startproc
 107              		@ args = 0, pretend = 0, frame = 0
 108              		@ frame_needed = 0, uses_anonymous_args = 0
 109              		@ link register save eliminated.
 389:Middlewares/Third_Party/LoRaWAN/Mac/Region/RegionKR920.c **** #if defined( REGION_KR920 )
 390:Middlewares/Third_Party/LoRaWAN/Mac/Region/RegionKR920.c ****     switch( phyAttribute )
 391:Middlewares/Third_Party/LoRaWAN/Mac/Region/RegionKR920.c ****     {
 392:Middlewares/Third_Party/LoRaWAN/Mac/Region/RegionKR920.c ****         case PHY_FREQUENCY:
 393:Middlewares/Third_Party/LoRaWAN/Mac/Region/RegionKR920.c ****         {
 394:Middlewares/Third_Party/LoRaWAN/Mac/Region/RegionKR920.c ****             return VerifyRfFreq( verify->Frequency );
 395:Middlewares/Third_Party/LoRaWAN/Mac/Region/RegionKR920.c ****         }
 396:Middlewares/Third_Party/LoRaWAN/Mac/Region/RegionKR920.c ****         case PHY_TX_DR:
 397:Middlewares/Third_Party/LoRaWAN/Mac/Region/RegionKR920.c ****         {
 398:Middlewares/Third_Party/LoRaWAN/Mac/Region/RegionKR920.c ****             return RegionCommonValueInRange( verify->DatarateParams.Datarate, KR920_TX_MIN_DATARATE
 399:Middlewares/Third_Party/LoRaWAN/Mac/Region/RegionKR920.c ****         }
 400:Middlewares/Third_Party/LoRaWAN/Mac/Region/RegionKR920.c ****         case PHY_DEF_TX_DR:
 401:Middlewares/Third_Party/LoRaWAN/Mac/Region/RegionKR920.c ****         {
 402:Middlewares/Third_Party/LoRaWAN/Mac/Region/RegionKR920.c ****             return RegionCommonValueInRange( verify->DatarateParams.Datarate, DR_0, DR_5 );
 403:Middlewares/Third_Party/LoRaWAN/Mac/Region/RegionKR920.c ****         }
 404:Middlewares/Third_Party/LoRaWAN/Mac/Region/RegionKR920.c ****         case PHY_RX_DR:
 405:Middlewares/Third_Party/LoRaWAN/Mac/Region/RegionKR920.c ****         {
 406:Middlewares/Third_Party/LoRaWAN/Mac/Region/RegionKR920.c ****             return RegionCommonValueInRange( verify->DatarateParams.Datarate, KR920_RX_MIN_DATARATE
 407:Middlewares/Third_Party/LoRaWAN/Mac/Region/RegionKR920.c ****         }
 408:Middlewares/Third_Party/LoRaWAN/Mac/Region/RegionKR920.c ****         case PHY_DEF_TX_POWER:
 409:Middlewares/Third_Party/LoRaWAN/Mac/Region/RegionKR920.c ****         case PHY_TX_POWER:
 410:Middlewares/Third_Party/LoRaWAN/Mac/Region/RegionKR920.c ****         {
 411:Middlewares/Third_Party/LoRaWAN/Mac/Region/RegionKR920.c ****             // Remark: switched min and max!
ARM GAS  C:\Users\NATHAN~1\AppData\Local\Temp\ccFQkcZc.s 			page 10


 412:Middlewares/Third_Party/LoRaWAN/Mac/Region/RegionKR920.c ****             return RegionCommonValueInRange( verify->TxPower, KR920_MAX_TX_POWER, KR920_MIN_TX_POWE
 413:Middlewares/Third_Party/LoRaWAN/Mac/Region/RegionKR920.c ****         }
 414:Middlewares/Third_Party/LoRaWAN/Mac/Region/RegionKR920.c ****         case PHY_DUTY_CYCLE:
 415:Middlewares/Third_Party/LoRaWAN/Mac/Region/RegionKR920.c ****         {
 416:Middlewares/Third_Party/LoRaWAN/Mac/Region/RegionKR920.c ****             return KR920_DUTY_CYCLE_ENABLED;
 417:Middlewares/Third_Party/LoRaWAN/Mac/Region/RegionKR920.c ****         }
 418:Middlewares/Third_Party/LoRaWAN/Mac/Region/RegionKR920.c ****         default:
 419:Middlewares/Third_Party/LoRaWAN/Mac/Region/RegionKR920.c ****             return false;
 420:Middlewares/Third_Party/LoRaWAN/Mac/Region/RegionKR920.c ****     }
 421:Middlewares/Third_Party/LoRaWAN/Mac/Region/RegionKR920.c **** #else
 422:Middlewares/Third_Party/LoRaWAN/Mac/Region/RegionKR920.c ****     return false;
 110              		.loc 1 422 5 view .LVU13
 423:Middlewares/Third_Party/LoRaWAN/Mac/Region/RegionKR920.c **** #endif /* REGION_KR920 */
 424:Middlewares/Third_Party/LoRaWAN/Mac/Region/RegionKR920.c **** }
 111              		.loc 1 424 1 is_stmt 0 view .LVU14
 112 0000 0020     		movs	r0, #0
 113              	.LVL5:
 114              		.loc 1 424 1 view .LVU15
 115 0002 7047     		bx	lr
 116              		.cfi_endproc
 117              	.LFE107:
 119              		.section	.text.RegionKR920ApplyCFList,"ax",%progbits
 120              		.align	1
 121              		.global	RegionKR920ApplyCFList
 122              		.syntax unified
 123              		.thumb
 124              		.thumb_func
 126              	RegionKR920ApplyCFList:
 127              	.LVL6:
 128              	.LFB108:
 425:Middlewares/Third_Party/LoRaWAN/Mac/Region/RegionKR920.c **** 
 426:Middlewares/Third_Party/LoRaWAN/Mac/Region/RegionKR920.c **** void RegionKR920ApplyCFList( ApplyCFListParams_t* applyCFList )
 427:Middlewares/Third_Party/LoRaWAN/Mac/Region/RegionKR920.c **** {
 129              		.loc 1 427 1 is_stmt 1 view -0
 130              		.cfi_startproc
 131              		@ args = 0, pretend = 0, frame = 0
 132              		@ frame_needed = 0, uses_anonymous_args = 0
 133              		@ link register save eliminated.
 428:Middlewares/Third_Party/LoRaWAN/Mac/Region/RegionKR920.c **** #if defined( REGION_KR920 )
 429:Middlewares/Third_Party/LoRaWAN/Mac/Region/RegionKR920.c ****     ChannelParams_t newChannel;
 430:Middlewares/Third_Party/LoRaWAN/Mac/Region/RegionKR920.c ****     ChannelAddParams_t channelAdd;
 431:Middlewares/Third_Party/LoRaWAN/Mac/Region/RegionKR920.c ****     ChannelRemoveParams_t channelRemove;
 432:Middlewares/Third_Party/LoRaWAN/Mac/Region/RegionKR920.c **** 
 433:Middlewares/Third_Party/LoRaWAN/Mac/Region/RegionKR920.c ****     // Setup default datarate range
 434:Middlewares/Third_Party/LoRaWAN/Mac/Region/RegionKR920.c ****     newChannel.DrRange.Value = ( DR_5 << 4 ) | DR_0;
 435:Middlewares/Third_Party/LoRaWAN/Mac/Region/RegionKR920.c **** 
 436:Middlewares/Third_Party/LoRaWAN/Mac/Region/RegionKR920.c ****     // Size of the optional CF list
 437:Middlewares/Third_Party/LoRaWAN/Mac/Region/RegionKR920.c ****     if( applyCFList->Size != 16 )
 438:Middlewares/Third_Party/LoRaWAN/Mac/Region/RegionKR920.c ****     {
 439:Middlewares/Third_Party/LoRaWAN/Mac/Region/RegionKR920.c ****         return;
 440:Middlewares/Third_Party/LoRaWAN/Mac/Region/RegionKR920.c ****     }
 441:Middlewares/Third_Party/LoRaWAN/Mac/Region/RegionKR920.c **** 
 442:Middlewares/Third_Party/LoRaWAN/Mac/Region/RegionKR920.c ****     // Last byte CFListType must be 0 to indicate the CFList contains a list of frequencies
 443:Middlewares/Third_Party/LoRaWAN/Mac/Region/RegionKR920.c ****     if( applyCFList->Payload[15] != 0 )
 444:Middlewares/Third_Party/LoRaWAN/Mac/Region/RegionKR920.c ****     {
 445:Middlewares/Third_Party/LoRaWAN/Mac/Region/RegionKR920.c ****         return;
 446:Middlewares/Third_Party/LoRaWAN/Mac/Region/RegionKR920.c ****     }
ARM GAS  C:\Users\NATHAN~1\AppData\Local\Temp\ccFQkcZc.s 			page 11


 447:Middlewares/Third_Party/LoRaWAN/Mac/Region/RegionKR920.c **** 
 448:Middlewares/Third_Party/LoRaWAN/Mac/Region/RegionKR920.c ****     // Last byte is RFU, don't take it into account
 449:Middlewares/Third_Party/LoRaWAN/Mac/Region/RegionKR920.c ****     for( uint8_t i = 0, chanIdx = KR920_NUMB_DEFAULT_CHANNELS; chanIdx < KR920_MAX_NB_CHANNELS; i+=
 450:Middlewares/Third_Party/LoRaWAN/Mac/Region/RegionKR920.c ****     {
 451:Middlewares/Third_Party/LoRaWAN/Mac/Region/RegionKR920.c ****         if( chanIdx < ( KR920_NUMB_CHANNELS_CF_LIST + KR920_NUMB_DEFAULT_CHANNELS ) )
 452:Middlewares/Third_Party/LoRaWAN/Mac/Region/RegionKR920.c ****         {
 453:Middlewares/Third_Party/LoRaWAN/Mac/Region/RegionKR920.c ****             // Channel frequency
 454:Middlewares/Third_Party/LoRaWAN/Mac/Region/RegionKR920.c ****             newChannel.Frequency = (uint32_t) applyCFList->Payload[i];
 455:Middlewares/Third_Party/LoRaWAN/Mac/Region/RegionKR920.c ****             newChannel.Frequency |= ( (uint32_t) applyCFList->Payload[i + 1] << 8 );
 456:Middlewares/Third_Party/LoRaWAN/Mac/Region/RegionKR920.c ****             newChannel.Frequency |= ( (uint32_t) applyCFList->Payload[i + 2] << 16 );
 457:Middlewares/Third_Party/LoRaWAN/Mac/Region/RegionKR920.c ****             newChannel.Frequency *= 100;
 458:Middlewares/Third_Party/LoRaWAN/Mac/Region/RegionKR920.c **** 
 459:Middlewares/Third_Party/LoRaWAN/Mac/Region/RegionKR920.c ****             // Initialize alternative frequency to 0
 460:Middlewares/Third_Party/LoRaWAN/Mac/Region/RegionKR920.c ****             newChannel.Rx1Frequency = 0;
 461:Middlewares/Third_Party/LoRaWAN/Mac/Region/RegionKR920.c ****         }
 462:Middlewares/Third_Party/LoRaWAN/Mac/Region/RegionKR920.c ****         else
 463:Middlewares/Third_Party/LoRaWAN/Mac/Region/RegionKR920.c ****         {
 464:Middlewares/Third_Party/LoRaWAN/Mac/Region/RegionKR920.c ****             newChannel.Frequency = 0;
 465:Middlewares/Third_Party/LoRaWAN/Mac/Region/RegionKR920.c ****             newChannel.DrRange.Value = 0;
 466:Middlewares/Third_Party/LoRaWAN/Mac/Region/RegionKR920.c ****             newChannel.Rx1Frequency = 0;
 467:Middlewares/Third_Party/LoRaWAN/Mac/Region/RegionKR920.c ****         }
 468:Middlewares/Third_Party/LoRaWAN/Mac/Region/RegionKR920.c **** 
 469:Middlewares/Third_Party/LoRaWAN/Mac/Region/RegionKR920.c ****         if( newChannel.Frequency != 0 )
 470:Middlewares/Third_Party/LoRaWAN/Mac/Region/RegionKR920.c ****         {
 471:Middlewares/Third_Party/LoRaWAN/Mac/Region/RegionKR920.c ****             channelAdd.NewChannel = &newChannel;
 472:Middlewares/Third_Party/LoRaWAN/Mac/Region/RegionKR920.c ****             channelAdd.ChannelId = chanIdx;
 473:Middlewares/Third_Party/LoRaWAN/Mac/Region/RegionKR920.c **** 
 474:Middlewares/Third_Party/LoRaWAN/Mac/Region/RegionKR920.c ****             // Try to add all channels
 475:Middlewares/Third_Party/LoRaWAN/Mac/Region/RegionKR920.c ****             RegionKR920ChannelAdd( &channelAdd );
 476:Middlewares/Third_Party/LoRaWAN/Mac/Region/RegionKR920.c ****         }
 477:Middlewares/Third_Party/LoRaWAN/Mac/Region/RegionKR920.c ****         else
 478:Middlewares/Third_Party/LoRaWAN/Mac/Region/RegionKR920.c ****         {
 479:Middlewares/Third_Party/LoRaWAN/Mac/Region/RegionKR920.c ****             channelRemove.ChannelId = chanIdx;
 480:Middlewares/Third_Party/LoRaWAN/Mac/Region/RegionKR920.c **** 
 481:Middlewares/Third_Party/LoRaWAN/Mac/Region/RegionKR920.c ****             RegionKR920ChannelsRemove( &channelRemove );
 482:Middlewares/Third_Party/LoRaWAN/Mac/Region/RegionKR920.c ****         }
 483:Middlewares/Third_Party/LoRaWAN/Mac/Region/RegionKR920.c ****     }
 484:Middlewares/Third_Party/LoRaWAN/Mac/Region/RegionKR920.c **** #endif /* REGION_KR920 */
 485:Middlewares/Third_Party/LoRaWAN/Mac/Region/RegionKR920.c **** }
 134              		.loc 1 485 1 view .LVU17
 135 0000 7047     		bx	lr
 136              		.cfi_endproc
 137              	.LFE108:
 139              		.section	.text.RegionKR920ChanMaskSet,"ax",%progbits
 140              		.align	1
 141              		.global	RegionKR920ChanMaskSet
 142              		.syntax unified
 143              		.thumb
 144              		.thumb_func
 146              	RegionKR920ChanMaskSet:
 147              	.LVL7:
 148              	.LFB109:
 486:Middlewares/Third_Party/LoRaWAN/Mac/Region/RegionKR920.c **** 
 487:Middlewares/Third_Party/LoRaWAN/Mac/Region/RegionKR920.c **** bool RegionKR920ChanMaskSet( ChanMaskSetParams_t* chanMaskSet )
 488:Middlewares/Third_Party/LoRaWAN/Mac/Region/RegionKR920.c **** {
 149              		.loc 1 488 1 view -0
 150              		.cfi_startproc
ARM GAS  C:\Users\NATHAN~1\AppData\Local\Temp\ccFQkcZc.s 			page 12


 151              		@ args = 0, pretend = 0, frame = 0
 152              		@ frame_needed = 0, uses_anonymous_args = 0
 153              		@ link register save eliminated.
 489:Middlewares/Third_Party/LoRaWAN/Mac/Region/RegionKR920.c **** #if defined( REGION_KR920 )
 490:Middlewares/Third_Party/LoRaWAN/Mac/Region/RegionKR920.c ****     switch( chanMaskSet->ChannelsMaskType )
 491:Middlewares/Third_Party/LoRaWAN/Mac/Region/RegionKR920.c ****     {
 492:Middlewares/Third_Party/LoRaWAN/Mac/Region/RegionKR920.c ****         case CHANNELS_MASK:
 493:Middlewares/Third_Party/LoRaWAN/Mac/Region/RegionKR920.c ****         {
 494:Middlewares/Third_Party/LoRaWAN/Mac/Region/RegionKR920.c ****             RegionCommonChanMaskCopy( RegionNvmGroup2->ChannelsMask, chanMaskSet->ChannelsMaskIn, 1
 495:Middlewares/Third_Party/LoRaWAN/Mac/Region/RegionKR920.c ****             break;
 496:Middlewares/Third_Party/LoRaWAN/Mac/Region/RegionKR920.c ****         }
 497:Middlewares/Third_Party/LoRaWAN/Mac/Region/RegionKR920.c ****         case CHANNELS_DEFAULT_MASK:
 498:Middlewares/Third_Party/LoRaWAN/Mac/Region/RegionKR920.c ****         {
 499:Middlewares/Third_Party/LoRaWAN/Mac/Region/RegionKR920.c ****             RegionCommonChanMaskCopy( RegionNvmGroup2->ChannelsDefaultMask, chanMaskSet->ChannelsMa
 500:Middlewares/Third_Party/LoRaWAN/Mac/Region/RegionKR920.c ****             break;
 501:Middlewares/Third_Party/LoRaWAN/Mac/Region/RegionKR920.c ****         }
 502:Middlewares/Third_Party/LoRaWAN/Mac/Region/RegionKR920.c ****         default:
 503:Middlewares/Third_Party/LoRaWAN/Mac/Region/RegionKR920.c ****             return false;
 504:Middlewares/Third_Party/LoRaWAN/Mac/Region/RegionKR920.c ****     }
 505:Middlewares/Third_Party/LoRaWAN/Mac/Region/RegionKR920.c ****     return true;
 506:Middlewares/Third_Party/LoRaWAN/Mac/Region/RegionKR920.c **** #else
 507:Middlewares/Third_Party/LoRaWAN/Mac/Region/RegionKR920.c ****     return false;
 154              		.loc 1 507 5 view .LVU19
 508:Middlewares/Third_Party/LoRaWAN/Mac/Region/RegionKR920.c **** #endif /* REGION_KR920 */
 509:Middlewares/Third_Party/LoRaWAN/Mac/Region/RegionKR920.c **** }
 155              		.loc 1 509 1 is_stmt 0 view .LVU20
 156 0000 0020     		movs	r0, #0
 157              	.LVL8:
 158              		.loc 1 509 1 view .LVU21
 159 0002 7047     		bx	lr
 160              		.cfi_endproc
 161              	.LFE109:
 163              		.section	.text.RegionKR920ComputeRxWindowParameters,"ax",%progbits
 164              		.align	1
 165              		.global	RegionKR920ComputeRxWindowParameters
 166              		.syntax unified
 167              		.thumb
 168              		.thumb_func
 170              	RegionKR920ComputeRxWindowParameters:
 171              	.LVL9:
 172              	.LFB110:
 510:Middlewares/Third_Party/LoRaWAN/Mac/Region/RegionKR920.c **** 
 511:Middlewares/Third_Party/LoRaWAN/Mac/Region/RegionKR920.c **** void RegionKR920ComputeRxWindowParameters( int8_t datarate, uint8_t minRxSymbols, uint32_t rxError,
 512:Middlewares/Third_Party/LoRaWAN/Mac/Region/RegionKR920.c **** {
 173              		.loc 1 512 1 is_stmt 1 view -0
 174              		.cfi_startproc
 175              		@ args = 0, pretend = 0, frame = 0
 176              		@ frame_needed = 0, uses_anonymous_args = 0
 177              		@ link register save eliminated.
 513:Middlewares/Third_Party/LoRaWAN/Mac/Region/RegionKR920.c **** #if defined( REGION_KR920 )
 514:Middlewares/Third_Party/LoRaWAN/Mac/Region/RegionKR920.c ****     uint32_t tSymbolInUs = 0;
 515:Middlewares/Third_Party/LoRaWAN/Mac/Region/RegionKR920.c **** 
 516:Middlewares/Third_Party/LoRaWAN/Mac/Region/RegionKR920.c ****     // Get the datarate, perform a boundary check
 517:Middlewares/Third_Party/LoRaWAN/Mac/Region/RegionKR920.c ****     rxConfigParams->Datarate = MIN( datarate, KR920_RX_MAX_DATARATE );
 518:Middlewares/Third_Party/LoRaWAN/Mac/Region/RegionKR920.c ****     rxConfigParams->Bandwidth = RegionCommonGetBandwidth( rxConfigParams->Datarate, BandwidthsKR920
 519:Middlewares/Third_Party/LoRaWAN/Mac/Region/RegionKR920.c **** 
 520:Middlewares/Third_Party/LoRaWAN/Mac/Region/RegionKR920.c ****     tSymbolInUs = RegionCommonComputeSymbolTimeLoRa( DataratesKR920[rxConfigParams->Datarate], Band
ARM GAS  C:\Users\NATHAN~1\AppData\Local\Temp\ccFQkcZc.s 			page 13


 521:Middlewares/Third_Party/LoRaWAN/Mac/Region/RegionKR920.c **** 
 522:Middlewares/Third_Party/LoRaWAN/Mac/Region/RegionKR920.c ****     RegionCommonComputeRxWindowParameters( tSymbolInUs, minRxSymbols, rxError, Radio.GetWakeupTime(
 523:Middlewares/Third_Party/LoRaWAN/Mac/Region/RegionKR920.c **** #endif /* REGION_KR920 */
 524:Middlewares/Third_Party/LoRaWAN/Mac/Region/RegionKR920.c **** }
 178              		.loc 1 524 1 view .LVU23
 179 0000 7047     		bx	lr
 180              		.cfi_endproc
 181              	.LFE110:
 183              		.section	.text.RegionKR920RxConfig,"ax",%progbits
 184              		.align	1
 185              		.global	RegionKR920RxConfig
 186              		.syntax unified
 187              		.thumb
 188              		.thumb_func
 190              	RegionKR920RxConfig:
 191              	.LVL10:
 192              	.LFB111:
 525:Middlewares/Third_Party/LoRaWAN/Mac/Region/RegionKR920.c **** 
 526:Middlewares/Third_Party/LoRaWAN/Mac/Region/RegionKR920.c **** bool RegionKR920RxConfig( RxConfigParams_t* rxConfig, int8_t* datarate )
 527:Middlewares/Third_Party/LoRaWAN/Mac/Region/RegionKR920.c **** {
 193              		.loc 1 527 1 view -0
 194              		.cfi_startproc
 195              		@ args = 0, pretend = 0, frame = 0
 196              		@ frame_needed = 0, uses_anonymous_args = 0
 197              		@ link register save eliminated.
 528:Middlewares/Third_Party/LoRaWAN/Mac/Region/RegionKR920.c **** #if defined( REGION_KR920 )
 529:Middlewares/Third_Party/LoRaWAN/Mac/Region/RegionKR920.c ****     int8_t dr = rxConfig->Datarate;
 530:Middlewares/Third_Party/LoRaWAN/Mac/Region/RegionKR920.c ****     uint8_t maxPayload = 0;
 531:Middlewares/Third_Party/LoRaWAN/Mac/Region/RegionKR920.c ****     int8_t phyDr = 0;
 532:Middlewares/Third_Party/LoRaWAN/Mac/Region/RegionKR920.c ****     uint32_t frequency = rxConfig->Frequency;
 533:Middlewares/Third_Party/LoRaWAN/Mac/Region/RegionKR920.c **** 
 534:Middlewares/Third_Party/LoRaWAN/Mac/Region/RegionKR920.c ****     if( Radio.GetStatus( ) != RF_IDLE )
 535:Middlewares/Third_Party/LoRaWAN/Mac/Region/RegionKR920.c ****     {
 536:Middlewares/Third_Party/LoRaWAN/Mac/Region/RegionKR920.c ****         return false;
 537:Middlewares/Third_Party/LoRaWAN/Mac/Region/RegionKR920.c ****     }
 538:Middlewares/Third_Party/LoRaWAN/Mac/Region/RegionKR920.c **** 
 539:Middlewares/Third_Party/LoRaWAN/Mac/Region/RegionKR920.c ****     if( rxConfig->RxSlot == RX_SLOT_WIN_1 )
 540:Middlewares/Third_Party/LoRaWAN/Mac/Region/RegionKR920.c ****     {
 541:Middlewares/Third_Party/LoRaWAN/Mac/Region/RegionKR920.c ****         // Apply window 1 frequency
 542:Middlewares/Third_Party/LoRaWAN/Mac/Region/RegionKR920.c ****         frequency = RegionNvmGroup2->Channels[rxConfig->Channel].Frequency;
 543:Middlewares/Third_Party/LoRaWAN/Mac/Region/RegionKR920.c ****         // Apply the alternative RX 1 window frequency, if it is available
 544:Middlewares/Third_Party/LoRaWAN/Mac/Region/RegionKR920.c ****         if( RegionNvmGroup2->Channels[rxConfig->Channel].Rx1Frequency != 0 )
 545:Middlewares/Third_Party/LoRaWAN/Mac/Region/RegionKR920.c ****         {
 546:Middlewares/Third_Party/LoRaWAN/Mac/Region/RegionKR920.c ****             frequency = RegionNvmGroup2->Channels[rxConfig->Channel].Rx1Frequency;
 547:Middlewares/Third_Party/LoRaWAN/Mac/Region/RegionKR920.c ****         }
 548:Middlewares/Third_Party/LoRaWAN/Mac/Region/RegionKR920.c ****     }
 549:Middlewares/Third_Party/LoRaWAN/Mac/Region/RegionKR920.c **** 
 550:Middlewares/Third_Party/LoRaWAN/Mac/Region/RegionKR920.c ****     // Read the physical datarate from the datarates table
 551:Middlewares/Third_Party/LoRaWAN/Mac/Region/RegionKR920.c ****     phyDr = DataratesKR920[dr];
 552:Middlewares/Third_Party/LoRaWAN/Mac/Region/RegionKR920.c **** 
 553:Middlewares/Third_Party/LoRaWAN/Mac/Region/RegionKR920.c ****     Radio.SetChannel( frequency );
 554:Middlewares/Third_Party/LoRaWAN/Mac/Region/RegionKR920.c **** 
 555:Middlewares/Third_Party/LoRaWAN/Mac/Region/RegionKR920.c ****     // Radio configuration
 556:Middlewares/Third_Party/LoRaWAN/Mac/Region/RegionKR920.c ****     Radio.SetRxConfig( MODEM_LORA, rxConfig->Bandwidth, phyDr, 1, 0, 8, rxConfig->WindowTimeout, fa
 557:Middlewares/Third_Party/LoRaWAN/Mac/Region/RegionKR920.c **** 
 558:Middlewares/Third_Party/LoRaWAN/Mac/Region/RegionKR920.c ****     /* ST_WORKAROUND_BEGIN: Keep repeater feature */
 559:Middlewares/Third_Party/LoRaWAN/Mac/Region/RegionKR920.c ****     if( rxConfig->RepeaterSupport == true )
ARM GAS  C:\Users\NATHAN~1\AppData\Local\Temp\ccFQkcZc.s 			page 14


 560:Middlewares/Third_Party/LoRaWAN/Mac/Region/RegionKR920.c ****     {
 561:Middlewares/Third_Party/LoRaWAN/Mac/Region/RegionKR920.c ****         maxPayload = MaxPayloadOfDatarateRepeaterKR920[dr];
 562:Middlewares/Third_Party/LoRaWAN/Mac/Region/RegionKR920.c ****     }
 563:Middlewares/Third_Party/LoRaWAN/Mac/Region/RegionKR920.c ****     else
 564:Middlewares/Third_Party/LoRaWAN/Mac/Region/RegionKR920.c ****     {
 565:Middlewares/Third_Party/LoRaWAN/Mac/Region/RegionKR920.c ****         maxPayload = MaxPayloadOfDatarateKR920[dr];
 566:Middlewares/Third_Party/LoRaWAN/Mac/Region/RegionKR920.c ****     }
 567:Middlewares/Third_Party/LoRaWAN/Mac/Region/RegionKR920.c **** 
 568:Middlewares/Third_Party/LoRaWAN/Mac/Region/RegionKR920.c ****     Radio.SetMaxPayloadLength( MODEM_LORA, maxPayload + LORAMAC_FRAME_PAYLOAD_OVERHEAD_SIZE );
 569:Middlewares/Third_Party/LoRaWAN/Mac/Region/RegionKR920.c ****     /* ST_WORKAROUND_END */
 570:Middlewares/Third_Party/LoRaWAN/Mac/Region/RegionKR920.c **** 
 571:Middlewares/Third_Party/LoRaWAN/Mac/Region/RegionKR920.c ****     /* ST_WORKAROUND_BEGIN: Print Rx config */
 572:Middlewares/Third_Party/LoRaWAN/Mac/Region/RegionKR920.c ****     RegionCommonRxConfigPrint(rxConfig->RxSlot, frequency, dr);
 573:Middlewares/Third_Party/LoRaWAN/Mac/Region/RegionKR920.c ****     /* ST_WORKAROUND_END */
 574:Middlewares/Third_Party/LoRaWAN/Mac/Region/RegionKR920.c **** 
 575:Middlewares/Third_Party/LoRaWAN/Mac/Region/RegionKR920.c ****     *datarate = (uint8_t) dr;
 576:Middlewares/Third_Party/LoRaWAN/Mac/Region/RegionKR920.c ****     return true;
 577:Middlewares/Third_Party/LoRaWAN/Mac/Region/RegionKR920.c **** #else
 578:Middlewares/Third_Party/LoRaWAN/Mac/Region/RegionKR920.c ****     return false;
 198              		.loc 1 578 5 view .LVU25
 579:Middlewares/Third_Party/LoRaWAN/Mac/Region/RegionKR920.c **** #endif /* REGION_KR920 */
 580:Middlewares/Third_Party/LoRaWAN/Mac/Region/RegionKR920.c **** }
 199              		.loc 1 580 1 is_stmt 0 view .LVU26
 200 0000 0020     		movs	r0, #0
 201              	.LVL11:
 202              		.loc 1 580 1 view .LVU27
 203 0002 7047     		bx	lr
 204              		.cfi_endproc
 205              	.LFE111:
 207              		.section	.text.RegionKR920TxConfig,"ax",%progbits
 208              		.align	1
 209              		.global	RegionKR920TxConfig
 210              		.syntax unified
 211              		.thumb
 212              		.thumb_func
 214              	RegionKR920TxConfig:
 215              	.LVL12:
 216              	.LFB112:
 581:Middlewares/Third_Party/LoRaWAN/Mac/Region/RegionKR920.c **** 
 582:Middlewares/Third_Party/LoRaWAN/Mac/Region/RegionKR920.c **** bool RegionKR920TxConfig( TxConfigParams_t* txConfig, int8_t* txPower, TimerTime_t* txTimeOnAir )
 583:Middlewares/Third_Party/LoRaWAN/Mac/Region/RegionKR920.c **** {
 217              		.loc 1 583 1 is_stmt 1 view -0
 218              		.cfi_startproc
 219              		@ args = 0, pretend = 0, frame = 0
 220              		@ frame_needed = 0, uses_anonymous_args = 0
 221              		@ link register save eliminated.
 584:Middlewares/Third_Party/LoRaWAN/Mac/Region/RegionKR920.c **** #if defined( REGION_KR920 )
 585:Middlewares/Third_Party/LoRaWAN/Mac/Region/RegionKR920.c ****     int8_t phyDr = DataratesKR920[txConfig->Datarate];
 586:Middlewares/Third_Party/LoRaWAN/Mac/Region/RegionKR920.c ****     int8_t txPowerLimited = RegionCommonLimitTxPower( txConfig->TxPower, RegionNvmGroup1->Bands[Reg
 587:Middlewares/Third_Party/LoRaWAN/Mac/Region/RegionKR920.c ****     uint32_t bandwidth = RegionCommonGetBandwidth( txConfig->Datarate, BandwidthsKR920 );
 588:Middlewares/Third_Party/LoRaWAN/Mac/Region/RegionKR920.c ****     float maxEIRP = GetMaxEIRP( RegionNvmGroup2->Channels[txConfig->Channel].Frequency );
 589:Middlewares/Third_Party/LoRaWAN/Mac/Region/RegionKR920.c ****     int8_t phyTxPower = 0;
 590:Middlewares/Third_Party/LoRaWAN/Mac/Region/RegionKR920.c **** 
 591:Middlewares/Third_Party/LoRaWAN/Mac/Region/RegionKR920.c ****     // Take the minimum between the maxEIRP and txConfig->MaxEirp.
 592:Middlewares/Third_Party/LoRaWAN/Mac/Region/RegionKR920.c ****     // The value of txConfig->MaxEirp could have changed during runtime, e.g. due to a MAC command.
 593:Middlewares/Third_Party/LoRaWAN/Mac/Region/RegionKR920.c ****     maxEIRP = MIN( txConfig->MaxEirp, maxEIRP );
 594:Middlewares/Third_Party/LoRaWAN/Mac/Region/RegionKR920.c **** 
ARM GAS  C:\Users\NATHAN~1\AppData\Local\Temp\ccFQkcZc.s 			page 15


 595:Middlewares/Third_Party/LoRaWAN/Mac/Region/RegionKR920.c ****     // Calculate physical TX power
 596:Middlewares/Third_Party/LoRaWAN/Mac/Region/RegionKR920.c ****     phyTxPower = RegionCommonComputeTxPower( txPowerLimited, maxEIRP, txConfig->AntennaGain );
 597:Middlewares/Third_Party/LoRaWAN/Mac/Region/RegionKR920.c **** 
 598:Middlewares/Third_Party/LoRaWAN/Mac/Region/RegionKR920.c ****     // Setup the radio frequency
 599:Middlewares/Third_Party/LoRaWAN/Mac/Region/RegionKR920.c ****     Radio.SetChannel( RegionNvmGroup2->Channels[txConfig->Channel].Frequency );
 600:Middlewares/Third_Party/LoRaWAN/Mac/Region/RegionKR920.c **** 
 601:Middlewares/Third_Party/LoRaWAN/Mac/Region/RegionKR920.c ****     Radio.SetTxConfig( MODEM_LORA, phyTxPower, 0, bandwidth, phyDr, 1, 8, false, true, 0, 0, false,
 602:Middlewares/Third_Party/LoRaWAN/Mac/Region/RegionKR920.c ****     /* ST_WORKAROUND_BEGIN: Print Tx config */
 603:Middlewares/Third_Party/LoRaWAN/Mac/Region/RegionKR920.c ****     RegionCommonTxConfigPrint(RegionNvmGroup2->Channels[txConfig->Channel].Frequency, txConfig->Dat
 604:Middlewares/Third_Party/LoRaWAN/Mac/Region/RegionKR920.c ****     /* ST_WORKAROUND_END */
 605:Middlewares/Third_Party/LoRaWAN/Mac/Region/RegionKR920.c **** 
 606:Middlewares/Third_Party/LoRaWAN/Mac/Region/RegionKR920.c ****     // Setup maximum payload length of the radio driver
 607:Middlewares/Third_Party/LoRaWAN/Mac/Region/RegionKR920.c ****     Radio.SetMaxPayloadLength( MODEM_LORA, txConfig->PktLen );
 608:Middlewares/Third_Party/LoRaWAN/Mac/Region/RegionKR920.c ****     // Update time-on-air
 609:Middlewares/Third_Party/LoRaWAN/Mac/Region/RegionKR920.c ****     *txTimeOnAir = GetTimeOnAir( txConfig->Datarate, txConfig->PktLen );
 610:Middlewares/Third_Party/LoRaWAN/Mac/Region/RegionKR920.c **** 
 611:Middlewares/Third_Party/LoRaWAN/Mac/Region/RegionKR920.c ****     *txPower = txPowerLimited;
 612:Middlewares/Third_Party/LoRaWAN/Mac/Region/RegionKR920.c ****     return true;
 613:Middlewares/Third_Party/LoRaWAN/Mac/Region/RegionKR920.c **** #else
 614:Middlewares/Third_Party/LoRaWAN/Mac/Region/RegionKR920.c ****     return false;
 222              		.loc 1 614 5 view .LVU29
 615:Middlewares/Third_Party/LoRaWAN/Mac/Region/RegionKR920.c **** #endif /* REGION_KR920 */
 616:Middlewares/Third_Party/LoRaWAN/Mac/Region/RegionKR920.c **** }
 223              		.loc 1 616 1 is_stmt 0 view .LVU30
 224 0000 0020     		movs	r0, #0
 225              	.LVL13:
 226              		.loc 1 616 1 view .LVU31
 227 0002 7047     		bx	lr
 228              		.cfi_endproc
 229              	.LFE112:
 231              		.section	.text.RegionKR920LinkAdrReq,"ax",%progbits
 232              		.align	1
 233              		.global	RegionKR920LinkAdrReq
 234              		.syntax unified
 235              		.thumb
 236              		.thumb_func
 238              	RegionKR920LinkAdrReq:
 239              	.LVL14:
 240              	.LFB113:
 617:Middlewares/Third_Party/LoRaWAN/Mac/Region/RegionKR920.c **** 
 618:Middlewares/Third_Party/LoRaWAN/Mac/Region/RegionKR920.c **** uint8_t RegionKR920LinkAdrReq( LinkAdrReqParams_t* linkAdrReq, int8_t* drOut, int8_t* txPowOut, uin
 619:Middlewares/Third_Party/LoRaWAN/Mac/Region/RegionKR920.c **** {
 241              		.loc 1 619 1 is_stmt 1 view -0
 242              		.cfi_startproc
 243              		@ args = 4, pretend = 0, frame = 0
 244              		@ frame_needed = 0, uses_anonymous_args = 0
 245              		@ link register save eliminated.
 620:Middlewares/Third_Party/LoRaWAN/Mac/Region/RegionKR920.c ****     uint8_t status = 0x07;
 246              		.loc 1 620 5 view .LVU33
 621:Middlewares/Third_Party/LoRaWAN/Mac/Region/RegionKR920.c **** #if defined( REGION_KR920 )
 622:Middlewares/Third_Party/LoRaWAN/Mac/Region/RegionKR920.c ****     RegionCommonLinkAdrParams_t linkAdrParams = { 0 };
 623:Middlewares/Third_Party/LoRaWAN/Mac/Region/RegionKR920.c ****     uint8_t nextIndex = 0;
 624:Middlewares/Third_Party/LoRaWAN/Mac/Region/RegionKR920.c ****     uint8_t bytesProcessed = 0;
 625:Middlewares/Third_Party/LoRaWAN/Mac/Region/RegionKR920.c ****     uint16_t chMask = 0;
 626:Middlewares/Third_Party/LoRaWAN/Mac/Region/RegionKR920.c ****     GetPhyParams_t getPhy;
 627:Middlewares/Third_Party/LoRaWAN/Mac/Region/RegionKR920.c ****     PhyParam_t phyParam;
 628:Middlewares/Third_Party/LoRaWAN/Mac/Region/RegionKR920.c ****     RegionCommonLinkAdrReqVerifyParams_t linkAdrVerifyParams;
ARM GAS  C:\Users\NATHAN~1\AppData\Local\Temp\ccFQkcZc.s 			page 16


 629:Middlewares/Third_Party/LoRaWAN/Mac/Region/RegionKR920.c **** 
 630:Middlewares/Third_Party/LoRaWAN/Mac/Region/RegionKR920.c ****     while( bytesProcessed < linkAdrReq->PayloadSize )
 631:Middlewares/Third_Party/LoRaWAN/Mac/Region/RegionKR920.c ****     {
 632:Middlewares/Third_Party/LoRaWAN/Mac/Region/RegionKR920.c ****         // Get ADR request parameters
 633:Middlewares/Third_Party/LoRaWAN/Mac/Region/RegionKR920.c ****         nextIndex = RegionCommonParseLinkAdrReq( &( linkAdrReq->Payload[bytesProcessed] ), &linkAdr
 634:Middlewares/Third_Party/LoRaWAN/Mac/Region/RegionKR920.c **** 
 635:Middlewares/Third_Party/LoRaWAN/Mac/Region/RegionKR920.c ****         if( nextIndex == 0 )
 636:Middlewares/Third_Party/LoRaWAN/Mac/Region/RegionKR920.c ****             break; // break loop, since no more request has been found
 637:Middlewares/Third_Party/LoRaWAN/Mac/Region/RegionKR920.c **** 
 638:Middlewares/Third_Party/LoRaWAN/Mac/Region/RegionKR920.c ****         // Update bytes processed
 639:Middlewares/Third_Party/LoRaWAN/Mac/Region/RegionKR920.c ****         bytesProcessed += nextIndex;
 640:Middlewares/Third_Party/LoRaWAN/Mac/Region/RegionKR920.c **** 
 641:Middlewares/Third_Party/LoRaWAN/Mac/Region/RegionKR920.c ****         // Revert status, as we only check the last ADR request for the channel mask KO
 642:Middlewares/Third_Party/LoRaWAN/Mac/Region/RegionKR920.c ****         status = 0x07;
 643:Middlewares/Third_Party/LoRaWAN/Mac/Region/RegionKR920.c **** 
 644:Middlewares/Third_Party/LoRaWAN/Mac/Region/RegionKR920.c ****         // Setup temporary channels mask
 645:Middlewares/Third_Party/LoRaWAN/Mac/Region/RegionKR920.c ****         chMask = linkAdrParams.ChMask;
 646:Middlewares/Third_Party/LoRaWAN/Mac/Region/RegionKR920.c **** 
 647:Middlewares/Third_Party/LoRaWAN/Mac/Region/RegionKR920.c ****         // Verify channels mask
 648:Middlewares/Third_Party/LoRaWAN/Mac/Region/RegionKR920.c ****         if( ( linkAdrParams.ChMaskCtrl == 0 ) && ( chMask == 0 ) )
 649:Middlewares/Third_Party/LoRaWAN/Mac/Region/RegionKR920.c ****         {
 650:Middlewares/Third_Party/LoRaWAN/Mac/Region/RegionKR920.c ****             status &= 0xFE; // Channel mask KO
 651:Middlewares/Third_Party/LoRaWAN/Mac/Region/RegionKR920.c ****         }
 652:Middlewares/Third_Party/LoRaWAN/Mac/Region/RegionKR920.c ****         else if( ( ( linkAdrParams.ChMaskCtrl >= 1 ) && ( linkAdrParams.ChMaskCtrl <= 5 )) ||
 653:Middlewares/Third_Party/LoRaWAN/Mac/Region/RegionKR920.c ****                 ( linkAdrParams.ChMaskCtrl >= 7 ) )
 654:Middlewares/Third_Party/LoRaWAN/Mac/Region/RegionKR920.c ****         {
 655:Middlewares/Third_Party/LoRaWAN/Mac/Region/RegionKR920.c ****             // RFU
 656:Middlewares/Third_Party/LoRaWAN/Mac/Region/RegionKR920.c ****             status &= 0xFE; // Channel mask KO
 657:Middlewares/Third_Party/LoRaWAN/Mac/Region/RegionKR920.c ****         }
 658:Middlewares/Third_Party/LoRaWAN/Mac/Region/RegionKR920.c ****         else
 659:Middlewares/Third_Party/LoRaWAN/Mac/Region/RegionKR920.c ****         {
 660:Middlewares/Third_Party/LoRaWAN/Mac/Region/RegionKR920.c ****             for( uint8_t i = 0; i < KR920_MAX_NB_CHANNELS; i++ )
 661:Middlewares/Third_Party/LoRaWAN/Mac/Region/RegionKR920.c ****             {
 662:Middlewares/Third_Party/LoRaWAN/Mac/Region/RegionKR920.c ****                 if( linkAdrParams.ChMaskCtrl == 6 )
 663:Middlewares/Third_Party/LoRaWAN/Mac/Region/RegionKR920.c ****                 {
 664:Middlewares/Third_Party/LoRaWAN/Mac/Region/RegionKR920.c ****                     if( RegionNvmGroup2->Channels[i].Frequency != 0 )
 665:Middlewares/Third_Party/LoRaWAN/Mac/Region/RegionKR920.c ****                     {
 666:Middlewares/Third_Party/LoRaWAN/Mac/Region/RegionKR920.c ****                         chMask |= 1 << i;
 667:Middlewares/Third_Party/LoRaWAN/Mac/Region/RegionKR920.c ****                     }
 668:Middlewares/Third_Party/LoRaWAN/Mac/Region/RegionKR920.c ****                 }
 669:Middlewares/Third_Party/LoRaWAN/Mac/Region/RegionKR920.c ****                 else
 670:Middlewares/Third_Party/LoRaWAN/Mac/Region/RegionKR920.c ****                 {
 671:Middlewares/Third_Party/LoRaWAN/Mac/Region/RegionKR920.c ****                     if( ( ( chMask & ( 1 << i ) ) != 0 ) &&
 672:Middlewares/Third_Party/LoRaWAN/Mac/Region/RegionKR920.c ****                         ( RegionNvmGroup2->Channels[i].Frequency == 0 ) )
 673:Middlewares/Third_Party/LoRaWAN/Mac/Region/RegionKR920.c ****                     {// Trying to enable an undefined channel
 674:Middlewares/Third_Party/LoRaWAN/Mac/Region/RegionKR920.c ****                         status &= 0xFE; // Channel mask KO
 675:Middlewares/Third_Party/LoRaWAN/Mac/Region/RegionKR920.c ****                     }
 676:Middlewares/Third_Party/LoRaWAN/Mac/Region/RegionKR920.c ****                 }
 677:Middlewares/Third_Party/LoRaWAN/Mac/Region/RegionKR920.c ****             }
 678:Middlewares/Third_Party/LoRaWAN/Mac/Region/RegionKR920.c ****         }
 679:Middlewares/Third_Party/LoRaWAN/Mac/Region/RegionKR920.c ****     }
 680:Middlewares/Third_Party/LoRaWAN/Mac/Region/RegionKR920.c **** 
 681:Middlewares/Third_Party/LoRaWAN/Mac/Region/RegionKR920.c ****     // Get the minimum possible datarate
 682:Middlewares/Third_Party/LoRaWAN/Mac/Region/RegionKR920.c ****     getPhy.Attribute = PHY_MIN_TX_DR;
 683:Middlewares/Third_Party/LoRaWAN/Mac/Region/RegionKR920.c ****     getPhy.UplinkDwellTime = linkAdrReq->UplinkDwellTime;
 684:Middlewares/Third_Party/LoRaWAN/Mac/Region/RegionKR920.c ****     phyParam = RegionKR920GetPhyParam( &getPhy );
 685:Middlewares/Third_Party/LoRaWAN/Mac/Region/RegionKR920.c **** 
ARM GAS  C:\Users\NATHAN~1\AppData\Local\Temp\ccFQkcZc.s 			page 17


 686:Middlewares/Third_Party/LoRaWAN/Mac/Region/RegionKR920.c ****     linkAdrVerifyParams.Status = status;
 687:Middlewares/Third_Party/LoRaWAN/Mac/Region/RegionKR920.c ****     linkAdrVerifyParams.AdrEnabled = linkAdrReq->AdrEnabled;
 688:Middlewares/Third_Party/LoRaWAN/Mac/Region/RegionKR920.c ****     linkAdrVerifyParams.Datarate = linkAdrParams.Datarate;
 689:Middlewares/Third_Party/LoRaWAN/Mac/Region/RegionKR920.c ****     linkAdrVerifyParams.TxPower = linkAdrParams.TxPower;
 690:Middlewares/Third_Party/LoRaWAN/Mac/Region/RegionKR920.c ****     linkAdrVerifyParams.NbRep = linkAdrParams.NbRep;
 691:Middlewares/Third_Party/LoRaWAN/Mac/Region/RegionKR920.c ****     linkAdrVerifyParams.CurrentDatarate = linkAdrReq->CurrentDatarate;
 692:Middlewares/Third_Party/LoRaWAN/Mac/Region/RegionKR920.c ****     linkAdrVerifyParams.CurrentTxPower = linkAdrReq->CurrentTxPower;
 693:Middlewares/Third_Party/LoRaWAN/Mac/Region/RegionKR920.c ****     linkAdrVerifyParams.CurrentNbRep = linkAdrReq->CurrentNbRep;
 694:Middlewares/Third_Party/LoRaWAN/Mac/Region/RegionKR920.c ****     linkAdrVerifyParams.NbChannels = KR920_MAX_NB_CHANNELS;
 695:Middlewares/Third_Party/LoRaWAN/Mac/Region/RegionKR920.c ****     linkAdrVerifyParams.ChannelsMask = &chMask;
 696:Middlewares/Third_Party/LoRaWAN/Mac/Region/RegionKR920.c ****     linkAdrVerifyParams.MinDatarate = ( int8_t )phyParam.Value;
 697:Middlewares/Third_Party/LoRaWAN/Mac/Region/RegionKR920.c ****     linkAdrVerifyParams.MaxDatarate = KR920_TX_MAX_DATARATE;
 698:Middlewares/Third_Party/LoRaWAN/Mac/Region/RegionKR920.c ****     linkAdrVerifyParams.Channels = RegionNvmGroup2->Channels;
 699:Middlewares/Third_Party/LoRaWAN/Mac/Region/RegionKR920.c ****     linkAdrVerifyParams.MinTxPower = KR920_MIN_TX_POWER;
 700:Middlewares/Third_Party/LoRaWAN/Mac/Region/RegionKR920.c ****     linkAdrVerifyParams.MaxTxPower = KR920_MAX_TX_POWER;
 701:Middlewares/Third_Party/LoRaWAN/Mac/Region/RegionKR920.c ****     linkAdrVerifyParams.Version = linkAdrReq->Version;
 702:Middlewares/Third_Party/LoRaWAN/Mac/Region/RegionKR920.c **** 
 703:Middlewares/Third_Party/LoRaWAN/Mac/Region/RegionKR920.c ****     // Verify the parameters and update, if necessary
 704:Middlewares/Third_Party/LoRaWAN/Mac/Region/RegionKR920.c ****     status = RegionCommonLinkAdrReqVerifyParams( &linkAdrVerifyParams, &linkAdrParams.Datarate, &li
 705:Middlewares/Third_Party/LoRaWAN/Mac/Region/RegionKR920.c **** 
 706:Middlewares/Third_Party/LoRaWAN/Mac/Region/RegionKR920.c ****     // Update channelsMask if everything is correct
 707:Middlewares/Third_Party/LoRaWAN/Mac/Region/RegionKR920.c ****     if( status == 0x07 )
 708:Middlewares/Third_Party/LoRaWAN/Mac/Region/RegionKR920.c ****     {
 709:Middlewares/Third_Party/LoRaWAN/Mac/Region/RegionKR920.c ****         // Set the channels mask to a default value
 710:Middlewares/Third_Party/LoRaWAN/Mac/Region/RegionKR920.c ****         memset1( ( uint8_t* ) RegionNvmGroup2->ChannelsMask, 0, sizeof( RegionNvmGroup2->ChannelsMa
 711:Middlewares/Third_Party/LoRaWAN/Mac/Region/RegionKR920.c ****         // Update the channels mask
 712:Middlewares/Third_Party/LoRaWAN/Mac/Region/RegionKR920.c ****         RegionNvmGroup2->ChannelsMask[0] = chMask;
 713:Middlewares/Third_Party/LoRaWAN/Mac/Region/RegionKR920.c ****     }
 714:Middlewares/Third_Party/LoRaWAN/Mac/Region/RegionKR920.c **** 
 715:Middlewares/Third_Party/LoRaWAN/Mac/Region/RegionKR920.c ****     // Update status variables
 716:Middlewares/Third_Party/LoRaWAN/Mac/Region/RegionKR920.c ****     *drOut = linkAdrParams.Datarate;
 717:Middlewares/Third_Party/LoRaWAN/Mac/Region/RegionKR920.c ****     *txPowOut = linkAdrParams.TxPower;
 718:Middlewares/Third_Party/LoRaWAN/Mac/Region/RegionKR920.c ****     *nbRepOut = linkAdrParams.NbRep;
 719:Middlewares/Third_Party/LoRaWAN/Mac/Region/RegionKR920.c ****     *nbBytesParsed = bytesProcessed;
 720:Middlewares/Third_Party/LoRaWAN/Mac/Region/RegionKR920.c **** 
 721:Middlewares/Third_Party/LoRaWAN/Mac/Region/RegionKR920.c **** #endif /* REGION_KR920 */
 722:Middlewares/Third_Party/LoRaWAN/Mac/Region/RegionKR920.c ****     return status;
 247              		.loc 1 722 5 view .LVU34
 723:Middlewares/Third_Party/LoRaWAN/Mac/Region/RegionKR920.c **** }
 248              		.loc 1 723 1 is_stmt 0 view .LVU35
 249 0000 0720     		movs	r0, #7
 250              	.LVL15:
 251              		.loc 1 723 1 view .LVU36
 252 0002 7047     		bx	lr
 253              		.cfi_endproc
 254              	.LFE113:
 256              		.section	.text.RegionKR920RxParamSetupReq,"ax",%progbits
 257              		.align	1
 258              		.global	RegionKR920RxParamSetupReq
 259              		.syntax unified
 260              		.thumb
 261              		.thumb_func
 263              	RegionKR920RxParamSetupReq:
 264              	.LVL16:
 265              	.LFB114:
 724:Middlewares/Third_Party/LoRaWAN/Mac/Region/RegionKR920.c **** 
 725:Middlewares/Third_Party/LoRaWAN/Mac/Region/RegionKR920.c **** uint8_t RegionKR920RxParamSetupReq( RxParamSetupReqParams_t* rxParamSetupReq )
ARM GAS  C:\Users\NATHAN~1\AppData\Local\Temp\ccFQkcZc.s 			page 18


 726:Middlewares/Third_Party/LoRaWAN/Mac/Region/RegionKR920.c **** {
 266              		.loc 1 726 1 is_stmt 1 view -0
 267              		.cfi_startproc
 268              		@ args = 0, pretend = 0, frame = 0
 269              		@ frame_needed = 0, uses_anonymous_args = 0
 270              		@ link register save eliminated.
 727:Middlewares/Third_Party/LoRaWAN/Mac/Region/RegionKR920.c ****     uint8_t status = 0x07;
 271              		.loc 1 727 5 view .LVU38
 728:Middlewares/Third_Party/LoRaWAN/Mac/Region/RegionKR920.c **** #if defined( REGION_KR920 )
 729:Middlewares/Third_Party/LoRaWAN/Mac/Region/RegionKR920.c **** 
 730:Middlewares/Third_Party/LoRaWAN/Mac/Region/RegionKR920.c ****     // Verify radio frequency
 731:Middlewares/Third_Party/LoRaWAN/Mac/Region/RegionKR920.c ****     if( VerifyRfFreq( rxParamSetupReq->Frequency ) == false )
 732:Middlewares/Third_Party/LoRaWAN/Mac/Region/RegionKR920.c ****     {
 733:Middlewares/Third_Party/LoRaWAN/Mac/Region/RegionKR920.c ****         status &= 0xFE; // Channel frequency KO
 734:Middlewares/Third_Party/LoRaWAN/Mac/Region/RegionKR920.c ****     }
 735:Middlewares/Third_Party/LoRaWAN/Mac/Region/RegionKR920.c **** 
 736:Middlewares/Third_Party/LoRaWAN/Mac/Region/RegionKR920.c ****     // Verify datarate
 737:Middlewares/Third_Party/LoRaWAN/Mac/Region/RegionKR920.c ****     if( RegionCommonValueInRange( rxParamSetupReq->Datarate, KR920_RX_MIN_DATARATE, KR920_RX_MAX_DA
 738:Middlewares/Third_Party/LoRaWAN/Mac/Region/RegionKR920.c ****     {
 739:Middlewares/Third_Party/LoRaWAN/Mac/Region/RegionKR920.c ****         status &= 0xFD; // Datarate KO
 740:Middlewares/Third_Party/LoRaWAN/Mac/Region/RegionKR920.c ****     }
 741:Middlewares/Third_Party/LoRaWAN/Mac/Region/RegionKR920.c **** 
 742:Middlewares/Third_Party/LoRaWAN/Mac/Region/RegionKR920.c ****     // Verify datarate offset
 743:Middlewares/Third_Party/LoRaWAN/Mac/Region/RegionKR920.c ****     if( RegionCommonValueInRange( rxParamSetupReq->DrOffset, KR920_MIN_RX1_DR_OFFSET, KR920_MAX_RX1
 744:Middlewares/Third_Party/LoRaWAN/Mac/Region/RegionKR920.c ****     {
 745:Middlewares/Third_Party/LoRaWAN/Mac/Region/RegionKR920.c ****         status &= 0xFB; // Rx1DrOffset range KO
 746:Middlewares/Third_Party/LoRaWAN/Mac/Region/RegionKR920.c ****     }
 747:Middlewares/Third_Party/LoRaWAN/Mac/Region/RegionKR920.c **** 
 748:Middlewares/Third_Party/LoRaWAN/Mac/Region/RegionKR920.c **** #endif /* REGION_KR920 */
 749:Middlewares/Third_Party/LoRaWAN/Mac/Region/RegionKR920.c ****     return status;
 272              		.loc 1 749 5 view .LVU39
 750:Middlewares/Third_Party/LoRaWAN/Mac/Region/RegionKR920.c **** }
 273              		.loc 1 750 1 is_stmt 0 view .LVU40
 274 0000 0720     		movs	r0, #7
 275              	.LVL17:
 276              		.loc 1 750 1 view .LVU41
 277 0002 7047     		bx	lr
 278              		.cfi_endproc
 279              	.LFE114:
 281              		.section	.text.RegionKR920TxParamSetupReq,"ax",%progbits
 282              		.align	1
 283              		.global	RegionKR920TxParamSetupReq
 284              		.syntax unified
 285              		.thumb
 286              		.thumb_func
 288              	RegionKR920TxParamSetupReq:
 289              	.LVL18:
 290              	.LFB116:
 751:Middlewares/Third_Party/LoRaWAN/Mac/Region/RegionKR920.c **** 
 752:Middlewares/Third_Party/LoRaWAN/Mac/Region/RegionKR920.c **** int8_t RegionKR920NewChannelReq( NewChannelReqParams_t* newChannelReq )
 753:Middlewares/Third_Party/LoRaWAN/Mac/Region/RegionKR920.c **** {
 754:Middlewares/Third_Party/LoRaWAN/Mac/Region/RegionKR920.c ****     uint8_t status = 0x03;
 755:Middlewares/Third_Party/LoRaWAN/Mac/Region/RegionKR920.c ****     ChannelAddParams_t channelAdd;
 756:Middlewares/Third_Party/LoRaWAN/Mac/Region/RegionKR920.c ****     ChannelRemoveParams_t channelRemove;
 757:Middlewares/Third_Party/LoRaWAN/Mac/Region/RegionKR920.c **** 
 758:Middlewares/Third_Party/LoRaWAN/Mac/Region/RegionKR920.c ****     if( newChannelReq->NewChannel->Frequency == 0 )
 759:Middlewares/Third_Party/LoRaWAN/Mac/Region/RegionKR920.c ****     {
ARM GAS  C:\Users\NATHAN~1\AppData\Local\Temp\ccFQkcZc.s 			page 19


 760:Middlewares/Third_Party/LoRaWAN/Mac/Region/RegionKR920.c ****         channelRemove.ChannelId = newChannelReq->ChannelId;
 761:Middlewares/Third_Party/LoRaWAN/Mac/Region/RegionKR920.c **** 
 762:Middlewares/Third_Party/LoRaWAN/Mac/Region/RegionKR920.c ****         // Remove
 763:Middlewares/Third_Party/LoRaWAN/Mac/Region/RegionKR920.c ****         if( RegionKR920ChannelsRemove( &channelRemove ) == false )
 764:Middlewares/Third_Party/LoRaWAN/Mac/Region/RegionKR920.c ****         {
 765:Middlewares/Third_Party/LoRaWAN/Mac/Region/RegionKR920.c ****             status &= 0xFC;
 766:Middlewares/Third_Party/LoRaWAN/Mac/Region/RegionKR920.c ****         }
 767:Middlewares/Third_Party/LoRaWAN/Mac/Region/RegionKR920.c ****     }
 768:Middlewares/Third_Party/LoRaWAN/Mac/Region/RegionKR920.c ****     else
 769:Middlewares/Third_Party/LoRaWAN/Mac/Region/RegionKR920.c ****     {
 770:Middlewares/Third_Party/LoRaWAN/Mac/Region/RegionKR920.c ****         channelAdd.NewChannel = newChannelReq->NewChannel;
 771:Middlewares/Third_Party/LoRaWAN/Mac/Region/RegionKR920.c ****         channelAdd.ChannelId = newChannelReq->ChannelId;
 772:Middlewares/Third_Party/LoRaWAN/Mac/Region/RegionKR920.c **** 
 773:Middlewares/Third_Party/LoRaWAN/Mac/Region/RegionKR920.c ****         switch( RegionKR920ChannelAdd( &channelAdd ) )
 774:Middlewares/Third_Party/LoRaWAN/Mac/Region/RegionKR920.c ****         {
 775:Middlewares/Third_Party/LoRaWAN/Mac/Region/RegionKR920.c ****             case LORAMAC_STATUS_OK:
 776:Middlewares/Third_Party/LoRaWAN/Mac/Region/RegionKR920.c ****             {
 777:Middlewares/Third_Party/LoRaWAN/Mac/Region/RegionKR920.c ****                 break;
 778:Middlewares/Third_Party/LoRaWAN/Mac/Region/RegionKR920.c ****             }
 779:Middlewares/Third_Party/LoRaWAN/Mac/Region/RegionKR920.c ****             case LORAMAC_STATUS_FREQUENCY_INVALID:
 780:Middlewares/Third_Party/LoRaWAN/Mac/Region/RegionKR920.c ****             {
 781:Middlewares/Third_Party/LoRaWAN/Mac/Region/RegionKR920.c ****                 status &= 0xFE;
 782:Middlewares/Third_Party/LoRaWAN/Mac/Region/RegionKR920.c ****                 break;
 783:Middlewares/Third_Party/LoRaWAN/Mac/Region/RegionKR920.c ****             }
 784:Middlewares/Third_Party/LoRaWAN/Mac/Region/RegionKR920.c ****             case LORAMAC_STATUS_DATARATE_INVALID:
 785:Middlewares/Third_Party/LoRaWAN/Mac/Region/RegionKR920.c ****             {
 786:Middlewares/Third_Party/LoRaWAN/Mac/Region/RegionKR920.c ****                 status &= 0xFD;
 787:Middlewares/Third_Party/LoRaWAN/Mac/Region/RegionKR920.c ****                 break;
 788:Middlewares/Third_Party/LoRaWAN/Mac/Region/RegionKR920.c ****             }
 789:Middlewares/Third_Party/LoRaWAN/Mac/Region/RegionKR920.c ****             case LORAMAC_STATUS_FREQ_AND_DR_INVALID:
 790:Middlewares/Third_Party/LoRaWAN/Mac/Region/RegionKR920.c ****             {
 791:Middlewares/Third_Party/LoRaWAN/Mac/Region/RegionKR920.c ****                 status &= 0xFC;
 792:Middlewares/Third_Party/LoRaWAN/Mac/Region/RegionKR920.c ****                 break;
 793:Middlewares/Third_Party/LoRaWAN/Mac/Region/RegionKR920.c ****             }
 794:Middlewares/Third_Party/LoRaWAN/Mac/Region/RegionKR920.c ****             default:
 795:Middlewares/Third_Party/LoRaWAN/Mac/Region/RegionKR920.c ****             {
 796:Middlewares/Third_Party/LoRaWAN/Mac/Region/RegionKR920.c ****                 status &= 0xFC;
 797:Middlewares/Third_Party/LoRaWAN/Mac/Region/RegionKR920.c ****                 break;
 798:Middlewares/Third_Party/LoRaWAN/Mac/Region/RegionKR920.c ****             }
 799:Middlewares/Third_Party/LoRaWAN/Mac/Region/RegionKR920.c ****         }
 800:Middlewares/Third_Party/LoRaWAN/Mac/Region/RegionKR920.c ****     }
 801:Middlewares/Third_Party/LoRaWAN/Mac/Region/RegionKR920.c **** 
 802:Middlewares/Third_Party/LoRaWAN/Mac/Region/RegionKR920.c ****     return status;
 803:Middlewares/Third_Party/LoRaWAN/Mac/Region/RegionKR920.c **** }
 804:Middlewares/Third_Party/LoRaWAN/Mac/Region/RegionKR920.c **** 
 805:Middlewares/Third_Party/LoRaWAN/Mac/Region/RegionKR920.c **** int8_t RegionKR920TxParamSetupReq( TxParamSetupReqParams_t* txParamSetupReq )
 806:Middlewares/Third_Party/LoRaWAN/Mac/Region/RegionKR920.c **** {
 291              		.loc 1 806 1 is_stmt 1 view -0
 292              		.cfi_startproc
 293              		@ args = 0, pretend = 0, frame = 0
 294              		@ frame_needed = 0, uses_anonymous_args = 0
 295              		@ link register save eliminated.
 807:Middlewares/Third_Party/LoRaWAN/Mac/Region/RegionKR920.c ****     // Do not accept the request
 808:Middlewares/Third_Party/LoRaWAN/Mac/Region/RegionKR920.c ****     return -1;
 296              		.loc 1 808 5 view .LVU43
 809:Middlewares/Third_Party/LoRaWAN/Mac/Region/RegionKR920.c **** }
 297              		.loc 1 809 1 is_stmt 0 view .LVU44
ARM GAS  C:\Users\NATHAN~1\AppData\Local\Temp\ccFQkcZc.s 			page 20


 298 0000 4FF0FF30 		mov	r0, #-1
 299              	.LVL19:
 300              		.loc 1 809 1 view .LVU45
 301 0004 7047     		bx	lr
 302              		.cfi_endproc
 303              	.LFE116:
 305              		.section	.text.RegionKR920DlChannelReq,"ax",%progbits
 306              		.align	1
 307              		.global	RegionKR920DlChannelReq
 308              		.syntax unified
 309              		.thumb
 310              		.thumb_func
 312              	RegionKR920DlChannelReq:
 313              	.LVL20:
 314              	.LFB117:
 810:Middlewares/Third_Party/LoRaWAN/Mac/Region/RegionKR920.c **** 
 811:Middlewares/Third_Party/LoRaWAN/Mac/Region/RegionKR920.c **** int8_t RegionKR920DlChannelReq( DlChannelReqParams_t* dlChannelReq )
 812:Middlewares/Third_Party/LoRaWAN/Mac/Region/RegionKR920.c **** {
 315              		.loc 1 812 1 is_stmt 1 view -0
 316              		.cfi_startproc
 317              		@ args = 0, pretend = 0, frame = 0
 318              		@ frame_needed = 0, uses_anonymous_args = 0
 319              		@ link register save eliminated.
 813:Middlewares/Third_Party/LoRaWAN/Mac/Region/RegionKR920.c ****     uint8_t status = 0x03;
 320              		.loc 1 813 5 view .LVU47
 814:Middlewares/Third_Party/LoRaWAN/Mac/Region/RegionKR920.c **** #if defined( REGION_KR920 )
 815:Middlewares/Third_Party/LoRaWAN/Mac/Region/RegionKR920.c **** 
 816:Middlewares/Third_Party/LoRaWAN/Mac/Region/RegionKR920.c ****     // Verify if the frequency is supported
 817:Middlewares/Third_Party/LoRaWAN/Mac/Region/RegionKR920.c ****     if( VerifyRfFreq( dlChannelReq->Rx1Frequency ) == false )
 818:Middlewares/Third_Party/LoRaWAN/Mac/Region/RegionKR920.c ****     {
 819:Middlewares/Third_Party/LoRaWAN/Mac/Region/RegionKR920.c ****         status &= 0xFE;
 820:Middlewares/Third_Party/LoRaWAN/Mac/Region/RegionKR920.c ****     }
 821:Middlewares/Third_Party/LoRaWAN/Mac/Region/RegionKR920.c **** 
 822:Middlewares/Third_Party/LoRaWAN/Mac/Region/RegionKR920.c ****     // Verify if an uplink frequency exists
 823:Middlewares/Third_Party/LoRaWAN/Mac/Region/RegionKR920.c ****     if( RegionNvmGroup2->Channels[dlChannelReq->ChannelId].Frequency == 0 )
 824:Middlewares/Third_Party/LoRaWAN/Mac/Region/RegionKR920.c ****     {
 825:Middlewares/Third_Party/LoRaWAN/Mac/Region/RegionKR920.c ****         status &= 0xFD;
 826:Middlewares/Third_Party/LoRaWAN/Mac/Region/RegionKR920.c ****     }
 827:Middlewares/Third_Party/LoRaWAN/Mac/Region/RegionKR920.c **** 
 828:Middlewares/Third_Party/LoRaWAN/Mac/Region/RegionKR920.c ****     // Apply Rx1 frequency, if the status is OK
 829:Middlewares/Third_Party/LoRaWAN/Mac/Region/RegionKR920.c ****     if( status == 0x03 )
 830:Middlewares/Third_Party/LoRaWAN/Mac/Region/RegionKR920.c ****     {
 831:Middlewares/Third_Party/LoRaWAN/Mac/Region/RegionKR920.c ****         RegionNvmGroup2->Channels[dlChannelReq->ChannelId].Rx1Frequency = dlChannelReq->Rx1Frequenc
 832:Middlewares/Third_Party/LoRaWAN/Mac/Region/RegionKR920.c ****     }
 833:Middlewares/Third_Party/LoRaWAN/Mac/Region/RegionKR920.c **** 
 834:Middlewares/Third_Party/LoRaWAN/Mac/Region/RegionKR920.c **** #endif /* REGION_KR920 */
 835:Middlewares/Third_Party/LoRaWAN/Mac/Region/RegionKR920.c ****     return status;
 321              		.loc 1 835 5 view .LVU48
 836:Middlewares/Third_Party/LoRaWAN/Mac/Region/RegionKR920.c **** }
 322              		.loc 1 836 1 is_stmt 0 view .LVU49
 323 0000 0320     		movs	r0, #3
 324              	.LVL21:
 325              		.loc 1 836 1 view .LVU50
 326 0002 7047     		bx	lr
 327              		.cfi_endproc
 328              	.LFE117:
 330              		.section	.text.RegionKR920AlternateDr,"ax",%progbits
ARM GAS  C:\Users\NATHAN~1\AppData\Local\Temp\ccFQkcZc.s 			page 21


 331              		.align	1
 332              		.global	RegionKR920AlternateDr
 333              		.syntax unified
 334              		.thumb
 335              		.thumb_func
 337              	RegionKR920AlternateDr:
 338              	.LVL22:
 339              	.LFB118:
 837:Middlewares/Third_Party/LoRaWAN/Mac/Region/RegionKR920.c **** 
 838:Middlewares/Third_Party/LoRaWAN/Mac/Region/RegionKR920.c **** int8_t RegionKR920AlternateDr( int8_t currentDr, AlternateDrType_t type )
 839:Middlewares/Third_Party/LoRaWAN/Mac/Region/RegionKR920.c **** {
 340              		.loc 1 839 1 is_stmt 1 view -0
 341              		.cfi_startproc
 342              		@ args = 0, pretend = 0, frame = 0
 343              		@ frame_needed = 0, uses_anonymous_args = 0
 344              		@ link register save eliminated.
 840:Middlewares/Third_Party/LoRaWAN/Mac/Region/RegionKR920.c **** #if defined( REGION_KR920 )
 841:Middlewares/Third_Party/LoRaWAN/Mac/Region/RegionKR920.c ****     return currentDr;
 842:Middlewares/Third_Party/LoRaWAN/Mac/Region/RegionKR920.c **** #else
 843:Middlewares/Third_Party/LoRaWAN/Mac/Region/RegionKR920.c ****     return -1;
 345              		.loc 1 843 5 view .LVU52
 844:Middlewares/Third_Party/LoRaWAN/Mac/Region/RegionKR920.c **** #endif /* REGION_KR920 */
 845:Middlewares/Third_Party/LoRaWAN/Mac/Region/RegionKR920.c **** }
 346              		.loc 1 845 1 is_stmt 0 view .LVU53
 347 0000 4FF0FF30 		mov	r0, #-1
 348              	.LVL23:
 349              		.loc 1 845 1 view .LVU54
 350 0004 7047     		bx	lr
 351              		.cfi_endproc
 352              	.LFE118:
 354              		.section	.text.RegionKR920NextChannel,"ax",%progbits
 355              		.align	1
 356              		.global	RegionKR920NextChannel
 357              		.syntax unified
 358              		.thumb
 359              		.thumb_func
 361              	RegionKR920NextChannel:
 362              	.LVL24:
 363              	.LFB119:
 846:Middlewares/Third_Party/LoRaWAN/Mac/Region/RegionKR920.c **** 
 847:Middlewares/Third_Party/LoRaWAN/Mac/Region/RegionKR920.c **** LoRaMacStatus_t RegionKR920NextChannel( NextChanParams_t* nextChanParams, uint8_t* channel, TimerTi
 848:Middlewares/Third_Party/LoRaWAN/Mac/Region/RegionKR920.c **** {
 364              		.loc 1 848 1 is_stmt 1 view -0
 365              		.cfi_startproc
 366              		@ args = 0, pretend = 0, frame = 0
 367              		@ frame_needed = 0, uses_anonymous_args = 0
 368              		@ link register save eliminated.
 849:Middlewares/Third_Party/LoRaWAN/Mac/Region/RegionKR920.c **** #if defined( REGION_KR920 )
 850:Middlewares/Third_Party/LoRaWAN/Mac/Region/RegionKR920.c ****     uint8_t channelNext = 0;
 851:Middlewares/Third_Party/LoRaWAN/Mac/Region/RegionKR920.c ****     uint8_t nbEnabledChannels = 0;
 852:Middlewares/Third_Party/LoRaWAN/Mac/Region/RegionKR920.c ****     uint8_t nbRestrictedChannels = 0;
 853:Middlewares/Third_Party/LoRaWAN/Mac/Region/RegionKR920.c ****     uint8_t enabledChannels[KR920_MAX_NB_CHANNELS] = { 0 };
 854:Middlewares/Third_Party/LoRaWAN/Mac/Region/RegionKR920.c ****     RegionCommonIdentifyChannelsParam_t identifyChannelsParam;
 855:Middlewares/Third_Party/LoRaWAN/Mac/Region/RegionKR920.c ****     RegionCommonCountNbOfEnabledChannelsParams_t countChannelsParams;
 856:Middlewares/Third_Party/LoRaWAN/Mac/Region/RegionKR920.c ****     LoRaMacStatus_t status = LORAMAC_STATUS_NO_CHANNEL_FOUND;
 857:Middlewares/Third_Party/LoRaWAN/Mac/Region/RegionKR920.c ****     uint16_t joinChannels = KR920_JOIN_CHANNELS;
 858:Middlewares/Third_Party/LoRaWAN/Mac/Region/RegionKR920.c **** 
ARM GAS  C:\Users\NATHAN~1\AppData\Local\Temp\ccFQkcZc.s 			page 22


 859:Middlewares/Third_Party/LoRaWAN/Mac/Region/RegionKR920.c ****     if( RegionCommonCountChannels( RegionNvmGroup2->ChannelsMask, 0, 1 ) == 0 )
 860:Middlewares/Third_Party/LoRaWAN/Mac/Region/RegionKR920.c ****     { // Reactivate default channels
 861:Middlewares/Third_Party/LoRaWAN/Mac/Region/RegionKR920.c ****         RegionNvmGroup2->ChannelsMask[0] |= LC( 1 ) + LC( 2 ) + LC( 3 );
 862:Middlewares/Third_Party/LoRaWAN/Mac/Region/RegionKR920.c ****     }
 863:Middlewares/Third_Party/LoRaWAN/Mac/Region/RegionKR920.c **** 
 864:Middlewares/Third_Party/LoRaWAN/Mac/Region/RegionKR920.c ****     // Search how many channels are enabled
 865:Middlewares/Third_Party/LoRaWAN/Mac/Region/RegionKR920.c ****     countChannelsParams.Joined = nextChanParams->Joined;
 866:Middlewares/Third_Party/LoRaWAN/Mac/Region/RegionKR920.c ****     countChannelsParams.Datarate = nextChanParams->Datarate;
 867:Middlewares/Third_Party/LoRaWAN/Mac/Region/RegionKR920.c ****     countChannelsParams.ChannelsMask = RegionNvmGroup2->ChannelsMask;
 868:Middlewares/Third_Party/LoRaWAN/Mac/Region/RegionKR920.c ****     countChannelsParams.Channels = RegionNvmGroup2->Channels;
 869:Middlewares/Third_Party/LoRaWAN/Mac/Region/RegionKR920.c ****     countChannelsParams.Bands = RegionNvmGroup1->Bands;
 870:Middlewares/Third_Party/LoRaWAN/Mac/Region/RegionKR920.c ****     countChannelsParams.MaxNbChannels = KR920_MAX_NB_CHANNELS;
 871:Middlewares/Third_Party/LoRaWAN/Mac/Region/RegionKR920.c ****     countChannelsParams.JoinChannels = &joinChannels;
 872:Middlewares/Third_Party/LoRaWAN/Mac/Region/RegionKR920.c **** 
 873:Middlewares/Third_Party/LoRaWAN/Mac/Region/RegionKR920.c ****     identifyChannelsParam.AggrTimeOff = nextChanParams->AggrTimeOff;
 874:Middlewares/Third_Party/LoRaWAN/Mac/Region/RegionKR920.c ****     identifyChannelsParam.LastAggrTx = nextChanParams->LastAggrTx;
 875:Middlewares/Third_Party/LoRaWAN/Mac/Region/RegionKR920.c ****     identifyChannelsParam.DutyCycleEnabled = nextChanParams->DutyCycleEnabled;
 876:Middlewares/Third_Party/LoRaWAN/Mac/Region/RegionKR920.c ****     identifyChannelsParam.MaxBands = KR920_MAX_NB_BANDS;
 877:Middlewares/Third_Party/LoRaWAN/Mac/Region/RegionKR920.c **** 
 878:Middlewares/Third_Party/LoRaWAN/Mac/Region/RegionKR920.c ****     identifyChannelsParam.ElapsedTimeSinceStartUp = nextChanParams->ElapsedTimeSinceStartUp;
 879:Middlewares/Third_Party/LoRaWAN/Mac/Region/RegionKR920.c ****     identifyChannelsParam.LastTxIsJoinRequest = nextChanParams->LastTxIsJoinRequest;
 880:Middlewares/Third_Party/LoRaWAN/Mac/Region/RegionKR920.c ****     identifyChannelsParam.ExpectedTimeOnAir = GetTimeOnAir( nextChanParams->Datarate, nextChanParam
 881:Middlewares/Third_Party/LoRaWAN/Mac/Region/RegionKR920.c **** 
 882:Middlewares/Third_Party/LoRaWAN/Mac/Region/RegionKR920.c ****     identifyChannelsParam.CountNbOfEnabledChannelsParam = &countChannelsParams;
 883:Middlewares/Third_Party/LoRaWAN/Mac/Region/RegionKR920.c **** 
 884:Middlewares/Third_Party/LoRaWAN/Mac/Region/RegionKR920.c ****     status = RegionCommonIdentifyChannels( &identifyChannelsParam, aggregatedTimeOff, enabledChanne
 885:Middlewares/Third_Party/LoRaWAN/Mac/Region/RegionKR920.c ****                                            &nbEnabledChannels, &nbRestrictedChannels, time );
 886:Middlewares/Third_Party/LoRaWAN/Mac/Region/RegionKR920.c **** 
 887:Middlewares/Third_Party/LoRaWAN/Mac/Region/RegionKR920.c ****     if( status == LORAMAC_STATUS_OK )
 888:Middlewares/Third_Party/LoRaWAN/Mac/Region/RegionKR920.c ****     {
 889:Middlewares/Third_Party/LoRaWAN/Mac/Region/RegionKR920.c ****         for( uint8_t  i = 0, j = randr( 0, nbEnabledChannels - 1 ); i < KR920_MAX_NB_CHANNELS; i++ 
 890:Middlewares/Third_Party/LoRaWAN/Mac/Region/RegionKR920.c ****         {
 891:Middlewares/Third_Party/LoRaWAN/Mac/Region/RegionKR920.c ****             channelNext = enabledChannels[j];
 892:Middlewares/Third_Party/LoRaWAN/Mac/Region/RegionKR920.c ****             j = ( j + 1 ) % nbEnabledChannels;
 893:Middlewares/Third_Party/LoRaWAN/Mac/Region/RegionKR920.c **** 
 894:Middlewares/Third_Party/LoRaWAN/Mac/Region/RegionKR920.c ****             // Perform carrier sense for KR920_CARRIER_SENSE_TIME
 895:Middlewares/Third_Party/LoRaWAN/Mac/Region/RegionKR920.c ****             // If the channel is free, we can stop the LBT mechanism
 896:Middlewares/Third_Party/LoRaWAN/Mac/Region/RegionKR920.c ****             if( Radio.IsChannelFree( RegionNvmGroup2->Channels[channelNext].Frequency, KR920_LBT_RX
 897:Middlewares/Third_Party/LoRaWAN/Mac/Region/RegionKR920.c ****             {
 898:Middlewares/Third_Party/LoRaWAN/Mac/Region/RegionKR920.c ****                 // Free channel found
 899:Middlewares/Third_Party/LoRaWAN/Mac/Region/RegionKR920.c ****                 *channel = channelNext;
 900:Middlewares/Third_Party/LoRaWAN/Mac/Region/RegionKR920.c ****                 return LORAMAC_STATUS_OK;
 901:Middlewares/Third_Party/LoRaWAN/Mac/Region/RegionKR920.c ****             }
 902:Middlewares/Third_Party/LoRaWAN/Mac/Region/RegionKR920.c ****         }
 903:Middlewares/Third_Party/LoRaWAN/Mac/Region/RegionKR920.c ****         // Even if one or more channels are available according to the channel plan, no free channe
 904:Middlewares/Third_Party/LoRaWAN/Mac/Region/RegionKR920.c ****         // was found during the LBT procedure.
 905:Middlewares/Third_Party/LoRaWAN/Mac/Region/RegionKR920.c ****         status = LORAMAC_STATUS_NO_FREE_CHANNEL_FOUND;
 906:Middlewares/Third_Party/LoRaWAN/Mac/Region/RegionKR920.c ****     }
 907:Middlewares/Third_Party/LoRaWAN/Mac/Region/RegionKR920.c ****     else if( status == LORAMAC_STATUS_NO_CHANNEL_FOUND )
 908:Middlewares/Third_Party/LoRaWAN/Mac/Region/RegionKR920.c ****     {
 909:Middlewares/Third_Party/LoRaWAN/Mac/Region/RegionKR920.c ****         // Datarate not supported by any channel, restore defaults
 910:Middlewares/Third_Party/LoRaWAN/Mac/Region/RegionKR920.c ****         RegionNvmGroup2->ChannelsMask[0] |= LC( 1 ) + LC( 2 ) + LC( 3 );
 911:Middlewares/Third_Party/LoRaWAN/Mac/Region/RegionKR920.c ****     }
 912:Middlewares/Third_Party/LoRaWAN/Mac/Region/RegionKR920.c ****     return status;
 913:Middlewares/Third_Party/LoRaWAN/Mac/Region/RegionKR920.c **** #else
 914:Middlewares/Third_Party/LoRaWAN/Mac/Region/RegionKR920.c ****     return LORAMAC_STATUS_NO_CHANNEL_FOUND;
 369              		.loc 1 914 5 view .LVU56
ARM GAS  C:\Users\NATHAN~1\AppData\Local\Temp\ccFQkcZc.s 			page 23


 915:Middlewares/Third_Party/LoRaWAN/Mac/Region/RegionKR920.c **** #endif /* REGION_KR920 */
 916:Middlewares/Third_Party/LoRaWAN/Mac/Region/RegionKR920.c **** }
 370              		.loc 1 916 1 is_stmt 0 view .LVU57
 371 0000 0C20     		movs	r0, #12
 372              	.LVL25:
 373              		.loc 1 916 1 view .LVU58
 374 0002 7047     		bx	lr
 375              		.cfi_endproc
 376              	.LFE119:
 378              		.section	.text.RegionKR920ChannelAdd,"ax",%progbits
 379              		.align	1
 380              		.global	RegionKR920ChannelAdd
 381              		.syntax unified
 382              		.thumb
 383              		.thumb_func
 385              	RegionKR920ChannelAdd:
 386              	.LVL26:
 387              	.LFB120:
 917:Middlewares/Third_Party/LoRaWAN/Mac/Region/RegionKR920.c **** 
 918:Middlewares/Third_Party/LoRaWAN/Mac/Region/RegionKR920.c **** LoRaMacStatus_t RegionKR920ChannelAdd( ChannelAddParams_t* channelAdd )
 919:Middlewares/Third_Party/LoRaWAN/Mac/Region/RegionKR920.c **** {
 388              		.loc 1 919 1 is_stmt 1 view -0
 389              		.cfi_startproc
 390              		@ args = 0, pretend = 0, frame = 0
 391              		@ frame_needed = 0, uses_anonymous_args = 0
 392              		@ link register save eliminated.
 920:Middlewares/Third_Party/LoRaWAN/Mac/Region/RegionKR920.c **** #if defined( REGION_KR920 )
 921:Middlewares/Third_Party/LoRaWAN/Mac/Region/RegionKR920.c ****     bool drInvalid = false;
 922:Middlewares/Third_Party/LoRaWAN/Mac/Region/RegionKR920.c ****     bool freqInvalid = false;
 923:Middlewares/Third_Party/LoRaWAN/Mac/Region/RegionKR920.c ****     uint8_t id = channelAdd->ChannelId;
 924:Middlewares/Third_Party/LoRaWAN/Mac/Region/RegionKR920.c **** 
 925:Middlewares/Third_Party/LoRaWAN/Mac/Region/RegionKR920.c ****     if( id < KR920_NUMB_DEFAULT_CHANNELS )
 926:Middlewares/Third_Party/LoRaWAN/Mac/Region/RegionKR920.c ****     {
 927:Middlewares/Third_Party/LoRaWAN/Mac/Region/RegionKR920.c ****         return LORAMAC_STATUS_FREQ_AND_DR_INVALID;
 928:Middlewares/Third_Party/LoRaWAN/Mac/Region/RegionKR920.c ****     }
 929:Middlewares/Third_Party/LoRaWAN/Mac/Region/RegionKR920.c **** 
 930:Middlewares/Third_Party/LoRaWAN/Mac/Region/RegionKR920.c ****     if( id >= KR920_MAX_NB_CHANNELS )
 931:Middlewares/Third_Party/LoRaWAN/Mac/Region/RegionKR920.c ****     {
 932:Middlewares/Third_Party/LoRaWAN/Mac/Region/RegionKR920.c ****         return LORAMAC_STATUS_PARAMETER_INVALID;
 933:Middlewares/Third_Party/LoRaWAN/Mac/Region/RegionKR920.c ****     }
 934:Middlewares/Third_Party/LoRaWAN/Mac/Region/RegionKR920.c **** 
 935:Middlewares/Third_Party/LoRaWAN/Mac/Region/RegionKR920.c ****     // Validate the datarate range
 936:Middlewares/Third_Party/LoRaWAN/Mac/Region/RegionKR920.c ****     if( RegionCommonValueInRange( channelAdd->NewChannel->DrRange.Fields.Min, KR920_TX_MIN_DATARATE
 937:Middlewares/Third_Party/LoRaWAN/Mac/Region/RegionKR920.c ****     {
 938:Middlewares/Third_Party/LoRaWAN/Mac/Region/RegionKR920.c ****         drInvalid = true;
 939:Middlewares/Third_Party/LoRaWAN/Mac/Region/RegionKR920.c ****     }
 940:Middlewares/Third_Party/LoRaWAN/Mac/Region/RegionKR920.c ****     if( RegionCommonValueInRange( channelAdd->NewChannel->DrRange.Fields.Max, KR920_TX_MIN_DATARATE
 941:Middlewares/Third_Party/LoRaWAN/Mac/Region/RegionKR920.c ****     {
 942:Middlewares/Third_Party/LoRaWAN/Mac/Region/RegionKR920.c ****         drInvalid = true;
 943:Middlewares/Third_Party/LoRaWAN/Mac/Region/RegionKR920.c ****     }
 944:Middlewares/Third_Party/LoRaWAN/Mac/Region/RegionKR920.c ****     if( channelAdd->NewChannel->DrRange.Fields.Min > channelAdd->NewChannel->DrRange.Fields.Max )
 945:Middlewares/Third_Party/LoRaWAN/Mac/Region/RegionKR920.c ****     {
 946:Middlewares/Third_Party/LoRaWAN/Mac/Region/RegionKR920.c ****         drInvalid = true;
 947:Middlewares/Third_Party/LoRaWAN/Mac/Region/RegionKR920.c ****     }
 948:Middlewares/Third_Party/LoRaWAN/Mac/Region/RegionKR920.c **** 
 949:Middlewares/Third_Party/LoRaWAN/Mac/Region/RegionKR920.c ****     // Check frequency
 950:Middlewares/Third_Party/LoRaWAN/Mac/Region/RegionKR920.c ****     if( freqInvalid == false )
ARM GAS  C:\Users\NATHAN~1\AppData\Local\Temp\ccFQkcZc.s 			page 24


 951:Middlewares/Third_Party/LoRaWAN/Mac/Region/RegionKR920.c ****     {
 952:Middlewares/Third_Party/LoRaWAN/Mac/Region/RegionKR920.c ****         if( VerifyRfFreq( channelAdd->NewChannel->Frequency ) == false )
 953:Middlewares/Third_Party/LoRaWAN/Mac/Region/RegionKR920.c ****         {
 954:Middlewares/Third_Party/LoRaWAN/Mac/Region/RegionKR920.c ****             freqInvalid = true;
 955:Middlewares/Third_Party/LoRaWAN/Mac/Region/RegionKR920.c ****         }
 956:Middlewares/Third_Party/LoRaWAN/Mac/Region/RegionKR920.c ****     }
 957:Middlewares/Third_Party/LoRaWAN/Mac/Region/RegionKR920.c **** 
 958:Middlewares/Third_Party/LoRaWAN/Mac/Region/RegionKR920.c ****     // Check status
 959:Middlewares/Third_Party/LoRaWAN/Mac/Region/RegionKR920.c ****     if( ( drInvalid == true ) && ( freqInvalid == true ) )
 960:Middlewares/Third_Party/LoRaWAN/Mac/Region/RegionKR920.c ****     {
 961:Middlewares/Third_Party/LoRaWAN/Mac/Region/RegionKR920.c ****         return LORAMAC_STATUS_FREQ_AND_DR_INVALID;
 962:Middlewares/Third_Party/LoRaWAN/Mac/Region/RegionKR920.c ****     }
 963:Middlewares/Third_Party/LoRaWAN/Mac/Region/RegionKR920.c ****     if( drInvalid == true )
 964:Middlewares/Third_Party/LoRaWAN/Mac/Region/RegionKR920.c ****     {
 965:Middlewares/Third_Party/LoRaWAN/Mac/Region/RegionKR920.c ****         return LORAMAC_STATUS_DATARATE_INVALID;
 966:Middlewares/Third_Party/LoRaWAN/Mac/Region/RegionKR920.c ****     }
 967:Middlewares/Third_Party/LoRaWAN/Mac/Region/RegionKR920.c ****     if( freqInvalid == true )
 968:Middlewares/Third_Party/LoRaWAN/Mac/Region/RegionKR920.c ****     {
 969:Middlewares/Third_Party/LoRaWAN/Mac/Region/RegionKR920.c ****         return LORAMAC_STATUS_FREQUENCY_INVALID;
 970:Middlewares/Third_Party/LoRaWAN/Mac/Region/RegionKR920.c ****     }
 971:Middlewares/Third_Party/LoRaWAN/Mac/Region/RegionKR920.c **** 
 972:Middlewares/Third_Party/LoRaWAN/Mac/Region/RegionKR920.c ****     memcpy1( ( uint8_t* ) &(RegionNvmGroup2->Channels[id]), ( uint8_t* ) channelAdd->NewChannel, si
 973:Middlewares/Third_Party/LoRaWAN/Mac/Region/RegionKR920.c ****     RegionNvmGroup2->Channels[id].Band = 0;
 974:Middlewares/Third_Party/LoRaWAN/Mac/Region/RegionKR920.c ****     RegionNvmGroup2->ChannelsMask[0] |= ( 1 << id );
 975:Middlewares/Third_Party/LoRaWAN/Mac/Region/RegionKR920.c ****     return LORAMAC_STATUS_OK;
 976:Middlewares/Third_Party/LoRaWAN/Mac/Region/RegionKR920.c **** #else
 977:Middlewares/Third_Party/LoRaWAN/Mac/Region/RegionKR920.c ****     return LORAMAC_STATUS_NO_CHANNEL_FOUND;
 393              		.loc 1 977 5 view .LVU60
 978:Middlewares/Third_Party/LoRaWAN/Mac/Region/RegionKR920.c **** #endif /* REGION_KR920 */
 979:Middlewares/Third_Party/LoRaWAN/Mac/Region/RegionKR920.c **** }
 394              		.loc 1 979 1 is_stmt 0 view .LVU61
 395 0000 0C20     		movs	r0, #12
 396              	.LVL27:
 397              		.loc 1 979 1 view .LVU62
 398 0002 7047     		bx	lr
 399              		.cfi_endproc
 400              	.LFE120:
 402              		.section	.text.RegionKR920ChannelsRemove,"ax",%progbits
 403              		.align	1
 404              		.global	RegionKR920ChannelsRemove
 405              		.syntax unified
 406              		.thumb
 407              		.thumb_func
 409              	RegionKR920ChannelsRemove:
 410              	.LVL28:
 411              	.LFB121:
 980:Middlewares/Third_Party/LoRaWAN/Mac/Region/RegionKR920.c **** 
 981:Middlewares/Third_Party/LoRaWAN/Mac/Region/RegionKR920.c **** bool RegionKR920ChannelsRemove( ChannelRemoveParams_t* channelRemove  )
 982:Middlewares/Third_Party/LoRaWAN/Mac/Region/RegionKR920.c **** {
 412              		.loc 1 982 1 is_stmt 1 view -0
 413              		.cfi_startproc
 414              		@ args = 0, pretend = 0, frame = 0
 415              		@ frame_needed = 0, uses_anonymous_args = 0
 416              		@ link register save eliminated.
 983:Middlewares/Third_Party/LoRaWAN/Mac/Region/RegionKR920.c **** #if defined( REGION_KR920 )
 984:Middlewares/Third_Party/LoRaWAN/Mac/Region/RegionKR920.c ****     uint8_t id = channelRemove->ChannelId;
 985:Middlewares/Third_Party/LoRaWAN/Mac/Region/RegionKR920.c **** 
ARM GAS  C:\Users\NATHAN~1\AppData\Local\Temp\ccFQkcZc.s 			page 25


 986:Middlewares/Third_Party/LoRaWAN/Mac/Region/RegionKR920.c ****     if( id < KR920_NUMB_DEFAULT_CHANNELS )
 987:Middlewares/Third_Party/LoRaWAN/Mac/Region/RegionKR920.c ****     {
 988:Middlewares/Third_Party/LoRaWAN/Mac/Region/RegionKR920.c ****         return false;
 989:Middlewares/Third_Party/LoRaWAN/Mac/Region/RegionKR920.c ****     }
 990:Middlewares/Third_Party/LoRaWAN/Mac/Region/RegionKR920.c **** 
 991:Middlewares/Third_Party/LoRaWAN/Mac/Region/RegionKR920.c ****     // Remove the channel from the list of channels
 992:Middlewares/Third_Party/LoRaWAN/Mac/Region/RegionKR920.c ****     RegionNvmGroup2->Channels[id] = ( ChannelParams_t ){ 0, 0, { 0 }, 0 };
 993:Middlewares/Third_Party/LoRaWAN/Mac/Region/RegionKR920.c **** 
 994:Middlewares/Third_Party/LoRaWAN/Mac/Region/RegionKR920.c ****     return RegionCommonChanDisable( RegionNvmGroup2->ChannelsMask, id, KR920_MAX_NB_CHANNELS );
 995:Middlewares/Third_Party/LoRaWAN/Mac/Region/RegionKR920.c **** #else
 996:Middlewares/Third_Party/LoRaWAN/Mac/Region/RegionKR920.c ****     return false;
 417              		.loc 1 996 5 view .LVU64
 997:Middlewares/Third_Party/LoRaWAN/Mac/Region/RegionKR920.c **** #endif /* REGION_KR920 */
 998:Middlewares/Third_Party/LoRaWAN/Mac/Region/RegionKR920.c **** }
 418              		.loc 1 998 1 is_stmt 0 view .LVU65
 419 0000 0020     		movs	r0, #0
 420              	.LVL29:
 421              		.loc 1 998 1 view .LVU66
 422 0002 7047     		bx	lr
 423              		.cfi_endproc
 424              	.LFE121:
 426              		.section	.text.RegionKR920NewChannelReq,"ax",%progbits
 427              		.align	1
 428              		.global	RegionKR920NewChannelReq
 429              		.syntax unified
 430              		.thumb
 431              		.thumb_func
 433              	RegionKR920NewChannelReq:
 434              	.LVL30:
 435              	.LFB115:
 753:Middlewares/Third_Party/LoRaWAN/Mac/Region/RegionKR920.c ****     uint8_t status = 0x03;
 436              		.loc 1 753 1 is_stmt 1 view -0
 437              		.cfi_startproc
 438              		@ args = 0, pretend = 0, frame = 16
 439              		@ frame_needed = 0, uses_anonymous_args = 0
 753:Middlewares/Third_Party/LoRaWAN/Mac/Region/RegionKR920.c ****     uint8_t status = 0x03;
 440              		.loc 1 753 1 is_stmt 0 view .LVU68
 441 0000 00B5     		push	{lr}
 442              	.LCFI2:
 443              		.cfi_def_cfa_offset 4
 444              		.cfi_offset 14, -4
 445 0002 85B0     		sub	sp, sp, #20
 446              	.LCFI3:
 447              		.cfi_def_cfa_offset 24
 754:Middlewares/Third_Party/LoRaWAN/Mac/Region/RegionKR920.c ****     ChannelAddParams_t channelAdd;
 448              		.loc 1 754 5 is_stmt 1 view .LVU69
 449              	.LVL31:
 755:Middlewares/Third_Party/LoRaWAN/Mac/Region/RegionKR920.c ****     ChannelRemoveParams_t channelRemove;
 450              		.loc 1 755 5 view .LVU70
 756:Middlewares/Third_Party/LoRaWAN/Mac/Region/RegionKR920.c **** 
 451              		.loc 1 756 5 view .LVU71
 758:Middlewares/Third_Party/LoRaWAN/Mac/Region/RegionKR920.c ****     {
 452              		.loc 1 758 5 view .LVU72
 758:Middlewares/Third_Party/LoRaWAN/Mac/Region/RegionKR920.c ****     {
 453              		.loc 1 758 22 is_stmt 0 view .LVU73
 454 0004 0368     		ldr	r3, [r0]
 758:Middlewares/Third_Party/LoRaWAN/Mac/Region/RegionKR920.c ****     {
ARM GAS  C:\Users\NATHAN~1\AppData\Local\Temp\ccFQkcZc.s 			page 26


 455              		.loc 1 758 34 view .LVU74
 456 0006 1A68     		ldr	r2, [r3]
 758:Middlewares/Third_Party/LoRaWAN/Mac/Region/RegionKR920.c ****     {
 457              		.loc 1 758 7 view .LVU75
 458 0008 52B9     		cbnz	r2, .L20
 760:Middlewares/Third_Party/LoRaWAN/Mac/Region/RegionKR920.c **** 
 459              		.loc 1 760 9 is_stmt 1 view .LVU76
 760:Middlewares/Third_Party/LoRaWAN/Mac/Region/RegionKR920.c **** 
 460              		.loc 1 760 48 is_stmt 0 view .LVU77
 461 000a 0379     		ldrb	r3, [r0, #4]	@ zero_extendqisi2
 760:Middlewares/Third_Party/LoRaWAN/Mac/Region/RegionKR920.c **** 
 462              		.loc 1 760 33 view .LVU78
 463 000c 8DF80430 		strb	r3, [sp, #4]
 763:Middlewares/Third_Party/LoRaWAN/Mac/Region/RegionKR920.c ****         {
 464              		.loc 1 763 9 is_stmt 1 view .LVU79
 763:Middlewares/Third_Party/LoRaWAN/Mac/Region/RegionKR920.c ****         {
 465              		.loc 1 763 13 is_stmt 0 view .LVU80
 466 0010 01A8     		add	r0, sp, #4
 467              	.LVL32:
 763:Middlewares/Third_Party/LoRaWAN/Mac/Region/RegionKR920.c ****         {
 468              		.loc 1 763 13 view .LVU81
 469 0012 FFF7FEFF 		bl	RegionKR920ChannelsRemove
 470              	.LVL33:
 763:Middlewares/Third_Party/LoRaWAN/Mac/Region/RegionKR920.c ****         {
 471              		.loc 1 763 11 view .LVU82
 472 0016 D0B1     		cbz	r0, .L27
 754:Middlewares/Third_Party/LoRaWAN/Mac/Region/RegionKR920.c ****     ChannelAddParams_t channelAdd;
 473              		.loc 1 754 13 view .LVU83
 474 0018 0320     		movs	r0, #3
 475              	.LVL34:
 476              	.L21:
 802:Middlewares/Third_Party/LoRaWAN/Mac/Region/RegionKR920.c **** }
 477              		.loc 1 802 5 is_stmt 1 view .LVU84
 803:Middlewares/Third_Party/LoRaWAN/Mac/Region/RegionKR920.c **** 
 478              		.loc 1 803 1 is_stmt 0 view .LVU85
 479 001a 05B0     		add	sp, sp, #20
 480              	.LCFI4:
 481              		.cfi_remember_state
 482              		.cfi_def_cfa_offset 4
 483              		@ sp needed
 484 001c 5DF804FB 		ldr	pc, [sp], #4
 485              	.LVL35:
 486              	.L20:
 487              	.LCFI5:
 488              		.cfi_restore_state
 770:Middlewares/Third_Party/LoRaWAN/Mac/Region/RegionKR920.c ****         channelAdd.ChannelId = newChannelReq->ChannelId;
 489              		.loc 1 770 9 is_stmt 1 view .LVU86
 770:Middlewares/Third_Party/LoRaWAN/Mac/Region/RegionKR920.c ****         channelAdd.ChannelId = newChannelReq->ChannelId;
 490              		.loc 1 770 31 is_stmt 0 view .LVU87
 491 0020 0293     		str	r3, [sp, #8]
 771:Middlewares/Third_Party/LoRaWAN/Mac/Region/RegionKR920.c **** 
 492              		.loc 1 771 9 is_stmt 1 view .LVU88
 771:Middlewares/Third_Party/LoRaWAN/Mac/Region/RegionKR920.c **** 
 493              		.loc 1 771 45 is_stmt 0 view .LVU89
 494 0022 0379     		ldrb	r3, [r0, #4]	@ zero_extendqisi2
 771:Middlewares/Third_Party/LoRaWAN/Mac/Region/RegionKR920.c **** 
 495              		.loc 1 771 30 view .LVU90
ARM GAS  C:\Users\NATHAN~1\AppData\Local\Temp\ccFQkcZc.s 			page 27


 496 0024 8DF80C30 		strb	r3, [sp, #12]
 773:Middlewares/Third_Party/LoRaWAN/Mac/Region/RegionKR920.c ****         {
 497              		.loc 1 773 9 is_stmt 1 view .LVU91
 773:Middlewares/Third_Party/LoRaWAN/Mac/Region/RegionKR920.c ****         {
 498              		.loc 1 773 17 is_stmt 0 view .LVU92
 499 0028 02A8     		add	r0, sp, #8
 500              	.LVL36:
 773:Middlewares/Third_Party/LoRaWAN/Mac/Region/RegionKR920.c ****         {
 501              		.loc 1 773 17 view .LVU93
 502 002a FFF7FEFF 		bl	RegionKR920ChannelAdd
 503              	.LVL37:
 773:Middlewares/Third_Party/LoRaWAN/Mac/Region/RegionKR920.c ****         {
 504              		.loc 1 773 9 view .LVU94
 505 002e 0628     		cmp	r0, #6
 506 0030 0BD8     		bhi	.L22
 507 0032 DFE800F0 		tbb	[pc, r0]
 508              	.L24:
 509 0036 04       		.byte	(.L26-.L24)/2
 510 0037 0A       		.byte	(.L22-.L24)/2
 511 0038 0A       		.byte	(.L22-.L24)/2
 512 0039 0A       		.byte	(.L22-.L24)/2
 513 003a 0E       		.byte	(.L28-.L24)/2
 514 003b 06       		.byte	(.L25-.L24)/2
 515 003c 08       		.byte	(.L23-.L24)/2
 516 003d 00       		.p2align 1
 517              	.L26:
 518 003e 0320     		movs	r0, #3
 519 0040 EBE7     		b	.L21
 520              	.L25:
 786:Middlewares/Third_Party/LoRaWAN/Mac/Region/RegionKR920.c ****                 break;
 521              		.loc 1 786 17 is_stmt 1 view .LVU95
 522              	.LVL38:
 787:Middlewares/Third_Party/LoRaWAN/Mac/Region/RegionKR920.c ****             }
 523              		.loc 1 787 17 view .LVU96
 786:Middlewares/Third_Party/LoRaWAN/Mac/Region/RegionKR920.c ****                 break;
 524              		.loc 1 786 24 is_stmt 0 view .LVU97
 525 0042 0120     		movs	r0, #1
 787:Middlewares/Third_Party/LoRaWAN/Mac/Region/RegionKR920.c ****             }
 526              		.loc 1 787 17 view .LVU98
 527 0044 E9E7     		b	.L21
 528              	.LVL39:
 529              	.L23:
 791:Middlewares/Third_Party/LoRaWAN/Mac/Region/RegionKR920.c ****                 break;
 530              		.loc 1 791 17 is_stmt 1 view .LVU99
 792:Middlewares/Third_Party/LoRaWAN/Mac/Region/RegionKR920.c ****             }
 531              		.loc 1 792 17 view .LVU100
 791:Middlewares/Third_Party/LoRaWAN/Mac/Region/RegionKR920.c ****                 break;
 532              		.loc 1 791 24 is_stmt 0 view .LVU101
 533 0046 0020     		movs	r0, #0
 792:Middlewares/Third_Party/LoRaWAN/Mac/Region/RegionKR920.c ****             }
 534              		.loc 1 792 17 view .LVU102
 535 0048 E7E7     		b	.L21
 536              	.LVL40:
 537              	.L22:
 796:Middlewares/Third_Party/LoRaWAN/Mac/Region/RegionKR920.c ****                 break;
 538              		.loc 1 796 17 is_stmt 1 view .LVU103
 797:Middlewares/Third_Party/LoRaWAN/Mac/Region/RegionKR920.c ****             }
ARM GAS  C:\Users\NATHAN~1\AppData\Local\Temp\ccFQkcZc.s 			page 28


 539              		.loc 1 797 17 view .LVU104
 796:Middlewares/Third_Party/LoRaWAN/Mac/Region/RegionKR920.c ****                 break;
 540              		.loc 1 796 24 is_stmt 0 view .LVU105
 541 004a 0020     		movs	r0, #0
 797:Middlewares/Third_Party/LoRaWAN/Mac/Region/RegionKR920.c ****             }
 542              		.loc 1 797 17 view .LVU106
 543 004c E5E7     		b	.L21
 544              	.LVL41:
 545              	.L27:
 765:Middlewares/Third_Party/LoRaWAN/Mac/Region/RegionKR920.c ****         }
 546              		.loc 1 765 20 view .LVU107
 547 004e 0020     		movs	r0, #0
 548 0050 E3E7     		b	.L21
 549              	.L28:
 781:Middlewares/Third_Party/LoRaWAN/Mac/Region/RegionKR920.c ****                 break;
 550              		.loc 1 781 24 view .LVU108
 551 0052 0220     		movs	r0, #2
 552 0054 E1E7     		b	.L21
 553              		.cfi_endproc
 554              	.LFE115:
 556              		.section	.text.RegionKR920SetContinuousWave,"ax",%progbits
 557              		.align	1
 558              		.global	RegionKR920SetContinuousWave
 559              		.syntax unified
 560              		.thumb
 561              		.thumb_func
 563              	RegionKR920SetContinuousWave:
 564              	.LVL42:
 565              	.LFB122:
 999:Middlewares/Third_Party/LoRaWAN/Mac/Region/RegionKR920.c **** 
1000:Middlewares/Third_Party/LoRaWAN/Mac/Region/RegionKR920.c **** void RegionKR920SetContinuousWave( ContinuousWaveParams_t* continuousWave )
1001:Middlewares/Third_Party/LoRaWAN/Mac/Region/RegionKR920.c **** {
 566              		.loc 1 1001 1 is_stmt 1 view -0
 567              		.cfi_startproc
 568              		@ args = 0, pretend = 0, frame = 0
 569              		@ frame_needed = 0, uses_anonymous_args = 0
 570              		@ link register save eliminated.
1002:Middlewares/Third_Party/LoRaWAN/Mac/Region/RegionKR920.c **** #if defined( REGION_KR920 )
1003:Middlewares/Third_Party/LoRaWAN/Mac/Region/RegionKR920.c ****     int8_t txPowerLimited = RegionCommonLimitTxPower( continuousWave->TxPower, RegionNvmGroup1->Ban
1004:Middlewares/Third_Party/LoRaWAN/Mac/Region/RegionKR920.c ****     float maxEIRP = GetMaxEIRP( RegionNvmGroup2->Channels[continuousWave->Channel].Frequency );
1005:Middlewares/Third_Party/LoRaWAN/Mac/Region/RegionKR920.c ****     int8_t phyTxPower = 0;
1006:Middlewares/Third_Party/LoRaWAN/Mac/Region/RegionKR920.c ****     uint32_t frequency = RegionNvmGroup2->Channels[continuousWave->Channel].Frequency;
1007:Middlewares/Third_Party/LoRaWAN/Mac/Region/RegionKR920.c **** 
1008:Middlewares/Third_Party/LoRaWAN/Mac/Region/RegionKR920.c ****     // Take the minimum between the maxEIRP and continuousWave->MaxEirp.
1009:Middlewares/Third_Party/LoRaWAN/Mac/Region/RegionKR920.c ****     // The value of continuousWave->MaxEirp could have changed during runtime, e.g. due to a MAC co
1010:Middlewares/Third_Party/LoRaWAN/Mac/Region/RegionKR920.c ****     maxEIRP = MIN( continuousWave->MaxEirp, maxEIRP );
1011:Middlewares/Third_Party/LoRaWAN/Mac/Region/RegionKR920.c **** 
1012:Middlewares/Third_Party/LoRaWAN/Mac/Region/RegionKR920.c ****     // Calculate physical TX power
1013:Middlewares/Third_Party/LoRaWAN/Mac/Region/RegionKR920.c ****     phyTxPower = RegionCommonComputeTxPower( txPowerLimited, maxEIRP, continuousWave->AntennaGain )
1014:Middlewares/Third_Party/LoRaWAN/Mac/Region/RegionKR920.c **** 
1015:Middlewares/Third_Party/LoRaWAN/Mac/Region/RegionKR920.c ****     Radio.SetTxContinuousWave( frequency, phyTxPower, continuousWave->Timeout );
1016:Middlewares/Third_Party/LoRaWAN/Mac/Region/RegionKR920.c **** #endif /* REGION_KR920 */
1017:Middlewares/Third_Party/LoRaWAN/Mac/Region/RegionKR920.c **** }
 571              		.loc 1 1017 1 view .LVU110
 572 0000 7047     		bx	lr
 573              		.cfi_endproc
 574              	.LFE122:
ARM GAS  C:\Users\NATHAN~1\AppData\Local\Temp\ccFQkcZc.s 			page 29


 576              		.section	.text.RegionKR920ApplyDrOffset,"ax",%progbits
 577              		.align	1
 578              		.global	RegionKR920ApplyDrOffset
 579              		.syntax unified
 580              		.thumb
 581              		.thumb_func
 583              	RegionKR920ApplyDrOffset:
 584              	.LVL43:
 585              	.LFB123:
1018:Middlewares/Third_Party/LoRaWAN/Mac/Region/RegionKR920.c **** 
1019:Middlewares/Third_Party/LoRaWAN/Mac/Region/RegionKR920.c **** uint8_t RegionKR920ApplyDrOffset( uint8_t downlinkDwellTime, int8_t dr, int8_t drOffset )
1020:Middlewares/Third_Party/LoRaWAN/Mac/Region/RegionKR920.c **** {
 586              		.loc 1 1020 1 view -0
 587              		.cfi_startproc
 588              		@ args = 0, pretend = 0, frame = 0
 589              		@ frame_needed = 0, uses_anonymous_args = 0
 590              		@ link register save eliminated.
1021:Middlewares/Third_Party/LoRaWAN/Mac/Region/RegionKR920.c **** #if defined( REGION_KR920 )
1022:Middlewares/Third_Party/LoRaWAN/Mac/Region/RegionKR920.c ****     int8_t datarate = dr - drOffset;
1023:Middlewares/Third_Party/LoRaWAN/Mac/Region/RegionKR920.c **** 
1024:Middlewares/Third_Party/LoRaWAN/Mac/Region/RegionKR920.c ****     if( datarate < 0 )
1025:Middlewares/Third_Party/LoRaWAN/Mac/Region/RegionKR920.c ****     {
1026:Middlewares/Third_Party/LoRaWAN/Mac/Region/RegionKR920.c ****         datarate = DR_0;
1027:Middlewares/Third_Party/LoRaWAN/Mac/Region/RegionKR920.c ****     }
1028:Middlewares/Third_Party/LoRaWAN/Mac/Region/RegionKR920.c ****     return datarate;
1029:Middlewares/Third_Party/LoRaWAN/Mac/Region/RegionKR920.c **** #else
1030:Middlewares/Third_Party/LoRaWAN/Mac/Region/RegionKR920.c ****     return 0;
 591              		.loc 1 1030 5 view .LVU112
1031:Middlewares/Third_Party/LoRaWAN/Mac/Region/RegionKR920.c **** #endif /* REGION_KR920 */
1032:Middlewares/Third_Party/LoRaWAN/Mac/Region/RegionKR920.c **** }
 592              		.loc 1 1032 1 is_stmt 0 view .LVU113
 593 0000 0020     		movs	r0, #0
 594              	.LVL44:
 595              		.loc 1 1032 1 view .LVU114
 596 0002 7047     		bx	lr
 597              		.cfi_endproc
 598              	.LFE123:
 600              		.section	.text.RegionKR920RxBeaconSetup,"ax",%progbits
 601              		.align	1
 602              		.global	RegionKR920RxBeaconSetup
 603              		.syntax unified
 604              		.thumb
 605              		.thumb_func
 607              	RegionKR920RxBeaconSetup:
 608              	.LVL45:
 609              	.LFB124:
1033:Middlewares/Third_Party/LoRaWAN/Mac/Region/RegionKR920.c **** 
1034:Middlewares/Third_Party/LoRaWAN/Mac/Region/RegionKR920.c **** void RegionKR920RxBeaconSetup( RxBeaconSetup_t* rxBeaconSetup, uint8_t* outDr )
1035:Middlewares/Third_Party/LoRaWAN/Mac/Region/RegionKR920.c **** {
 610              		.loc 1 1035 1 is_stmt 1 view -0
 611              		.cfi_startproc
 612              		@ args = 0, pretend = 0, frame = 0
 613              		@ frame_needed = 0, uses_anonymous_args = 0
 614              		@ link register save eliminated.
1036:Middlewares/Third_Party/LoRaWAN/Mac/Region/RegionKR920.c **** #if defined( REGION_KR920 )
1037:Middlewares/Third_Party/LoRaWAN/Mac/Region/RegionKR920.c ****     RegionCommonRxBeaconSetupParams_t regionCommonRxBeaconSetup;
1038:Middlewares/Third_Party/LoRaWAN/Mac/Region/RegionKR920.c **** 
ARM GAS  C:\Users\NATHAN~1\AppData\Local\Temp\ccFQkcZc.s 			page 30


1039:Middlewares/Third_Party/LoRaWAN/Mac/Region/RegionKR920.c ****     regionCommonRxBeaconSetup.Datarates = DataratesKR920;
1040:Middlewares/Third_Party/LoRaWAN/Mac/Region/RegionKR920.c ****     regionCommonRxBeaconSetup.Frequency = rxBeaconSetup->Frequency;
1041:Middlewares/Third_Party/LoRaWAN/Mac/Region/RegionKR920.c ****     regionCommonRxBeaconSetup.BeaconSize = KR920_BEACON_SIZE;
1042:Middlewares/Third_Party/LoRaWAN/Mac/Region/RegionKR920.c ****     regionCommonRxBeaconSetup.BeaconDatarate = KR920_BEACON_CHANNEL_DR;
1043:Middlewares/Third_Party/LoRaWAN/Mac/Region/RegionKR920.c ****     regionCommonRxBeaconSetup.BeaconChannelBW = KR920_BEACON_CHANNEL_BW;
1044:Middlewares/Third_Party/LoRaWAN/Mac/Region/RegionKR920.c ****     regionCommonRxBeaconSetup.RxTime = rxBeaconSetup->RxTime;
1045:Middlewares/Third_Party/LoRaWAN/Mac/Region/RegionKR920.c ****     regionCommonRxBeaconSetup.SymbolTimeout = rxBeaconSetup->SymbolTimeout;
1046:Middlewares/Third_Party/LoRaWAN/Mac/Region/RegionKR920.c **** 
1047:Middlewares/Third_Party/LoRaWAN/Mac/Region/RegionKR920.c ****     RegionCommonRxBeaconSetup( &regionCommonRxBeaconSetup );
1048:Middlewares/Third_Party/LoRaWAN/Mac/Region/RegionKR920.c **** 
1049:Middlewares/Third_Party/LoRaWAN/Mac/Region/RegionKR920.c ****     // Store downlink datarate
1050:Middlewares/Third_Party/LoRaWAN/Mac/Region/RegionKR920.c ****     *outDr = KR920_BEACON_CHANNEL_DR;
1051:Middlewares/Third_Party/LoRaWAN/Mac/Region/RegionKR920.c **** #endif /* REGION_KR920 */
1052:Middlewares/Third_Party/LoRaWAN/Mac/Region/RegionKR920.c **** }
 615              		.loc 1 1052 1 view .LVU116
 616 0000 7047     		bx	lr
 617              		.cfi_endproc
 618              	.LFE124:
 620              		.text
 621              	.Letext0:
 622              		.file 2 "c:\\program files (x86)\\gnu arm embedded toolchain\\10 2021.10\\arm-none-eabi\\include\\
 623              		.file 3 "c:\\program files (x86)\\gnu arm embedded toolchain\\10 2021.10\\arm-none-eabi\\include\\
 624              		.file 4 "Utilities/timer/stm32_timer.h"
 625              		.file 5 "Utilities/misc/stm32_systime.h"
 626              		.file 6 "Middlewares/Third_Party/LoRaWAN/Mac/LoRaMacTypes.h"
 627              		.file 7 "Middlewares/Third_Party/LoRaWAN/Utilities/utilities.h"
 628              		.file 8 "Middlewares/Third_Party/LoRaWAN/Mac/LoRaMac.h"
 629              		.file 9 "Middlewares/Third_Party/LoRaWAN/Mac/Region/Region.h"
 630              		.file 10 "Middlewares/Third_Party/LoRaWAN/Mac/Region/RegionKR920.h"
ARM GAS  C:\Users\NATHAN~1\AppData\Local\Temp\ccFQkcZc.s 			page 31

