ARM GAS  C:\Users\NATHAN~1\AppData\Local\Temp\cc6e4y2d.s 			page 1


   1              		.cpu cortex-m4
   2              		.arch armv7e-m
   3              		.fpu softvfp
   4              		.eabi_attribute 20, 1
   5              		.eabi_attribute 21, 1
   6              		.eabi_attribute 23, 3
   7              		.eabi_attribute 24, 1
   8              		.eabi_attribute 25, 1
   9              		.eabi_attribute 26, 1
  10              		.eabi_attribute 30, 1
  11              		.eabi_attribute 34, 1
  12              		.eabi_attribute 18, 4
  13              		.file	"rtc.c"
  14              		.text
  15              	.Ltext0:
  16              		.cfi_sections	.debug_frame
  17              		.section	.text.MX_RTC_Init,"ax",%progbits
  18              		.align	1
  19              		.global	MX_RTC_Init
  20              		.syntax unified
  21              		.thumb
  22              		.thumb_func
  24              	MX_RTC_Init:
  25              	.LFB968:
  26              		.file 1 "Core/Src/rtc.c"
   1:Core/Src/rtc.c **** /* USER CODE BEGIN Header */
   2:Core/Src/rtc.c **** /**
   3:Core/Src/rtc.c ****   ******************************************************************************
   4:Core/Src/rtc.c ****   * @file    rtc.c
   5:Core/Src/rtc.c ****   * @brief   This file provides code for the configuration
   6:Core/Src/rtc.c ****   *          of the RTC instances.
   7:Core/Src/rtc.c ****   ******************************************************************************
   8:Core/Src/rtc.c ****   * @attention
   9:Core/Src/rtc.c ****   *
  10:Core/Src/rtc.c ****   * Copyright (c) 2022 STMicroelectronics.
  11:Core/Src/rtc.c ****   * All rights reserved.
  12:Core/Src/rtc.c ****   *
  13:Core/Src/rtc.c ****   * This software is licensed under terms that can be found in the LICENSE file
  14:Core/Src/rtc.c ****   * in the root directory of this software component.
  15:Core/Src/rtc.c ****   * If no LICENSE file comes with this software, it is provided AS-IS.
  16:Core/Src/rtc.c ****   *
  17:Core/Src/rtc.c ****   ******************************************************************************
  18:Core/Src/rtc.c ****   */
  19:Core/Src/rtc.c **** /* USER CODE END Header */
  20:Core/Src/rtc.c **** /* Includes ------------------------------------------------------------------*/
  21:Core/Src/rtc.c **** #include "rtc.h"
  22:Core/Src/rtc.c **** 
  23:Core/Src/rtc.c **** /* USER CODE BEGIN 0 */
  24:Core/Src/rtc.c **** 
  25:Core/Src/rtc.c **** /* USER CODE END 0 */
  26:Core/Src/rtc.c **** 
  27:Core/Src/rtc.c **** RTC_HandleTypeDef hrtc;
  28:Core/Src/rtc.c **** 
  29:Core/Src/rtc.c **** /* RTC init function */
  30:Core/Src/rtc.c **** void MX_RTC_Init(void)
  31:Core/Src/rtc.c **** {
  27              		.loc 1 31 1 view -0
ARM GAS  C:\Users\NATHAN~1\AppData\Local\Temp\cc6e4y2d.s 			page 2


  28              		.cfi_startproc
  29              		@ args = 0, pretend = 0, frame = 72
  30              		@ frame_needed = 0, uses_anonymous_args = 0
  31 0000 10B5     		push	{r4, lr}
  32              	.LCFI0:
  33              		.cfi_def_cfa_offset 8
  34              		.cfi_offset 4, -8
  35              		.cfi_offset 14, -4
  36 0002 92B0     		sub	sp, sp, #72
  37              	.LCFI1:
  38              		.cfi_def_cfa_offset 80
  32:Core/Src/rtc.c **** 
  33:Core/Src/rtc.c ****   /* USER CODE BEGIN RTC_Init 0 */
  34:Core/Src/rtc.c **** 
  35:Core/Src/rtc.c ****   /* USER CODE END RTC_Init 0 */
  36:Core/Src/rtc.c **** 
  37:Core/Src/rtc.c ****   RTC_TimeTypeDef sTime = {0};
  39              		.loc 1 37 3 view .LVU1
  40              		.loc 1 37 19 is_stmt 0 view .LVU2
  41 0004 0024     		movs	r4, #0
  42 0006 0D94     		str	r4, [sp, #52]
  43 0008 0E94     		str	r4, [sp, #56]
  44 000a 0F94     		str	r4, [sp, #60]
  45 000c 1094     		str	r4, [sp, #64]
  46 000e 1194     		str	r4, [sp, #68]
  38:Core/Src/rtc.c ****   RTC_DateTypeDef sDate = {0};
  47              		.loc 1 38 3 is_stmt 1 view .LVU3
  48              		.loc 1 38 19 is_stmt 0 view .LVU4
  49 0010 0C94     		str	r4, [sp, #48]
  39:Core/Src/rtc.c ****   RTC_AlarmTypeDef sAlarm = {0};
  50              		.loc 1 39 3 is_stmt 1 view .LVU5
  51              		.loc 1 39 20 is_stmt 0 view .LVU6
  52 0012 2C22     		movs	r2, #44
  53 0014 2146     		mov	r1, r4
  54 0016 01A8     		add	r0, sp, #4
  55 0018 FFF7FEFF 		bl	memset
  56              	.LVL0:
  40:Core/Src/rtc.c **** 
  41:Core/Src/rtc.c ****   /* USER CODE BEGIN RTC_Init 1 */
  42:Core/Src/rtc.c **** 
  43:Core/Src/rtc.c ****   /* USER CODE END RTC_Init 1 */
  44:Core/Src/rtc.c ****   /** Initialize RTC Only
  45:Core/Src/rtc.c ****   */
  46:Core/Src/rtc.c ****   hrtc.Instance = RTC;
  57              		.loc 1 46 3 is_stmt 1 view .LVU7
  58              		.loc 1 46 17 is_stmt 0 view .LVU8
  59 001c 2B48     		ldr	r0, .L11
  60 001e 2C4B     		ldr	r3, .L11+4
  61 0020 0360     		str	r3, [r0]
  47:Core/Src/rtc.c ****   hrtc.Init.HourFormat = RTC_HOURFORMAT_24;
  62              		.loc 1 47 3 is_stmt 1 view .LVU9
  63              		.loc 1 47 24 is_stmt 0 view .LVU10
  64 0022 4460     		str	r4, [r0, #4]
  48:Core/Src/rtc.c ****   hrtc.Init.AsynchPrediv = 127;
  65              		.loc 1 48 3 is_stmt 1 view .LVU11
  66              		.loc 1 48 26 is_stmt 0 view .LVU12
  67 0024 7F23     		movs	r3, #127
ARM GAS  C:\Users\NATHAN~1\AppData\Local\Temp\cc6e4y2d.s 			page 3


  68 0026 8360     		str	r3, [r0, #8]
  49:Core/Src/rtc.c ****   hrtc.Init.SynchPrediv = 255;
  69              		.loc 1 49 3 is_stmt 1 view .LVU13
  70              		.loc 1 49 25 is_stmt 0 view .LVU14
  71 0028 FF23     		movs	r3, #255
  72 002a C360     		str	r3, [r0, #12]
  50:Core/Src/rtc.c ****   hrtc.Init.OutPut = RTC_OUTPUT_DISABLE;
  73              		.loc 1 50 3 is_stmt 1 view .LVU15
  74              		.loc 1 50 20 is_stmt 0 view .LVU16
  75 002c 0461     		str	r4, [r0, #16]
  51:Core/Src/rtc.c ****   hrtc.Init.OutPutRemap = RTC_OUTPUT_REMAP_NONE;
  76              		.loc 1 51 3 is_stmt 1 view .LVU17
  77              		.loc 1 51 25 is_stmt 0 view .LVU18
  78 002e 4461     		str	r4, [r0, #20]
  52:Core/Src/rtc.c ****   hrtc.Init.OutPutPolarity = RTC_OUTPUT_POLARITY_HIGH;
  79              		.loc 1 52 3 is_stmt 1 view .LVU19
  80              		.loc 1 52 28 is_stmt 0 view .LVU20
  81 0030 8461     		str	r4, [r0, #24]
  53:Core/Src/rtc.c ****   hrtc.Init.OutPutType = RTC_OUTPUT_TYPE_OPENDRAIN;
  82              		.loc 1 53 3 is_stmt 1 view .LVU21
  83              		.loc 1 53 24 is_stmt 0 view .LVU22
  84 0032 4FF08043 		mov	r3, #1073741824
  85 0036 C361     		str	r3, [r0, #28]
  54:Core/Src/rtc.c ****   hrtc.Init.OutPutPullUp = RTC_OUTPUT_PULLUP_NONE;
  86              		.loc 1 54 3 is_stmt 1 view .LVU23
  87              		.loc 1 54 26 is_stmt 0 view .LVU24
  88 0038 0462     		str	r4, [r0, #32]
  55:Core/Src/rtc.c ****   hrtc.Init.BinMode = RTC_BINARY_NONE;
  89              		.loc 1 55 3 is_stmt 1 view .LVU25
  90              		.loc 1 55 21 is_stmt 0 view .LVU26
  91 003a 4462     		str	r4, [r0, #36]
  56:Core/Src/rtc.c ****   if (HAL_RTC_Init(&hrtc) != HAL_OK)
  92              		.loc 1 56 3 is_stmt 1 view .LVU27
  93              		.loc 1 56 7 is_stmt 0 view .LVU28
  94 003c FFF7FEFF 		bl	HAL_RTC_Init
  95              	.LVL1:
  96              		.loc 1 56 6 view .LVU29
  97 0040 0028     		cmp	r0, #0
  98 0042 37D1     		bne	.L7
  99              	.L2:
  57:Core/Src/rtc.c ****   {
  58:Core/Src/rtc.c ****     Error_Handler();
  59:Core/Src/rtc.c ****   }
  60:Core/Src/rtc.c **** 
  61:Core/Src/rtc.c ****   /* USER CODE BEGIN Check_RTC_BKUP */
  62:Core/Src/rtc.c **** 
  63:Core/Src/rtc.c ****   /* USER CODE END Check_RTC_BKUP */
  64:Core/Src/rtc.c **** 
  65:Core/Src/rtc.c ****   /** Initialize RTC and set the Time and Date
  66:Core/Src/rtc.c ****   */
  67:Core/Src/rtc.c ****   sTime.Hours = 0x0;
 100              		.loc 1 67 3 is_stmt 1 view .LVU30
 101              		.loc 1 67 15 is_stmt 0 view .LVU31
 102 0044 0023     		movs	r3, #0
 103 0046 8DF83430 		strb	r3, [sp, #52]
  68:Core/Src/rtc.c ****   sTime.Minutes = 0x0;
 104              		.loc 1 68 3 is_stmt 1 view .LVU32
ARM GAS  C:\Users\NATHAN~1\AppData\Local\Temp\cc6e4y2d.s 			page 4


 105              		.loc 1 68 17 is_stmt 0 view .LVU33
 106 004a 8DF83530 		strb	r3, [sp, #53]
  69:Core/Src/rtc.c ****   sTime.Seconds = 0x0;
 107              		.loc 1 69 3 is_stmt 1 view .LVU34
 108              		.loc 1 69 17 is_stmt 0 view .LVU35
 109 004e 8DF83630 		strb	r3, [sp, #54]
  70:Core/Src/rtc.c ****   sTime.DayLightSaving = RTC_DAYLIGHTSAVING_NONE;
 110              		.loc 1 70 3 is_stmt 1 view .LVU36
 111              		.loc 1 70 24 is_stmt 0 view .LVU37
 112 0052 1093     		str	r3, [sp, #64]
  71:Core/Src/rtc.c ****   sTime.StoreOperation = RTC_STOREOPERATION_RESET;
 113              		.loc 1 71 3 is_stmt 1 view .LVU38
 114              		.loc 1 71 24 is_stmt 0 view .LVU39
 115 0054 1193     		str	r3, [sp, #68]
  72:Core/Src/rtc.c ****   if (HAL_RTC_SetTime(&hrtc, &sTime, RTC_FORMAT_BCD) != HAL_OK)
 116              		.loc 1 72 3 is_stmt 1 view .LVU40
 117              		.loc 1 72 7 is_stmt 0 view .LVU41
 118 0056 0122     		movs	r2, #1
 119 0058 0DA9     		add	r1, sp, #52
 120 005a 1C48     		ldr	r0, .L11
 121 005c FFF7FEFF 		bl	HAL_RTC_SetTime
 122              	.LVL2:
 123              		.loc 1 72 6 view .LVU42
 124 0060 58BB     		cbnz	r0, .L8
 125              	.L3:
  73:Core/Src/rtc.c ****   {
  74:Core/Src/rtc.c ****     Error_Handler();
  75:Core/Src/rtc.c ****   }
  76:Core/Src/rtc.c ****   sDate.WeekDay = RTC_WEEKDAY_MONDAY;
 126              		.loc 1 76 3 is_stmt 1 view .LVU43
 127              		.loc 1 76 17 is_stmt 0 view .LVU44
 128 0062 0122     		movs	r2, #1
 129 0064 8DF83020 		strb	r2, [sp, #48]
  77:Core/Src/rtc.c ****   sDate.Month = RTC_MONTH_JANUARY;
 130              		.loc 1 77 3 is_stmt 1 view .LVU45
 131              		.loc 1 77 15 is_stmt 0 view .LVU46
 132 0068 8DF83120 		strb	r2, [sp, #49]
  78:Core/Src/rtc.c ****   sDate.Date = 0x1;
 133              		.loc 1 78 3 is_stmt 1 view .LVU47
 134              		.loc 1 78 14 is_stmt 0 view .LVU48
 135 006c 8DF83220 		strb	r2, [sp, #50]
  79:Core/Src/rtc.c ****   sDate.Year = 0x0;
 136              		.loc 1 79 3 is_stmt 1 view .LVU49
 137              		.loc 1 79 14 is_stmt 0 view .LVU50
 138 0070 0023     		movs	r3, #0
 139 0072 8DF83330 		strb	r3, [sp, #51]
  80:Core/Src/rtc.c **** 
  81:Core/Src/rtc.c ****   if (HAL_RTC_SetDate(&hrtc, &sDate, RTC_FORMAT_BCD) != HAL_OK)
 140              		.loc 1 81 3 is_stmt 1 view .LVU51
 141              		.loc 1 81 7 is_stmt 0 view .LVU52
 142 0076 0CA9     		add	r1, sp, #48
 143 0078 1448     		ldr	r0, .L11
 144 007a FFF7FEFF 		bl	HAL_RTC_SetDate
 145              	.LVL3:
 146              		.loc 1 81 6 view .LVU53
 147 007e F8B9     		cbnz	r0, .L9
 148              	.L4:
ARM GAS  C:\Users\NATHAN~1\AppData\Local\Temp\cc6e4y2d.s 			page 5


  82:Core/Src/rtc.c ****   {
  83:Core/Src/rtc.c ****     Error_Handler();
  84:Core/Src/rtc.c ****   }
  85:Core/Src/rtc.c ****   /** Enable the Alarm A
  86:Core/Src/rtc.c ****   */
  87:Core/Src/rtc.c ****   sAlarm.AlarmTime.Hours = 0x0;
 149              		.loc 1 87 3 is_stmt 1 view .LVU54
 150              		.loc 1 87 26 is_stmt 0 view .LVU55
 151 0080 0023     		movs	r3, #0
 152 0082 8DF80430 		strb	r3, [sp, #4]
  88:Core/Src/rtc.c ****   sAlarm.AlarmTime.Minutes = 0x0;
 153              		.loc 1 88 3 is_stmt 1 view .LVU56
 154              		.loc 1 88 28 is_stmt 0 view .LVU57
 155 0086 8DF80530 		strb	r3, [sp, #5]
  89:Core/Src/rtc.c ****   sAlarm.AlarmTime.Seconds = 0x0;
 156              		.loc 1 89 3 is_stmt 1 view .LVU58
 157              		.loc 1 89 28 is_stmt 0 view .LVU59
 158 008a 8DF80630 		strb	r3, [sp, #6]
  90:Core/Src/rtc.c ****   sAlarm.AlarmTime.SubSeconds = 0x0;
 159              		.loc 1 90 3 is_stmt 1 view .LVU60
 160              		.loc 1 90 31 is_stmt 0 view .LVU61
 161 008e 0293     		str	r3, [sp, #8]
  91:Core/Src/rtc.c ****   sAlarm.AlarmTime.DayLightSaving = RTC_DAYLIGHTSAVING_NONE;
 162              		.loc 1 91 3 is_stmt 1 view .LVU62
 163              		.loc 1 91 35 is_stmt 0 view .LVU63
 164 0090 0493     		str	r3, [sp, #16]
  92:Core/Src/rtc.c ****   sAlarm.AlarmTime.StoreOperation = RTC_STOREOPERATION_RESET;
 165              		.loc 1 92 3 is_stmt 1 view .LVU64
 166              		.loc 1 92 35 is_stmt 0 view .LVU65
 167 0092 0593     		str	r3, [sp, #20]
  93:Core/Src/rtc.c ****   sAlarm.AlarmMask = RTC_ALARMMASK_NONE;
 168              		.loc 1 93 3 is_stmt 1 view .LVU66
 169              		.loc 1 93 20 is_stmt 0 view .LVU67
 170 0094 0693     		str	r3, [sp, #24]
  94:Core/Src/rtc.c ****   sAlarm.AlarmSubSecondMask = RTC_ALARMSUBSECONDMASK_ALL;
 171              		.loc 1 94 3 is_stmt 1 view .LVU68
 172              		.loc 1 94 29 is_stmt 0 view .LVU69
 173 0096 0793     		str	r3, [sp, #28]
  95:Core/Src/rtc.c ****   sAlarm.AlarmDateWeekDaySel = RTC_ALARMDATEWEEKDAYSEL_DATE;
 174              		.loc 1 95 3 is_stmt 1 view .LVU70
 175              		.loc 1 95 30 is_stmt 0 view .LVU71
 176 0098 0993     		str	r3, [sp, #36]
  96:Core/Src/rtc.c ****   sAlarm.AlarmDateWeekDay = 0x1;
 177              		.loc 1 96 3 is_stmt 1 view .LVU72
 178              		.loc 1 96 27 is_stmt 0 view .LVU73
 179 009a 0122     		movs	r2, #1
 180 009c 8DF82820 		strb	r2, [sp, #40]
  97:Core/Src/rtc.c ****   sAlarm.Alarm = RTC_ALARM_A;
 181              		.loc 1 97 3 is_stmt 1 view .LVU74
 182              		.loc 1 97 16 is_stmt 0 view .LVU75
 183 00a0 4FF48073 		mov	r3, #256
 184 00a4 0B93     		str	r3, [sp, #44]
  98:Core/Src/rtc.c ****   if (HAL_RTC_SetAlarm_IT(&hrtc, &sAlarm, RTC_FORMAT_BCD) != HAL_OK)
 185              		.loc 1 98 3 is_stmt 1 view .LVU76
 186              		.loc 1 98 7 is_stmt 0 view .LVU77
 187 00a6 01A9     		add	r1, sp, #4
 188 00a8 0848     		ldr	r0, .L11
ARM GAS  C:\Users\NATHAN~1\AppData\Local\Temp\cc6e4y2d.s 			page 6


 189 00aa FFF7FEFF 		bl	HAL_RTC_SetAlarm_IT
 190              	.LVL4:
 191              		.loc 1 98 6 view .LVU78
 192 00ae 50B9     		cbnz	r0, .L10
 193              	.L1:
  99:Core/Src/rtc.c ****   {
 100:Core/Src/rtc.c ****     Error_Handler();
 101:Core/Src/rtc.c ****   }
 102:Core/Src/rtc.c ****   /* USER CODE BEGIN RTC_Init 2 */
 103:Core/Src/rtc.c **** 
 104:Core/Src/rtc.c ****   /* USER CODE END RTC_Init 2 */
 105:Core/Src/rtc.c **** 
 106:Core/Src/rtc.c **** }
 194              		.loc 1 106 1 view .LVU79
 195 00b0 12B0     		add	sp, sp, #72
 196              	.LCFI2:
 197              		.cfi_remember_state
 198              		.cfi_def_cfa_offset 8
 199              		@ sp needed
 200 00b2 10BD     		pop	{r4, pc}
 201              	.L7:
 202              	.LCFI3:
 203              		.cfi_restore_state
  58:Core/Src/rtc.c ****   }
 204              		.loc 1 58 5 is_stmt 1 view .LVU80
 205 00b4 FFF7FEFF 		bl	Error_Handler
 206              	.LVL5:
 207 00b8 C4E7     		b	.L2
 208              	.L8:
  74:Core/Src/rtc.c ****   }
 209              		.loc 1 74 5 view .LVU81
 210 00ba FFF7FEFF 		bl	Error_Handler
 211              	.LVL6:
 212 00be D0E7     		b	.L3
 213              	.L9:
  83:Core/Src/rtc.c ****   }
 214              		.loc 1 83 5 view .LVU82
 215 00c0 FFF7FEFF 		bl	Error_Handler
 216              	.LVL7:
 217 00c4 DCE7     		b	.L4
 218              	.L10:
 100:Core/Src/rtc.c ****   }
 219              		.loc 1 100 5 view .LVU83
 220 00c6 FFF7FEFF 		bl	Error_Handler
 221              	.LVL8:
 222              		.loc 1 106 1 is_stmt 0 view .LVU84
 223 00ca F1E7     		b	.L1
 224              	.L12:
 225              		.align	2
 226              	.L11:
 227 00cc 00000000 		.word	.LANCHOR0
 228 00d0 00280040 		.word	1073752064
 229              		.cfi_endproc
 230              	.LFE968:
 232              		.section	.text.HAL_RTC_MspInit,"ax",%progbits
 233              		.align	1
 234              		.global	HAL_RTC_MspInit
ARM GAS  C:\Users\NATHAN~1\AppData\Local\Temp\cc6e4y2d.s 			page 7


 235              		.syntax unified
 236              		.thumb
 237              		.thumb_func
 239              	HAL_RTC_MspInit:
 240              	.LVL9:
 241              	.LFB969:
 107:Core/Src/rtc.c **** 
 108:Core/Src/rtc.c **** void HAL_RTC_MspInit(RTC_HandleTypeDef* rtcHandle)
 109:Core/Src/rtc.c **** {
 242              		.loc 1 109 1 is_stmt 1 view -0
 243              		.cfi_startproc
 244              		@ args = 0, pretend = 0, frame = 64
 245              		@ frame_needed = 0, uses_anonymous_args = 0
 246              		.loc 1 109 1 is_stmt 0 view .LVU86
 247 0000 10B5     		push	{r4, lr}
 248              	.LCFI4:
 249              		.cfi_def_cfa_offset 8
 250              		.cfi_offset 4, -8
 251              		.cfi_offset 14, -4
 252 0002 90B0     		sub	sp, sp, #64
 253              	.LCFI5:
 254              		.cfi_def_cfa_offset 72
 255 0004 0446     		mov	r4, r0
 110:Core/Src/rtc.c **** 
 111:Core/Src/rtc.c ****   RCC_PeriphCLKInitTypeDef PeriphClkInitStruct = {0};
 256              		.loc 1 111 3 is_stmt 1 view .LVU87
 257              		.loc 1 111 28 is_stmt 0 view .LVU88
 258 0006 3822     		movs	r2, #56
 259 0008 0021     		movs	r1, #0
 260 000a 02A8     		add	r0, sp, #8
 261              	.LVL10:
 262              		.loc 1 111 28 view .LVU89
 263 000c FFF7FEFF 		bl	memset
 264              	.LVL11:
 112:Core/Src/rtc.c ****   if(rtcHandle->Instance==RTC)
 265              		.loc 1 112 3 is_stmt 1 view .LVU90
 266              		.loc 1 112 15 is_stmt 0 view .LVU91
 267 0010 2268     		ldr	r2, [r4]
 268              		.loc 1 112 5 view .LVU92
 269 0012 164B     		ldr	r3, .L19
 270 0014 9A42     		cmp	r2, r3
 271 0016 01D0     		beq	.L17
 272              	.L13:
 113:Core/Src/rtc.c ****   {
 114:Core/Src/rtc.c ****   /* USER CODE BEGIN RTC_MspInit 0 */
 115:Core/Src/rtc.c **** 
 116:Core/Src/rtc.c ****   /* USER CODE END RTC_MspInit 0 */
 117:Core/Src/rtc.c ****   /** Initializes the peripherals clocks
 118:Core/Src/rtc.c ****   */
 119:Core/Src/rtc.c ****     PeriphClkInitStruct.PeriphClockSelection = RCC_PERIPHCLK_RTC;
 120:Core/Src/rtc.c ****     PeriphClkInitStruct.RTCClockSelection = RCC_RTCCLKSOURCE_LSI;
 121:Core/Src/rtc.c **** 
 122:Core/Src/rtc.c ****     if (HAL_RCCEx_PeriphCLKConfig(&PeriphClkInitStruct) != HAL_OK)
 123:Core/Src/rtc.c ****     {
 124:Core/Src/rtc.c ****       Error_Handler();
 125:Core/Src/rtc.c ****     }
 126:Core/Src/rtc.c **** 
ARM GAS  C:\Users\NATHAN~1\AppData\Local\Temp\cc6e4y2d.s 			page 8


 127:Core/Src/rtc.c ****     /* RTC clock enable */
 128:Core/Src/rtc.c ****     __HAL_RCC_RTC_ENABLE();
 129:Core/Src/rtc.c ****     __HAL_RCC_RTCAPB_CLK_ENABLE();
 130:Core/Src/rtc.c **** 
 131:Core/Src/rtc.c ****     /* RTC interrupt Init */
 132:Core/Src/rtc.c ****     HAL_NVIC_SetPriority(RTC_Alarm_IRQn, 0, 0);
 133:Core/Src/rtc.c ****     HAL_NVIC_EnableIRQ(RTC_Alarm_IRQn);
 134:Core/Src/rtc.c ****   /* USER CODE BEGIN RTC_MspInit 1 */
 135:Core/Src/rtc.c **** 
 136:Core/Src/rtc.c ****   /* USER CODE END RTC_MspInit 1 */
 137:Core/Src/rtc.c ****   }
 138:Core/Src/rtc.c **** }
 273              		.loc 1 138 1 view .LVU93
 274 0018 10B0     		add	sp, sp, #64
 275              	.LCFI6:
 276              		.cfi_remember_state
 277              		.cfi_def_cfa_offset 8
 278              		@ sp needed
 279 001a 10BD     		pop	{r4, pc}
 280              	.LVL12:
 281              	.L17:
 282              	.LCFI7:
 283              		.cfi_restore_state
 119:Core/Src/rtc.c ****     PeriphClkInitStruct.RTCClockSelection = RCC_RTCCLKSOURCE_LSI;
 284              		.loc 1 119 5 is_stmt 1 view .LVU94
 119:Core/Src/rtc.c ****     PeriphClkInitStruct.RTCClockSelection = RCC_RTCCLKSOURCE_LSI;
 285              		.loc 1 119 46 is_stmt 0 view .LVU95
 286 001c 4FF48033 		mov	r3, #65536
 287 0020 0293     		str	r3, [sp, #8]
 120:Core/Src/rtc.c **** 
 288              		.loc 1 120 5 is_stmt 1 view .LVU96
 120:Core/Src/rtc.c **** 
 289              		.loc 1 120 43 is_stmt 0 view .LVU97
 290 0022 4FF40073 		mov	r3, #512
 291 0026 0F93     		str	r3, [sp, #60]
 122:Core/Src/rtc.c ****     {
 292              		.loc 1 122 5 is_stmt 1 view .LVU98
 122:Core/Src/rtc.c ****     {
 293              		.loc 1 122 9 is_stmt 0 view .LVU99
 294 0028 02A8     		add	r0, sp, #8
 295 002a FFF7FEFF 		bl	HAL_RCCEx_PeriphCLKConfig
 296              	.LVL13:
 122:Core/Src/rtc.c ****     {
 297              		.loc 1 122 8 view .LVU100
 298 002e C8B9     		cbnz	r0, .L18
 299              	.L15:
 128:Core/Src/rtc.c ****     __HAL_RCC_RTCAPB_CLK_ENABLE();
 300              		.loc 1 128 5 is_stmt 1 view .LVU101
 301              	.LBB10:
 302              	.LBI10:
 303              		.file 2 "Drivers/STM32WLxx_HAL_Driver/Inc/stm32wlxx_ll_rcc.h"
   1:Drivers/STM32WLxx_HAL_Driver/Inc/stm32wlxx_ll_rcc.h **** /**
   2:Drivers/STM32WLxx_HAL_Driver/Inc/stm32wlxx_ll_rcc.h ****   ******************************************************************************
   3:Drivers/STM32WLxx_HAL_Driver/Inc/stm32wlxx_ll_rcc.h ****   * @file    stm32wlxx_ll_rcc.h
   4:Drivers/STM32WLxx_HAL_Driver/Inc/stm32wlxx_ll_rcc.h ****   * @author  MCD Application Team
   5:Drivers/STM32WLxx_HAL_Driver/Inc/stm32wlxx_ll_rcc.h ****   * @brief   Header file of RCC LL module.
   6:Drivers/STM32WLxx_HAL_Driver/Inc/stm32wlxx_ll_rcc.h ****   ******************************************************************************
ARM GAS  C:\Users\NATHAN~1\AppData\Local\Temp\cc6e4y2d.s 			page 9


   7:Drivers/STM32WLxx_HAL_Driver/Inc/stm32wlxx_ll_rcc.h ****   * @attention
   8:Drivers/STM32WLxx_HAL_Driver/Inc/stm32wlxx_ll_rcc.h ****   *
   9:Drivers/STM32WLxx_HAL_Driver/Inc/stm32wlxx_ll_rcc.h ****   * <h2><center>&copy; Copyright (c) 2020 STMicroelectronics.
  10:Drivers/STM32WLxx_HAL_Driver/Inc/stm32wlxx_ll_rcc.h ****   * All rights reserved.</center></h2>
  11:Drivers/STM32WLxx_HAL_Driver/Inc/stm32wlxx_ll_rcc.h ****   *
  12:Drivers/STM32WLxx_HAL_Driver/Inc/stm32wlxx_ll_rcc.h ****   * This software component is licensed by ST under BSD 3-Clause license,
  13:Drivers/STM32WLxx_HAL_Driver/Inc/stm32wlxx_ll_rcc.h ****   * the "License"; You may not use this file except in compliance with the
  14:Drivers/STM32WLxx_HAL_Driver/Inc/stm32wlxx_ll_rcc.h ****   * License. You may obtain a copy of the License at:
  15:Drivers/STM32WLxx_HAL_Driver/Inc/stm32wlxx_ll_rcc.h ****   *                       opensource.org/licenses/BSD-3-Clause
  16:Drivers/STM32WLxx_HAL_Driver/Inc/stm32wlxx_ll_rcc.h ****   *
  17:Drivers/STM32WLxx_HAL_Driver/Inc/stm32wlxx_ll_rcc.h ****   ******************************************************************************
  18:Drivers/STM32WLxx_HAL_Driver/Inc/stm32wlxx_ll_rcc.h ****   */
  19:Drivers/STM32WLxx_HAL_Driver/Inc/stm32wlxx_ll_rcc.h **** 
  20:Drivers/STM32WLxx_HAL_Driver/Inc/stm32wlxx_ll_rcc.h **** /* Define to prevent recursive inclusion -------------------------------------*/
  21:Drivers/STM32WLxx_HAL_Driver/Inc/stm32wlxx_ll_rcc.h **** #ifndef __STM32WLxx_LL_RCC_H
  22:Drivers/STM32WLxx_HAL_Driver/Inc/stm32wlxx_ll_rcc.h **** #define __STM32WLxx_LL_RCC_H
  23:Drivers/STM32WLxx_HAL_Driver/Inc/stm32wlxx_ll_rcc.h **** 
  24:Drivers/STM32WLxx_HAL_Driver/Inc/stm32wlxx_ll_rcc.h **** #ifdef __cplusplus
  25:Drivers/STM32WLxx_HAL_Driver/Inc/stm32wlxx_ll_rcc.h **** extern "C" {
  26:Drivers/STM32WLxx_HAL_Driver/Inc/stm32wlxx_ll_rcc.h **** #endif
  27:Drivers/STM32WLxx_HAL_Driver/Inc/stm32wlxx_ll_rcc.h **** 
  28:Drivers/STM32WLxx_HAL_Driver/Inc/stm32wlxx_ll_rcc.h **** /* Includes ------------------------------------------------------------------*/
  29:Drivers/STM32WLxx_HAL_Driver/Inc/stm32wlxx_ll_rcc.h **** #include "stm32wlxx.h"
  30:Drivers/STM32WLxx_HAL_Driver/Inc/stm32wlxx_ll_rcc.h **** 
  31:Drivers/STM32WLxx_HAL_Driver/Inc/stm32wlxx_ll_rcc.h **** /** @addtogroup STM32WLxx_LL_Driver
  32:Drivers/STM32WLxx_HAL_Driver/Inc/stm32wlxx_ll_rcc.h ****   * @{
  33:Drivers/STM32WLxx_HAL_Driver/Inc/stm32wlxx_ll_rcc.h ****   */
  34:Drivers/STM32WLxx_HAL_Driver/Inc/stm32wlxx_ll_rcc.h **** 
  35:Drivers/STM32WLxx_HAL_Driver/Inc/stm32wlxx_ll_rcc.h **** #if defined(RCC)
  36:Drivers/STM32WLxx_HAL_Driver/Inc/stm32wlxx_ll_rcc.h **** 
  37:Drivers/STM32WLxx_HAL_Driver/Inc/stm32wlxx_ll_rcc.h **** /** @defgroup RCC_LL RCC
  38:Drivers/STM32WLxx_HAL_Driver/Inc/stm32wlxx_ll_rcc.h ****   * @{
  39:Drivers/STM32WLxx_HAL_Driver/Inc/stm32wlxx_ll_rcc.h ****   */
  40:Drivers/STM32WLxx_HAL_Driver/Inc/stm32wlxx_ll_rcc.h **** 
  41:Drivers/STM32WLxx_HAL_Driver/Inc/stm32wlxx_ll_rcc.h **** /* Private types -------------------------------------------------------------*/
  42:Drivers/STM32WLxx_HAL_Driver/Inc/stm32wlxx_ll_rcc.h **** /* Private variables ---------------------------------------------------------*/
  43:Drivers/STM32WLxx_HAL_Driver/Inc/stm32wlxx_ll_rcc.h **** /** @defgroup RCC_LL_Private_Variables RCC Private Variables
  44:Drivers/STM32WLxx_HAL_Driver/Inc/stm32wlxx_ll_rcc.h ****   * @{
  45:Drivers/STM32WLxx_HAL_Driver/Inc/stm32wlxx_ll_rcc.h ****   */
  46:Drivers/STM32WLxx_HAL_Driver/Inc/stm32wlxx_ll_rcc.h **** 
  47:Drivers/STM32WLxx_HAL_Driver/Inc/stm32wlxx_ll_rcc.h **** #define HSE_CONTROL_UNLOCK_KEY 0xCAFECAFEU
  48:Drivers/STM32WLxx_HAL_Driver/Inc/stm32wlxx_ll_rcc.h **** 
  49:Drivers/STM32WLxx_HAL_Driver/Inc/stm32wlxx_ll_rcc.h **** /**
  50:Drivers/STM32WLxx_HAL_Driver/Inc/stm32wlxx_ll_rcc.h ****   * @}
  51:Drivers/STM32WLxx_HAL_Driver/Inc/stm32wlxx_ll_rcc.h ****   */
  52:Drivers/STM32WLxx_HAL_Driver/Inc/stm32wlxx_ll_rcc.h **** 
  53:Drivers/STM32WLxx_HAL_Driver/Inc/stm32wlxx_ll_rcc.h **** /* Private constants ---------------------------------------------------------*/
  54:Drivers/STM32WLxx_HAL_Driver/Inc/stm32wlxx_ll_rcc.h **** /* Private macros ------------------------------------------------------------*/
  55:Drivers/STM32WLxx_HAL_Driver/Inc/stm32wlxx_ll_rcc.h **** #if defined(USE_FULL_LL_DRIVER)
  56:Drivers/STM32WLxx_HAL_Driver/Inc/stm32wlxx_ll_rcc.h **** /** @defgroup RCC_LL_Private_Macros RCC Private Macros
  57:Drivers/STM32WLxx_HAL_Driver/Inc/stm32wlxx_ll_rcc.h ****   * @{
  58:Drivers/STM32WLxx_HAL_Driver/Inc/stm32wlxx_ll_rcc.h ****   */
  59:Drivers/STM32WLxx_HAL_Driver/Inc/stm32wlxx_ll_rcc.h **** /**
  60:Drivers/STM32WLxx_HAL_Driver/Inc/stm32wlxx_ll_rcc.h ****   * @}
  61:Drivers/STM32WLxx_HAL_Driver/Inc/stm32wlxx_ll_rcc.h ****   */
  62:Drivers/STM32WLxx_HAL_Driver/Inc/stm32wlxx_ll_rcc.h **** #endif /*USE_FULL_LL_DRIVER*/
  63:Drivers/STM32WLxx_HAL_Driver/Inc/stm32wlxx_ll_rcc.h **** 
ARM GAS  C:\Users\NATHAN~1\AppData\Local\Temp\cc6e4y2d.s 			page 10


  64:Drivers/STM32WLxx_HAL_Driver/Inc/stm32wlxx_ll_rcc.h **** /* Exported types ------------------------------------------------------------*/
  65:Drivers/STM32WLxx_HAL_Driver/Inc/stm32wlxx_ll_rcc.h **** #if defined(USE_FULL_LL_DRIVER)
  66:Drivers/STM32WLxx_HAL_Driver/Inc/stm32wlxx_ll_rcc.h **** /** @defgroup RCC_LL_Exported_Types RCC Exported Types
  67:Drivers/STM32WLxx_HAL_Driver/Inc/stm32wlxx_ll_rcc.h ****   * @{
  68:Drivers/STM32WLxx_HAL_Driver/Inc/stm32wlxx_ll_rcc.h ****   */
  69:Drivers/STM32WLxx_HAL_Driver/Inc/stm32wlxx_ll_rcc.h **** 
  70:Drivers/STM32WLxx_HAL_Driver/Inc/stm32wlxx_ll_rcc.h **** /** @defgroup LL_ES_CLOCK_FREQ Clocks Frequency Structure
  71:Drivers/STM32WLxx_HAL_Driver/Inc/stm32wlxx_ll_rcc.h ****   * @{
  72:Drivers/STM32WLxx_HAL_Driver/Inc/stm32wlxx_ll_rcc.h ****   */
  73:Drivers/STM32WLxx_HAL_Driver/Inc/stm32wlxx_ll_rcc.h **** 
  74:Drivers/STM32WLxx_HAL_Driver/Inc/stm32wlxx_ll_rcc.h **** /**
  75:Drivers/STM32WLxx_HAL_Driver/Inc/stm32wlxx_ll_rcc.h ****   * @brief  RCC Clocks Frequency Structure
  76:Drivers/STM32WLxx_HAL_Driver/Inc/stm32wlxx_ll_rcc.h ****   */
  77:Drivers/STM32WLxx_HAL_Driver/Inc/stm32wlxx_ll_rcc.h **** typedef struct
  78:Drivers/STM32WLxx_HAL_Driver/Inc/stm32wlxx_ll_rcc.h **** {
  79:Drivers/STM32WLxx_HAL_Driver/Inc/stm32wlxx_ll_rcc.h ****   uint32_t SYSCLK_Frequency;         /*!< SYSCLK clock frequency */
  80:Drivers/STM32WLxx_HAL_Driver/Inc/stm32wlxx_ll_rcc.h ****   uint32_t HCLK1_Frequency;          /*!< HCLK1 clock frequency  */
  81:Drivers/STM32WLxx_HAL_Driver/Inc/stm32wlxx_ll_rcc.h **** #if defined(DUAL_CORE)
  82:Drivers/STM32WLxx_HAL_Driver/Inc/stm32wlxx_ll_rcc.h ****   uint32_t HCLK2_Frequency;          /*!< HCLK2 clock frequency  */
  83:Drivers/STM32WLxx_HAL_Driver/Inc/stm32wlxx_ll_rcc.h **** #endif /* DUAL_CORE */
  84:Drivers/STM32WLxx_HAL_Driver/Inc/stm32wlxx_ll_rcc.h ****   uint32_t HCLK3_Frequency;          /*!< HCLK3 clock frequency  */
  85:Drivers/STM32WLxx_HAL_Driver/Inc/stm32wlxx_ll_rcc.h ****   uint32_t PCLK1_Frequency;          /*!< PCLK1 clock frequency  */
  86:Drivers/STM32WLxx_HAL_Driver/Inc/stm32wlxx_ll_rcc.h ****   uint32_t PCLK2_Frequency;          /*!< PCLK2 clock frequency  */
  87:Drivers/STM32WLxx_HAL_Driver/Inc/stm32wlxx_ll_rcc.h **** } LL_RCC_ClocksTypeDef;
  88:Drivers/STM32WLxx_HAL_Driver/Inc/stm32wlxx_ll_rcc.h **** 
  89:Drivers/STM32WLxx_HAL_Driver/Inc/stm32wlxx_ll_rcc.h **** /**
  90:Drivers/STM32WLxx_HAL_Driver/Inc/stm32wlxx_ll_rcc.h ****   * @}
  91:Drivers/STM32WLxx_HAL_Driver/Inc/stm32wlxx_ll_rcc.h ****   */
  92:Drivers/STM32WLxx_HAL_Driver/Inc/stm32wlxx_ll_rcc.h **** 
  93:Drivers/STM32WLxx_HAL_Driver/Inc/stm32wlxx_ll_rcc.h **** /**
  94:Drivers/STM32WLxx_HAL_Driver/Inc/stm32wlxx_ll_rcc.h ****   * @}
  95:Drivers/STM32WLxx_HAL_Driver/Inc/stm32wlxx_ll_rcc.h ****   */
  96:Drivers/STM32WLxx_HAL_Driver/Inc/stm32wlxx_ll_rcc.h **** #endif /* USE_FULL_LL_DRIVER */
  97:Drivers/STM32WLxx_HAL_Driver/Inc/stm32wlxx_ll_rcc.h **** 
  98:Drivers/STM32WLxx_HAL_Driver/Inc/stm32wlxx_ll_rcc.h **** /* Exported constants --------------------------------------------------------*/
  99:Drivers/STM32WLxx_HAL_Driver/Inc/stm32wlxx_ll_rcc.h **** /** @defgroup RCC_LL_Exported_Constants RCC Exported Constants
 100:Drivers/STM32WLxx_HAL_Driver/Inc/stm32wlxx_ll_rcc.h ****   * @{
 101:Drivers/STM32WLxx_HAL_Driver/Inc/stm32wlxx_ll_rcc.h ****   */
 102:Drivers/STM32WLxx_HAL_Driver/Inc/stm32wlxx_ll_rcc.h **** 
 103:Drivers/STM32WLxx_HAL_Driver/Inc/stm32wlxx_ll_rcc.h **** /** @defgroup RCC_LL_EC_OSC_VALUES Oscillator Values adaptation
 104:Drivers/STM32WLxx_HAL_Driver/Inc/stm32wlxx_ll_rcc.h ****   * @brief    Defines used to adapt values of different oscillators
 105:Drivers/STM32WLxx_HAL_Driver/Inc/stm32wlxx_ll_rcc.h ****   * @note     These values could be modified in the user environment according to
 106:Drivers/STM32WLxx_HAL_Driver/Inc/stm32wlxx_ll_rcc.h ****   *           HW set-up.
 107:Drivers/STM32WLxx_HAL_Driver/Inc/stm32wlxx_ll_rcc.h ****   * @{
 108:Drivers/STM32WLxx_HAL_Driver/Inc/stm32wlxx_ll_rcc.h ****   */
 109:Drivers/STM32WLxx_HAL_Driver/Inc/stm32wlxx_ll_rcc.h **** #if !defined  (HSE_VALUE)
 110:Drivers/STM32WLxx_HAL_Driver/Inc/stm32wlxx_ll_rcc.h **** #define HSE_VALUE    32000000U  /*!< Value of the HSE oscillator in Hz */
 111:Drivers/STM32WLxx_HAL_Driver/Inc/stm32wlxx_ll_rcc.h **** #endif /* HSE_VALUE */
 112:Drivers/STM32WLxx_HAL_Driver/Inc/stm32wlxx_ll_rcc.h **** 
 113:Drivers/STM32WLxx_HAL_Driver/Inc/stm32wlxx_ll_rcc.h **** #if !defined  (HSI_VALUE)
 114:Drivers/STM32WLxx_HAL_Driver/Inc/stm32wlxx_ll_rcc.h **** #define HSI_VALUE    16000000U  /*!< Value of the HSI oscillator in Hz */
 115:Drivers/STM32WLxx_HAL_Driver/Inc/stm32wlxx_ll_rcc.h **** #endif /* HSI_VALUE */
 116:Drivers/STM32WLxx_HAL_Driver/Inc/stm32wlxx_ll_rcc.h **** 
 117:Drivers/STM32WLxx_HAL_Driver/Inc/stm32wlxx_ll_rcc.h **** #if !defined  (LSE_VALUE)
 118:Drivers/STM32WLxx_HAL_Driver/Inc/stm32wlxx_ll_rcc.h **** #define LSE_VALUE    32768U     /*!< Value of the LSE oscillator in Hz */
 119:Drivers/STM32WLxx_HAL_Driver/Inc/stm32wlxx_ll_rcc.h **** #endif /* LSE_VALUE */
 120:Drivers/STM32WLxx_HAL_Driver/Inc/stm32wlxx_ll_rcc.h **** 
ARM GAS  C:\Users\NATHAN~1\AppData\Local\Temp\cc6e4y2d.s 			page 11


 121:Drivers/STM32WLxx_HAL_Driver/Inc/stm32wlxx_ll_rcc.h **** #if !defined  (LSI_VALUE)
 122:Drivers/STM32WLxx_HAL_Driver/Inc/stm32wlxx_ll_rcc.h **** #define LSI_VALUE    32000U     /*!< Value of the LSI oscillator in Hz */
 123:Drivers/STM32WLxx_HAL_Driver/Inc/stm32wlxx_ll_rcc.h **** #endif /* LSI_VALUE */
 124:Drivers/STM32WLxx_HAL_Driver/Inc/stm32wlxx_ll_rcc.h **** 
 125:Drivers/STM32WLxx_HAL_Driver/Inc/stm32wlxx_ll_rcc.h **** #if !defined  (EXTERNAL_CLOCK_VALUE)
 126:Drivers/STM32WLxx_HAL_Driver/Inc/stm32wlxx_ll_rcc.h **** #define EXTERNAL_CLOCK_VALUE    48000U /*!< Value of the I2S_CKIN external oscillator in Hz */
 127:Drivers/STM32WLxx_HAL_Driver/Inc/stm32wlxx_ll_rcc.h **** #endif /* EXTERNAL_CLOCK_VALUE */
 128:Drivers/STM32WLxx_HAL_Driver/Inc/stm32wlxx_ll_rcc.h **** 
 129:Drivers/STM32WLxx_HAL_Driver/Inc/stm32wlxx_ll_rcc.h **** /**
 130:Drivers/STM32WLxx_HAL_Driver/Inc/stm32wlxx_ll_rcc.h ****   * @}
 131:Drivers/STM32WLxx_HAL_Driver/Inc/stm32wlxx_ll_rcc.h ****   */
 132:Drivers/STM32WLxx_HAL_Driver/Inc/stm32wlxx_ll_rcc.h **** 
 133:Drivers/STM32WLxx_HAL_Driver/Inc/stm32wlxx_ll_rcc.h **** /** @defgroup RCC_LL_EC_CLEAR_FLAG Clear Flags Defines
 134:Drivers/STM32WLxx_HAL_Driver/Inc/stm32wlxx_ll_rcc.h ****   * @brief    Flags defines which can be used with LL_RCC_WriteReg function
 135:Drivers/STM32WLxx_HAL_Driver/Inc/stm32wlxx_ll_rcc.h ****   * @{
 136:Drivers/STM32WLxx_HAL_Driver/Inc/stm32wlxx_ll_rcc.h ****   */
 137:Drivers/STM32WLxx_HAL_Driver/Inc/stm32wlxx_ll_rcc.h **** #define LL_RCC_CICR_LSIRDYC                RCC_CICR_LSIRDYC    /*!< LSI Ready Interrupt Clear */
 138:Drivers/STM32WLxx_HAL_Driver/Inc/stm32wlxx_ll_rcc.h **** #define LL_RCC_CICR_LSERDYC                RCC_CICR_LSERDYC     /*!< LSE Ready Interrupt Clear */
 139:Drivers/STM32WLxx_HAL_Driver/Inc/stm32wlxx_ll_rcc.h **** #define LL_RCC_CICR_MSIRDYC                RCC_CICR_MSIRDYC     /*!< MSI Ready Interrupt Clear */
 140:Drivers/STM32WLxx_HAL_Driver/Inc/stm32wlxx_ll_rcc.h **** #define LL_RCC_CICR_HSIRDYC                RCC_CICR_HSIRDYC     /*!< HSI Ready Interrupt Clear */
 141:Drivers/STM32WLxx_HAL_Driver/Inc/stm32wlxx_ll_rcc.h **** #define LL_RCC_CICR_HSERDYC                RCC_CICR_HSERDYC     /*!< HSE Ready Interrupt Clear */
 142:Drivers/STM32WLxx_HAL_Driver/Inc/stm32wlxx_ll_rcc.h **** #define LL_RCC_CICR_PLLRDYC                RCC_CICR_PLLRDYC     /*!< PLL Ready Interrupt Clear */
 143:Drivers/STM32WLxx_HAL_Driver/Inc/stm32wlxx_ll_rcc.h **** #define LL_RCC_CICR_LSECSSC                RCC_CICR_LSECSSC     /*!< LSE Clock Security System Inte
 144:Drivers/STM32WLxx_HAL_Driver/Inc/stm32wlxx_ll_rcc.h **** #define LL_RCC_CICR_CSSC                   RCC_CICR_CSSC        /*!< Clock Security System Interrup
 145:Drivers/STM32WLxx_HAL_Driver/Inc/stm32wlxx_ll_rcc.h **** /**
 146:Drivers/STM32WLxx_HAL_Driver/Inc/stm32wlxx_ll_rcc.h ****   * @}
 147:Drivers/STM32WLxx_HAL_Driver/Inc/stm32wlxx_ll_rcc.h ****   */
 148:Drivers/STM32WLxx_HAL_Driver/Inc/stm32wlxx_ll_rcc.h **** 
 149:Drivers/STM32WLxx_HAL_Driver/Inc/stm32wlxx_ll_rcc.h **** /** @defgroup RCC_LL_EC_GET_FLAG Get Flags Defines
 150:Drivers/STM32WLxx_HAL_Driver/Inc/stm32wlxx_ll_rcc.h ****   * @brief    Flags defines which can be used with LL_RCC_ReadReg function
 151:Drivers/STM32WLxx_HAL_Driver/Inc/stm32wlxx_ll_rcc.h ****   * @{
 152:Drivers/STM32WLxx_HAL_Driver/Inc/stm32wlxx_ll_rcc.h ****   */
 153:Drivers/STM32WLxx_HAL_Driver/Inc/stm32wlxx_ll_rcc.h **** #define LL_RCC_CIFR_LSIRDYF                RCC_CIFR_LSIRDYF     /*!< LSI Ready Interrupt flag */
 154:Drivers/STM32WLxx_HAL_Driver/Inc/stm32wlxx_ll_rcc.h **** #define LL_RCC_CIFR_LSERDYF                RCC_CIFR_LSERDYF     /*!< LSE Ready Interrupt flag */
 155:Drivers/STM32WLxx_HAL_Driver/Inc/stm32wlxx_ll_rcc.h **** #define LL_RCC_CIFR_MSIRDYF                RCC_CIFR_MSIRDYF     /*!< MSI Ready Interrupt flag */
 156:Drivers/STM32WLxx_HAL_Driver/Inc/stm32wlxx_ll_rcc.h **** #define LL_RCC_CIFR_HSIRDYF                RCC_CIFR_HSIRDYF     /*!< HSI Ready Interrupt flag */
 157:Drivers/STM32WLxx_HAL_Driver/Inc/stm32wlxx_ll_rcc.h **** #define LL_RCC_CIFR_HSERDYF                RCC_CIFR_HSERDYF     /*!< HSE Ready Interrupt flag */
 158:Drivers/STM32WLxx_HAL_Driver/Inc/stm32wlxx_ll_rcc.h **** #define LL_RCC_CIFR_PLLRDYF                RCC_CIFR_PLLRDYF     /*!< PLL Ready Interrupt flag */
 159:Drivers/STM32WLxx_HAL_Driver/Inc/stm32wlxx_ll_rcc.h **** #define LL_RCC_CIFR_LSECSSF                RCC_CIFR_LSECSSF     /*!< LSE Clock Security System Inte
 160:Drivers/STM32WLxx_HAL_Driver/Inc/stm32wlxx_ll_rcc.h **** #define LL_RCC_CIFR_CSSF                   RCC_CIFR_CSSF        /*!< Clock Security System Interrup
 161:Drivers/STM32WLxx_HAL_Driver/Inc/stm32wlxx_ll_rcc.h **** #define LL_RCC_CSR_LPWRRSTF                RCC_CSR_LPWRRSTF     /*!< Low-Power reset flag */
 162:Drivers/STM32WLxx_HAL_Driver/Inc/stm32wlxx_ll_rcc.h **** #define LL_RCC_CSR_OBLRSTF                 RCC_CSR_OBLRSTF      /*!< OBL reset flag */
 163:Drivers/STM32WLxx_HAL_Driver/Inc/stm32wlxx_ll_rcc.h **** #define LL_RCC_CSR_PINRSTF                 RCC_CSR_PINRSTF      /*!< PIN reset flag */
 164:Drivers/STM32WLxx_HAL_Driver/Inc/stm32wlxx_ll_rcc.h **** #define LL_RCC_CSR_SFTRSTF                 RCC_CSR_SFTRSTF      /*!< Software Reset flag */
 165:Drivers/STM32WLxx_HAL_Driver/Inc/stm32wlxx_ll_rcc.h **** #define LL_RCC_CSR_IWDGRSTF                RCC_CSR_IWDGRSTF     /*!< Independent Watchdog reset fla
 166:Drivers/STM32WLxx_HAL_Driver/Inc/stm32wlxx_ll_rcc.h **** #define LL_RCC_CSR_WWDGRSTF                RCC_CSR_WWDGRSTF     /*!< Window watchdog reset flag */
 167:Drivers/STM32WLxx_HAL_Driver/Inc/stm32wlxx_ll_rcc.h **** #define LL_RCC_CSR_BORRSTF                 RCC_CSR_BORRSTF      /*!< BOR reset flag */
 168:Drivers/STM32WLxx_HAL_Driver/Inc/stm32wlxx_ll_rcc.h **** #define LL_RCC_CSR_RFILASTF                RCC_CSR_RFILARSTF    /*!< Radio illegal access flag */
 169:Drivers/STM32WLxx_HAL_Driver/Inc/stm32wlxx_ll_rcc.h **** 
 170:Drivers/STM32WLxx_HAL_Driver/Inc/stm32wlxx_ll_rcc.h **** /**
 171:Drivers/STM32WLxx_HAL_Driver/Inc/stm32wlxx_ll_rcc.h ****   * @}
 172:Drivers/STM32WLxx_HAL_Driver/Inc/stm32wlxx_ll_rcc.h ****   */
 173:Drivers/STM32WLxx_HAL_Driver/Inc/stm32wlxx_ll_rcc.h **** 
 174:Drivers/STM32WLxx_HAL_Driver/Inc/stm32wlxx_ll_rcc.h **** /** @defgroup RCC_LL_EC_IT IT Defines
 175:Drivers/STM32WLxx_HAL_Driver/Inc/stm32wlxx_ll_rcc.h ****   * @brief    IT defines which can be used with LL_RCC_ReadReg and  LL_RCC_WriteReg functions
 176:Drivers/STM32WLxx_HAL_Driver/Inc/stm32wlxx_ll_rcc.h ****   * @{
 177:Drivers/STM32WLxx_HAL_Driver/Inc/stm32wlxx_ll_rcc.h ****   */
ARM GAS  C:\Users\NATHAN~1\AppData\Local\Temp\cc6e4y2d.s 			page 12


 178:Drivers/STM32WLxx_HAL_Driver/Inc/stm32wlxx_ll_rcc.h **** #define LL_RCC_CIER_LSIRDYIE               RCC_CIER_LSIRDYIE      /*!< LSI Ready Interrupt Enable *
 179:Drivers/STM32WLxx_HAL_Driver/Inc/stm32wlxx_ll_rcc.h **** #define LL_RCC_CIER_LSERDYIE               RCC_CIER_LSERDYIE      /*!< LSE Ready Interrupt Enable *
 180:Drivers/STM32WLxx_HAL_Driver/Inc/stm32wlxx_ll_rcc.h **** #define LL_RCC_CIER_MSIRDYIE               RCC_CIER_MSIRDYIE      /*!< MSI Ready Interrupt Enable *
 181:Drivers/STM32WLxx_HAL_Driver/Inc/stm32wlxx_ll_rcc.h **** #define LL_RCC_CIER_HSIRDYIE               RCC_CIER_HSIRDYIE      /*!< HSI Ready Interrupt Enable *
 182:Drivers/STM32WLxx_HAL_Driver/Inc/stm32wlxx_ll_rcc.h **** #define LL_RCC_CIER_HSERDYIE               RCC_CIER_HSERDYIE      /*!< HSE Ready Interrupt Enable *
 183:Drivers/STM32WLxx_HAL_Driver/Inc/stm32wlxx_ll_rcc.h **** #define LL_RCC_CIER_PLLRDYIE               RCC_CIER_PLLRDYIE      /*!< PLL Ready Interrupt Enable *
 184:Drivers/STM32WLxx_HAL_Driver/Inc/stm32wlxx_ll_rcc.h **** #define LL_RCC_CIER_LSECSSIE               RCC_CIER_LSECSSIE      /*!< LSE CSS Interrupt Enable */
 185:Drivers/STM32WLxx_HAL_Driver/Inc/stm32wlxx_ll_rcc.h **** /**
 186:Drivers/STM32WLxx_HAL_Driver/Inc/stm32wlxx_ll_rcc.h ****   * @}
 187:Drivers/STM32WLxx_HAL_Driver/Inc/stm32wlxx_ll_rcc.h ****   */
 188:Drivers/STM32WLxx_HAL_Driver/Inc/stm32wlxx_ll_rcc.h **** 
 189:Drivers/STM32WLxx_HAL_Driver/Inc/stm32wlxx_ll_rcc.h **** /** @defgroup RCC_LL_EC_LSEDRIVE  LSE oscillator drive capability
 190:Drivers/STM32WLxx_HAL_Driver/Inc/stm32wlxx_ll_rcc.h ****   * @{
 191:Drivers/STM32WLxx_HAL_Driver/Inc/stm32wlxx_ll_rcc.h ****   */
 192:Drivers/STM32WLxx_HAL_Driver/Inc/stm32wlxx_ll_rcc.h **** #define LL_RCC_LSEDRIVE_LOW                0x00000000U             /*!< Xtal mode lower driving cap
 193:Drivers/STM32WLxx_HAL_Driver/Inc/stm32wlxx_ll_rcc.h **** #define LL_RCC_LSEDRIVE_MEDIUMLOW          RCC_BDCR_LSEDRV_0       /*!< Xtal mode medium low drivin
 194:Drivers/STM32WLxx_HAL_Driver/Inc/stm32wlxx_ll_rcc.h **** #define LL_RCC_LSEDRIVE_MEDIUMHIGH         RCC_BDCR_LSEDRV_1       /*!< Xtal mode medium high drivi
 195:Drivers/STM32WLxx_HAL_Driver/Inc/stm32wlxx_ll_rcc.h **** #define LL_RCC_LSEDRIVE_HIGH               RCC_BDCR_LSEDRV         /*!< Xtal mode higher driving ca
 196:Drivers/STM32WLxx_HAL_Driver/Inc/stm32wlxx_ll_rcc.h **** /**
 197:Drivers/STM32WLxx_HAL_Driver/Inc/stm32wlxx_ll_rcc.h ****   * @}
 198:Drivers/STM32WLxx_HAL_Driver/Inc/stm32wlxx_ll_rcc.h ****   */
 199:Drivers/STM32WLxx_HAL_Driver/Inc/stm32wlxx_ll_rcc.h **** 
 200:Drivers/STM32WLxx_HAL_Driver/Inc/stm32wlxx_ll_rcc.h **** /** @defgroup RCC_LL_EC_MSIRANGE  MSI clock ranges
 201:Drivers/STM32WLxx_HAL_Driver/Inc/stm32wlxx_ll_rcc.h ****   * @{
 202:Drivers/STM32WLxx_HAL_Driver/Inc/stm32wlxx_ll_rcc.h ****   */
 203:Drivers/STM32WLxx_HAL_Driver/Inc/stm32wlxx_ll_rcc.h **** #define LL_RCC_MSIRANGE_0                  RCC_CR_MSIRANGE_0  /*!< MSI = 100 KHz  */
 204:Drivers/STM32WLxx_HAL_Driver/Inc/stm32wlxx_ll_rcc.h **** #define LL_RCC_MSIRANGE_1                  RCC_CR_MSIRANGE_1  /*!< MSI = 200 KHz  */
 205:Drivers/STM32WLxx_HAL_Driver/Inc/stm32wlxx_ll_rcc.h **** #define LL_RCC_MSIRANGE_2                  RCC_CR_MSIRANGE_2  /*!< MSI = 400 KHz  */
 206:Drivers/STM32WLxx_HAL_Driver/Inc/stm32wlxx_ll_rcc.h **** #define LL_RCC_MSIRANGE_3                  RCC_CR_MSIRANGE_3  /*!< MSI = 800 KHz  */
 207:Drivers/STM32WLxx_HAL_Driver/Inc/stm32wlxx_ll_rcc.h **** #define LL_RCC_MSIRANGE_4                  RCC_CR_MSIRANGE_4  /*!< MSI = 1 MHz    */
 208:Drivers/STM32WLxx_HAL_Driver/Inc/stm32wlxx_ll_rcc.h **** #define LL_RCC_MSIRANGE_5                  RCC_CR_MSIRANGE_5  /*!< MSI = 2 MHz    */
 209:Drivers/STM32WLxx_HAL_Driver/Inc/stm32wlxx_ll_rcc.h **** #define LL_RCC_MSIRANGE_6                  RCC_CR_MSIRANGE_6  /*!< MSI = 4 MHz    */
 210:Drivers/STM32WLxx_HAL_Driver/Inc/stm32wlxx_ll_rcc.h **** #define LL_RCC_MSIRANGE_7                  RCC_CR_MSIRANGE_7  /*!< MSI = 8 MHz    */
 211:Drivers/STM32WLxx_HAL_Driver/Inc/stm32wlxx_ll_rcc.h **** #define LL_RCC_MSIRANGE_8                  RCC_CR_MSIRANGE_8  /*!< MSI = 16 MHz   */
 212:Drivers/STM32WLxx_HAL_Driver/Inc/stm32wlxx_ll_rcc.h **** #define LL_RCC_MSIRANGE_9                  RCC_CR_MSIRANGE_9  /*!< MSI = 24 MHz   */
 213:Drivers/STM32WLxx_HAL_Driver/Inc/stm32wlxx_ll_rcc.h **** #define LL_RCC_MSIRANGE_10                 RCC_CR_MSIRANGE_10 /*!< MSI = 32 MHz   */
 214:Drivers/STM32WLxx_HAL_Driver/Inc/stm32wlxx_ll_rcc.h **** #define LL_RCC_MSIRANGE_11                 RCC_CR_MSIRANGE_11 /*!< MSI = 48 MHz   */
 215:Drivers/STM32WLxx_HAL_Driver/Inc/stm32wlxx_ll_rcc.h **** /**
 216:Drivers/STM32WLxx_HAL_Driver/Inc/stm32wlxx_ll_rcc.h ****   * @}
 217:Drivers/STM32WLxx_HAL_Driver/Inc/stm32wlxx_ll_rcc.h ****   */
 218:Drivers/STM32WLxx_HAL_Driver/Inc/stm32wlxx_ll_rcc.h **** 
 219:Drivers/STM32WLxx_HAL_Driver/Inc/stm32wlxx_ll_rcc.h **** /** @defgroup RCC_LL_EC_MSISRANGE  MSI range after Standby mode
 220:Drivers/STM32WLxx_HAL_Driver/Inc/stm32wlxx_ll_rcc.h ****   * @{
 221:Drivers/STM32WLxx_HAL_Driver/Inc/stm32wlxx_ll_rcc.h ****   */
 222:Drivers/STM32WLxx_HAL_Driver/Inc/stm32wlxx_ll_rcc.h **** #define LL_RCC_MSISRANGE_4                 RCC_CSR_MSISRANGE_1  /*!< MSI = 1 MHz    */
 223:Drivers/STM32WLxx_HAL_Driver/Inc/stm32wlxx_ll_rcc.h **** #define LL_RCC_MSISRANGE_5                 RCC_CSR_MSISRANGE_2  /*!< MSI = 2 MHz    */
 224:Drivers/STM32WLxx_HAL_Driver/Inc/stm32wlxx_ll_rcc.h **** #define LL_RCC_MSISRANGE_6                 RCC_CSR_MSISRANGE_4  /*!< MSI = 4 MHz    */
 225:Drivers/STM32WLxx_HAL_Driver/Inc/stm32wlxx_ll_rcc.h **** #define LL_RCC_MSISRANGE_7                 RCC_CSR_MSISRANGE_8  /*!< MSI = 8 MHz    */
 226:Drivers/STM32WLxx_HAL_Driver/Inc/stm32wlxx_ll_rcc.h **** /**
 227:Drivers/STM32WLxx_HAL_Driver/Inc/stm32wlxx_ll_rcc.h ****   * @}
 228:Drivers/STM32WLxx_HAL_Driver/Inc/stm32wlxx_ll_rcc.h ****   */
 229:Drivers/STM32WLxx_HAL_Driver/Inc/stm32wlxx_ll_rcc.h **** 
 230:Drivers/STM32WLxx_HAL_Driver/Inc/stm32wlxx_ll_rcc.h **** 
 231:Drivers/STM32WLxx_HAL_Driver/Inc/stm32wlxx_ll_rcc.h **** /** @defgroup RCC_LL_EC_LSCO_CLKSOURCE  LSCO Selection
 232:Drivers/STM32WLxx_HAL_Driver/Inc/stm32wlxx_ll_rcc.h ****   * @{
 233:Drivers/STM32WLxx_HAL_Driver/Inc/stm32wlxx_ll_rcc.h ****   */
 234:Drivers/STM32WLxx_HAL_Driver/Inc/stm32wlxx_ll_rcc.h **** #define LL_RCC_LSCO_CLKSOURCE_LSI          0x00000000U           /*!< LSI selection for low speed c
ARM GAS  C:\Users\NATHAN~1\AppData\Local\Temp\cc6e4y2d.s 			page 13


 235:Drivers/STM32WLxx_HAL_Driver/Inc/stm32wlxx_ll_rcc.h **** #define LL_RCC_LSCO_CLKSOURCE_LSE          RCC_BDCR_LSCOSEL      /*!< LSE selection for low speed c
 236:Drivers/STM32WLxx_HAL_Driver/Inc/stm32wlxx_ll_rcc.h **** /**
 237:Drivers/STM32WLxx_HAL_Driver/Inc/stm32wlxx_ll_rcc.h ****   * @}
 238:Drivers/STM32WLxx_HAL_Driver/Inc/stm32wlxx_ll_rcc.h ****   */
 239:Drivers/STM32WLxx_HAL_Driver/Inc/stm32wlxx_ll_rcc.h **** 
 240:Drivers/STM32WLxx_HAL_Driver/Inc/stm32wlxx_ll_rcc.h **** /** @defgroup RCC_LL_EC_SYS_CLKSOURCE  System clock switch
 241:Drivers/STM32WLxx_HAL_Driver/Inc/stm32wlxx_ll_rcc.h ****   * @{
 242:Drivers/STM32WLxx_HAL_Driver/Inc/stm32wlxx_ll_rcc.h ****   */
 243:Drivers/STM32WLxx_HAL_Driver/Inc/stm32wlxx_ll_rcc.h **** #define LL_RCC_SYS_CLKSOURCE_MSI           0x00000000U    /*!< MSI selection as system clock */
 244:Drivers/STM32WLxx_HAL_Driver/Inc/stm32wlxx_ll_rcc.h **** #define LL_RCC_SYS_CLKSOURCE_HSI           RCC_CFGR_SW_0    /*!< HSI selection as system clock */
 245:Drivers/STM32WLxx_HAL_Driver/Inc/stm32wlxx_ll_rcc.h **** #define LL_RCC_SYS_CLKSOURCE_HSE           RCC_CFGR_SW_1    /*!< HSE selection as system clock */
 246:Drivers/STM32WLxx_HAL_Driver/Inc/stm32wlxx_ll_rcc.h **** #define LL_RCC_SYS_CLKSOURCE_PLL           (RCC_CFGR_SW_1 | RCC_CFGR_SW_0)    /*!< PLL selection as
 247:Drivers/STM32WLxx_HAL_Driver/Inc/stm32wlxx_ll_rcc.h **** /**
 248:Drivers/STM32WLxx_HAL_Driver/Inc/stm32wlxx_ll_rcc.h ****   * @}
 249:Drivers/STM32WLxx_HAL_Driver/Inc/stm32wlxx_ll_rcc.h ****   */
 250:Drivers/STM32WLxx_HAL_Driver/Inc/stm32wlxx_ll_rcc.h **** 
 251:Drivers/STM32WLxx_HAL_Driver/Inc/stm32wlxx_ll_rcc.h **** /** @defgroup RCC_LL_EC_SYS_CLKSOURCE_STATUS  System clock switch status
 252:Drivers/STM32WLxx_HAL_Driver/Inc/stm32wlxx_ll_rcc.h ****   * @{
 253:Drivers/STM32WLxx_HAL_Driver/Inc/stm32wlxx_ll_rcc.h ****   */
 254:Drivers/STM32WLxx_HAL_Driver/Inc/stm32wlxx_ll_rcc.h **** #define LL_RCC_SYS_CLKSOURCE_STATUS_MSI    0x00000000U   /*!< MSI used as system clock */
 255:Drivers/STM32WLxx_HAL_Driver/Inc/stm32wlxx_ll_rcc.h **** #define LL_RCC_SYS_CLKSOURCE_STATUS_HSI    RCC_CFGR_SWS_0   /*!< HSI used as system clock */
 256:Drivers/STM32WLxx_HAL_Driver/Inc/stm32wlxx_ll_rcc.h **** #define LL_RCC_SYS_CLKSOURCE_STATUS_HSE    RCC_CFGR_SWS_1   /*!< HSE used as system clock */
 257:Drivers/STM32WLxx_HAL_Driver/Inc/stm32wlxx_ll_rcc.h **** #define LL_RCC_SYS_CLKSOURCE_STATUS_PLL    (RCC_CFGR_SWS_1 | RCC_CFGR_SWS_0)   /*!< PLL used as sys
 258:Drivers/STM32WLxx_HAL_Driver/Inc/stm32wlxx_ll_rcc.h **** /**
 259:Drivers/STM32WLxx_HAL_Driver/Inc/stm32wlxx_ll_rcc.h ****   * @}
 260:Drivers/STM32WLxx_HAL_Driver/Inc/stm32wlxx_ll_rcc.h ****   */
 261:Drivers/STM32WLxx_HAL_Driver/Inc/stm32wlxx_ll_rcc.h **** 
 262:Drivers/STM32WLxx_HAL_Driver/Inc/stm32wlxx_ll_rcc.h **** /** @defgroup RCC_LL_EC_SYSCLK_DIV  AHB prescaler
 263:Drivers/STM32WLxx_HAL_Driver/Inc/stm32wlxx_ll_rcc.h ****   * @{
 264:Drivers/STM32WLxx_HAL_Driver/Inc/stm32wlxx_ll_rcc.h ****   */
 265:Drivers/STM32WLxx_HAL_Driver/Inc/stm32wlxx_ll_rcc.h **** #define LL_RCC_SYSCLK_DIV_1                0x00000000U   /*!< SYSCLK not divided */
 266:Drivers/STM32WLxx_HAL_Driver/Inc/stm32wlxx_ll_rcc.h **** #define LL_RCC_SYSCLK_DIV_2                RCC_CFGR_HPRE_3   /*!< SYSCLK divided by 2 */
 267:Drivers/STM32WLxx_HAL_Driver/Inc/stm32wlxx_ll_rcc.h **** #define LL_RCC_SYSCLK_DIV_3                RCC_CFGR_HPRE_0   /*!< SYSCLK divided by 3 */
 268:Drivers/STM32WLxx_HAL_Driver/Inc/stm32wlxx_ll_rcc.h **** #define LL_RCC_SYSCLK_DIV_4                (RCC_CFGR_HPRE_3 | RCC_CFGR_HPRE_0)   /*!< SYSCLK divide
 269:Drivers/STM32WLxx_HAL_Driver/Inc/stm32wlxx_ll_rcc.h **** #define LL_RCC_SYSCLK_DIV_5                RCC_CFGR_HPRE_1   /*!< SYSCLK divided by 5 */
 270:Drivers/STM32WLxx_HAL_Driver/Inc/stm32wlxx_ll_rcc.h **** #define LL_RCC_SYSCLK_DIV_6                (RCC_CFGR_HPRE_2 | RCC_CFGR_HPRE_0)   /*!< SYSCLK divide
 271:Drivers/STM32WLxx_HAL_Driver/Inc/stm32wlxx_ll_rcc.h **** #define LL_RCC_SYSCLK_DIV_8                (RCC_CFGR_HPRE_3 | RCC_CFGR_HPRE_1)   /*!< SYSCLK divide
 272:Drivers/STM32WLxx_HAL_Driver/Inc/stm32wlxx_ll_rcc.h **** #define LL_RCC_SYSCLK_DIV_10               (RCC_CFGR_HPRE_2 | RCC_CFGR_HPRE_1)  /*!< SYSCLK divided
 273:Drivers/STM32WLxx_HAL_Driver/Inc/stm32wlxx_ll_rcc.h **** #define LL_RCC_SYSCLK_DIV_16               (RCC_CFGR_HPRE_3 | RCC_CFGR_HPRE_1 | RCC_CFGR_HPRE_0)  /
 274:Drivers/STM32WLxx_HAL_Driver/Inc/stm32wlxx_ll_rcc.h **** #define LL_RCC_SYSCLK_DIV_32               (RCC_CFGR_HPRE_2 | RCC_CFGR_HPRE_1 | RCC_CFGR_HPRE_0)  /
 275:Drivers/STM32WLxx_HAL_Driver/Inc/stm32wlxx_ll_rcc.h **** #define LL_RCC_SYSCLK_DIV_64               (RCC_CFGR_HPRE_3 | RCC_CFGR_HPRE_2)  /*!< SYSCLK divided
 276:Drivers/STM32WLxx_HAL_Driver/Inc/stm32wlxx_ll_rcc.h **** #define LL_RCC_SYSCLK_DIV_128              (RCC_CFGR_HPRE_3 | RCC_CFGR_HPRE_2 | RCC_CFGR_HPRE_0) /*
 277:Drivers/STM32WLxx_HAL_Driver/Inc/stm32wlxx_ll_rcc.h **** #define LL_RCC_SYSCLK_DIV_256              (RCC_CFGR_HPRE_3 | RCC_CFGR_HPRE_2 | RCC_CFGR_HPRE_1) /*
 278:Drivers/STM32WLxx_HAL_Driver/Inc/stm32wlxx_ll_rcc.h **** #define LL_RCC_SYSCLK_DIV_512              (RCC_CFGR_HPRE_3 | RCC_CFGR_HPRE_2 | RCC_CFGR_HPRE_1 | R
 279:Drivers/STM32WLxx_HAL_Driver/Inc/stm32wlxx_ll_rcc.h **** /**
 280:Drivers/STM32WLxx_HAL_Driver/Inc/stm32wlxx_ll_rcc.h ****   * @}
 281:Drivers/STM32WLxx_HAL_Driver/Inc/stm32wlxx_ll_rcc.h ****   */
 282:Drivers/STM32WLxx_HAL_Driver/Inc/stm32wlxx_ll_rcc.h **** 
 283:Drivers/STM32WLxx_HAL_Driver/Inc/stm32wlxx_ll_rcc.h **** /** @defgroup RCC_LL_EC_APB1_DIV  APB low-speed prescaler (APB1)
 284:Drivers/STM32WLxx_HAL_Driver/Inc/stm32wlxx_ll_rcc.h ****   * @{
 285:Drivers/STM32WLxx_HAL_Driver/Inc/stm32wlxx_ll_rcc.h ****   */
 286:Drivers/STM32WLxx_HAL_Driver/Inc/stm32wlxx_ll_rcc.h **** #define LL_RCC_APB1_DIV_1                  0x00000000U                            /*!< HCLK1 not di
 287:Drivers/STM32WLxx_HAL_Driver/Inc/stm32wlxx_ll_rcc.h **** #define LL_RCC_APB1_DIV_2                  RCC_CFGR_PPRE1_2                       /*!< HCLK1 divide
 288:Drivers/STM32WLxx_HAL_Driver/Inc/stm32wlxx_ll_rcc.h **** #define LL_RCC_APB1_DIV_4                  (RCC_CFGR_PPRE1_2 | RCC_CFGR_PPRE1_0)  /*!< HCLK1 divide
 289:Drivers/STM32WLxx_HAL_Driver/Inc/stm32wlxx_ll_rcc.h **** #define LL_RCC_APB1_DIV_8                  (RCC_CFGR_PPRE1_2 | RCC_CFGR_PPRE1_1)  /*!< HCLK1 divide
 290:Drivers/STM32WLxx_HAL_Driver/Inc/stm32wlxx_ll_rcc.h **** #define LL_RCC_APB1_DIV_16                 (RCC_CFGR_PPRE1_2 | RCC_CFGR_PPRE1_1 | RCC_CFGR_PPRE1_0)
 291:Drivers/STM32WLxx_HAL_Driver/Inc/stm32wlxx_ll_rcc.h **** /**
ARM GAS  C:\Users\NATHAN~1\AppData\Local\Temp\cc6e4y2d.s 			page 14


 292:Drivers/STM32WLxx_HAL_Driver/Inc/stm32wlxx_ll_rcc.h ****   * @}
 293:Drivers/STM32WLxx_HAL_Driver/Inc/stm32wlxx_ll_rcc.h ****   */
 294:Drivers/STM32WLxx_HAL_Driver/Inc/stm32wlxx_ll_rcc.h **** 
 295:Drivers/STM32WLxx_HAL_Driver/Inc/stm32wlxx_ll_rcc.h **** /** @defgroup RCC_LL_EC_APB2_DIV  APB high-speed prescaler (APB2)
 296:Drivers/STM32WLxx_HAL_Driver/Inc/stm32wlxx_ll_rcc.h ****   * @{
 297:Drivers/STM32WLxx_HAL_Driver/Inc/stm32wlxx_ll_rcc.h ****   */
 298:Drivers/STM32WLxx_HAL_Driver/Inc/stm32wlxx_ll_rcc.h **** #define LL_RCC_APB2_DIV_1                  0x00000000U                            /*!< HCLK1 not di
 299:Drivers/STM32WLxx_HAL_Driver/Inc/stm32wlxx_ll_rcc.h **** #define LL_RCC_APB2_DIV_2                  RCC_CFGR_PPRE2_2                       /*!< HCLK1 divide
 300:Drivers/STM32WLxx_HAL_Driver/Inc/stm32wlxx_ll_rcc.h **** #define LL_RCC_APB2_DIV_4                  (RCC_CFGR_PPRE2_2 | RCC_CFGR_PPRE2_0)  /*!< HCLK1 divide
 301:Drivers/STM32WLxx_HAL_Driver/Inc/stm32wlxx_ll_rcc.h **** #define LL_RCC_APB2_DIV_8                  (RCC_CFGR_PPRE2_2 | RCC_CFGR_PPRE2_1)  /*!< HCLK1 divide
 302:Drivers/STM32WLxx_HAL_Driver/Inc/stm32wlxx_ll_rcc.h **** #define LL_RCC_APB2_DIV_16                 (RCC_CFGR_PPRE2_2 | RCC_CFGR_PPRE2_1 | RCC_CFGR_PPRE2_0)
 303:Drivers/STM32WLxx_HAL_Driver/Inc/stm32wlxx_ll_rcc.h **** /**
 304:Drivers/STM32WLxx_HAL_Driver/Inc/stm32wlxx_ll_rcc.h ****   * @}
 305:Drivers/STM32WLxx_HAL_Driver/Inc/stm32wlxx_ll_rcc.h ****   */
 306:Drivers/STM32WLxx_HAL_Driver/Inc/stm32wlxx_ll_rcc.h **** 
 307:Drivers/STM32WLxx_HAL_Driver/Inc/stm32wlxx_ll_rcc.h **** /** @defgroup RCC_LL_EC_STOP_WAKEUPCLOCK  Wakeup from Stop and CSS backup clock selection
 308:Drivers/STM32WLxx_HAL_Driver/Inc/stm32wlxx_ll_rcc.h ****   * @{
 309:Drivers/STM32WLxx_HAL_Driver/Inc/stm32wlxx_ll_rcc.h ****   */
 310:Drivers/STM32WLxx_HAL_Driver/Inc/stm32wlxx_ll_rcc.h **** #define LL_RCC_STOP_WAKEUPCLOCK_MSI        0x00000000U             /*!< MSI selection after wake-up
 311:Drivers/STM32WLxx_HAL_Driver/Inc/stm32wlxx_ll_rcc.h **** #define LL_RCC_STOP_WAKEUPCLOCK_HSI        RCC_CFGR_STOPWUCK       /*!< HSI selection after wake-up
 312:Drivers/STM32WLxx_HAL_Driver/Inc/stm32wlxx_ll_rcc.h **** /**
 313:Drivers/STM32WLxx_HAL_Driver/Inc/stm32wlxx_ll_rcc.h ****   * @}
 314:Drivers/STM32WLxx_HAL_Driver/Inc/stm32wlxx_ll_rcc.h ****   */
 315:Drivers/STM32WLxx_HAL_Driver/Inc/stm32wlxx_ll_rcc.h **** 
 316:Drivers/STM32WLxx_HAL_Driver/Inc/stm32wlxx_ll_rcc.h **** /** @defgroup RCC_LL_EC_MCO1SOURCE  MCO1 SOURCE selection
 317:Drivers/STM32WLxx_HAL_Driver/Inc/stm32wlxx_ll_rcc.h ****   * @{
 318:Drivers/STM32WLxx_HAL_Driver/Inc/stm32wlxx_ll_rcc.h ****   */
 319:Drivers/STM32WLxx_HAL_Driver/Inc/stm32wlxx_ll_rcc.h **** #define LL_RCC_MCO1SOURCE_NOCLOCK          0x00000000U                                             
 320:Drivers/STM32WLxx_HAL_Driver/Inc/stm32wlxx_ll_rcc.h **** #define LL_RCC_MCO1SOURCE_SYSCLK           RCC_CFGR_MCOSEL_0                                       
 321:Drivers/STM32WLxx_HAL_Driver/Inc/stm32wlxx_ll_rcc.h **** #define LL_RCC_MCO1SOURCE_MSI              RCC_CFGR_MCOSEL_1                                       
 322:Drivers/STM32WLxx_HAL_Driver/Inc/stm32wlxx_ll_rcc.h **** #define LL_RCC_MCO1SOURCE_HSI              (RCC_CFGR_MCOSEL_0| RCC_CFGR_MCOSEL_1)                  
 323:Drivers/STM32WLxx_HAL_Driver/Inc/stm32wlxx_ll_rcc.h **** #define LL_RCC_MCO1SOURCE_HSE              RCC_CFGR_MCOSEL_2                                       
 324:Drivers/STM32WLxx_HAL_Driver/Inc/stm32wlxx_ll_rcc.h **** #define LL_RCC_MCO1SOURCE_PLLCLK           (RCC_CFGR_MCOSEL_0|RCC_CFGR_MCOSEL_2)                   
 325:Drivers/STM32WLxx_HAL_Driver/Inc/stm32wlxx_ll_rcc.h **** #define LL_RCC_MCO1SOURCE_LSI              (RCC_CFGR_MCOSEL_1|RCC_CFGR_MCOSEL_2)                   
 326:Drivers/STM32WLxx_HAL_Driver/Inc/stm32wlxx_ll_rcc.h **** #define LL_RCC_MCO1SOURCE_LSE              RCC_CFGR_MCOSEL_3                                       
 327:Drivers/STM32WLxx_HAL_Driver/Inc/stm32wlxx_ll_rcc.h **** #define LL_RCC_MCO1SOURCE_PLLPCLK          (RCC_CFGR_MCOSEL_0|RCC_CFGR_MCOSEL_2|RCC_CFGR_MCOSEL_3) 
 328:Drivers/STM32WLxx_HAL_Driver/Inc/stm32wlxx_ll_rcc.h **** #define LL_RCC_MCO1SOURCE_PLLQCLK          (RCC_CFGR_MCOSEL_1|RCC_CFGR_MCOSEL_2|RCC_CFGR_MCOSEL_3) 
 329:Drivers/STM32WLxx_HAL_Driver/Inc/stm32wlxx_ll_rcc.h **** /**
 330:Drivers/STM32WLxx_HAL_Driver/Inc/stm32wlxx_ll_rcc.h ****   * @}
 331:Drivers/STM32WLxx_HAL_Driver/Inc/stm32wlxx_ll_rcc.h ****   */
 332:Drivers/STM32WLxx_HAL_Driver/Inc/stm32wlxx_ll_rcc.h **** 
 333:Drivers/STM32WLxx_HAL_Driver/Inc/stm32wlxx_ll_rcc.h **** /** @defgroup RCC_LL_EC_MCO1_DIV  MCO1 prescaler
 334:Drivers/STM32WLxx_HAL_Driver/Inc/stm32wlxx_ll_rcc.h ****   * @{
 335:Drivers/STM32WLxx_HAL_Driver/Inc/stm32wlxx_ll_rcc.h ****   */
 336:Drivers/STM32WLxx_HAL_Driver/Inc/stm32wlxx_ll_rcc.h **** #define LL_RCC_MCO1_DIV_1                  0x00000000U                                   /*!< MCO n
 337:Drivers/STM32WLxx_HAL_Driver/Inc/stm32wlxx_ll_rcc.h **** #define LL_RCC_MCO1_DIV_2                  RCC_CFGR_MCOPRE_0                             /*!< MCO d
 338:Drivers/STM32WLxx_HAL_Driver/Inc/stm32wlxx_ll_rcc.h **** #define LL_RCC_MCO1_DIV_4                  RCC_CFGR_MCOPRE_1                             /*!< MCO d
 339:Drivers/STM32WLxx_HAL_Driver/Inc/stm32wlxx_ll_rcc.h **** #define LL_RCC_MCO1_DIV_8                  (RCC_CFGR_MCOPRE_1 | RCC_CFGR_MCOPRE_0)       /*!< MCO d
 340:Drivers/STM32WLxx_HAL_Driver/Inc/stm32wlxx_ll_rcc.h **** #define LL_RCC_MCO1_DIV_16                 RCC_CFGR_MCOPRE_2                             /*!< MCO d
 341:Drivers/STM32WLxx_HAL_Driver/Inc/stm32wlxx_ll_rcc.h **** /**
 342:Drivers/STM32WLxx_HAL_Driver/Inc/stm32wlxx_ll_rcc.h ****   * @}
 343:Drivers/STM32WLxx_HAL_Driver/Inc/stm32wlxx_ll_rcc.h ****   */
 344:Drivers/STM32WLxx_HAL_Driver/Inc/stm32wlxx_ll_rcc.h **** 
 345:Drivers/STM32WLxx_HAL_Driver/Inc/stm32wlxx_ll_rcc.h **** #if defined(USE_FULL_LL_DRIVER)
 346:Drivers/STM32WLxx_HAL_Driver/Inc/stm32wlxx_ll_rcc.h **** /** @defgroup RCC_LL_EC_PERIPH_FREQUENCY Peripheral clock frequency
 347:Drivers/STM32WLxx_HAL_Driver/Inc/stm32wlxx_ll_rcc.h ****   * @{
 348:Drivers/STM32WLxx_HAL_Driver/Inc/stm32wlxx_ll_rcc.h ****   */
ARM GAS  C:\Users\NATHAN~1\AppData\Local\Temp\cc6e4y2d.s 			page 15


 349:Drivers/STM32WLxx_HAL_Driver/Inc/stm32wlxx_ll_rcc.h **** #define LL_RCC_PERIPH_FREQUENCY_NO         0x00000000U                 /*!< No clock enabled for th
 350:Drivers/STM32WLxx_HAL_Driver/Inc/stm32wlxx_ll_rcc.h **** #define LL_RCC_PERIPH_FREQUENCY_NA         0xFFFFFFFFU                 /*!< Frequency cannot be pro
 351:Drivers/STM32WLxx_HAL_Driver/Inc/stm32wlxx_ll_rcc.h **** /**
 352:Drivers/STM32WLxx_HAL_Driver/Inc/stm32wlxx_ll_rcc.h ****   * @}
 353:Drivers/STM32WLxx_HAL_Driver/Inc/stm32wlxx_ll_rcc.h ****   */
 354:Drivers/STM32WLxx_HAL_Driver/Inc/stm32wlxx_ll_rcc.h **** #endif /* USE_FULL_LL_DRIVER */
 355:Drivers/STM32WLxx_HAL_Driver/Inc/stm32wlxx_ll_rcc.h **** 
 356:Drivers/STM32WLxx_HAL_Driver/Inc/stm32wlxx_ll_rcc.h **** /** @defgroup RCC_LL_EC_USART1_CLKSOURCE USARTx CLKSOURCE
 357:Drivers/STM32WLxx_HAL_Driver/Inc/stm32wlxx_ll_rcc.h ****   * @{
 358:Drivers/STM32WLxx_HAL_Driver/Inc/stm32wlxx_ll_rcc.h ****   */
 359:Drivers/STM32WLxx_HAL_Driver/Inc/stm32wlxx_ll_rcc.h **** #define LL_RCC_USART1_CLKSOURCE_PCLK2      (RCC_CCIPR_USART1SEL << 16U)                           /
 360:Drivers/STM32WLxx_HAL_Driver/Inc/stm32wlxx_ll_rcc.h **** #define LL_RCC_USART1_CLKSOURCE_SYSCLK     ((RCC_CCIPR_USART1SEL << 16U) | RCC_CCIPR_USART1SEL_0) /
 361:Drivers/STM32WLxx_HAL_Driver/Inc/stm32wlxx_ll_rcc.h **** #define LL_RCC_USART1_CLKSOURCE_HSI        ((RCC_CCIPR_USART1SEL << 16U) | RCC_CCIPR_USART1SEL_1) /
 362:Drivers/STM32WLxx_HAL_Driver/Inc/stm32wlxx_ll_rcc.h **** #define LL_RCC_USART1_CLKSOURCE_LSE        ((RCC_CCIPR_USART1SEL << 16U) | RCC_CCIPR_USART1SEL)   /
 363:Drivers/STM32WLxx_HAL_Driver/Inc/stm32wlxx_ll_rcc.h **** #define LL_RCC_USART2_CLKSOURCE_PCLK1      (RCC_CCIPR_USART2SEL << 16U)                           /
 364:Drivers/STM32WLxx_HAL_Driver/Inc/stm32wlxx_ll_rcc.h **** #define LL_RCC_USART2_CLKSOURCE_SYSCLK     ((RCC_CCIPR_USART2SEL << 16U) | RCC_CCIPR_USART2SEL_0) /
 365:Drivers/STM32WLxx_HAL_Driver/Inc/stm32wlxx_ll_rcc.h **** #define LL_RCC_USART2_CLKSOURCE_HSI        ((RCC_CCIPR_USART2SEL << 16U) | RCC_CCIPR_USART2SEL_1) /
 366:Drivers/STM32WLxx_HAL_Driver/Inc/stm32wlxx_ll_rcc.h **** #define LL_RCC_USART2_CLKSOURCE_LSE        ((RCC_CCIPR_USART2SEL << 16U) | RCC_CCIPR_USART2SEL)   /
 367:Drivers/STM32WLxx_HAL_Driver/Inc/stm32wlxx_ll_rcc.h **** /**
 368:Drivers/STM32WLxx_HAL_Driver/Inc/stm32wlxx_ll_rcc.h ****   * @}
 369:Drivers/STM32WLxx_HAL_Driver/Inc/stm32wlxx_ll_rcc.h ****   */
 370:Drivers/STM32WLxx_HAL_Driver/Inc/stm32wlxx_ll_rcc.h **** 
 371:Drivers/STM32WLxx_HAL_Driver/Inc/stm32wlxx_ll_rcc.h **** /** @defgroup RCC_LL_EC_I2S2_CLKSOURCE Peripheral I2S clock source selection
 372:Drivers/STM32WLxx_HAL_Driver/Inc/stm32wlxx_ll_rcc.h ****   * @{
 373:Drivers/STM32WLxx_HAL_Driver/Inc/stm32wlxx_ll_rcc.h ****   */
 374:Drivers/STM32WLxx_HAL_Driver/Inc/stm32wlxx_ll_rcc.h **** #define LL_RCC_I2S2_CLKSOURCE_PLL         RCC_CCIPR_I2S2SEL_0          /*!< PLL clock used as I2S2 
 375:Drivers/STM32WLxx_HAL_Driver/Inc/stm32wlxx_ll_rcc.h **** #define LL_RCC_I2S2_CLKSOURCE_HSI         RCC_CCIPR_I2S2SEL_1          /*!< HSI clock used as I2S2 
 376:Drivers/STM32WLxx_HAL_Driver/Inc/stm32wlxx_ll_rcc.h **** #define LL_RCC_I2S2_CLKSOURCE_PIN         RCC_CCIPR_I2S2SEL            /*!< External clock used as 
 377:Drivers/STM32WLxx_HAL_Driver/Inc/stm32wlxx_ll_rcc.h **** /**
 378:Drivers/STM32WLxx_HAL_Driver/Inc/stm32wlxx_ll_rcc.h ****   * @}
 379:Drivers/STM32WLxx_HAL_Driver/Inc/stm32wlxx_ll_rcc.h ****   */
 380:Drivers/STM32WLxx_HAL_Driver/Inc/stm32wlxx_ll_rcc.h **** 
 381:Drivers/STM32WLxx_HAL_Driver/Inc/stm32wlxx_ll_rcc.h **** /** @defgroup RCC_LL_EC_LPUART1_CLKSOURCE LPUART1 CLKSOURCE
 382:Drivers/STM32WLxx_HAL_Driver/Inc/stm32wlxx_ll_rcc.h ****   * @{
 383:Drivers/STM32WLxx_HAL_Driver/Inc/stm32wlxx_ll_rcc.h ****   */
 384:Drivers/STM32WLxx_HAL_Driver/Inc/stm32wlxx_ll_rcc.h **** #define LL_RCC_LPUART1_CLKSOURCE_PCLK1     0x00000000U               /*!< PCLK1 selected as LPUART1
 385:Drivers/STM32WLxx_HAL_Driver/Inc/stm32wlxx_ll_rcc.h **** #define LL_RCC_LPUART1_CLKSOURCE_SYSCLK    RCC_CCIPR_LPUART1SEL_0    /*!< SYCLK selected as LPUART1
 386:Drivers/STM32WLxx_HAL_Driver/Inc/stm32wlxx_ll_rcc.h **** #define LL_RCC_LPUART1_CLKSOURCE_HSI       RCC_CCIPR_LPUART1SEL_1    /*!< HSI selected as LPUART1 c
 387:Drivers/STM32WLxx_HAL_Driver/Inc/stm32wlxx_ll_rcc.h **** #define LL_RCC_LPUART1_CLKSOURCE_LSE       RCC_CCIPR_LPUART1SEL      /*!< LSE selected as LPUART1 c
 388:Drivers/STM32WLxx_HAL_Driver/Inc/stm32wlxx_ll_rcc.h **** /**
 389:Drivers/STM32WLxx_HAL_Driver/Inc/stm32wlxx_ll_rcc.h ****   * @}
 390:Drivers/STM32WLxx_HAL_Driver/Inc/stm32wlxx_ll_rcc.h ****   */
 391:Drivers/STM32WLxx_HAL_Driver/Inc/stm32wlxx_ll_rcc.h **** 
 392:Drivers/STM32WLxx_HAL_Driver/Inc/stm32wlxx_ll_rcc.h **** /** @defgroup RCC_LL_EC_I2Cx_CLKSOURCE I2Cx CLKSOURCE
 393:Drivers/STM32WLxx_HAL_Driver/Inc/stm32wlxx_ll_rcc.h ****   * @{
 394:Drivers/STM32WLxx_HAL_Driver/Inc/stm32wlxx_ll_rcc.h ****   */
 395:Drivers/STM32WLxx_HAL_Driver/Inc/stm32wlxx_ll_rcc.h **** #define LL_RCC_I2C1_CLKSOURCE_PCLK1        (uint32_t)((RCC_CCIPR_I2C1SEL << 4) | (0x00000000U >> 4)
 396:Drivers/STM32WLxx_HAL_Driver/Inc/stm32wlxx_ll_rcc.h **** #define LL_RCC_I2C1_CLKSOURCE_SYSCLK       (uint32_t)((RCC_CCIPR_I2C1SEL << 4) | (RCC_CCIPR_I2C1SEL
 397:Drivers/STM32WLxx_HAL_Driver/Inc/stm32wlxx_ll_rcc.h **** #define LL_RCC_I2C1_CLKSOURCE_HSI          (uint32_t)((RCC_CCIPR_I2C1SEL << 4) | (RCC_CCIPR_I2C1SEL
 398:Drivers/STM32WLxx_HAL_Driver/Inc/stm32wlxx_ll_rcc.h **** #define LL_RCC_I2C2_CLKSOURCE_PCLK1        (uint32_t)((RCC_CCIPR_I2C2SEL << 4) | (0x00000000U >> 4)
 399:Drivers/STM32WLxx_HAL_Driver/Inc/stm32wlxx_ll_rcc.h **** #define LL_RCC_I2C2_CLKSOURCE_SYSCLK       (uint32_t)((RCC_CCIPR_I2C2SEL << 4) | (RCC_CCIPR_I2C2SEL
 400:Drivers/STM32WLxx_HAL_Driver/Inc/stm32wlxx_ll_rcc.h **** #define LL_RCC_I2C2_CLKSOURCE_HSI          (uint32_t)((RCC_CCIPR_I2C2SEL << 4) | (RCC_CCIPR_I2C2SEL
 401:Drivers/STM32WLxx_HAL_Driver/Inc/stm32wlxx_ll_rcc.h **** #define LL_RCC_I2C3_CLKSOURCE_PCLK1        (uint32_t)((RCC_CCIPR_I2C3SEL << 4) | (0x00000000U >> 4)
 402:Drivers/STM32WLxx_HAL_Driver/Inc/stm32wlxx_ll_rcc.h **** #define LL_RCC_I2C3_CLKSOURCE_SYSCLK       (uint32_t)((RCC_CCIPR_I2C3SEL << 4) | (RCC_CCIPR_I2C3SEL
 403:Drivers/STM32WLxx_HAL_Driver/Inc/stm32wlxx_ll_rcc.h **** #define LL_RCC_I2C3_CLKSOURCE_HSI          (uint32_t)((RCC_CCIPR_I2C3SEL << 4) | (RCC_CCIPR_I2C3SEL
 404:Drivers/STM32WLxx_HAL_Driver/Inc/stm32wlxx_ll_rcc.h **** /**
 405:Drivers/STM32WLxx_HAL_Driver/Inc/stm32wlxx_ll_rcc.h ****   * @}
ARM GAS  C:\Users\NATHAN~1\AppData\Local\Temp\cc6e4y2d.s 			page 16


 406:Drivers/STM32WLxx_HAL_Driver/Inc/stm32wlxx_ll_rcc.h ****   */
 407:Drivers/STM32WLxx_HAL_Driver/Inc/stm32wlxx_ll_rcc.h **** 
 408:Drivers/STM32WLxx_HAL_Driver/Inc/stm32wlxx_ll_rcc.h **** /** @defgroup RCC_LL_EC_LPTIMx_CLKSOURCE LPTIMx CLKSOURCE
 409:Drivers/STM32WLxx_HAL_Driver/Inc/stm32wlxx_ll_rcc.h ****   * @{
 410:Drivers/STM32WLxx_HAL_Driver/Inc/stm32wlxx_ll_rcc.h ****   */
 411:Drivers/STM32WLxx_HAL_Driver/Inc/stm32wlxx_ll_rcc.h **** #define LL_RCC_LPTIM1_CLKSOURCE_PCLK1      (uint32_t)(RCC_CCIPR_LPTIM1SEL | (0x00000000U >> 16))   
 412:Drivers/STM32WLxx_HAL_Driver/Inc/stm32wlxx_ll_rcc.h **** #define LL_RCC_LPTIM1_CLKSOURCE_LSI        (uint32_t)(RCC_CCIPR_LPTIM1SEL | (RCC_CCIPR_LPTIM1SEL_0 
 413:Drivers/STM32WLxx_HAL_Driver/Inc/stm32wlxx_ll_rcc.h **** #define LL_RCC_LPTIM1_CLKSOURCE_HSI        (uint32_t)(RCC_CCIPR_LPTIM1SEL | (RCC_CCIPR_LPTIM1SEL_1 
 414:Drivers/STM32WLxx_HAL_Driver/Inc/stm32wlxx_ll_rcc.h **** #define LL_RCC_LPTIM1_CLKSOURCE_LSE        (uint32_t)(RCC_CCIPR_LPTIM1SEL | (RCC_CCIPR_LPTIM1SEL >>
 415:Drivers/STM32WLxx_HAL_Driver/Inc/stm32wlxx_ll_rcc.h **** #define LL_RCC_LPTIM2_CLKSOURCE_PCLK1      (uint32_t)(RCC_CCIPR_LPTIM2SEL | (0x00000000U >> 16))   
 416:Drivers/STM32WLxx_HAL_Driver/Inc/stm32wlxx_ll_rcc.h **** #define LL_RCC_LPTIM2_CLKSOURCE_LSI        (uint32_t)(RCC_CCIPR_LPTIM2SEL | (RCC_CCIPR_LPTIM2SEL_0 
 417:Drivers/STM32WLxx_HAL_Driver/Inc/stm32wlxx_ll_rcc.h **** #define LL_RCC_LPTIM2_CLKSOURCE_HSI        (uint32_t)(RCC_CCIPR_LPTIM2SEL | (RCC_CCIPR_LPTIM2SEL_1 
 418:Drivers/STM32WLxx_HAL_Driver/Inc/stm32wlxx_ll_rcc.h **** #define LL_RCC_LPTIM2_CLKSOURCE_LSE        (uint32_t)(RCC_CCIPR_LPTIM2SEL | (RCC_CCIPR_LPTIM2SEL >>
 419:Drivers/STM32WLxx_HAL_Driver/Inc/stm32wlxx_ll_rcc.h **** #define LL_RCC_LPTIM3_CLKSOURCE_PCLK1      (uint32_t)(RCC_CCIPR_LPTIM3SEL | (0x00000000U >> 16))   
 420:Drivers/STM32WLxx_HAL_Driver/Inc/stm32wlxx_ll_rcc.h **** #define LL_RCC_LPTIM3_CLKSOURCE_LSI        (uint32_t)(RCC_CCIPR_LPTIM3SEL | (RCC_CCIPR_LPTIM3SEL_0 
 421:Drivers/STM32WLxx_HAL_Driver/Inc/stm32wlxx_ll_rcc.h **** #define LL_RCC_LPTIM3_CLKSOURCE_HSI        (uint32_t)(RCC_CCIPR_LPTIM3SEL | (RCC_CCIPR_LPTIM3SEL_1 
 422:Drivers/STM32WLxx_HAL_Driver/Inc/stm32wlxx_ll_rcc.h **** #define LL_RCC_LPTIM3_CLKSOURCE_LSE        (uint32_t)(RCC_CCIPR_LPTIM3SEL | (RCC_CCIPR_LPTIM3SEL >>
 423:Drivers/STM32WLxx_HAL_Driver/Inc/stm32wlxx_ll_rcc.h **** 
 424:Drivers/STM32WLxx_HAL_Driver/Inc/stm32wlxx_ll_rcc.h **** /**
 425:Drivers/STM32WLxx_HAL_Driver/Inc/stm32wlxx_ll_rcc.h ****   * @}
 426:Drivers/STM32WLxx_HAL_Driver/Inc/stm32wlxx_ll_rcc.h ****   */
 427:Drivers/STM32WLxx_HAL_Driver/Inc/stm32wlxx_ll_rcc.h **** 
 428:Drivers/STM32WLxx_HAL_Driver/Inc/stm32wlxx_ll_rcc.h **** /** @defgroup RCC_LL_EC_ADC_CLKSRC ADC CLKSRC
 429:Drivers/STM32WLxx_HAL_Driver/Inc/stm32wlxx_ll_rcc.h ****   * @{
 430:Drivers/STM32WLxx_HAL_Driver/Inc/stm32wlxx_ll_rcc.h ****   */
 431:Drivers/STM32WLxx_HAL_Driver/Inc/stm32wlxx_ll_rcc.h **** #define LL_RCC_ADC_CLKSOURCE_NONE             0x00000000U        /*!< no Clock used as ADC clock*/
 432:Drivers/STM32WLxx_HAL_Driver/Inc/stm32wlxx_ll_rcc.h **** #define LL_RCC_ADC_CLKSOURCE_HSI              RCC_CCIPR_ADCSEL_0 /*!< HSI selected as ADC clock*/
 433:Drivers/STM32WLxx_HAL_Driver/Inc/stm32wlxx_ll_rcc.h **** #define LL_RCC_ADC_CLKSOURCE_PLL              RCC_CCIPR_ADCSEL_1 /*!< PLL selected as ADC clock*/
 434:Drivers/STM32WLxx_HAL_Driver/Inc/stm32wlxx_ll_rcc.h **** #define LL_RCC_ADC_CLKSOURCE_SYSCLK           RCC_CCIPR_ADCSEL   /*!< SYSCLK selected as ADC clock*
 435:Drivers/STM32WLxx_HAL_Driver/Inc/stm32wlxx_ll_rcc.h **** /**
 436:Drivers/STM32WLxx_HAL_Driver/Inc/stm32wlxx_ll_rcc.h ****   * @}
 437:Drivers/STM32WLxx_HAL_Driver/Inc/stm32wlxx_ll_rcc.h ****   */
 438:Drivers/STM32WLxx_HAL_Driver/Inc/stm32wlxx_ll_rcc.h **** 
 439:Drivers/STM32WLxx_HAL_Driver/Inc/stm32wlxx_ll_rcc.h **** /** @defgroup RCC_LL_EC_RNG_CLKSRC RNG CLKSRC
 440:Drivers/STM32WLxx_HAL_Driver/Inc/stm32wlxx_ll_rcc.h ****   * @{
 441:Drivers/STM32WLxx_HAL_Driver/Inc/stm32wlxx_ll_rcc.h ****   */
 442:Drivers/STM32WLxx_HAL_Driver/Inc/stm32wlxx_ll_rcc.h **** #define LL_RCC_RNG_CLKSOURCE_PLL              0x00000000U        /*!< PLL selected as RNG Clock */
 443:Drivers/STM32WLxx_HAL_Driver/Inc/stm32wlxx_ll_rcc.h **** #define LL_RCC_RNG_CLKSOURCE_LSI              RCC_CCIPR_RNGSEL_0 /*!< LSI selected as RNG clock*/
 444:Drivers/STM32WLxx_HAL_Driver/Inc/stm32wlxx_ll_rcc.h **** #define LL_RCC_RNG_CLKSOURCE_LSE              RCC_CCIPR_RNGSEL_1 /*!< LSE selected as RNG clock*/
 445:Drivers/STM32WLxx_HAL_Driver/Inc/stm32wlxx_ll_rcc.h **** #define LL_RCC_RNG_CLKSOURCE_MSI              (RCC_CCIPR_RNGSEL_1 | RCC_CCIPR_RNGSEL_0)  /*!< MSI s
 446:Drivers/STM32WLxx_HAL_Driver/Inc/stm32wlxx_ll_rcc.h **** /**
 447:Drivers/STM32WLxx_HAL_Driver/Inc/stm32wlxx_ll_rcc.h ****   * @}
 448:Drivers/STM32WLxx_HAL_Driver/Inc/stm32wlxx_ll_rcc.h ****   */
 449:Drivers/STM32WLxx_HAL_Driver/Inc/stm32wlxx_ll_rcc.h **** 
 450:Drivers/STM32WLxx_HAL_Driver/Inc/stm32wlxx_ll_rcc.h **** /** @defgroup RCC_LL_EC_USARTx USARTx
 451:Drivers/STM32WLxx_HAL_Driver/Inc/stm32wlxx_ll_rcc.h ****   * @{
 452:Drivers/STM32WLxx_HAL_Driver/Inc/stm32wlxx_ll_rcc.h ****   */
 453:Drivers/STM32WLxx_HAL_Driver/Inc/stm32wlxx_ll_rcc.h **** #define LL_RCC_USART1_CLKSOURCE            RCC_CCIPR_USART1SEL   /*!< USART1 clock source selection
 454:Drivers/STM32WLxx_HAL_Driver/Inc/stm32wlxx_ll_rcc.h **** #define LL_RCC_USART2_CLKSOURCE            RCC_CCIPR_USART2SEL   /*!< USART2 clock source selection
 455:Drivers/STM32WLxx_HAL_Driver/Inc/stm32wlxx_ll_rcc.h **** 
 456:Drivers/STM32WLxx_HAL_Driver/Inc/stm32wlxx_ll_rcc.h **** /**
 457:Drivers/STM32WLxx_HAL_Driver/Inc/stm32wlxx_ll_rcc.h ****   * @}
 458:Drivers/STM32WLxx_HAL_Driver/Inc/stm32wlxx_ll_rcc.h ****   */
 459:Drivers/STM32WLxx_HAL_Driver/Inc/stm32wlxx_ll_rcc.h **** 
 460:Drivers/STM32WLxx_HAL_Driver/Inc/stm32wlxx_ll_rcc.h **** /** @defgroup RCC_LL_EC_I2S2 Peripheral I2S get clock source
 461:Drivers/STM32WLxx_HAL_Driver/Inc/stm32wlxx_ll_rcc.h ****   * @{
 462:Drivers/STM32WLxx_HAL_Driver/Inc/stm32wlxx_ll_rcc.h ****   */
ARM GAS  C:\Users\NATHAN~1\AppData\Local\Temp\cc6e4y2d.s 			page 17


 463:Drivers/STM32WLxx_HAL_Driver/Inc/stm32wlxx_ll_rcc.h **** #define LL_RCC_I2S2_CLKSOURCE              RCC_CCIPR_I2S2SEL /*!< I2S2 Clock source selection */
 464:Drivers/STM32WLxx_HAL_Driver/Inc/stm32wlxx_ll_rcc.h **** /**
 465:Drivers/STM32WLxx_HAL_Driver/Inc/stm32wlxx_ll_rcc.h ****   * @}
 466:Drivers/STM32WLxx_HAL_Driver/Inc/stm32wlxx_ll_rcc.h ****   */
 467:Drivers/STM32WLxx_HAL_Driver/Inc/stm32wlxx_ll_rcc.h **** 
 468:Drivers/STM32WLxx_HAL_Driver/Inc/stm32wlxx_ll_rcc.h **** /** @defgroup RCC_LL_EC_LPUART1 LPUART1
 469:Drivers/STM32WLxx_HAL_Driver/Inc/stm32wlxx_ll_rcc.h ****   * @{
 470:Drivers/STM32WLxx_HAL_Driver/Inc/stm32wlxx_ll_rcc.h ****   */
 471:Drivers/STM32WLxx_HAL_Driver/Inc/stm32wlxx_ll_rcc.h **** #define LL_RCC_LPUART1_CLKSOURCE           RCC_CCIPR_LPUART1SEL  /*!< LPUART1 clock source selectio
 472:Drivers/STM32WLxx_HAL_Driver/Inc/stm32wlxx_ll_rcc.h **** /**
 473:Drivers/STM32WLxx_HAL_Driver/Inc/stm32wlxx_ll_rcc.h ****   * @}
 474:Drivers/STM32WLxx_HAL_Driver/Inc/stm32wlxx_ll_rcc.h ****   */
 475:Drivers/STM32WLxx_HAL_Driver/Inc/stm32wlxx_ll_rcc.h **** 
 476:Drivers/STM32WLxx_HAL_Driver/Inc/stm32wlxx_ll_rcc.h **** /** @defgroup RCC_LL_EC_I2Cx I2Cx
 477:Drivers/STM32WLxx_HAL_Driver/Inc/stm32wlxx_ll_rcc.h ****   * @{
 478:Drivers/STM32WLxx_HAL_Driver/Inc/stm32wlxx_ll_rcc.h ****   */
 479:Drivers/STM32WLxx_HAL_Driver/Inc/stm32wlxx_ll_rcc.h **** #define LL_RCC_I2C1_CLKSOURCE              RCC_CCIPR_I2C1SEL    /*!< I2C1 clock source selection bi
 480:Drivers/STM32WLxx_HAL_Driver/Inc/stm32wlxx_ll_rcc.h **** #define LL_RCC_I2C2_CLKSOURCE              RCC_CCIPR_I2C2SEL    /*!< I2C2 clock source selection bi
 481:Drivers/STM32WLxx_HAL_Driver/Inc/stm32wlxx_ll_rcc.h **** #define LL_RCC_I2C3_CLKSOURCE              RCC_CCIPR_I2C3SEL    /*!< I2C3 clock source selection bi
 482:Drivers/STM32WLxx_HAL_Driver/Inc/stm32wlxx_ll_rcc.h **** /**
 483:Drivers/STM32WLxx_HAL_Driver/Inc/stm32wlxx_ll_rcc.h ****   * @}
 484:Drivers/STM32WLxx_HAL_Driver/Inc/stm32wlxx_ll_rcc.h ****   */
 485:Drivers/STM32WLxx_HAL_Driver/Inc/stm32wlxx_ll_rcc.h **** 
 486:Drivers/STM32WLxx_HAL_Driver/Inc/stm32wlxx_ll_rcc.h **** /** @defgroup RCC_LL_EC_LPTIMx LPTIMx
 487:Drivers/STM32WLxx_HAL_Driver/Inc/stm32wlxx_ll_rcc.h ****   * @{
 488:Drivers/STM32WLxx_HAL_Driver/Inc/stm32wlxx_ll_rcc.h ****   */
 489:Drivers/STM32WLxx_HAL_Driver/Inc/stm32wlxx_ll_rcc.h **** #define LL_RCC_LPTIM1_CLKSOURCE            RCC_CCIPR_LPTIM1SEL  /*!< LPTIM1 clock source selection 
 490:Drivers/STM32WLxx_HAL_Driver/Inc/stm32wlxx_ll_rcc.h **** #define LL_RCC_LPTIM2_CLKSOURCE            RCC_CCIPR_LPTIM2SEL  /*!< LPTIM2 clock source selection 
 491:Drivers/STM32WLxx_HAL_Driver/Inc/stm32wlxx_ll_rcc.h **** #define LL_RCC_LPTIM3_CLKSOURCE            RCC_CCIPR_LPTIM3SEL  /*!< LPTIM2 clock source selection 
 492:Drivers/STM32WLxx_HAL_Driver/Inc/stm32wlxx_ll_rcc.h **** 
 493:Drivers/STM32WLxx_HAL_Driver/Inc/stm32wlxx_ll_rcc.h **** /**
 494:Drivers/STM32WLxx_HAL_Driver/Inc/stm32wlxx_ll_rcc.h ****   * @}
 495:Drivers/STM32WLxx_HAL_Driver/Inc/stm32wlxx_ll_rcc.h ****   */
 496:Drivers/STM32WLxx_HAL_Driver/Inc/stm32wlxx_ll_rcc.h **** 
 497:Drivers/STM32WLxx_HAL_Driver/Inc/stm32wlxx_ll_rcc.h **** /** @defgroup RCC_LL_EC_RNG RNG
 498:Drivers/STM32WLxx_HAL_Driver/Inc/stm32wlxx_ll_rcc.h ****   * @{
 499:Drivers/STM32WLxx_HAL_Driver/Inc/stm32wlxx_ll_rcc.h ****   */
 500:Drivers/STM32WLxx_HAL_Driver/Inc/stm32wlxx_ll_rcc.h **** #define LL_RCC_RNG_CLKSOURCE               RCC_CCIPR_RNGSEL  /*!< RNG clock source selection bits *
 501:Drivers/STM32WLxx_HAL_Driver/Inc/stm32wlxx_ll_rcc.h **** /**
 502:Drivers/STM32WLxx_HAL_Driver/Inc/stm32wlxx_ll_rcc.h ****   * @}
 503:Drivers/STM32WLxx_HAL_Driver/Inc/stm32wlxx_ll_rcc.h ****   */
 504:Drivers/STM32WLxx_HAL_Driver/Inc/stm32wlxx_ll_rcc.h **** 
 505:Drivers/STM32WLxx_HAL_Driver/Inc/stm32wlxx_ll_rcc.h **** /** @defgroup RCC_LL_EC_ADC ADC
 506:Drivers/STM32WLxx_HAL_Driver/Inc/stm32wlxx_ll_rcc.h ****   * @{
 507:Drivers/STM32WLxx_HAL_Driver/Inc/stm32wlxx_ll_rcc.h ****   */
 508:Drivers/STM32WLxx_HAL_Driver/Inc/stm32wlxx_ll_rcc.h **** #define LL_RCC_ADC_CLKSOURCE               RCC_CCIPR_ADCSEL   /*!< ADC clock source selection bits 
 509:Drivers/STM32WLxx_HAL_Driver/Inc/stm32wlxx_ll_rcc.h **** /**
 510:Drivers/STM32WLxx_HAL_Driver/Inc/stm32wlxx_ll_rcc.h ****   * @}
 511:Drivers/STM32WLxx_HAL_Driver/Inc/stm32wlxx_ll_rcc.h ****   */
 512:Drivers/STM32WLxx_HAL_Driver/Inc/stm32wlxx_ll_rcc.h **** 
 513:Drivers/STM32WLxx_HAL_Driver/Inc/stm32wlxx_ll_rcc.h **** /** @defgroup RCC_LL_EC_RTC_CLKSOURCE  RTC clock source selection
 514:Drivers/STM32WLxx_HAL_Driver/Inc/stm32wlxx_ll_rcc.h ****   * @{
 515:Drivers/STM32WLxx_HAL_Driver/Inc/stm32wlxx_ll_rcc.h ****   */
 516:Drivers/STM32WLxx_HAL_Driver/Inc/stm32wlxx_ll_rcc.h **** #define LL_RCC_RTC_CLKSOURCE_NONE          0x00000000U                   /*!< No clock used as RTC 
 517:Drivers/STM32WLxx_HAL_Driver/Inc/stm32wlxx_ll_rcc.h **** #define LL_RCC_RTC_CLKSOURCE_LSE           RCC_BDCR_RTCSEL_0             /*!< LSE oscillator clock 
 518:Drivers/STM32WLxx_HAL_Driver/Inc/stm32wlxx_ll_rcc.h **** #define LL_RCC_RTC_CLKSOURCE_LSI           RCC_BDCR_RTCSEL_1             /*!< LSI oscillator clock 
 519:Drivers/STM32WLxx_HAL_Driver/Inc/stm32wlxx_ll_rcc.h **** #define LL_RCC_RTC_CLKSOURCE_HSE_DIV32     RCC_BDCR_RTCSEL               /*!< HSE oscillator clock 
ARM GAS  C:\Users\NATHAN~1\AppData\Local\Temp\cc6e4y2d.s 			page 18


 520:Drivers/STM32WLxx_HAL_Driver/Inc/stm32wlxx_ll_rcc.h **** 
 521:Drivers/STM32WLxx_HAL_Driver/Inc/stm32wlxx_ll_rcc.h **** /**
 522:Drivers/STM32WLxx_HAL_Driver/Inc/stm32wlxx_ll_rcc.h ****   * @}
 523:Drivers/STM32WLxx_HAL_Driver/Inc/stm32wlxx_ll_rcc.h ****   */
 524:Drivers/STM32WLxx_HAL_Driver/Inc/stm32wlxx_ll_rcc.h **** 
 525:Drivers/STM32WLxx_HAL_Driver/Inc/stm32wlxx_ll_rcc.h **** /** @defgroup RCC_LL_EC_PLLSOURCE  PLL entry clock source
 526:Drivers/STM32WLxx_HAL_Driver/Inc/stm32wlxx_ll_rcc.h ****   * @{
 527:Drivers/STM32WLxx_HAL_Driver/Inc/stm32wlxx_ll_rcc.h ****   */
 528:Drivers/STM32WLxx_HAL_Driver/Inc/stm32wlxx_ll_rcc.h **** #define LL_RCC_PLLSOURCE_NONE              0x00000000U             /*!< No clock */
 529:Drivers/STM32WLxx_HAL_Driver/Inc/stm32wlxx_ll_rcc.h **** #define LL_RCC_PLLSOURCE_MSI               RCC_PLLCFGR_PLLSRC_0  /*!< MSI clock selected as PLL ent
 530:Drivers/STM32WLxx_HAL_Driver/Inc/stm32wlxx_ll_rcc.h **** #define LL_RCC_PLLSOURCE_HSI               RCC_PLLCFGR_PLLSRC_1  /*!< HSI clock selected as PLL ent
 531:Drivers/STM32WLxx_HAL_Driver/Inc/stm32wlxx_ll_rcc.h **** #define LL_RCC_PLLSOURCE_HSE               (RCC_PLLCFGR_PLLSRC_1 | RCC_PLLCFGR_PLLSRC_0)  /*!< HSE 
 532:Drivers/STM32WLxx_HAL_Driver/Inc/stm32wlxx_ll_rcc.h **** /**
 533:Drivers/STM32WLxx_HAL_Driver/Inc/stm32wlxx_ll_rcc.h ****   * @}
 534:Drivers/STM32WLxx_HAL_Driver/Inc/stm32wlxx_ll_rcc.h ****   */
 535:Drivers/STM32WLxx_HAL_Driver/Inc/stm32wlxx_ll_rcc.h **** 
 536:Drivers/STM32WLxx_HAL_Driver/Inc/stm32wlxx_ll_rcc.h **** /** @defgroup RCC_LL_EC_PLLM_DIV  PLL.division factor
 537:Drivers/STM32WLxx_HAL_Driver/Inc/stm32wlxx_ll_rcc.h ****   * @{
 538:Drivers/STM32WLxx_HAL_Driver/Inc/stm32wlxx_ll_rcc.h ****   */
 539:Drivers/STM32WLxx_HAL_Driver/Inc/stm32wlxx_ll_rcc.h **** #define LL_RCC_PLLM_DIV_1                  0x00000000U                                 /*!< PLL div
 540:Drivers/STM32WLxx_HAL_Driver/Inc/stm32wlxx_ll_rcc.h **** #define LL_RCC_PLLM_DIV_2                  (RCC_PLLCFGR_PLLM_0)                        /*!< PLL div
 541:Drivers/STM32WLxx_HAL_Driver/Inc/stm32wlxx_ll_rcc.h **** #define LL_RCC_PLLM_DIV_3                  (RCC_PLLCFGR_PLLM_1)                        /*!< PLL div
 542:Drivers/STM32WLxx_HAL_Driver/Inc/stm32wlxx_ll_rcc.h **** #define LL_RCC_PLLM_DIV_4                  ((RCC_PLLCFGR_PLLM_1 | RCC_PLLCFGR_PLLM_0)) /*!< PLL div
 543:Drivers/STM32WLxx_HAL_Driver/Inc/stm32wlxx_ll_rcc.h **** #define LL_RCC_PLLM_DIV_5                  (RCC_PLLCFGR_PLLM_2)                        /*!< PLL div
 544:Drivers/STM32WLxx_HAL_Driver/Inc/stm32wlxx_ll_rcc.h **** #define LL_RCC_PLLM_DIV_6                  ((RCC_PLLCFGR_PLLM_2 | RCC_PLLCFGR_PLLM_0)) /*!< PLL div
 545:Drivers/STM32WLxx_HAL_Driver/Inc/stm32wlxx_ll_rcc.h **** #define LL_RCC_PLLM_DIV_7                  ((RCC_PLLCFGR_PLLM_2 | RCC_PLLCFGR_PLLM_1)) /*!< PLL div
 546:Drivers/STM32WLxx_HAL_Driver/Inc/stm32wlxx_ll_rcc.h **** #define LL_RCC_PLLM_DIV_8                  (RCC_PLLCFGR_PLLM)                          /*!< PLL div
 547:Drivers/STM32WLxx_HAL_Driver/Inc/stm32wlxx_ll_rcc.h **** /**
 548:Drivers/STM32WLxx_HAL_Driver/Inc/stm32wlxx_ll_rcc.h ****   * @}
 549:Drivers/STM32WLxx_HAL_Driver/Inc/stm32wlxx_ll_rcc.h ****   */
 550:Drivers/STM32WLxx_HAL_Driver/Inc/stm32wlxx_ll_rcc.h **** 
 551:Drivers/STM32WLxx_HAL_Driver/Inc/stm32wlxx_ll_rcc.h **** /** @defgroup RCC_LL_EC_PLLR_DIV  PLL division factor (PLLR)
 552:Drivers/STM32WLxx_HAL_Driver/Inc/stm32wlxx_ll_rcc.h ****   * @{
 553:Drivers/STM32WLxx_HAL_Driver/Inc/stm32wlxx_ll_rcc.h ****   */
 554:Drivers/STM32WLxx_HAL_Driver/Inc/stm32wlxx_ll_rcc.h **** #define LL_RCC_PLLR_DIV_2                  (RCC_PLLCFGR_PLLR_0)                     /*!< Main PLL d
 555:Drivers/STM32WLxx_HAL_Driver/Inc/stm32wlxx_ll_rcc.h **** #define LL_RCC_PLLR_DIV_3                  (RCC_PLLCFGR_PLLR_1)                     /*!< Main PLL d
 556:Drivers/STM32WLxx_HAL_Driver/Inc/stm32wlxx_ll_rcc.h **** #define LL_RCC_PLLR_DIV_4                  (RCC_PLLCFGR_PLLR_1|RCC_PLLCFGR_PLLR_0)  /*!< Main PLL d
 557:Drivers/STM32WLxx_HAL_Driver/Inc/stm32wlxx_ll_rcc.h **** #define LL_RCC_PLLR_DIV_5                  (RCC_PLLCFGR_PLLR_2)                     /*!< Main PLL d
 558:Drivers/STM32WLxx_HAL_Driver/Inc/stm32wlxx_ll_rcc.h **** #define LL_RCC_PLLR_DIV_6                  (RCC_PLLCFGR_PLLR_2|RCC_PLLCFGR_PLLR_0)  /*!< Main PLL d
 559:Drivers/STM32WLxx_HAL_Driver/Inc/stm32wlxx_ll_rcc.h **** #define LL_RCC_PLLR_DIV_7                  (RCC_PLLCFGR_PLLR_2|RCC_PLLCFGR_PLLR_1)  /*!< Main PLL d
 560:Drivers/STM32WLxx_HAL_Driver/Inc/stm32wlxx_ll_rcc.h **** #define LL_RCC_PLLR_DIV_8                  (RCC_PLLCFGR_PLLR)                       /*!< Main PLL d
 561:Drivers/STM32WLxx_HAL_Driver/Inc/stm32wlxx_ll_rcc.h **** /**
 562:Drivers/STM32WLxx_HAL_Driver/Inc/stm32wlxx_ll_rcc.h ****   * @}
 563:Drivers/STM32WLxx_HAL_Driver/Inc/stm32wlxx_ll_rcc.h ****   */
 564:Drivers/STM32WLxx_HAL_Driver/Inc/stm32wlxx_ll_rcc.h **** 
 565:Drivers/STM32WLxx_HAL_Driver/Inc/stm32wlxx_ll_rcc.h **** /** @defgroup RCC_LL_EC_PLLP_DIV  PLL division factor (PLLP)
 566:Drivers/STM32WLxx_HAL_Driver/Inc/stm32wlxx_ll_rcc.h ****   * @{
 567:Drivers/STM32WLxx_HAL_Driver/Inc/stm32wlxx_ll_rcc.h ****   */
 568:Drivers/STM32WLxx_HAL_Driver/Inc/stm32wlxx_ll_rcc.h **** #define LL_RCC_PLLP_DIV_2                  (RCC_PLLCFGR_PLLP_0)                                    
 569:Drivers/STM32WLxx_HAL_Driver/Inc/stm32wlxx_ll_rcc.h **** #define LL_RCC_PLLP_DIV_3                  (RCC_PLLCFGR_PLLP_1)                                    
 570:Drivers/STM32WLxx_HAL_Driver/Inc/stm32wlxx_ll_rcc.h **** #define LL_RCC_PLLP_DIV_4                  (RCC_PLLCFGR_PLLP_0|RCC_PLLCFGR_PLLP_1)                 
 571:Drivers/STM32WLxx_HAL_Driver/Inc/stm32wlxx_ll_rcc.h **** #define LL_RCC_PLLP_DIV_5                  (RCC_PLLCFGR_PLLP_2)                                    
 572:Drivers/STM32WLxx_HAL_Driver/Inc/stm32wlxx_ll_rcc.h **** #define LL_RCC_PLLP_DIV_6                  (RCC_PLLCFGR_PLLP_0|RCC_PLLCFGR_PLLP_2)                 
 573:Drivers/STM32WLxx_HAL_Driver/Inc/stm32wlxx_ll_rcc.h **** #define LL_RCC_PLLP_DIV_7                  (RCC_PLLCFGR_PLLP_1|RCC_PLLCFGR_PLLP_2)                 
 574:Drivers/STM32WLxx_HAL_Driver/Inc/stm32wlxx_ll_rcc.h **** #define LL_RCC_PLLP_DIV_8                  (RCC_PLLCFGR_PLLP_0|RCC_PLLCFGR_PLLP_1|RCC_PLLCFGR_PLLP_
 575:Drivers/STM32WLxx_HAL_Driver/Inc/stm32wlxx_ll_rcc.h **** #define LL_RCC_PLLP_DIV_9                  (RCC_PLLCFGR_PLLP_3)                                    
 576:Drivers/STM32WLxx_HAL_Driver/Inc/stm32wlxx_ll_rcc.h **** #define LL_RCC_PLLP_DIV_10                 (RCC_PLLCFGR_PLLP_0|RCC_PLLCFGR_PLLP_3)                 
ARM GAS  C:\Users\NATHAN~1\AppData\Local\Temp\cc6e4y2d.s 			page 19


 577:Drivers/STM32WLxx_HAL_Driver/Inc/stm32wlxx_ll_rcc.h **** #define LL_RCC_PLLP_DIV_11                 (RCC_PLLCFGR_PLLP_1|RCC_PLLCFGR_PLLP_3)                 
 578:Drivers/STM32WLxx_HAL_Driver/Inc/stm32wlxx_ll_rcc.h **** #define LL_RCC_PLLP_DIV_12                 (RCC_PLLCFGR_PLLP_0|RCC_PLLCFGR_PLLP_1|RCC_PLLCFGR_PLLP_
 579:Drivers/STM32WLxx_HAL_Driver/Inc/stm32wlxx_ll_rcc.h **** #define LL_RCC_PLLP_DIV_13                 (RCC_PLLCFGR_PLLP_2|RCC_PLLCFGR_PLLP_3)                 
 580:Drivers/STM32WLxx_HAL_Driver/Inc/stm32wlxx_ll_rcc.h **** #define LL_RCC_PLLP_DIV_14                 (RCC_PLLCFGR_PLLP_0|RCC_PLLCFGR_PLLP_2|RCC_PLLCFGR_PLLP_
 581:Drivers/STM32WLxx_HAL_Driver/Inc/stm32wlxx_ll_rcc.h **** #define LL_RCC_PLLP_DIV_15                 (RCC_PLLCFGR_PLLP_1|RCC_PLLCFGR_PLLP_2|RCC_PLLCFGR_PLLP_
 582:Drivers/STM32WLxx_HAL_Driver/Inc/stm32wlxx_ll_rcc.h **** #define LL_RCC_PLLP_DIV_16                 (RCC_PLLCFGR_PLLP_0|RCC_PLLCFGR_PLLP_1|RCC_PLLCFGR_PLLP_
 583:Drivers/STM32WLxx_HAL_Driver/Inc/stm32wlxx_ll_rcc.h **** #define LL_RCC_PLLP_DIV_17                 (RCC_PLLCFGR_PLLP_4)                                    
 584:Drivers/STM32WLxx_HAL_Driver/Inc/stm32wlxx_ll_rcc.h **** #define LL_RCC_PLLP_DIV_18                 (RCC_PLLCFGR_PLLP_0|RCC_PLLCFGR_PLLP_4)                 
 585:Drivers/STM32WLxx_HAL_Driver/Inc/stm32wlxx_ll_rcc.h **** #define LL_RCC_PLLP_DIV_19                 (RCC_PLLCFGR_PLLP_1|RCC_PLLCFGR_PLLP_4)                 
 586:Drivers/STM32WLxx_HAL_Driver/Inc/stm32wlxx_ll_rcc.h **** #define LL_RCC_PLLP_DIV_20                 (RCC_PLLCFGR_PLLP_0|RCC_PLLCFGR_PLLP_1|RCC_PLLCFGR_PLLP_
 587:Drivers/STM32WLxx_HAL_Driver/Inc/stm32wlxx_ll_rcc.h **** #define LL_RCC_PLLP_DIV_21                 (RCC_PLLCFGR_PLLP_2|RCC_PLLCFGR_PLLP_4)                 
 588:Drivers/STM32WLxx_HAL_Driver/Inc/stm32wlxx_ll_rcc.h **** #define LL_RCC_PLLP_DIV_22                 (RCC_PLLCFGR_PLLP_0|RCC_PLLCFGR_PLLP_2|RCC_PLLCFGR_PLLP_
 589:Drivers/STM32WLxx_HAL_Driver/Inc/stm32wlxx_ll_rcc.h **** #define LL_RCC_PLLP_DIV_23                 (RCC_PLLCFGR_PLLP_1|RCC_PLLCFGR_PLLP_2|RCC_PLLCFGR_PLLP_
 590:Drivers/STM32WLxx_HAL_Driver/Inc/stm32wlxx_ll_rcc.h **** #define LL_RCC_PLLP_DIV_24                 (RCC_PLLCFGR_PLLP_0|RCC_PLLCFGR_PLLP_1|RCC_PLLCFGR_PLLP_
 591:Drivers/STM32WLxx_HAL_Driver/Inc/stm32wlxx_ll_rcc.h **** #define LL_RCC_PLLP_DIV_25                 (RCC_PLLCFGR_PLLP_3|RCC_PLLCFGR_PLLP_4)                 
 592:Drivers/STM32WLxx_HAL_Driver/Inc/stm32wlxx_ll_rcc.h **** #define LL_RCC_PLLP_DIV_26                 (RCC_PLLCFGR_PLLP_0|RCC_PLLCFGR_PLLP_3|RCC_PLLCFGR_PLLP_
 593:Drivers/STM32WLxx_HAL_Driver/Inc/stm32wlxx_ll_rcc.h **** #define LL_RCC_PLLP_DIV_27                 (RCC_PLLCFGR_PLLP_1|RCC_PLLCFGR_PLLP_3|RCC_PLLCFGR_PLLP_
 594:Drivers/STM32WLxx_HAL_Driver/Inc/stm32wlxx_ll_rcc.h **** #define LL_RCC_PLLP_DIV_28                 (RCC_PLLCFGR_PLLP_0|RCC_PLLCFGR_PLLP_1|RCC_PLLCFGR_PLLP_
 595:Drivers/STM32WLxx_HAL_Driver/Inc/stm32wlxx_ll_rcc.h **** #define LL_RCC_PLLP_DIV_29                 (RCC_PLLCFGR_PLLP_2|RCC_PLLCFGR_PLLP_3|RCC_PLLCFGR_PLLP_
 596:Drivers/STM32WLxx_HAL_Driver/Inc/stm32wlxx_ll_rcc.h **** #define LL_RCC_PLLP_DIV_30                 (RCC_PLLCFGR_PLLP_0|RCC_PLLCFGR_PLLP_2|RCC_PLLCFGR_PLLP_
 597:Drivers/STM32WLxx_HAL_Driver/Inc/stm32wlxx_ll_rcc.h **** #define LL_RCC_PLLP_DIV_31                 (RCC_PLLCFGR_PLLP_1|RCC_PLLCFGR_PLLP_2|RCC_PLLCFGR_PLLP_
 598:Drivers/STM32WLxx_HAL_Driver/Inc/stm32wlxx_ll_rcc.h **** #define LL_RCC_PLLP_DIV_32                 (RCC_PLLCFGR_PLLP_0|RCC_PLLCFGR_PLLP_1|RCC_PLLCFGR_PLLP_
 599:Drivers/STM32WLxx_HAL_Driver/Inc/stm32wlxx_ll_rcc.h **** /**
 600:Drivers/STM32WLxx_HAL_Driver/Inc/stm32wlxx_ll_rcc.h ****   * @}
 601:Drivers/STM32WLxx_HAL_Driver/Inc/stm32wlxx_ll_rcc.h ****   */
 602:Drivers/STM32WLxx_HAL_Driver/Inc/stm32wlxx_ll_rcc.h **** 
 603:Drivers/STM32WLxx_HAL_Driver/Inc/stm32wlxx_ll_rcc.h **** /** @defgroup RCC_LL_EC_PLLQ_DIV  PLL division factor (PLLQ)
 604:Drivers/STM32WLxx_HAL_Driver/Inc/stm32wlxx_ll_rcc.h ****   * @{
 605:Drivers/STM32WLxx_HAL_Driver/Inc/stm32wlxx_ll_rcc.h ****   */
 606:Drivers/STM32WLxx_HAL_Driver/Inc/stm32wlxx_ll_rcc.h **** #define LL_RCC_PLLQ_DIV_2                  (RCC_PLLCFGR_PLLQ_0)                    /*!< Main PLL di
 607:Drivers/STM32WLxx_HAL_Driver/Inc/stm32wlxx_ll_rcc.h **** #define LL_RCC_PLLQ_DIV_3                  (RCC_PLLCFGR_PLLQ_1)                    /*!< Main PLL di
 608:Drivers/STM32WLxx_HAL_Driver/Inc/stm32wlxx_ll_rcc.h **** #define LL_RCC_PLLQ_DIV_4                  (RCC_PLLCFGR_PLLQ_1|RCC_PLLCFGR_PLLQ_0) /*!< Main PLL di
 609:Drivers/STM32WLxx_HAL_Driver/Inc/stm32wlxx_ll_rcc.h **** #define LL_RCC_PLLQ_DIV_5                  (RCC_PLLCFGR_PLLQ_2)                    /*!< Main PLL di
 610:Drivers/STM32WLxx_HAL_Driver/Inc/stm32wlxx_ll_rcc.h **** #define LL_RCC_PLLQ_DIV_6                  (RCC_PLLCFGR_PLLQ_2|RCC_PLLCFGR_PLLQ_0) /*!< Main PLL di
 611:Drivers/STM32WLxx_HAL_Driver/Inc/stm32wlxx_ll_rcc.h **** #define LL_RCC_PLLQ_DIV_7                  (RCC_PLLCFGR_PLLQ_2|RCC_PLLCFGR_PLLQ_1) /*!< Main PLL di
 612:Drivers/STM32WLxx_HAL_Driver/Inc/stm32wlxx_ll_rcc.h **** #define LL_RCC_PLLQ_DIV_8                  (RCC_PLLCFGR_PLLQ)                      /*!< Main PLL di
 613:Drivers/STM32WLxx_HAL_Driver/Inc/stm32wlxx_ll_rcc.h **** /**
 614:Drivers/STM32WLxx_HAL_Driver/Inc/stm32wlxx_ll_rcc.h ****   * @}
 615:Drivers/STM32WLxx_HAL_Driver/Inc/stm32wlxx_ll_rcc.h ****   */
 616:Drivers/STM32WLxx_HAL_Driver/Inc/stm32wlxx_ll_rcc.h **** 
 617:Drivers/STM32WLxx_HAL_Driver/Inc/stm32wlxx_ll_rcc.h **** /** @defgroup RCC_LL_EC_MSIRANGESEL  MSI clock range selection
 618:Drivers/STM32WLxx_HAL_Driver/Inc/stm32wlxx_ll_rcc.h ****   * @{
 619:Drivers/STM32WLxx_HAL_Driver/Inc/stm32wlxx_ll_rcc.h ****   */
 620:Drivers/STM32WLxx_HAL_Driver/Inc/stm32wlxx_ll_rcc.h **** #define LL_RCC_MSIRANGESEL_STANDBY         0U                  /*!< MSI Range is provided by MSISRA
 621:Drivers/STM32WLxx_HAL_Driver/Inc/stm32wlxx_ll_rcc.h **** #define LL_RCC_MSIRANGESEL_RUN             1U                  /*!< MSI Range is provided by MSIRAN
 622:Drivers/STM32WLxx_HAL_Driver/Inc/stm32wlxx_ll_rcc.h **** /**
 623:Drivers/STM32WLxx_HAL_Driver/Inc/stm32wlxx_ll_rcc.h ****   * @}
 624:Drivers/STM32WLxx_HAL_Driver/Inc/stm32wlxx_ll_rcc.h ****   */
 625:Drivers/STM32WLxx_HAL_Driver/Inc/stm32wlxx_ll_rcc.h **** 
 626:Drivers/STM32WLxx_HAL_Driver/Inc/stm32wlxx_ll_rcc.h **** /** @defgroup RCC_LL_EC_LSIPRE  LSI division factor
 627:Drivers/STM32WLxx_HAL_Driver/Inc/stm32wlxx_ll_rcc.h ****   * @{
 628:Drivers/STM32WLxx_HAL_Driver/Inc/stm32wlxx_ll_rcc.h ****   */
 629:Drivers/STM32WLxx_HAL_Driver/Inc/stm32wlxx_ll_rcc.h **** #define LL_RCC_LSI_PREDIV_1                0x00000000U         /*!< LSI division factor by 1   */
 630:Drivers/STM32WLxx_HAL_Driver/Inc/stm32wlxx_ll_rcc.h **** #define LL_RCC_LSI_PREDIV_128              RCC_CSR_LSIPRE      /*!< LSI division factor by 128 */
 631:Drivers/STM32WLxx_HAL_Driver/Inc/stm32wlxx_ll_rcc.h **** /**
 632:Drivers/STM32WLxx_HAL_Driver/Inc/stm32wlxx_ll_rcc.h ****   * @}
 633:Drivers/STM32WLxx_HAL_Driver/Inc/stm32wlxx_ll_rcc.h ****   */
ARM GAS  C:\Users\NATHAN~1\AppData\Local\Temp\cc6e4y2d.s 			page 20


 634:Drivers/STM32WLxx_HAL_Driver/Inc/stm32wlxx_ll_rcc.h **** 
 635:Drivers/STM32WLxx_HAL_Driver/Inc/stm32wlxx_ll_rcc.h **** /**
 636:Drivers/STM32WLxx_HAL_Driver/Inc/stm32wlxx_ll_rcc.h ****   * @}
 637:Drivers/STM32WLxx_HAL_Driver/Inc/stm32wlxx_ll_rcc.h ****   */
 638:Drivers/STM32WLxx_HAL_Driver/Inc/stm32wlxx_ll_rcc.h **** 
 639:Drivers/STM32WLxx_HAL_Driver/Inc/stm32wlxx_ll_rcc.h **** /* Exported macro ------------------------------------------------------------*/
 640:Drivers/STM32WLxx_HAL_Driver/Inc/stm32wlxx_ll_rcc.h **** /** @defgroup RCC_LL_Exported_Macros RCC Exported Macros
 641:Drivers/STM32WLxx_HAL_Driver/Inc/stm32wlxx_ll_rcc.h ****   * @{
 642:Drivers/STM32WLxx_HAL_Driver/Inc/stm32wlxx_ll_rcc.h ****   */
 643:Drivers/STM32WLxx_HAL_Driver/Inc/stm32wlxx_ll_rcc.h **** 
 644:Drivers/STM32WLxx_HAL_Driver/Inc/stm32wlxx_ll_rcc.h **** /** @defgroup RCC_LL_EM_WRITE_READ Common Write and read registers Macros
 645:Drivers/STM32WLxx_HAL_Driver/Inc/stm32wlxx_ll_rcc.h ****   * @{
 646:Drivers/STM32WLxx_HAL_Driver/Inc/stm32wlxx_ll_rcc.h ****   */
 647:Drivers/STM32WLxx_HAL_Driver/Inc/stm32wlxx_ll_rcc.h **** 
 648:Drivers/STM32WLxx_HAL_Driver/Inc/stm32wlxx_ll_rcc.h **** /**
 649:Drivers/STM32WLxx_HAL_Driver/Inc/stm32wlxx_ll_rcc.h ****   * @brief  Write a value in RCC register
 650:Drivers/STM32WLxx_HAL_Driver/Inc/stm32wlxx_ll_rcc.h ****   * @param  __REG__ Register to be written
 651:Drivers/STM32WLxx_HAL_Driver/Inc/stm32wlxx_ll_rcc.h ****   * @param  __VALUE__ Value to be written in the register
 652:Drivers/STM32WLxx_HAL_Driver/Inc/stm32wlxx_ll_rcc.h ****   * @retval None
 653:Drivers/STM32WLxx_HAL_Driver/Inc/stm32wlxx_ll_rcc.h ****   */
 654:Drivers/STM32WLxx_HAL_Driver/Inc/stm32wlxx_ll_rcc.h **** #define LL_RCC_WriteReg(__REG__, __VALUE__) WRITE_REG(RCC->__REG__, (__VALUE__))
 655:Drivers/STM32WLxx_HAL_Driver/Inc/stm32wlxx_ll_rcc.h **** 
 656:Drivers/STM32WLxx_HAL_Driver/Inc/stm32wlxx_ll_rcc.h **** /**
 657:Drivers/STM32WLxx_HAL_Driver/Inc/stm32wlxx_ll_rcc.h ****   * @brief  Read a value in RCC register
 658:Drivers/STM32WLxx_HAL_Driver/Inc/stm32wlxx_ll_rcc.h ****   * @param  __REG__ Register to be read
 659:Drivers/STM32WLxx_HAL_Driver/Inc/stm32wlxx_ll_rcc.h ****   * @retval Register value
 660:Drivers/STM32WLxx_HAL_Driver/Inc/stm32wlxx_ll_rcc.h ****   */
 661:Drivers/STM32WLxx_HAL_Driver/Inc/stm32wlxx_ll_rcc.h **** #define LL_RCC_ReadReg(__REG__) READ_REG(RCC->__REG__)
 662:Drivers/STM32WLxx_HAL_Driver/Inc/stm32wlxx_ll_rcc.h **** /**
 663:Drivers/STM32WLxx_HAL_Driver/Inc/stm32wlxx_ll_rcc.h ****   * @}
 664:Drivers/STM32WLxx_HAL_Driver/Inc/stm32wlxx_ll_rcc.h ****   */
 665:Drivers/STM32WLxx_HAL_Driver/Inc/stm32wlxx_ll_rcc.h **** 
 666:Drivers/STM32WLxx_HAL_Driver/Inc/stm32wlxx_ll_rcc.h **** /** @defgroup RCC_LL_EM_CALC_FREQ Calculate frequencies
 667:Drivers/STM32WLxx_HAL_Driver/Inc/stm32wlxx_ll_rcc.h ****   * @{
 668:Drivers/STM32WLxx_HAL_Driver/Inc/stm32wlxx_ll_rcc.h ****   */
 669:Drivers/STM32WLxx_HAL_Driver/Inc/stm32wlxx_ll_rcc.h **** 
 670:Drivers/STM32WLxx_HAL_Driver/Inc/stm32wlxx_ll_rcc.h **** /**
 671:Drivers/STM32WLxx_HAL_Driver/Inc/stm32wlxx_ll_rcc.h ****   * @brief  Helper macro to calculate the PLLRCLK frequency on system domain
 672:Drivers/STM32WLxx_HAL_Driver/Inc/stm32wlxx_ll_rcc.h ****   * @note ex: @ref __LL_RCC_CALC_PLLCLK_FREQ (HSE_VALUE,@ref LL_RCC_PLL_GetDivider (),
 673:Drivers/STM32WLxx_HAL_Driver/Inc/stm32wlxx_ll_rcc.h ****   *             @ref LL_RCC_PLL_GetN (), @ref LL_RCC_PLL_GetR ());
 674:Drivers/STM32WLxx_HAL_Driver/Inc/stm32wlxx_ll_rcc.h ****   * @param  __INPUTFREQ__ PLL Input frequency (based on MSI/HSE/HSI)
 675:Drivers/STM32WLxx_HAL_Driver/Inc/stm32wlxx_ll_rcc.h ****   * @param  __PLLM__ This parameter can be one of the following values:
 676:Drivers/STM32WLxx_HAL_Driver/Inc/stm32wlxx_ll_rcc.h ****   *         @arg @ref LL_RCC_PLLM_DIV_1
 677:Drivers/STM32WLxx_HAL_Driver/Inc/stm32wlxx_ll_rcc.h ****   *         @arg @ref LL_RCC_PLLM_DIV_2
 678:Drivers/STM32WLxx_HAL_Driver/Inc/stm32wlxx_ll_rcc.h ****   *         @arg @ref LL_RCC_PLLM_DIV_3
 679:Drivers/STM32WLxx_HAL_Driver/Inc/stm32wlxx_ll_rcc.h ****   *         @arg @ref LL_RCC_PLLM_DIV_4
 680:Drivers/STM32WLxx_HAL_Driver/Inc/stm32wlxx_ll_rcc.h ****   *         @arg @ref LL_RCC_PLLM_DIV_5
 681:Drivers/STM32WLxx_HAL_Driver/Inc/stm32wlxx_ll_rcc.h ****   *         @arg @ref LL_RCC_PLLM_DIV_6
 682:Drivers/STM32WLxx_HAL_Driver/Inc/stm32wlxx_ll_rcc.h ****   *         @arg @ref LL_RCC_PLLM_DIV_7
 683:Drivers/STM32WLxx_HAL_Driver/Inc/stm32wlxx_ll_rcc.h ****   *         @arg @ref LL_RCC_PLLM_DIV_8
 684:Drivers/STM32WLxx_HAL_Driver/Inc/stm32wlxx_ll_rcc.h ****   * @param  __PLLN__ Between Min_Data = 6 and Max_Data = 127
 685:Drivers/STM32WLxx_HAL_Driver/Inc/stm32wlxx_ll_rcc.h ****   * @param  __PLLR__ This parameter can be one of the following values:
 686:Drivers/STM32WLxx_HAL_Driver/Inc/stm32wlxx_ll_rcc.h ****   *         @arg @ref LL_RCC_PLLR_DIV_2
 687:Drivers/STM32WLxx_HAL_Driver/Inc/stm32wlxx_ll_rcc.h ****   *         @arg @ref LL_RCC_PLLR_DIV_3
 688:Drivers/STM32WLxx_HAL_Driver/Inc/stm32wlxx_ll_rcc.h ****   *         @arg @ref LL_RCC_PLLR_DIV_4
 689:Drivers/STM32WLxx_HAL_Driver/Inc/stm32wlxx_ll_rcc.h ****   *         @arg @ref LL_RCC_PLLR_DIV_5
 690:Drivers/STM32WLxx_HAL_Driver/Inc/stm32wlxx_ll_rcc.h ****   *         @arg @ref LL_RCC_PLLR_DIV_6
ARM GAS  C:\Users\NATHAN~1\AppData\Local\Temp\cc6e4y2d.s 			page 21


 691:Drivers/STM32WLxx_HAL_Driver/Inc/stm32wlxx_ll_rcc.h ****   *         @arg @ref LL_RCC_PLLR_DIV_7
 692:Drivers/STM32WLxx_HAL_Driver/Inc/stm32wlxx_ll_rcc.h ****   *         @arg @ref LL_RCC_PLLR_DIV_8
 693:Drivers/STM32WLxx_HAL_Driver/Inc/stm32wlxx_ll_rcc.h ****   * @retval PLL clock frequency (in Hz)
 694:Drivers/STM32WLxx_HAL_Driver/Inc/stm32wlxx_ll_rcc.h ****   */
 695:Drivers/STM32WLxx_HAL_Driver/Inc/stm32wlxx_ll_rcc.h **** #define __LL_RCC_CALC_PLLCLK_FREQ(__INPUTFREQ__, __PLLM__, __PLLN__, __PLLR__)  \
 696:Drivers/STM32WLxx_HAL_Driver/Inc/stm32wlxx_ll_rcc.h ****   ((__INPUTFREQ__) * (__PLLN__)  / ((((__PLLM__)>> RCC_PLLCFGR_PLLM_Pos) + 1U)) / \
 697:Drivers/STM32WLxx_HAL_Driver/Inc/stm32wlxx_ll_rcc.h ****    (((__PLLR__) >> RCC_PLLCFGR_PLLR_Pos) + 1U))
 698:Drivers/STM32WLxx_HAL_Driver/Inc/stm32wlxx_ll_rcc.h **** 
 699:Drivers/STM32WLxx_HAL_Driver/Inc/stm32wlxx_ll_rcc.h **** /**
 700:Drivers/STM32WLxx_HAL_Driver/Inc/stm32wlxx_ll_rcc.h ****   * @brief  Helper macro to calculate the PLLPCLK frequency used on ADC domain
 701:Drivers/STM32WLxx_HAL_Driver/Inc/stm32wlxx_ll_rcc.h ****   * @note ex: @ref __LL_RCC_CALC_PLLCLK_ADC_FREQ (HSE_VALUE,@ref LL_RCC_PLL_GetDivider (),
 702:Drivers/STM32WLxx_HAL_Driver/Inc/stm32wlxx_ll_rcc.h ****   *             @ref LL_RCC_PLL_GetN (), @ref LL_RCC_PLL_GetP ());
 703:Drivers/STM32WLxx_HAL_Driver/Inc/stm32wlxx_ll_rcc.h ****   * @param  __INPUTFREQ__ PLL Input frequency (based on MSI/HSE/HSI)
 704:Drivers/STM32WLxx_HAL_Driver/Inc/stm32wlxx_ll_rcc.h ****   * @param  __PLLM__ This parameter can be one of the following values:
 705:Drivers/STM32WLxx_HAL_Driver/Inc/stm32wlxx_ll_rcc.h ****   *         @arg @ref LL_RCC_PLLM_DIV_1
 706:Drivers/STM32WLxx_HAL_Driver/Inc/stm32wlxx_ll_rcc.h ****   *         @arg @ref LL_RCC_PLLM_DIV_2
 707:Drivers/STM32WLxx_HAL_Driver/Inc/stm32wlxx_ll_rcc.h ****   *         @arg @ref LL_RCC_PLLM_DIV_3
 708:Drivers/STM32WLxx_HAL_Driver/Inc/stm32wlxx_ll_rcc.h ****   *         @arg @ref LL_RCC_PLLM_DIV_4
 709:Drivers/STM32WLxx_HAL_Driver/Inc/stm32wlxx_ll_rcc.h ****   *         @arg @ref LL_RCC_PLLM_DIV_5
 710:Drivers/STM32WLxx_HAL_Driver/Inc/stm32wlxx_ll_rcc.h ****   *         @arg @ref LL_RCC_PLLM_DIV_6
 711:Drivers/STM32WLxx_HAL_Driver/Inc/stm32wlxx_ll_rcc.h ****   *         @arg @ref LL_RCC_PLLM_DIV_7
 712:Drivers/STM32WLxx_HAL_Driver/Inc/stm32wlxx_ll_rcc.h ****   *         @arg @ref LL_RCC_PLLM_DIV_8
 713:Drivers/STM32WLxx_HAL_Driver/Inc/stm32wlxx_ll_rcc.h ****   * @param  __PLLN__ Between Min_Data = 6 and Max_Data = 127
 714:Drivers/STM32WLxx_HAL_Driver/Inc/stm32wlxx_ll_rcc.h ****   * @param  __PLLP__ This parameter can be one of the following values:
 715:Drivers/STM32WLxx_HAL_Driver/Inc/stm32wlxx_ll_rcc.h ****   *         @arg @ref LL_RCC_PLLP_DIV_2
 716:Drivers/STM32WLxx_HAL_Driver/Inc/stm32wlxx_ll_rcc.h ****   *         @arg @ref LL_RCC_PLLP_DIV_3
 717:Drivers/STM32WLxx_HAL_Driver/Inc/stm32wlxx_ll_rcc.h ****   *         @arg @ref LL_RCC_PLLP_DIV_4
 718:Drivers/STM32WLxx_HAL_Driver/Inc/stm32wlxx_ll_rcc.h ****   *         @arg @ref LL_RCC_PLLP_DIV_5
 719:Drivers/STM32WLxx_HAL_Driver/Inc/stm32wlxx_ll_rcc.h ****   *         @arg @ref LL_RCC_PLLP_DIV_6
 720:Drivers/STM32WLxx_HAL_Driver/Inc/stm32wlxx_ll_rcc.h ****   *         @arg @ref LL_RCC_PLLP_DIV_7
 721:Drivers/STM32WLxx_HAL_Driver/Inc/stm32wlxx_ll_rcc.h ****   *         @arg @ref LL_RCC_PLLP_DIV_8
 722:Drivers/STM32WLxx_HAL_Driver/Inc/stm32wlxx_ll_rcc.h ****   *         @arg @ref LL_RCC_PLLP_DIV_9
 723:Drivers/STM32WLxx_HAL_Driver/Inc/stm32wlxx_ll_rcc.h ****   *         @arg @ref LL_RCC_PLLP_DIV_10
 724:Drivers/STM32WLxx_HAL_Driver/Inc/stm32wlxx_ll_rcc.h ****   *         @arg @ref LL_RCC_PLLP_DIV_11
 725:Drivers/STM32WLxx_HAL_Driver/Inc/stm32wlxx_ll_rcc.h ****   *         @arg @ref LL_RCC_PLLP_DIV_12
 726:Drivers/STM32WLxx_HAL_Driver/Inc/stm32wlxx_ll_rcc.h ****   *         @arg @ref LL_RCC_PLLP_DIV_13
 727:Drivers/STM32WLxx_HAL_Driver/Inc/stm32wlxx_ll_rcc.h ****   *         @arg @ref LL_RCC_PLLP_DIV_14
 728:Drivers/STM32WLxx_HAL_Driver/Inc/stm32wlxx_ll_rcc.h ****   *         @arg @ref LL_RCC_PLLP_DIV_15
 729:Drivers/STM32WLxx_HAL_Driver/Inc/stm32wlxx_ll_rcc.h ****   *         @arg @ref LL_RCC_PLLP_DIV_16
 730:Drivers/STM32WLxx_HAL_Driver/Inc/stm32wlxx_ll_rcc.h ****   *         @arg @ref LL_RCC_PLLP_DIV_17
 731:Drivers/STM32WLxx_HAL_Driver/Inc/stm32wlxx_ll_rcc.h ****   *         @arg @ref LL_RCC_PLLP_DIV_18
 732:Drivers/STM32WLxx_HAL_Driver/Inc/stm32wlxx_ll_rcc.h ****   *         @arg @ref LL_RCC_PLLP_DIV_19
 733:Drivers/STM32WLxx_HAL_Driver/Inc/stm32wlxx_ll_rcc.h ****   *         @arg @ref LL_RCC_PLLP_DIV_20
 734:Drivers/STM32WLxx_HAL_Driver/Inc/stm32wlxx_ll_rcc.h ****   *         @arg @ref LL_RCC_PLLP_DIV_21
 735:Drivers/STM32WLxx_HAL_Driver/Inc/stm32wlxx_ll_rcc.h ****   *         @arg @ref LL_RCC_PLLP_DIV_22
 736:Drivers/STM32WLxx_HAL_Driver/Inc/stm32wlxx_ll_rcc.h ****   *         @arg @ref LL_RCC_PLLP_DIV_23
 737:Drivers/STM32WLxx_HAL_Driver/Inc/stm32wlxx_ll_rcc.h ****   *         @arg @ref LL_RCC_PLLP_DIV_24
 738:Drivers/STM32WLxx_HAL_Driver/Inc/stm32wlxx_ll_rcc.h ****   *         @arg @ref LL_RCC_PLLP_DIV_25
 739:Drivers/STM32WLxx_HAL_Driver/Inc/stm32wlxx_ll_rcc.h ****   *         @arg @ref LL_RCC_PLLP_DIV_26
 740:Drivers/STM32WLxx_HAL_Driver/Inc/stm32wlxx_ll_rcc.h ****   *         @arg @ref LL_RCC_PLLP_DIV_27
 741:Drivers/STM32WLxx_HAL_Driver/Inc/stm32wlxx_ll_rcc.h ****   *         @arg @ref LL_RCC_PLLP_DIV_28
 742:Drivers/STM32WLxx_HAL_Driver/Inc/stm32wlxx_ll_rcc.h ****   *         @arg @ref LL_RCC_PLLP_DIV_29
 743:Drivers/STM32WLxx_HAL_Driver/Inc/stm32wlxx_ll_rcc.h ****   *         @arg @ref LL_RCC_PLLP_DIV_30
 744:Drivers/STM32WLxx_HAL_Driver/Inc/stm32wlxx_ll_rcc.h ****   *         @arg @ref LL_RCC_PLLP_DIV_31
 745:Drivers/STM32WLxx_HAL_Driver/Inc/stm32wlxx_ll_rcc.h ****   *         @arg @ref LL_RCC_PLLP_DIV_32
 746:Drivers/STM32WLxx_HAL_Driver/Inc/stm32wlxx_ll_rcc.h ****   * @retval PLL clock frequency (in Hz)
 747:Drivers/STM32WLxx_HAL_Driver/Inc/stm32wlxx_ll_rcc.h ****   */
ARM GAS  C:\Users\NATHAN~1\AppData\Local\Temp\cc6e4y2d.s 			page 22


 748:Drivers/STM32WLxx_HAL_Driver/Inc/stm32wlxx_ll_rcc.h **** #define __LL_RCC_CALC_PLLCLK_ADC_FREQ(__INPUTFREQ__, __PLLM__, __PLLN__, __PLLP__)  \
 749:Drivers/STM32WLxx_HAL_Driver/Inc/stm32wlxx_ll_rcc.h ****   ((__INPUTFREQ__) * (__PLLN__) / ((((__PLLM__)>> RCC_PLLCFGR_PLLM_Pos) + 1U)) / \
 750:Drivers/STM32WLxx_HAL_Driver/Inc/stm32wlxx_ll_rcc.h ****    (((__PLLP__) >> RCC_PLLCFGR_PLLP_Pos) + 1U))
 751:Drivers/STM32WLxx_HAL_Driver/Inc/stm32wlxx_ll_rcc.h **** 
 752:Drivers/STM32WLxx_HAL_Driver/Inc/stm32wlxx_ll_rcc.h **** /**
 753:Drivers/STM32WLxx_HAL_Driver/Inc/stm32wlxx_ll_rcc.h ****   * @brief  Helper macro to calculate the PLLQCLK frequency used on RNG domain
 754:Drivers/STM32WLxx_HAL_Driver/Inc/stm32wlxx_ll_rcc.h ****   * @note ex: @ref __LL_RCC_CALC_PLLCLK_RNG_FREQ (HSE_VALUE,@ref LL_RCC_PLL_GetDivider (),
 755:Drivers/STM32WLxx_HAL_Driver/Inc/stm32wlxx_ll_rcc.h ****   *             @ref LL_RCC_PLL_GetN (), @ref LL_RCC_PLL_GetQ ());
 756:Drivers/STM32WLxx_HAL_Driver/Inc/stm32wlxx_ll_rcc.h ****   * @param  __INPUTFREQ__ PLL Input frequency (based on MSI/HSE/HSI)
 757:Drivers/STM32WLxx_HAL_Driver/Inc/stm32wlxx_ll_rcc.h ****   * @param  __PLLM__ This parameter can be one of the following values:
 758:Drivers/STM32WLxx_HAL_Driver/Inc/stm32wlxx_ll_rcc.h ****   *         @arg @ref LL_RCC_PLLM_DIV_1
 759:Drivers/STM32WLxx_HAL_Driver/Inc/stm32wlxx_ll_rcc.h ****   *         @arg @ref LL_RCC_PLLM_DIV_2
 760:Drivers/STM32WLxx_HAL_Driver/Inc/stm32wlxx_ll_rcc.h ****   *         @arg @ref LL_RCC_PLLM_DIV_3
 761:Drivers/STM32WLxx_HAL_Driver/Inc/stm32wlxx_ll_rcc.h ****   *         @arg @ref LL_RCC_PLLM_DIV_4
 762:Drivers/STM32WLxx_HAL_Driver/Inc/stm32wlxx_ll_rcc.h ****   *         @arg @ref LL_RCC_PLLM_DIV_5
 763:Drivers/STM32WLxx_HAL_Driver/Inc/stm32wlxx_ll_rcc.h ****   *         @arg @ref LL_RCC_PLLM_DIV_6
 764:Drivers/STM32WLxx_HAL_Driver/Inc/stm32wlxx_ll_rcc.h ****   *         @arg @ref LL_RCC_PLLM_DIV_7
 765:Drivers/STM32WLxx_HAL_Driver/Inc/stm32wlxx_ll_rcc.h ****   *         @arg @ref LL_RCC_PLLM_DIV_8
 766:Drivers/STM32WLxx_HAL_Driver/Inc/stm32wlxx_ll_rcc.h ****   * @param  __PLLN__ Between Min_Data = 6 and Max_Data = 127
 767:Drivers/STM32WLxx_HAL_Driver/Inc/stm32wlxx_ll_rcc.h ****   * @param  __PLLQ__ This parameter can be one of the following values:
 768:Drivers/STM32WLxx_HAL_Driver/Inc/stm32wlxx_ll_rcc.h ****   *         @arg @ref LL_RCC_PLLQ_DIV_2
 769:Drivers/STM32WLxx_HAL_Driver/Inc/stm32wlxx_ll_rcc.h ****   *         @arg @ref LL_RCC_PLLQ_DIV_3
 770:Drivers/STM32WLxx_HAL_Driver/Inc/stm32wlxx_ll_rcc.h ****   *         @arg @ref LL_RCC_PLLQ_DIV_4
 771:Drivers/STM32WLxx_HAL_Driver/Inc/stm32wlxx_ll_rcc.h ****   *         @arg @ref LL_RCC_PLLQ_DIV_5
 772:Drivers/STM32WLxx_HAL_Driver/Inc/stm32wlxx_ll_rcc.h ****   *         @arg @ref LL_RCC_PLLQ_DIV_6
 773:Drivers/STM32WLxx_HAL_Driver/Inc/stm32wlxx_ll_rcc.h ****   *         @arg @ref LL_RCC_PLLQ_DIV_7
 774:Drivers/STM32WLxx_HAL_Driver/Inc/stm32wlxx_ll_rcc.h ****   *         @arg @ref LL_RCC_PLLQ_DIV_8
 775:Drivers/STM32WLxx_HAL_Driver/Inc/stm32wlxx_ll_rcc.h ****   * @retval PLL clock frequency (in Hz)
 776:Drivers/STM32WLxx_HAL_Driver/Inc/stm32wlxx_ll_rcc.h ****   */
 777:Drivers/STM32WLxx_HAL_Driver/Inc/stm32wlxx_ll_rcc.h **** #define __LL_RCC_CALC_PLLCLK_RNG_FREQ(__INPUTFREQ__, __PLLM__, __PLLN__, __PLLQ__)  \
 778:Drivers/STM32WLxx_HAL_Driver/Inc/stm32wlxx_ll_rcc.h ****   ((__INPUTFREQ__) * (__PLLN__) / ((((__PLLM__)>> RCC_PLLCFGR_PLLM_Pos) + 1U)) / \
 779:Drivers/STM32WLxx_HAL_Driver/Inc/stm32wlxx_ll_rcc.h ****    (((__PLLQ__) >> RCC_PLLCFGR_PLLQ_Pos) + 1U))
 780:Drivers/STM32WLxx_HAL_Driver/Inc/stm32wlxx_ll_rcc.h **** 
 781:Drivers/STM32WLxx_HAL_Driver/Inc/stm32wlxx_ll_rcc.h **** /**
 782:Drivers/STM32WLxx_HAL_Driver/Inc/stm32wlxx_ll_rcc.h ****   * @brief  Helper macro to calculate the PLLQCLK frequency used on I2S domain
 783:Drivers/STM32WLxx_HAL_Driver/Inc/stm32wlxx_ll_rcc.h ****   * @note ex: @ref __LL_RCC_CALC_PLLCLK_I2S2_FREQ (HSE_VALUE,@ref LL_RCC_PLL_GetDivider (),
 784:Drivers/STM32WLxx_HAL_Driver/Inc/stm32wlxx_ll_rcc.h ****   *             @ref LL_RCC_PLL_GetN (), @ref LL_RCC_PLL_GetQ ());
 785:Drivers/STM32WLxx_HAL_Driver/Inc/stm32wlxx_ll_rcc.h ****   * @param  __INPUTFREQ__ PLL Input frequency (based on MSI/HSE/HSI)
 786:Drivers/STM32WLxx_HAL_Driver/Inc/stm32wlxx_ll_rcc.h ****   * @param  __PLLM__ This parameter can be one of the following values:
 787:Drivers/STM32WLxx_HAL_Driver/Inc/stm32wlxx_ll_rcc.h ****   *         @arg @ref LL_RCC_PLLM_DIV_1
 788:Drivers/STM32WLxx_HAL_Driver/Inc/stm32wlxx_ll_rcc.h ****   *         @arg @ref LL_RCC_PLLM_DIV_2
 789:Drivers/STM32WLxx_HAL_Driver/Inc/stm32wlxx_ll_rcc.h ****   *         @arg @ref LL_RCC_PLLM_DIV_3
 790:Drivers/STM32WLxx_HAL_Driver/Inc/stm32wlxx_ll_rcc.h ****   *         @arg @ref LL_RCC_PLLM_DIV_4
 791:Drivers/STM32WLxx_HAL_Driver/Inc/stm32wlxx_ll_rcc.h ****   *         @arg @ref LL_RCC_PLLM_DIV_5
 792:Drivers/STM32WLxx_HAL_Driver/Inc/stm32wlxx_ll_rcc.h ****   *         @arg @ref LL_RCC_PLLM_DIV_6
 793:Drivers/STM32WLxx_HAL_Driver/Inc/stm32wlxx_ll_rcc.h ****   *         @arg @ref LL_RCC_PLLM_DIV_7
 794:Drivers/STM32WLxx_HAL_Driver/Inc/stm32wlxx_ll_rcc.h ****   *         @arg @ref LL_RCC_PLLM_DIV_8
 795:Drivers/STM32WLxx_HAL_Driver/Inc/stm32wlxx_ll_rcc.h ****   * @param  __PLLN__ Between Min_Data = 6 and Max_Data = 127
 796:Drivers/STM32WLxx_HAL_Driver/Inc/stm32wlxx_ll_rcc.h ****   * @param  __PLLQ__ This parameter can be one of the following values:
 797:Drivers/STM32WLxx_HAL_Driver/Inc/stm32wlxx_ll_rcc.h ****   *         @arg @ref LL_RCC_PLLQ_DIV_2
 798:Drivers/STM32WLxx_HAL_Driver/Inc/stm32wlxx_ll_rcc.h ****   *         @arg @ref LL_RCC_PLLQ_DIV_3
 799:Drivers/STM32WLxx_HAL_Driver/Inc/stm32wlxx_ll_rcc.h ****   *         @arg @ref LL_RCC_PLLQ_DIV_4
 800:Drivers/STM32WLxx_HAL_Driver/Inc/stm32wlxx_ll_rcc.h ****   *         @arg @ref LL_RCC_PLLQ_DIV_5
 801:Drivers/STM32WLxx_HAL_Driver/Inc/stm32wlxx_ll_rcc.h ****   *         @arg @ref LL_RCC_PLLQ_DIV_6
 802:Drivers/STM32WLxx_HAL_Driver/Inc/stm32wlxx_ll_rcc.h ****   *         @arg @ref LL_RCC_PLLQ_DIV_7
 803:Drivers/STM32WLxx_HAL_Driver/Inc/stm32wlxx_ll_rcc.h ****   *         @arg @ref LL_RCC_PLLQ_DIV_8
 804:Drivers/STM32WLxx_HAL_Driver/Inc/stm32wlxx_ll_rcc.h ****   * @retval PLL clock frequency (in Hz)
ARM GAS  C:\Users\NATHAN~1\AppData\Local\Temp\cc6e4y2d.s 			page 23


 805:Drivers/STM32WLxx_HAL_Driver/Inc/stm32wlxx_ll_rcc.h ****   */
 806:Drivers/STM32WLxx_HAL_Driver/Inc/stm32wlxx_ll_rcc.h **** #define __LL_RCC_CALC_PLLCLK_I2S2_FREQ __LL_RCC_CALC_PLLCLK_RNG_FREQ
 807:Drivers/STM32WLxx_HAL_Driver/Inc/stm32wlxx_ll_rcc.h **** 
 808:Drivers/STM32WLxx_HAL_Driver/Inc/stm32wlxx_ll_rcc.h **** /**
 809:Drivers/STM32WLxx_HAL_Driver/Inc/stm32wlxx_ll_rcc.h ****   * @brief  Helper macro to calculate the HCLK1 frequency
 810:Drivers/STM32WLxx_HAL_Driver/Inc/stm32wlxx_ll_rcc.h ****   * @param  __SYSCLKFREQ__ SYSCLK frequency (based on MSI/HSE/HSI/PLLCLK)
 811:Drivers/STM32WLxx_HAL_Driver/Inc/stm32wlxx_ll_rcc.h ****   * @param  __CPU1PRESCALER__ This parameter can be one of the following values:
 812:Drivers/STM32WLxx_HAL_Driver/Inc/stm32wlxx_ll_rcc.h ****   *         @arg @ref LL_RCC_SYSCLK_DIV_1
 813:Drivers/STM32WLxx_HAL_Driver/Inc/stm32wlxx_ll_rcc.h ****   *         @arg @ref LL_RCC_SYSCLK_DIV_2
 814:Drivers/STM32WLxx_HAL_Driver/Inc/stm32wlxx_ll_rcc.h ****   *         @arg @ref LL_RCC_SYSCLK_DIV_3
 815:Drivers/STM32WLxx_HAL_Driver/Inc/stm32wlxx_ll_rcc.h ****   *         @arg @ref LL_RCC_SYSCLK_DIV_4
 816:Drivers/STM32WLxx_HAL_Driver/Inc/stm32wlxx_ll_rcc.h ****   *         @arg @ref LL_RCC_SYSCLK_DIV_5
 817:Drivers/STM32WLxx_HAL_Driver/Inc/stm32wlxx_ll_rcc.h ****   *         @arg @ref LL_RCC_SYSCLK_DIV_6
 818:Drivers/STM32WLxx_HAL_Driver/Inc/stm32wlxx_ll_rcc.h ****   *         @arg @ref LL_RCC_SYSCLK_DIV_8
 819:Drivers/STM32WLxx_HAL_Driver/Inc/stm32wlxx_ll_rcc.h ****   *         @arg @ref LL_RCC_SYSCLK_DIV_10
 820:Drivers/STM32WLxx_HAL_Driver/Inc/stm32wlxx_ll_rcc.h ****   *         @arg @ref LL_RCC_SYSCLK_DIV_16
 821:Drivers/STM32WLxx_HAL_Driver/Inc/stm32wlxx_ll_rcc.h ****   *         @arg @ref LL_RCC_SYSCLK_DIV_32
 822:Drivers/STM32WLxx_HAL_Driver/Inc/stm32wlxx_ll_rcc.h ****   *         @arg @ref LL_RCC_SYSCLK_DIV_64
 823:Drivers/STM32WLxx_HAL_Driver/Inc/stm32wlxx_ll_rcc.h ****   *         @arg @ref LL_RCC_SYSCLK_DIV_128
 824:Drivers/STM32WLxx_HAL_Driver/Inc/stm32wlxx_ll_rcc.h ****   *         @arg @ref LL_RCC_SYSCLK_DIV_256
 825:Drivers/STM32WLxx_HAL_Driver/Inc/stm32wlxx_ll_rcc.h ****   *         @arg @ref LL_RCC_SYSCLK_DIV_512
 826:Drivers/STM32WLxx_HAL_Driver/Inc/stm32wlxx_ll_rcc.h ****   * @retval HCLK1 clock frequency (in Hz)
 827:Drivers/STM32WLxx_HAL_Driver/Inc/stm32wlxx_ll_rcc.h ****   */
 828:Drivers/STM32WLxx_HAL_Driver/Inc/stm32wlxx_ll_rcc.h **** #define __LL_RCC_CALC_HCLK1_FREQ(__SYSCLKFREQ__,__CPU1PRESCALER__)  \
 829:Drivers/STM32WLxx_HAL_Driver/Inc/stm32wlxx_ll_rcc.h ****   ((__SYSCLKFREQ__) / AHBPrescTable[((__CPU1PRESCALER__) & RCC_CFGR_HPRE) >>  RCC_CFGR_HPRE_Pos])
 830:Drivers/STM32WLxx_HAL_Driver/Inc/stm32wlxx_ll_rcc.h **** 
 831:Drivers/STM32WLxx_HAL_Driver/Inc/stm32wlxx_ll_rcc.h **** #if defined(DUAL_CORE)
 832:Drivers/STM32WLxx_HAL_Driver/Inc/stm32wlxx_ll_rcc.h **** /**
 833:Drivers/STM32WLxx_HAL_Driver/Inc/stm32wlxx_ll_rcc.h ****   * @brief  Helper macro to calculate the HCLK2 frequency
 834:Drivers/STM32WLxx_HAL_Driver/Inc/stm32wlxx_ll_rcc.h ****   * @param  __SYSCLKFREQ__ SYSCLK frequency (based on MSI/HSE/HSI/PLLCLK)
 835:Drivers/STM32WLxx_HAL_Driver/Inc/stm32wlxx_ll_rcc.h ****   * @param  __CPU2PRESCALER__ This parameter can be one of the following values:
 836:Drivers/STM32WLxx_HAL_Driver/Inc/stm32wlxx_ll_rcc.h ****   *         @arg @ref LL_RCC_SYSCLK_DIV_1
 837:Drivers/STM32WLxx_HAL_Driver/Inc/stm32wlxx_ll_rcc.h ****   *         @arg @ref LL_RCC_SYSCLK_DIV_2
 838:Drivers/STM32WLxx_HAL_Driver/Inc/stm32wlxx_ll_rcc.h ****   *         @arg @ref LL_RCC_SYSCLK_DIV_3
 839:Drivers/STM32WLxx_HAL_Driver/Inc/stm32wlxx_ll_rcc.h ****   *         @arg @ref LL_RCC_SYSCLK_DIV_4
 840:Drivers/STM32WLxx_HAL_Driver/Inc/stm32wlxx_ll_rcc.h ****   *         @arg @ref LL_RCC_SYSCLK_DIV_5
 841:Drivers/STM32WLxx_HAL_Driver/Inc/stm32wlxx_ll_rcc.h ****   *         @arg @ref LL_RCC_SYSCLK_DIV_6
 842:Drivers/STM32WLxx_HAL_Driver/Inc/stm32wlxx_ll_rcc.h ****   *         @arg @ref LL_RCC_SYSCLK_DIV_8
 843:Drivers/STM32WLxx_HAL_Driver/Inc/stm32wlxx_ll_rcc.h ****   *         @arg @ref LL_RCC_SYSCLK_DIV_10
 844:Drivers/STM32WLxx_HAL_Driver/Inc/stm32wlxx_ll_rcc.h ****   *         @arg @ref LL_RCC_SYSCLK_DIV_16
 845:Drivers/STM32WLxx_HAL_Driver/Inc/stm32wlxx_ll_rcc.h ****   *         @arg @ref LL_RCC_SYSCLK_DIV_32
 846:Drivers/STM32WLxx_HAL_Driver/Inc/stm32wlxx_ll_rcc.h ****   *         @arg @ref LL_RCC_SYSCLK_DIV_64
 847:Drivers/STM32WLxx_HAL_Driver/Inc/stm32wlxx_ll_rcc.h ****   *         @arg @ref LL_RCC_SYSCLK_DIV_128
 848:Drivers/STM32WLxx_HAL_Driver/Inc/stm32wlxx_ll_rcc.h ****   *         @arg @ref LL_RCC_SYSCLK_DIV_256
 849:Drivers/STM32WLxx_HAL_Driver/Inc/stm32wlxx_ll_rcc.h ****   *         @arg @ref LL_RCC_SYSCLK_DIV_512
 850:Drivers/STM32WLxx_HAL_Driver/Inc/stm32wlxx_ll_rcc.h ****   * @retval HCLK2 clock frequency (in Hz)
 851:Drivers/STM32WLxx_HAL_Driver/Inc/stm32wlxx_ll_rcc.h ****   */
 852:Drivers/STM32WLxx_HAL_Driver/Inc/stm32wlxx_ll_rcc.h **** #define __LL_RCC_CALC_HCLK2_FREQ(__SYSCLKFREQ__, __CPU2PRESCALER__)  \
 853:Drivers/STM32WLxx_HAL_Driver/Inc/stm32wlxx_ll_rcc.h ****   ((__SYSCLKFREQ__) / AHBPrescTable[((__CPU2PRESCALER__) &  RCC_EXTCFGR_C2HPRE) >>  RCC_EXTCFGR_C2H
 854:Drivers/STM32WLxx_HAL_Driver/Inc/stm32wlxx_ll_rcc.h **** #endif  /* DUAL_CORE */
 855:Drivers/STM32WLxx_HAL_Driver/Inc/stm32wlxx_ll_rcc.h **** 
 856:Drivers/STM32WLxx_HAL_Driver/Inc/stm32wlxx_ll_rcc.h **** /**
 857:Drivers/STM32WLxx_HAL_Driver/Inc/stm32wlxx_ll_rcc.h ****   * @brief  Helper macro to calculate the HCLK3 frequency
 858:Drivers/STM32WLxx_HAL_Driver/Inc/stm32wlxx_ll_rcc.h ****   * @param  __SYSCLKFREQ__ SYSCLK frequency (based on MSI/HSE/HSI/PLLCLK)
 859:Drivers/STM32WLxx_HAL_Driver/Inc/stm32wlxx_ll_rcc.h ****   * @param  __AHB3PRESCALER__ This parameter can be one of the following values:
 860:Drivers/STM32WLxx_HAL_Driver/Inc/stm32wlxx_ll_rcc.h ****   *         @arg @ref LL_RCC_SYSCLK_DIV_1
 861:Drivers/STM32WLxx_HAL_Driver/Inc/stm32wlxx_ll_rcc.h ****   *         @arg @ref LL_RCC_SYSCLK_DIV_2
ARM GAS  C:\Users\NATHAN~1\AppData\Local\Temp\cc6e4y2d.s 			page 24


 862:Drivers/STM32WLxx_HAL_Driver/Inc/stm32wlxx_ll_rcc.h ****   *         @arg @ref LL_RCC_SYSCLK_DIV_3
 863:Drivers/STM32WLxx_HAL_Driver/Inc/stm32wlxx_ll_rcc.h ****   *         @arg @ref LL_RCC_SYSCLK_DIV_4
 864:Drivers/STM32WLxx_HAL_Driver/Inc/stm32wlxx_ll_rcc.h ****   *         @arg @ref LL_RCC_SYSCLK_DIV_5
 865:Drivers/STM32WLxx_HAL_Driver/Inc/stm32wlxx_ll_rcc.h ****   *         @arg @ref LL_RCC_SYSCLK_DIV_6
 866:Drivers/STM32WLxx_HAL_Driver/Inc/stm32wlxx_ll_rcc.h ****   *         @arg @ref LL_RCC_SYSCLK_DIV_8
 867:Drivers/STM32WLxx_HAL_Driver/Inc/stm32wlxx_ll_rcc.h ****   *         @arg @ref LL_RCC_SYSCLK_DIV_10
 868:Drivers/STM32WLxx_HAL_Driver/Inc/stm32wlxx_ll_rcc.h ****   *         @arg @ref LL_RCC_SYSCLK_DIV_16
 869:Drivers/STM32WLxx_HAL_Driver/Inc/stm32wlxx_ll_rcc.h ****   *         @arg @ref LL_RCC_SYSCLK_DIV_32
 870:Drivers/STM32WLxx_HAL_Driver/Inc/stm32wlxx_ll_rcc.h ****   *         @arg @ref LL_RCC_SYSCLK_DIV_64
 871:Drivers/STM32WLxx_HAL_Driver/Inc/stm32wlxx_ll_rcc.h ****   *         @arg @ref LL_RCC_SYSCLK_DIV_128
 872:Drivers/STM32WLxx_HAL_Driver/Inc/stm32wlxx_ll_rcc.h ****   *         @arg @ref LL_RCC_SYSCLK_DIV_256
 873:Drivers/STM32WLxx_HAL_Driver/Inc/stm32wlxx_ll_rcc.h ****   *         @arg @ref LL_RCC_SYSCLK_DIV_512
 874:Drivers/STM32WLxx_HAL_Driver/Inc/stm32wlxx_ll_rcc.h ****   * @retval HCLK3 clock frequency (in Hz)
 875:Drivers/STM32WLxx_HAL_Driver/Inc/stm32wlxx_ll_rcc.h ****   */
 876:Drivers/STM32WLxx_HAL_Driver/Inc/stm32wlxx_ll_rcc.h **** #define __LL_RCC_CALC_HCLK3_FREQ(__SYSCLKFREQ__, __AHB3PRESCALER__)  \
 877:Drivers/STM32WLxx_HAL_Driver/Inc/stm32wlxx_ll_rcc.h ****   ((__SYSCLKFREQ__) / AHBPrescTable[(((__AHB3PRESCALER__) >> 4U) & RCC_EXTCFGR_SHDHPRE) >>  RCC_EXT
 878:Drivers/STM32WLxx_HAL_Driver/Inc/stm32wlxx_ll_rcc.h **** 
 879:Drivers/STM32WLxx_HAL_Driver/Inc/stm32wlxx_ll_rcc.h **** 
 880:Drivers/STM32WLxx_HAL_Driver/Inc/stm32wlxx_ll_rcc.h **** /**
 881:Drivers/STM32WLxx_HAL_Driver/Inc/stm32wlxx_ll_rcc.h ****   * @brief  Helper macro to calculate the PCLK1 frequency (ABP1)
 882:Drivers/STM32WLxx_HAL_Driver/Inc/stm32wlxx_ll_rcc.h ****   * @param  __HCLKFREQ__ HCLK frequency
 883:Drivers/STM32WLxx_HAL_Driver/Inc/stm32wlxx_ll_rcc.h ****   * @param  __APB1PRESCALER__ This parameter can be one of the following values:
 884:Drivers/STM32WLxx_HAL_Driver/Inc/stm32wlxx_ll_rcc.h ****   *         @arg @ref LL_RCC_APB1_DIV_1
 885:Drivers/STM32WLxx_HAL_Driver/Inc/stm32wlxx_ll_rcc.h ****   *         @arg @ref LL_RCC_APB1_DIV_2
 886:Drivers/STM32WLxx_HAL_Driver/Inc/stm32wlxx_ll_rcc.h ****   *         @arg @ref LL_RCC_APB1_DIV_4
 887:Drivers/STM32WLxx_HAL_Driver/Inc/stm32wlxx_ll_rcc.h ****   *         @arg @ref LL_RCC_APB1_DIV_8
 888:Drivers/STM32WLxx_HAL_Driver/Inc/stm32wlxx_ll_rcc.h ****   *         @arg @ref LL_RCC_APB1_DIV_16
 889:Drivers/STM32WLxx_HAL_Driver/Inc/stm32wlxx_ll_rcc.h ****   * @retval PCLK1 clock frequency (in Hz)
 890:Drivers/STM32WLxx_HAL_Driver/Inc/stm32wlxx_ll_rcc.h ****   */
 891:Drivers/STM32WLxx_HAL_Driver/Inc/stm32wlxx_ll_rcc.h **** #define __LL_RCC_CALC_PCLK1_FREQ(__HCLKFREQ__, __APB1PRESCALER__)  \
 892:Drivers/STM32WLxx_HAL_Driver/Inc/stm32wlxx_ll_rcc.h ****   ((__HCLKFREQ__) >> APBPrescTable[(__APB1PRESCALER__) >>  RCC_CFGR_PPRE1_Pos])
 893:Drivers/STM32WLxx_HAL_Driver/Inc/stm32wlxx_ll_rcc.h **** 
 894:Drivers/STM32WLxx_HAL_Driver/Inc/stm32wlxx_ll_rcc.h **** /**
 895:Drivers/STM32WLxx_HAL_Driver/Inc/stm32wlxx_ll_rcc.h ****   * @brief  Helper macro to calculate the PCLK2 frequency (ABP2)
 896:Drivers/STM32WLxx_HAL_Driver/Inc/stm32wlxx_ll_rcc.h ****   * @param  __HCLKFREQ__ HCLK frequency
 897:Drivers/STM32WLxx_HAL_Driver/Inc/stm32wlxx_ll_rcc.h ****   * @param  __APB2PRESCALER__ This parameter can be one of the following values:
 898:Drivers/STM32WLxx_HAL_Driver/Inc/stm32wlxx_ll_rcc.h ****   *         @arg @ref LL_RCC_APB2_DIV_1
 899:Drivers/STM32WLxx_HAL_Driver/Inc/stm32wlxx_ll_rcc.h ****   *         @arg @ref LL_RCC_APB2_DIV_2
 900:Drivers/STM32WLxx_HAL_Driver/Inc/stm32wlxx_ll_rcc.h ****   *         @arg @ref LL_RCC_APB2_DIV_4
 901:Drivers/STM32WLxx_HAL_Driver/Inc/stm32wlxx_ll_rcc.h ****   *         @arg @ref LL_RCC_APB2_DIV_8
 902:Drivers/STM32WLxx_HAL_Driver/Inc/stm32wlxx_ll_rcc.h ****   *         @arg @ref LL_RCC_APB2_DIV_16
 903:Drivers/STM32WLxx_HAL_Driver/Inc/stm32wlxx_ll_rcc.h ****   * @retval PCLK2 clock frequency (in Hz)
 904:Drivers/STM32WLxx_HAL_Driver/Inc/stm32wlxx_ll_rcc.h ****   */
 905:Drivers/STM32WLxx_HAL_Driver/Inc/stm32wlxx_ll_rcc.h **** #define __LL_RCC_CALC_PCLK2_FREQ(__HCLKFREQ__, __APB2PRESCALER__)  \
 906:Drivers/STM32WLxx_HAL_Driver/Inc/stm32wlxx_ll_rcc.h ****   ((__HCLKFREQ__) >> APBPrescTable[(__APB2PRESCALER__) >>  RCC_CFGR_PPRE2_Pos])
 907:Drivers/STM32WLxx_HAL_Driver/Inc/stm32wlxx_ll_rcc.h **** 
 908:Drivers/STM32WLxx_HAL_Driver/Inc/stm32wlxx_ll_rcc.h **** /**
 909:Drivers/STM32WLxx_HAL_Driver/Inc/stm32wlxx_ll_rcc.h ****   * @brief  Helper macro to calculate the MSI frequency (in Hz)
 910:Drivers/STM32WLxx_HAL_Driver/Inc/stm32wlxx_ll_rcc.h ****   * @note __MSISEL__ can be retrieved thanks to function LL_RCC_MSI_IsEnabledRangeSelect()
 911:Drivers/STM32WLxx_HAL_Driver/Inc/stm32wlxx_ll_rcc.h ****   * @note if __MSISEL__ is equal to LL_RCC_MSIRANGESEL_STANDBY,
 912:Drivers/STM32WLxx_HAL_Driver/Inc/stm32wlxx_ll_rcc.h ****   *        __MSIRANGE__can be retrieved by LL_RCC_MSI_GetRangeAfterStandby()
 913:Drivers/STM32WLxx_HAL_Driver/Inc/stm32wlxx_ll_rcc.h ****   *        else by LL_RCC_MSI_GetRange()
 914:Drivers/STM32WLxx_HAL_Driver/Inc/stm32wlxx_ll_rcc.h ****   *        ex: __LL_RCC_CALC_MSI_FREQ(LL_RCC_MSI_IsEnabledRangeSelect(),
 915:Drivers/STM32WLxx_HAL_Driver/Inc/stm32wlxx_ll_rcc.h ****   *              (LL_RCC_MSI_IsEnabledRangeSelect()?
 916:Drivers/STM32WLxx_HAL_Driver/Inc/stm32wlxx_ll_rcc.h ****   *               LL_RCC_MSI_GetRange():
 917:Drivers/STM32WLxx_HAL_Driver/Inc/stm32wlxx_ll_rcc.h ****   *               LL_RCC_MSI_GetRangeAfterStandby()))
 918:Drivers/STM32WLxx_HAL_Driver/Inc/stm32wlxx_ll_rcc.h ****   * @param  __MSISEL__ This parameter can be one of the following values:
ARM GAS  C:\Users\NATHAN~1\AppData\Local\Temp\cc6e4y2d.s 			page 25


 919:Drivers/STM32WLxx_HAL_Driver/Inc/stm32wlxx_ll_rcc.h ****   *         @arg @ref LL_RCC_MSIRANGESEL_STANDBY
 920:Drivers/STM32WLxx_HAL_Driver/Inc/stm32wlxx_ll_rcc.h ****   *         @arg @ref LL_RCC_MSIRANGESEL_RUN
 921:Drivers/STM32WLxx_HAL_Driver/Inc/stm32wlxx_ll_rcc.h ****   * @param  __MSIRANGE__ This parameter can be one of the following values:
 922:Drivers/STM32WLxx_HAL_Driver/Inc/stm32wlxx_ll_rcc.h ****   *         @arg @ref LL_RCC_MSIRANGE_0
 923:Drivers/STM32WLxx_HAL_Driver/Inc/stm32wlxx_ll_rcc.h ****   *         @arg @ref LL_RCC_MSIRANGE_1
 924:Drivers/STM32WLxx_HAL_Driver/Inc/stm32wlxx_ll_rcc.h ****   *         @arg @ref LL_RCC_MSIRANGE_2
 925:Drivers/STM32WLxx_HAL_Driver/Inc/stm32wlxx_ll_rcc.h ****   *         @arg @ref LL_RCC_MSIRANGE_3
 926:Drivers/STM32WLxx_HAL_Driver/Inc/stm32wlxx_ll_rcc.h ****   *         @arg @ref LL_RCC_MSIRANGE_4
 927:Drivers/STM32WLxx_HAL_Driver/Inc/stm32wlxx_ll_rcc.h ****   *         @arg @ref LL_RCC_MSIRANGE_5
 928:Drivers/STM32WLxx_HAL_Driver/Inc/stm32wlxx_ll_rcc.h ****   *         @arg @ref LL_RCC_MSIRANGE_6
 929:Drivers/STM32WLxx_HAL_Driver/Inc/stm32wlxx_ll_rcc.h ****   *         @arg @ref LL_RCC_MSIRANGE_7
 930:Drivers/STM32WLxx_HAL_Driver/Inc/stm32wlxx_ll_rcc.h ****   *         @arg @ref LL_RCC_MSIRANGE_8
 931:Drivers/STM32WLxx_HAL_Driver/Inc/stm32wlxx_ll_rcc.h ****   *         @arg @ref LL_RCC_MSIRANGE_9
 932:Drivers/STM32WLxx_HAL_Driver/Inc/stm32wlxx_ll_rcc.h ****   *         @arg @ref LL_RCC_MSIRANGE_10
 933:Drivers/STM32WLxx_HAL_Driver/Inc/stm32wlxx_ll_rcc.h ****   *         @arg @ref LL_RCC_MSIRANGE_11
 934:Drivers/STM32WLxx_HAL_Driver/Inc/stm32wlxx_ll_rcc.h ****   *         @arg @ref LL_RCC_MSISRANGE_4
 935:Drivers/STM32WLxx_HAL_Driver/Inc/stm32wlxx_ll_rcc.h ****   *         @arg @ref LL_RCC_MSISRANGE_5
 936:Drivers/STM32WLxx_HAL_Driver/Inc/stm32wlxx_ll_rcc.h ****   *         @arg @ref LL_RCC_MSISRANGE_6
 937:Drivers/STM32WLxx_HAL_Driver/Inc/stm32wlxx_ll_rcc.h ****   *         @arg @ref LL_RCC_MSISRANGE_7
 938:Drivers/STM32WLxx_HAL_Driver/Inc/stm32wlxx_ll_rcc.h ****   * @retval MSI clock frequency (in Hz)
 939:Drivers/STM32WLxx_HAL_Driver/Inc/stm32wlxx_ll_rcc.h ****   */
 940:Drivers/STM32WLxx_HAL_Driver/Inc/stm32wlxx_ll_rcc.h **** #define __LL_RCC_CALC_MSI_FREQ(__MSISEL__, __MSIRANGE__)    \
 941:Drivers/STM32WLxx_HAL_Driver/Inc/stm32wlxx_ll_rcc.h ****   (((__MSISEL__) == LL_RCC_MSIRANGESEL_STANDBY) ? \
 942:Drivers/STM32WLxx_HAL_Driver/Inc/stm32wlxx_ll_rcc.h ****    (MSIRangeTable[((__MSIRANGE__) & RCC_CSR_MSISRANGE_Msk) >> RCC_CSR_MSISRANGE_Pos ]) : \
 943:Drivers/STM32WLxx_HAL_Driver/Inc/stm32wlxx_ll_rcc.h ****    (MSIRangeTable[((__MSIRANGE__) & RCC_CR_MSIRANGE_Msk) >> RCC_CR_MSIRANGE_Pos]))
 944:Drivers/STM32WLxx_HAL_Driver/Inc/stm32wlxx_ll_rcc.h **** 
 945:Drivers/STM32WLxx_HAL_Driver/Inc/stm32wlxx_ll_rcc.h **** /**
 946:Drivers/STM32WLxx_HAL_Driver/Inc/stm32wlxx_ll_rcc.h ****   * @}
 947:Drivers/STM32WLxx_HAL_Driver/Inc/stm32wlxx_ll_rcc.h ****   */
 948:Drivers/STM32WLxx_HAL_Driver/Inc/stm32wlxx_ll_rcc.h **** 
 949:Drivers/STM32WLxx_HAL_Driver/Inc/stm32wlxx_ll_rcc.h **** 
 950:Drivers/STM32WLxx_HAL_Driver/Inc/stm32wlxx_ll_rcc.h **** /**
 951:Drivers/STM32WLxx_HAL_Driver/Inc/stm32wlxx_ll_rcc.h ****   * @}
 952:Drivers/STM32WLxx_HAL_Driver/Inc/stm32wlxx_ll_rcc.h ****   */
 953:Drivers/STM32WLxx_HAL_Driver/Inc/stm32wlxx_ll_rcc.h **** 
 954:Drivers/STM32WLxx_HAL_Driver/Inc/stm32wlxx_ll_rcc.h **** /* Exported functions --------------------------------------------------------*/
 955:Drivers/STM32WLxx_HAL_Driver/Inc/stm32wlxx_ll_rcc.h **** /** @defgroup RCC_LL_Exported_Functions RCC Exported Functions
 956:Drivers/STM32WLxx_HAL_Driver/Inc/stm32wlxx_ll_rcc.h ****   * @{
 957:Drivers/STM32WLxx_HAL_Driver/Inc/stm32wlxx_ll_rcc.h ****   */
 958:Drivers/STM32WLxx_HAL_Driver/Inc/stm32wlxx_ll_rcc.h **** 
 959:Drivers/STM32WLxx_HAL_Driver/Inc/stm32wlxx_ll_rcc.h **** /** @defgroup RCC_LL_EF_HSE HSE
 960:Drivers/STM32WLxx_HAL_Driver/Inc/stm32wlxx_ll_rcc.h ****   * @{
 961:Drivers/STM32WLxx_HAL_Driver/Inc/stm32wlxx_ll_rcc.h ****   */
 962:Drivers/STM32WLxx_HAL_Driver/Inc/stm32wlxx_ll_rcc.h **** 
 963:Drivers/STM32WLxx_HAL_Driver/Inc/stm32wlxx_ll_rcc.h **** /**
 964:Drivers/STM32WLxx_HAL_Driver/Inc/stm32wlxx_ll_rcc.h ****   * @brief  Enable HSE VDDTCXO output on package pin PB0-VDDTCXO
 965:Drivers/STM32WLxx_HAL_Driver/Inc/stm32wlxx_ll_rcc.h ****   * @note PB0 must be configured in analog mode prior enabling VDDTCXO supply
 966:Drivers/STM32WLxx_HAL_Driver/Inc/stm32wlxx_ll_rcc.h ****   * @rmtoll CR           HSEBYPPWR        LL_RCC_HSE_EnableTcxo
 967:Drivers/STM32WLxx_HAL_Driver/Inc/stm32wlxx_ll_rcc.h ****   * @retval None
 968:Drivers/STM32WLxx_HAL_Driver/Inc/stm32wlxx_ll_rcc.h ****   */
 969:Drivers/STM32WLxx_HAL_Driver/Inc/stm32wlxx_ll_rcc.h **** __STATIC_INLINE void LL_RCC_HSE_EnableTcxo(void)
 970:Drivers/STM32WLxx_HAL_Driver/Inc/stm32wlxx_ll_rcc.h **** {
 971:Drivers/STM32WLxx_HAL_Driver/Inc/stm32wlxx_ll_rcc.h ****   SET_BIT(RCC->CR, RCC_CR_HSEBYPPWR);
 972:Drivers/STM32WLxx_HAL_Driver/Inc/stm32wlxx_ll_rcc.h **** }
 973:Drivers/STM32WLxx_HAL_Driver/Inc/stm32wlxx_ll_rcc.h **** 
 974:Drivers/STM32WLxx_HAL_Driver/Inc/stm32wlxx_ll_rcc.h **** /**
 975:Drivers/STM32WLxx_HAL_Driver/Inc/stm32wlxx_ll_rcc.h ****   * @brief  Disable HSE VDDTCXO output on package pin PB0-VDDTCXO
ARM GAS  C:\Users\NATHAN~1\AppData\Local\Temp\cc6e4y2d.s 			page 26


 976:Drivers/STM32WLxx_HAL_Driver/Inc/stm32wlxx_ll_rcc.h ****   * @rmtoll CR           HSEBYPPWR        LL_RCC_HSE_DisableTcxo
 977:Drivers/STM32WLxx_HAL_Driver/Inc/stm32wlxx_ll_rcc.h ****   * @retval None
 978:Drivers/STM32WLxx_HAL_Driver/Inc/stm32wlxx_ll_rcc.h ****   */
 979:Drivers/STM32WLxx_HAL_Driver/Inc/stm32wlxx_ll_rcc.h **** __STATIC_INLINE void LL_RCC_HSE_DisableTcxo(void)
 980:Drivers/STM32WLxx_HAL_Driver/Inc/stm32wlxx_ll_rcc.h **** {
 981:Drivers/STM32WLxx_HAL_Driver/Inc/stm32wlxx_ll_rcc.h ****   CLEAR_BIT(RCC->CR, RCC_CR_HSEBYPPWR);
 982:Drivers/STM32WLxx_HAL_Driver/Inc/stm32wlxx_ll_rcc.h **** }
 983:Drivers/STM32WLxx_HAL_Driver/Inc/stm32wlxx_ll_rcc.h **** 
 984:Drivers/STM32WLxx_HAL_Driver/Inc/stm32wlxx_ll_rcc.h **** /**
 985:Drivers/STM32WLxx_HAL_Driver/Inc/stm32wlxx_ll_rcc.h ****   * @brief  Get HSE VDDTCXO output on package pin PB0-VDDTCXO
 986:Drivers/STM32WLxx_HAL_Driver/Inc/stm32wlxx_ll_rcc.h ****   * @rmtoll CR           HSEBYPPWR        LL_RCC_HSE_IsEnabledTcxo
 987:Drivers/STM32WLxx_HAL_Driver/Inc/stm32wlxx_ll_rcc.h ****   * @retval None
 988:Drivers/STM32WLxx_HAL_Driver/Inc/stm32wlxx_ll_rcc.h ****   */
 989:Drivers/STM32WLxx_HAL_Driver/Inc/stm32wlxx_ll_rcc.h **** __STATIC_INLINE uint32_t LL_RCC_HSE_IsEnabledTcxo(void)
 990:Drivers/STM32WLxx_HAL_Driver/Inc/stm32wlxx_ll_rcc.h **** {
 991:Drivers/STM32WLxx_HAL_Driver/Inc/stm32wlxx_ll_rcc.h ****   return ((READ_BIT(RCC->CR, RCC_CR_HSEBYPPWR) == (RCC_CR_HSEBYPPWR)) ? 1UL : 0UL);
 992:Drivers/STM32WLxx_HAL_Driver/Inc/stm32wlxx_ll_rcc.h **** }
 993:Drivers/STM32WLxx_HAL_Driver/Inc/stm32wlxx_ll_rcc.h **** 
 994:Drivers/STM32WLxx_HAL_Driver/Inc/stm32wlxx_ll_rcc.h **** 
 995:Drivers/STM32WLxx_HAL_Driver/Inc/stm32wlxx_ll_rcc.h **** /**
 996:Drivers/STM32WLxx_HAL_Driver/Inc/stm32wlxx_ll_rcc.h ****   * @brief  Enable HSE sysclk and pll prescaler division by 2
 997:Drivers/STM32WLxx_HAL_Driver/Inc/stm32wlxx_ll_rcc.h ****   * @rmtoll CR           HSEPRE        LL_RCC_HSE_EnableDiv2
 998:Drivers/STM32WLxx_HAL_Driver/Inc/stm32wlxx_ll_rcc.h ****   * @retval None
 999:Drivers/STM32WLxx_HAL_Driver/Inc/stm32wlxx_ll_rcc.h ****   */
1000:Drivers/STM32WLxx_HAL_Driver/Inc/stm32wlxx_ll_rcc.h **** __STATIC_INLINE void LL_RCC_HSE_EnableDiv2(void)
1001:Drivers/STM32WLxx_HAL_Driver/Inc/stm32wlxx_ll_rcc.h **** {
1002:Drivers/STM32WLxx_HAL_Driver/Inc/stm32wlxx_ll_rcc.h ****   SET_BIT(RCC->CR, RCC_CR_HSEPRE);
1003:Drivers/STM32WLxx_HAL_Driver/Inc/stm32wlxx_ll_rcc.h **** }
1004:Drivers/STM32WLxx_HAL_Driver/Inc/stm32wlxx_ll_rcc.h **** 
1005:Drivers/STM32WLxx_HAL_Driver/Inc/stm32wlxx_ll_rcc.h **** /**
1006:Drivers/STM32WLxx_HAL_Driver/Inc/stm32wlxx_ll_rcc.h ****   * @brief  Disable HSE sysclk and pll prescaler division by 2
1007:Drivers/STM32WLxx_HAL_Driver/Inc/stm32wlxx_ll_rcc.h ****   * @rmtoll CR           HSEPRE        LL_RCC_HSE_DisableDiv2
1008:Drivers/STM32WLxx_HAL_Driver/Inc/stm32wlxx_ll_rcc.h ****   * @retval None
1009:Drivers/STM32WLxx_HAL_Driver/Inc/stm32wlxx_ll_rcc.h ****   */
1010:Drivers/STM32WLxx_HAL_Driver/Inc/stm32wlxx_ll_rcc.h **** __STATIC_INLINE void LL_RCC_HSE_DisableDiv2(void)
1011:Drivers/STM32WLxx_HAL_Driver/Inc/stm32wlxx_ll_rcc.h **** {
1012:Drivers/STM32WLxx_HAL_Driver/Inc/stm32wlxx_ll_rcc.h ****   CLEAR_BIT(RCC->CR, RCC_CR_HSEPRE);
1013:Drivers/STM32WLxx_HAL_Driver/Inc/stm32wlxx_ll_rcc.h **** }
1014:Drivers/STM32WLxx_HAL_Driver/Inc/stm32wlxx_ll_rcc.h **** 
1015:Drivers/STM32WLxx_HAL_Driver/Inc/stm32wlxx_ll_rcc.h **** /**
1016:Drivers/STM32WLxx_HAL_Driver/Inc/stm32wlxx_ll_rcc.h ****   * @brief  Get HSE sysclk and pll prescaler  division by 2
1017:Drivers/STM32WLxx_HAL_Driver/Inc/stm32wlxx_ll_rcc.h ****   * @rmtoll CR           HSEPRE        LL_RCC_HSE_IsEnabledDiv2
1018:Drivers/STM32WLxx_HAL_Driver/Inc/stm32wlxx_ll_rcc.h ****   * @retval None
1019:Drivers/STM32WLxx_HAL_Driver/Inc/stm32wlxx_ll_rcc.h ****   */
1020:Drivers/STM32WLxx_HAL_Driver/Inc/stm32wlxx_ll_rcc.h **** __STATIC_INLINE uint32_t LL_RCC_HSE_IsEnabledDiv2(void)
1021:Drivers/STM32WLxx_HAL_Driver/Inc/stm32wlxx_ll_rcc.h **** {
1022:Drivers/STM32WLxx_HAL_Driver/Inc/stm32wlxx_ll_rcc.h ****   return ((READ_BIT(RCC->CR, RCC_CR_HSEPRE) == (RCC_CR_HSEPRE)) ? 1UL : 0UL);
1023:Drivers/STM32WLxx_HAL_Driver/Inc/stm32wlxx_ll_rcc.h **** }
1024:Drivers/STM32WLxx_HAL_Driver/Inc/stm32wlxx_ll_rcc.h **** 
1025:Drivers/STM32WLxx_HAL_Driver/Inc/stm32wlxx_ll_rcc.h **** /**
1026:Drivers/STM32WLxx_HAL_Driver/Inc/stm32wlxx_ll_rcc.h ****   * @brief  Enable the Clock Security System.
1027:Drivers/STM32WLxx_HAL_Driver/Inc/stm32wlxx_ll_rcc.h ****   * @rmtoll CR           CSSON         LL_RCC_HSE_EnableCSS
1028:Drivers/STM32WLxx_HAL_Driver/Inc/stm32wlxx_ll_rcc.h ****   * @retval None
1029:Drivers/STM32WLxx_HAL_Driver/Inc/stm32wlxx_ll_rcc.h ****   */
1030:Drivers/STM32WLxx_HAL_Driver/Inc/stm32wlxx_ll_rcc.h **** __STATIC_INLINE void LL_RCC_HSE_EnableCSS(void)
1031:Drivers/STM32WLxx_HAL_Driver/Inc/stm32wlxx_ll_rcc.h **** {
1032:Drivers/STM32WLxx_HAL_Driver/Inc/stm32wlxx_ll_rcc.h ****   SET_BIT(RCC->CR, RCC_CR_CSSON);
ARM GAS  C:\Users\NATHAN~1\AppData\Local\Temp\cc6e4y2d.s 			page 27


1033:Drivers/STM32WLxx_HAL_Driver/Inc/stm32wlxx_ll_rcc.h **** }
1034:Drivers/STM32WLxx_HAL_Driver/Inc/stm32wlxx_ll_rcc.h **** 
1035:Drivers/STM32WLxx_HAL_Driver/Inc/stm32wlxx_ll_rcc.h **** /**
1036:Drivers/STM32WLxx_HAL_Driver/Inc/stm32wlxx_ll_rcc.h ****   * @brief  Enable HSE crystal oscillator (HSE ON)
1037:Drivers/STM32WLxx_HAL_Driver/Inc/stm32wlxx_ll_rcc.h ****   * @rmtoll CR           HSEON         LL_RCC_HSE_Enable
1038:Drivers/STM32WLxx_HAL_Driver/Inc/stm32wlxx_ll_rcc.h ****   * @retval None
1039:Drivers/STM32WLxx_HAL_Driver/Inc/stm32wlxx_ll_rcc.h ****   */
1040:Drivers/STM32WLxx_HAL_Driver/Inc/stm32wlxx_ll_rcc.h **** __STATIC_INLINE void LL_RCC_HSE_Enable(void)
1041:Drivers/STM32WLxx_HAL_Driver/Inc/stm32wlxx_ll_rcc.h **** {
1042:Drivers/STM32WLxx_HAL_Driver/Inc/stm32wlxx_ll_rcc.h ****   SET_BIT(RCC->CR, RCC_CR_HSEON);
1043:Drivers/STM32WLxx_HAL_Driver/Inc/stm32wlxx_ll_rcc.h **** }
1044:Drivers/STM32WLxx_HAL_Driver/Inc/stm32wlxx_ll_rcc.h **** 
1045:Drivers/STM32WLxx_HAL_Driver/Inc/stm32wlxx_ll_rcc.h **** /**
1046:Drivers/STM32WLxx_HAL_Driver/Inc/stm32wlxx_ll_rcc.h ****   * @brief  Disable HSE crystal oscillator (HSE ON)
1047:Drivers/STM32WLxx_HAL_Driver/Inc/stm32wlxx_ll_rcc.h ****   * @rmtoll CR           HSEON         LL_RCC_HSE_Disable
1048:Drivers/STM32WLxx_HAL_Driver/Inc/stm32wlxx_ll_rcc.h ****   * @retval None
1049:Drivers/STM32WLxx_HAL_Driver/Inc/stm32wlxx_ll_rcc.h ****   */
1050:Drivers/STM32WLxx_HAL_Driver/Inc/stm32wlxx_ll_rcc.h **** __STATIC_INLINE void LL_RCC_HSE_Disable(void)
1051:Drivers/STM32WLxx_HAL_Driver/Inc/stm32wlxx_ll_rcc.h **** {
1052:Drivers/STM32WLxx_HAL_Driver/Inc/stm32wlxx_ll_rcc.h ****   CLEAR_BIT(RCC->CR, RCC_CR_HSEON);
1053:Drivers/STM32WLxx_HAL_Driver/Inc/stm32wlxx_ll_rcc.h **** }
1054:Drivers/STM32WLxx_HAL_Driver/Inc/stm32wlxx_ll_rcc.h **** 
1055:Drivers/STM32WLxx_HAL_Driver/Inc/stm32wlxx_ll_rcc.h **** /**
1056:Drivers/STM32WLxx_HAL_Driver/Inc/stm32wlxx_ll_rcc.h ****   * @brief  Check if HSE oscillator Ready
1057:Drivers/STM32WLxx_HAL_Driver/Inc/stm32wlxx_ll_rcc.h ****   * @rmtoll CR           HSERDY        LL_RCC_HSE_IsReady
1058:Drivers/STM32WLxx_HAL_Driver/Inc/stm32wlxx_ll_rcc.h ****   * @retval State of bit (1 or 0).
1059:Drivers/STM32WLxx_HAL_Driver/Inc/stm32wlxx_ll_rcc.h ****   */
1060:Drivers/STM32WLxx_HAL_Driver/Inc/stm32wlxx_ll_rcc.h **** __STATIC_INLINE uint32_t LL_RCC_HSE_IsReady(void)
1061:Drivers/STM32WLxx_HAL_Driver/Inc/stm32wlxx_ll_rcc.h **** {
1062:Drivers/STM32WLxx_HAL_Driver/Inc/stm32wlxx_ll_rcc.h ****   return ((READ_BIT(RCC->CR, RCC_CR_HSERDY) == (RCC_CR_HSERDY)) ? 1UL : 0UL);
1063:Drivers/STM32WLxx_HAL_Driver/Inc/stm32wlxx_ll_rcc.h **** }
1064:Drivers/STM32WLxx_HAL_Driver/Inc/stm32wlxx_ll_rcc.h **** 
1065:Drivers/STM32WLxx_HAL_Driver/Inc/stm32wlxx_ll_rcc.h **** /**
1066:Drivers/STM32WLxx_HAL_Driver/Inc/stm32wlxx_ll_rcc.h ****   * @}
1067:Drivers/STM32WLxx_HAL_Driver/Inc/stm32wlxx_ll_rcc.h ****   */
1068:Drivers/STM32WLxx_HAL_Driver/Inc/stm32wlxx_ll_rcc.h **** 
1069:Drivers/STM32WLxx_HAL_Driver/Inc/stm32wlxx_ll_rcc.h **** /** @defgroup RCC_LL_EF_HSI HSI
1070:Drivers/STM32WLxx_HAL_Driver/Inc/stm32wlxx_ll_rcc.h ****   * @{
1071:Drivers/STM32WLxx_HAL_Driver/Inc/stm32wlxx_ll_rcc.h ****   */
1072:Drivers/STM32WLxx_HAL_Driver/Inc/stm32wlxx_ll_rcc.h **** 
1073:Drivers/STM32WLxx_HAL_Driver/Inc/stm32wlxx_ll_rcc.h **** /**
1074:Drivers/STM32WLxx_HAL_Driver/Inc/stm32wlxx_ll_rcc.h ****   * @brief  Enable HSI even in stop mode
1075:Drivers/STM32WLxx_HAL_Driver/Inc/stm32wlxx_ll_rcc.h ****   * @note HSI oscillator is forced ON even in Stop mode
1076:Drivers/STM32WLxx_HAL_Driver/Inc/stm32wlxx_ll_rcc.h ****   * @rmtoll CR           HSIKERON      LL_RCC_HSI_EnableInStopMode
1077:Drivers/STM32WLxx_HAL_Driver/Inc/stm32wlxx_ll_rcc.h ****   * @retval None
1078:Drivers/STM32WLxx_HAL_Driver/Inc/stm32wlxx_ll_rcc.h ****   */
1079:Drivers/STM32WLxx_HAL_Driver/Inc/stm32wlxx_ll_rcc.h **** __STATIC_INLINE void LL_RCC_HSI_EnableInStopMode(void)
1080:Drivers/STM32WLxx_HAL_Driver/Inc/stm32wlxx_ll_rcc.h **** {
1081:Drivers/STM32WLxx_HAL_Driver/Inc/stm32wlxx_ll_rcc.h ****   SET_BIT(RCC->CR, RCC_CR_HSIKERON);
1082:Drivers/STM32WLxx_HAL_Driver/Inc/stm32wlxx_ll_rcc.h **** }
1083:Drivers/STM32WLxx_HAL_Driver/Inc/stm32wlxx_ll_rcc.h **** 
1084:Drivers/STM32WLxx_HAL_Driver/Inc/stm32wlxx_ll_rcc.h **** /**
1085:Drivers/STM32WLxx_HAL_Driver/Inc/stm32wlxx_ll_rcc.h ****   * @brief  Disable HSI in stop mode
1086:Drivers/STM32WLxx_HAL_Driver/Inc/stm32wlxx_ll_rcc.h ****   * @rmtoll CR           HSIKERON      LL_RCC_HSI_DisableInStopMode
1087:Drivers/STM32WLxx_HAL_Driver/Inc/stm32wlxx_ll_rcc.h ****   * @retval None
1088:Drivers/STM32WLxx_HAL_Driver/Inc/stm32wlxx_ll_rcc.h ****   */
1089:Drivers/STM32WLxx_HAL_Driver/Inc/stm32wlxx_ll_rcc.h **** __STATIC_INLINE void LL_RCC_HSI_DisableInStopMode(void)
ARM GAS  C:\Users\NATHAN~1\AppData\Local\Temp\cc6e4y2d.s 			page 28


1090:Drivers/STM32WLxx_HAL_Driver/Inc/stm32wlxx_ll_rcc.h **** {
1091:Drivers/STM32WLxx_HAL_Driver/Inc/stm32wlxx_ll_rcc.h ****   CLEAR_BIT(RCC->CR, RCC_CR_HSIKERON);
1092:Drivers/STM32WLxx_HAL_Driver/Inc/stm32wlxx_ll_rcc.h **** }
1093:Drivers/STM32WLxx_HAL_Driver/Inc/stm32wlxx_ll_rcc.h **** 
1094:Drivers/STM32WLxx_HAL_Driver/Inc/stm32wlxx_ll_rcc.h **** /**
1095:Drivers/STM32WLxx_HAL_Driver/Inc/stm32wlxx_ll_rcc.h ****   * @brief  Check if HSI in stop mode is ready
1096:Drivers/STM32WLxx_HAL_Driver/Inc/stm32wlxx_ll_rcc.h ****   * @rmtoll CR           HSIKERON        LL_RCC_HSI_IsEnabledInStopMode
1097:Drivers/STM32WLxx_HAL_Driver/Inc/stm32wlxx_ll_rcc.h ****   * @retval State of bit (1 or 0).
1098:Drivers/STM32WLxx_HAL_Driver/Inc/stm32wlxx_ll_rcc.h ****   */
1099:Drivers/STM32WLxx_HAL_Driver/Inc/stm32wlxx_ll_rcc.h **** __STATIC_INLINE uint32_t LL_RCC_HSI_IsEnabledInStopMode(void)
1100:Drivers/STM32WLxx_HAL_Driver/Inc/stm32wlxx_ll_rcc.h **** {
1101:Drivers/STM32WLxx_HAL_Driver/Inc/stm32wlxx_ll_rcc.h ****   return ((READ_BIT(RCC->CR, RCC_CR_HSIKERON) == (RCC_CR_HSIKERON)) ? 1UL : 0UL);
1102:Drivers/STM32WLxx_HAL_Driver/Inc/stm32wlxx_ll_rcc.h **** }
1103:Drivers/STM32WLxx_HAL_Driver/Inc/stm32wlxx_ll_rcc.h **** 
1104:Drivers/STM32WLxx_HAL_Driver/Inc/stm32wlxx_ll_rcc.h **** /**
1105:Drivers/STM32WLxx_HAL_Driver/Inc/stm32wlxx_ll_rcc.h ****   * @brief  Enable HSI oscillator
1106:Drivers/STM32WLxx_HAL_Driver/Inc/stm32wlxx_ll_rcc.h ****   * @rmtoll CR           HSION         LL_RCC_HSI_Enable
1107:Drivers/STM32WLxx_HAL_Driver/Inc/stm32wlxx_ll_rcc.h ****   * @retval None
1108:Drivers/STM32WLxx_HAL_Driver/Inc/stm32wlxx_ll_rcc.h ****   */
1109:Drivers/STM32WLxx_HAL_Driver/Inc/stm32wlxx_ll_rcc.h **** __STATIC_INLINE void LL_RCC_HSI_Enable(void)
1110:Drivers/STM32WLxx_HAL_Driver/Inc/stm32wlxx_ll_rcc.h **** {
1111:Drivers/STM32WLxx_HAL_Driver/Inc/stm32wlxx_ll_rcc.h ****   SET_BIT(RCC->CR, RCC_CR_HSION);
1112:Drivers/STM32WLxx_HAL_Driver/Inc/stm32wlxx_ll_rcc.h **** }
1113:Drivers/STM32WLxx_HAL_Driver/Inc/stm32wlxx_ll_rcc.h **** 
1114:Drivers/STM32WLxx_HAL_Driver/Inc/stm32wlxx_ll_rcc.h **** /**
1115:Drivers/STM32WLxx_HAL_Driver/Inc/stm32wlxx_ll_rcc.h ****   * @brief  Disable HSI oscillator
1116:Drivers/STM32WLxx_HAL_Driver/Inc/stm32wlxx_ll_rcc.h ****   * @rmtoll CR           HSION         LL_RCC_HSI_Disable
1117:Drivers/STM32WLxx_HAL_Driver/Inc/stm32wlxx_ll_rcc.h ****   * @retval None
1118:Drivers/STM32WLxx_HAL_Driver/Inc/stm32wlxx_ll_rcc.h ****   */
1119:Drivers/STM32WLxx_HAL_Driver/Inc/stm32wlxx_ll_rcc.h **** __STATIC_INLINE void LL_RCC_HSI_Disable(void)
1120:Drivers/STM32WLxx_HAL_Driver/Inc/stm32wlxx_ll_rcc.h **** {
1121:Drivers/STM32WLxx_HAL_Driver/Inc/stm32wlxx_ll_rcc.h ****   CLEAR_BIT(RCC->CR, RCC_CR_HSION);
1122:Drivers/STM32WLxx_HAL_Driver/Inc/stm32wlxx_ll_rcc.h **** }
1123:Drivers/STM32WLxx_HAL_Driver/Inc/stm32wlxx_ll_rcc.h **** 
1124:Drivers/STM32WLxx_HAL_Driver/Inc/stm32wlxx_ll_rcc.h **** /**
1125:Drivers/STM32WLxx_HAL_Driver/Inc/stm32wlxx_ll_rcc.h ****   * @brief  Check if HSI clock is ready
1126:Drivers/STM32WLxx_HAL_Driver/Inc/stm32wlxx_ll_rcc.h ****   * @rmtoll CR           HSIRDY        LL_RCC_HSI_IsReady
1127:Drivers/STM32WLxx_HAL_Driver/Inc/stm32wlxx_ll_rcc.h ****   * @retval State of bit (1 or 0).
1128:Drivers/STM32WLxx_HAL_Driver/Inc/stm32wlxx_ll_rcc.h ****   */
1129:Drivers/STM32WLxx_HAL_Driver/Inc/stm32wlxx_ll_rcc.h **** __STATIC_INLINE uint32_t LL_RCC_HSI_IsReady(void)
1130:Drivers/STM32WLxx_HAL_Driver/Inc/stm32wlxx_ll_rcc.h **** {
1131:Drivers/STM32WLxx_HAL_Driver/Inc/stm32wlxx_ll_rcc.h ****   return ((READ_BIT(RCC->CR, RCC_CR_HSIRDY) == (RCC_CR_HSIRDY)) ? 1UL : 0UL);
1132:Drivers/STM32WLxx_HAL_Driver/Inc/stm32wlxx_ll_rcc.h **** }
1133:Drivers/STM32WLxx_HAL_Driver/Inc/stm32wlxx_ll_rcc.h **** 
1134:Drivers/STM32WLxx_HAL_Driver/Inc/stm32wlxx_ll_rcc.h **** /**
1135:Drivers/STM32WLxx_HAL_Driver/Inc/stm32wlxx_ll_rcc.h ****   * @brief  Enable HSI Automatic from stop mode
1136:Drivers/STM32WLxx_HAL_Driver/Inc/stm32wlxx_ll_rcc.h ****   * @rmtoll CR           HSIASFS       LL_RCC_HSI_EnableAutoFromStop
1137:Drivers/STM32WLxx_HAL_Driver/Inc/stm32wlxx_ll_rcc.h ****   * @retval None
1138:Drivers/STM32WLxx_HAL_Driver/Inc/stm32wlxx_ll_rcc.h ****   */
1139:Drivers/STM32WLxx_HAL_Driver/Inc/stm32wlxx_ll_rcc.h **** __STATIC_INLINE void LL_RCC_HSI_EnableAutoFromStop(void)
1140:Drivers/STM32WLxx_HAL_Driver/Inc/stm32wlxx_ll_rcc.h **** {
1141:Drivers/STM32WLxx_HAL_Driver/Inc/stm32wlxx_ll_rcc.h ****   SET_BIT(RCC->CR, RCC_CR_HSIASFS);
1142:Drivers/STM32WLxx_HAL_Driver/Inc/stm32wlxx_ll_rcc.h **** }
1143:Drivers/STM32WLxx_HAL_Driver/Inc/stm32wlxx_ll_rcc.h **** 
1144:Drivers/STM32WLxx_HAL_Driver/Inc/stm32wlxx_ll_rcc.h **** /**
1145:Drivers/STM32WLxx_HAL_Driver/Inc/stm32wlxx_ll_rcc.h ****   * @brief  Disable HSI Automatic from stop mode
1146:Drivers/STM32WLxx_HAL_Driver/Inc/stm32wlxx_ll_rcc.h ****   * @rmtoll CR           HSIASFS       LL_RCC_HSI_DisableAutoFromStop
ARM GAS  C:\Users\NATHAN~1\AppData\Local\Temp\cc6e4y2d.s 			page 29


1147:Drivers/STM32WLxx_HAL_Driver/Inc/stm32wlxx_ll_rcc.h ****   * @retval None
1148:Drivers/STM32WLxx_HAL_Driver/Inc/stm32wlxx_ll_rcc.h ****   */
1149:Drivers/STM32WLxx_HAL_Driver/Inc/stm32wlxx_ll_rcc.h **** __STATIC_INLINE void LL_RCC_HSI_DisableAutoFromStop(void)
1150:Drivers/STM32WLxx_HAL_Driver/Inc/stm32wlxx_ll_rcc.h **** {
1151:Drivers/STM32WLxx_HAL_Driver/Inc/stm32wlxx_ll_rcc.h ****   CLEAR_BIT(RCC->CR, RCC_CR_HSIASFS);
1152:Drivers/STM32WLxx_HAL_Driver/Inc/stm32wlxx_ll_rcc.h **** }
1153:Drivers/STM32WLxx_HAL_Driver/Inc/stm32wlxx_ll_rcc.h **** /**
1154:Drivers/STM32WLxx_HAL_Driver/Inc/stm32wlxx_ll_rcc.h ****   * @brief  Get HSI Calibration value
1155:Drivers/STM32WLxx_HAL_Driver/Inc/stm32wlxx_ll_rcc.h ****   * @note When HSITRIM is written, HSICAL is updated with the sum of
1156:Drivers/STM32WLxx_HAL_Driver/Inc/stm32wlxx_ll_rcc.h ****   *       HSITRIM and the factory trim value
1157:Drivers/STM32WLxx_HAL_Driver/Inc/stm32wlxx_ll_rcc.h ****   * @rmtoll ICSCR        HSICAL        LL_RCC_HSI_GetCalibration
1158:Drivers/STM32WLxx_HAL_Driver/Inc/stm32wlxx_ll_rcc.h ****   * @retval Between Min_Data = 0x00 and Max_Data = 0xFF
1159:Drivers/STM32WLxx_HAL_Driver/Inc/stm32wlxx_ll_rcc.h ****   */
1160:Drivers/STM32WLxx_HAL_Driver/Inc/stm32wlxx_ll_rcc.h **** __STATIC_INLINE uint32_t LL_RCC_HSI_GetCalibration(void)
1161:Drivers/STM32WLxx_HAL_Driver/Inc/stm32wlxx_ll_rcc.h **** {
1162:Drivers/STM32WLxx_HAL_Driver/Inc/stm32wlxx_ll_rcc.h ****   return (uint32_t)(READ_BIT(RCC->ICSCR, RCC_ICSCR_HSICAL) >> RCC_ICSCR_HSICAL_Pos);
1163:Drivers/STM32WLxx_HAL_Driver/Inc/stm32wlxx_ll_rcc.h **** }
1164:Drivers/STM32WLxx_HAL_Driver/Inc/stm32wlxx_ll_rcc.h **** 
1165:Drivers/STM32WLxx_HAL_Driver/Inc/stm32wlxx_ll_rcc.h **** /**
1166:Drivers/STM32WLxx_HAL_Driver/Inc/stm32wlxx_ll_rcc.h ****   * @brief  Set HSI Calibration trimming
1167:Drivers/STM32WLxx_HAL_Driver/Inc/stm32wlxx_ll_rcc.h ****   * @note user-programmable trimming value that is added to the HSICAL
1168:Drivers/STM32WLxx_HAL_Driver/Inc/stm32wlxx_ll_rcc.h ****   * @note Default value is 64, which, when added to the HSICAL value,
1169:Drivers/STM32WLxx_HAL_Driver/Inc/stm32wlxx_ll_rcc.h ****   *       should trim the HSI to 16 MHz +/- 1 %
1170:Drivers/STM32WLxx_HAL_Driver/Inc/stm32wlxx_ll_rcc.h ****   * @rmtoll ICSCR        HSITRIM       LL_RCC_HSI_SetCalibTrimming
1171:Drivers/STM32WLxx_HAL_Driver/Inc/stm32wlxx_ll_rcc.h ****   * @param  Value Between Min_Data = 0 and Max_Data = 127
1172:Drivers/STM32WLxx_HAL_Driver/Inc/stm32wlxx_ll_rcc.h ****   * @retval None
1173:Drivers/STM32WLxx_HAL_Driver/Inc/stm32wlxx_ll_rcc.h ****   */
1174:Drivers/STM32WLxx_HAL_Driver/Inc/stm32wlxx_ll_rcc.h **** __STATIC_INLINE void LL_RCC_HSI_SetCalibTrimming(uint32_t Value)
1175:Drivers/STM32WLxx_HAL_Driver/Inc/stm32wlxx_ll_rcc.h **** {
1176:Drivers/STM32WLxx_HAL_Driver/Inc/stm32wlxx_ll_rcc.h ****   MODIFY_REG(RCC->ICSCR, RCC_ICSCR_HSITRIM, Value << RCC_ICSCR_HSITRIM_Pos);
1177:Drivers/STM32WLxx_HAL_Driver/Inc/stm32wlxx_ll_rcc.h **** }
1178:Drivers/STM32WLxx_HAL_Driver/Inc/stm32wlxx_ll_rcc.h **** 
1179:Drivers/STM32WLxx_HAL_Driver/Inc/stm32wlxx_ll_rcc.h **** /**
1180:Drivers/STM32WLxx_HAL_Driver/Inc/stm32wlxx_ll_rcc.h ****   * @brief  Get HSI Calibration trimming
1181:Drivers/STM32WLxx_HAL_Driver/Inc/stm32wlxx_ll_rcc.h ****   * @rmtoll ICSCR        HSITRIM       LL_RCC_HSI_GetCalibTrimming
1182:Drivers/STM32WLxx_HAL_Driver/Inc/stm32wlxx_ll_rcc.h ****   * @retval Between Min_Data = 0 and Max_Data = 127
1183:Drivers/STM32WLxx_HAL_Driver/Inc/stm32wlxx_ll_rcc.h ****   */
1184:Drivers/STM32WLxx_HAL_Driver/Inc/stm32wlxx_ll_rcc.h **** __STATIC_INLINE uint32_t LL_RCC_HSI_GetCalibTrimming(void)
1185:Drivers/STM32WLxx_HAL_Driver/Inc/stm32wlxx_ll_rcc.h **** {
1186:Drivers/STM32WLxx_HAL_Driver/Inc/stm32wlxx_ll_rcc.h ****   return (uint32_t)(READ_BIT(RCC->ICSCR, RCC_ICSCR_HSITRIM) >> RCC_ICSCR_HSITRIM_Pos);
1187:Drivers/STM32WLxx_HAL_Driver/Inc/stm32wlxx_ll_rcc.h **** }
1188:Drivers/STM32WLxx_HAL_Driver/Inc/stm32wlxx_ll_rcc.h **** 
1189:Drivers/STM32WLxx_HAL_Driver/Inc/stm32wlxx_ll_rcc.h **** /**
1190:Drivers/STM32WLxx_HAL_Driver/Inc/stm32wlxx_ll_rcc.h ****   * @}
1191:Drivers/STM32WLxx_HAL_Driver/Inc/stm32wlxx_ll_rcc.h ****   */
1192:Drivers/STM32WLxx_HAL_Driver/Inc/stm32wlxx_ll_rcc.h **** 
1193:Drivers/STM32WLxx_HAL_Driver/Inc/stm32wlxx_ll_rcc.h **** /** @defgroup RCC_LL_EF_LSE LSE
1194:Drivers/STM32WLxx_HAL_Driver/Inc/stm32wlxx_ll_rcc.h ****   * @{
1195:Drivers/STM32WLxx_HAL_Driver/Inc/stm32wlxx_ll_rcc.h ****   */
1196:Drivers/STM32WLxx_HAL_Driver/Inc/stm32wlxx_ll_rcc.h **** 
1197:Drivers/STM32WLxx_HAL_Driver/Inc/stm32wlxx_ll_rcc.h **** /**
1198:Drivers/STM32WLxx_HAL_Driver/Inc/stm32wlxx_ll_rcc.h ****   * @brief  Enable  Low Speed External (LSE) crystal.
1199:Drivers/STM32WLxx_HAL_Driver/Inc/stm32wlxx_ll_rcc.h ****   * @rmtoll BDCR         LSEON         LL_RCC_LSE_Enable
1200:Drivers/STM32WLxx_HAL_Driver/Inc/stm32wlxx_ll_rcc.h ****   * @retval None
1201:Drivers/STM32WLxx_HAL_Driver/Inc/stm32wlxx_ll_rcc.h ****   */
1202:Drivers/STM32WLxx_HAL_Driver/Inc/stm32wlxx_ll_rcc.h **** __STATIC_INLINE void LL_RCC_LSE_Enable(void)
1203:Drivers/STM32WLxx_HAL_Driver/Inc/stm32wlxx_ll_rcc.h **** {
ARM GAS  C:\Users\NATHAN~1\AppData\Local\Temp\cc6e4y2d.s 			page 30


1204:Drivers/STM32WLxx_HAL_Driver/Inc/stm32wlxx_ll_rcc.h ****   SET_BIT(RCC->BDCR, RCC_BDCR_LSEON);
1205:Drivers/STM32WLxx_HAL_Driver/Inc/stm32wlxx_ll_rcc.h **** }
1206:Drivers/STM32WLxx_HAL_Driver/Inc/stm32wlxx_ll_rcc.h **** 
1207:Drivers/STM32WLxx_HAL_Driver/Inc/stm32wlxx_ll_rcc.h **** /**
1208:Drivers/STM32WLxx_HAL_Driver/Inc/stm32wlxx_ll_rcc.h ****   * @brief  Disable  Low Speed External (LSE) crystal.
1209:Drivers/STM32WLxx_HAL_Driver/Inc/stm32wlxx_ll_rcc.h ****   * @rmtoll BDCR         LSEON         LL_RCC_LSE_Disable
1210:Drivers/STM32WLxx_HAL_Driver/Inc/stm32wlxx_ll_rcc.h ****   * @retval None
1211:Drivers/STM32WLxx_HAL_Driver/Inc/stm32wlxx_ll_rcc.h ****   */
1212:Drivers/STM32WLxx_HAL_Driver/Inc/stm32wlxx_ll_rcc.h **** __STATIC_INLINE void LL_RCC_LSE_Disable(void)
1213:Drivers/STM32WLxx_HAL_Driver/Inc/stm32wlxx_ll_rcc.h **** {
1214:Drivers/STM32WLxx_HAL_Driver/Inc/stm32wlxx_ll_rcc.h ****   CLEAR_BIT(RCC->BDCR, RCC_BDCR_LSEON);
1215:Drivers/STM32WLxx_HAL_Driver/Inc/stm32wlxx_ll_rcc.h **** }
1216:Drivers/STM32WLxx_HAL_Driver/Inc/stm32wlxx_ll_rcc.h **** 
1217:Drivers/STM32WLxx_HAL_Driver/Inc/stm32wlxx_ll_rcc.h **** /**
1218:Drivers/STM32WLxx_HAL_Driver/Inc/stm32wlxx_ll_rcc.h ****   * @brief  Check if Low Speed External (LSE) crystal has been enabled or not
1219:Drivers/STM32WLxx_HAL_Driver/Inc/stm32wlxx_ll_rcc.h ****   * @rmtoll BDCR         LSEON         LL_RCC_LSE_IsEnabled
1220:Drivers/STM32WLxx_HAL_Driver/Inc/stm32wlxx_ll_rcc.h ****   * @retval State of bit (1 or 0).
1221:Drivers/STM32WLxx_HAL_Driver/Inc/stm32wlxx_ll_rcc.h ****   */
1222:Drivers/STM32WLxx_HAL_Driver/Inc/stm32wlxx_ll_rcc.h **** __STATIC_INLINE uint32_t LL_RCC_LSE_IsEnabled(void)
1223:Drivers/STM32WLxx_HAL_Driver/Inc/stm32wlxx_ll_rcc.h **** {
1224:Drivers/STM32WLxx_HAL_Driver/Inc/stm32wlxx_ll_rcc.h ****   return ((READ_BIT(RCC->BDCR, RCC_BDCR_LSEON) == (RCC_BDCR_LSEON)) ? 1UL : 0UL);
1225:Drivers/STM32WLxx_HAL_Driver/Inc/stm32wlxx_ll_rcc.h **** }
1226:Drivers/STM32WLxx_HAL_Driver/Inc/stm32wlxx_ll_rcc.h **** 
1227:Drivers/STM32WLxx_HAL_Driver/Inc/stm32wlxx_ll_rcc.h **** /**
1228:Drivers/STM32WLxx_HAL_Driver/Inc/stm32wlxx_ll_rcc.h ****   * @brief  Enable external clock source (LSE bypass).
1229:Drivers/STM32WLxx_HAL_Driver/Inc/stm32wlxx_ll_rcc.h ****   * @rmtoll BDCR         LSEBYP        LL_RCC_LSE_EnableBypass
1230:Drivers/STM32WLxx_HAL_Driver/Inc/stm32wlxx_ll_rcc.h ****   * @retval None
1231:Drivers/STM32WLxx_HAL_Driver/Inc/stm32wlxx_ll_rcc.h ****   */
1232:Drivers/STM32WLxx_HAL_Driver/Inc/stm32wlxx_ll_rcc.h **** __STATIC_INLINE void LL_RCC_LSE_EnableBypass(void)
1233:Drivers/STM32WLxx_HAL_Driver/Inc/stm32wlxx_ll_rcc.h **** {
1234:Drivers/STM32WLxx_HAL_Driver/Inc/stm32wlxx_ll_rcc.h ****   SET_BIT(RCC->BDCR, RCC_BDCR_LSEBYP);
1235:Drivers/STM32WLxx_HAL_Driver/Inc/stm32wlxx_ll_rcc.h **** }
1236:Drivers/STM32WLxx_HAL_Driver/Inc/stm32wlxx_ll_rcc.h **** 
1237:Drivers/STM32WLxx_HAL_Driver/Inc/stm32wlxx_ll_rcc.h **** /**
1238:Drivers/STM32WLxx_HAL_Driver/Inc/stm32wlxx_ll_rcc.h ****   * @brief  Disable external clock source (LSE bypass).
1239:Drivers/STM32WLxx_HAL_Driver/Inc/stm32wlxx_ll_rcc.h ****   * @rmtoll BDCR         LSEBYP        LL_RCC_LSE_DisableBypass
1240:Drivers/STM32WLxx_HAL_Driver/Inc/stm32wlxx_ll_rcc.h ****   * @retval None
1241:Drivers/STM32WLxx_HAL_Driver/Inc/stm32wlxx_ll_rcc.h ****   */
1242:Drivers/STM32WLxx_HAL_Driver/Inc/stm32wlxx_ll_rcc.h **** __STATIC_INLINE void LL_RCC_LSE_DisableBypass(void)
1243:Drivers/STM32WLxx_HAL_Driver/Inc/stm32wlxx_ll_rcc.h **** {
1244:Drivers/STM32WLxx_HAL_Driver/Inc/stm32wlxx_ll_rcc.h ****   CLEAR_BIT(RCC->BDCR, RCC_BDCR_LSEBYP);
1245:Drivers/STM32WLxx_HAL_Driver/Inc/stm32wlxx_ll_rcc.h **** }
1246:Drivers/STM32WLxx_HAL_Driver/Inc/stm32wlxx_ll_rcc.h **** 
1247:Drivers/STM32WLxx_HAL_Driver/Inc/stm32wlxx_ll_rcc.h **** /**
1248:Drivers/STM32WLxx_HAL_Driver/Inc/stm32wlxx_ll_rcc.h ****   * @brief  Set LSE oscillator drive capability
1249:Drivers/STM32WLxx_HAL_Driver/Inc/stm32wlxx_ll_rcc.h ****   * @note The oscillator is in Xtal mode when it is not in bypass mode.
1250:Drivers/STM32WLxx_HAL_Driver/Inc/stm32wlxx_ll_rcc.h ****   * @rmtoll BDCR         LSEDRV        LL_RCC_LSE_SetDriveCapability
1251:Drivers/STM32WLxx_HAL_Driver/Inc/stm32wlxx_ll_rcc.h ****   * @param  LSEDrive This parameter can be one of the following values:
1252:Drivers/STM32WLxx_HAL_Driver/Inc/stm32wlxx_ll_rcc.h ****   *         @arg @ref LL_RCC_LSEDRIVE_LOW
1253:Drivers/STM32WLxx_HAL_Driver/Inc/stm32wlxx_ll_rcc.h ****   *         @arg @ref LL_RCC_LSEDRIVE_MEDIUMLOW
1254:Drivers/STM32WLxx_HAL_Driver/Inc/stm32wlxx_ll_rcc.h ****   *         @arg @ref LL_RCC_LSEDRIVE_MEDIUMHIGH
1255:Drivers/STM32WLxx_HAL_Driver/Inc/stm32wlxx_ll_rcc.h ****   *         @arg @ref LL_RCC_LSEDRIVE_HIGH
1256:Drivers/STM32WLxx_HAL_Driver/Inc/stm32wlxx_ll_rcc.h ****   * @retval None
1257:Drivers/STM32WLxx_HAL_Driver/Inc/stm32wlxx_ll_rcc.h ****   */
1258:Drivers/STM32WLxx_HAL_Driver/Inc/stm32wlxx_ll_rcc.h **** __STATIC_INLINE void LL_RCC_LSE_SetDriveCapability(uint32_t LSEDrive)
1259:Drivers/STM32WLxx_HAL_Driver/Inc/stm32wlxx_ll_rcc.h **** {
1260:Drivers/STM32WLxx_HAL_Driver/Inc/stm32wlxx_ll_rcc.h ****   MODIFY_REG(RCC->BDCR, RCC_BDCR_LSEDRV, LSEDrive);
ARM GAS  C:\Users\NATHAN~1\AppData\Local\Temp\cc6e4y2d.s 			page 31


1261:Drivers/STM32WLxx_HAL_Driver/Inc/stm32wlxx_ll_rcc.h **** }
1262:Drivers/STM32WLxx_HAL_Driver/Inc/stm32wlxx_ll_rcc.h **** 
1263:Drivers/STM32WLxx_HAL_Driver/Inc/stm32wlxx_ll_rcc.h **** /**
1264:Drivers/STM32WLxx_HAL_Driver/Inc/stm32wlxx_ll_rcc.h ****   * @brief  Get LSE oscillator drive capability
1265:Drivers/STM32WLxx_HAL_Driver/Inc/stm32wlxx_ll_rcc.h ****   * @rmtoll BDCR         LSEDRV        LL_RCC_LSE_GetDriveCapability
1266:Drivers/STM32WLxx_HAL_Driver/Inc/stm32wlxx_ll_rcc.h ****   * @retval Returned value can be one of the following values:
1267:Drivers/STM32WLxx_HAL_Driver/Inc/stm32wlxx_ll_rcc.h ****   *         @arg @ref LL_RCC_LSEDRIVE_LOW
1268:Drivers/STM32WLxx_HAL_Driver/Inc/stm32wlxx_ll_rcc.h ****   *         @arg @ref LL_RCC_LSEDRIVE_MEDIUMLOW
1269:Drivers/STM32WLxx_HAL_Driver/Inc/stm32wlxx_ll_rcc.h ****   *         @arg @ref LL_RCC_LSEDRIVE_MEDIUMHIGH
1270:Drivers/STM32WLxx_HAL_Driver/Inc/stm32wlxx_ll_rcc.h ****   *         @arg @ref LL_RCC_LSEDRIVE_HIGH
1271:Drivers/STM32WLxx_HAL_Driver/Inc/stm32wlxx_ll_rcc.h ****   */
1272:Drivers/STM32WLxx_HAL_Driver/Inc/stm32wlxx_ll_rcc.h **** __STATIC_INLINE uint32_t LL_RCC_LSE_GetDriveCapability(void)
1273:Drivers/STM32WLxx_HAL_Driver/Inc/stm32wlxx_ll_rcc.h **** {
1274:Drivers/STM32WLxx_HAL_Driver/Inc/stm32wlxx_ll_rcc.h ****   return (uint32_t)(READ_BIT(RCC->BDCR, RCC_BDCR_LSEDRV));
1275:Drivers/STM32WLxx_HAL_Driver/Inc/stm32wlxx_ll_rcc.h **** }
1276:Drivers/STM32WLxx_HAL_Driver/Inc/stm32wlxx_ll_rcc.h **** 
1277:Drivers/STM32WLxx_HAL_Driver/Inc/stm32wlxx_ll_rcc.h **** /**
1278:Drivers/STM32WLxx_HAL_Driver/Inc/stm32wlxx_ll_rcc.h ****   * @brief  Enable Clock security system on LSE.
1279:Drivers/STM32WLxx_HAL_Driver/Inc/stm32wlxx_ll_rcc.h ****   * @rmtoll BDCR         LSECSSON      LL_RCC_LSE_EnableCSS
1280:Drivers/STM32WLxx_HAL_Driver/Inc/stm32wlxx_ll_rcc.h ****   * @retval None
1281:Drivers/STM32WLxx_HAL_Driver/Inc/stm32wlxx_ll_rcc.h ****   */
1282:Drivers/STM32WLxx_HAL_Driver/Inc/stm32wlxx_ll_rcc.h **** __STATIC_INLINE void LL_RCC_LSE_EnableCSS(void)
1283:Drivers/STM32WLxx_HAL_Driver/Inc/stm32wlxx_ll_rcc.h **** {
1284:Drivers/STM32WLxx_HAL_Driver/Inc/stm32wlxx_ll_rcc.h ****   SET_BIT(RCC->BDCR, RCC_BDCR_LSECSSON);
1285:Drivers/STM32WLxx_HAL_Driver/Inc/stm32wlxx_ll_rcc.h **** }
1286:Drivers/STM32WLxx_HAL_Driver/Inc/stm32wlxx_ll_rcc.h **** 
1287:Drivers/STM32WLxx_HAL_Driver/Inc/stm32wlxx_ll_rcc.h **** /**
1288:Drivers/STM32WLxx_HAL_Driver/Inc/stm32wlxx_ll_rcc.h ****   * @brief  Disable Clock security system on LSE.
1289:Drivers/STM32WLxx_HAL_Driver/Inc/stm32wlxx_ll_rcc.h ****   * @note Clock security system can be disabled only after a LSE
1290:Drivers/STM32WLxx_HAL_Driver/Inc/stm32wlxx_ll_rcc.h ****   *       failure detection. In that case it MUST be disabled by software.
1291:Drivers/STM32WLxx_HAL_Driver/Inc/stm32wlxx_ll_rcc.h ****   * @rmtoll BDCR         LSECSSON      LL_RCC_LSE_DisableCSS
1292:Drivers/STM32WLxx_HAL_Driver/Inc/stm32wlxx_ll_rcc.h ****   * @retval None
1293:Drivers/STM32WLxx_HAL_Driver/Inc/stm32wlxx_ll_rcc.h ****   */
1294:Drivers/STM32WLxx_HAL_Driver/Inc/stm32wlxx_ll_rcc.h **** __STATIC_INLINE void LL_RCC_LSE_DisableCSS(void)
1295:Drivers/STM32WLxx_HAL_Driver/Inc/stm32wlxx_ll_rcc.h **** {
1296:Drivers/STM32WLxx_HAL_Driver/Inc/stm32wlxx_ll_rcc.h ****   CLEAR_BIT(RCC->BDCR, RCC_BDCR_LSECSSON);
1297:Drivers/STM32WLxx_HAL_Driver/Inc/stm32wlxx_ll_rcc.h **** }
1298:Drivers/STM32WLxx_HAL_Driver/Inc/stm32wlxx_ll_rcc.h **** 
1299:Drivers/STM32WLxx_HAL_Driver/Inc/stm32wlxx_ll_rcc.h **** /**
1300:Drivers/STM32WLxx_HAL_Driver/Inc/stm32wlxx_ll_rcc.h ****   * @brief  Enable LSE oscillator propagation for system clock
1301:Drivers/STM32WLxx_HAL_Driver/Inc/stm32wlxx_ll_rcc.h ****   * @rmtoll BDCR         LSESYSEN      LL_RCC_LSE_EnablePropagation
1302:Drivers/STM32WLxx_HAL_Driver/Inc/stm32wlxx_ll_rcc.h ****   * @retval None
1303:Drivers/STM32WLxx_HAL_Driver/Inc/stm32wlxx_ll_rcc.h ****   */
1304:Drivers/STM32WLxx_HAL_Driver/Inc/stm32wlxx_ll_rcc.h **** __STATIC_INLINE void LL_RCC_LSE_EnablePropagation(void)
1305:Drivers/STM32WLxx_HAL_Driver/Inc/stm32wlxx_ll_rcc.h **** {
1306:Drivers/STM32WLxx_HAL_Driver/Inc/stm32wlxx_ll_rcc.h ****   SET_BIT(RCC->BDCR, RCC_BDCR_LSESYSEN);
1307:Drivers/STM32WLxx_HAL_Driver/Inc/stm32wlxx_ll_rcc.h **** }
1308:Drivers/STM32WLxx_HAL_Driver/Inc/stm32wlxx_ll_rcc.h **** 
1309:Drivers/STM32WLxx_HAL_Driver/Inc/stm32wlxx_ll_rcc.h **** /**
1310:Drivers/STM32WLxx_HAL_Driver/Inc/stm32wlxx_ll_rcc.h ****   * @brief  Disable LSE oscillator propagation for system clock
1311:Drivers/STM32WLxx_HAL_Driver/Inc/stm32wlxx_ll_rcc.h ****   * @rmtoll BDCR         LSESYSEN      LL_RCC_LSE_DisablePropagation
1312:Drivers/STM32WLxx_HAL_Driver/Inc/stm32wlxx_ll_rcc.h ****   * @retval None
1313:Drivers/STM32WLxx_HAL_Driver/Inc/stm32wlxx_ll_rcc.h ****   */
1314:Drivers/STM32WLxx_HAL_Driver/Inc/stm32wlxx_ll_rcc.h **** __STATIC_INLINE void LL_RCC_LSE_DisablePropagation(void)
1315:Drivers/STM32WLxx_HAL_Driver/Inc/stm32wlxx_ll_rcc.h **** {
1316:Drivers/STM32WLxx_HAL_Driver/Inc/stm32wlxx_ll_rcc.h ****   CLEAR_BIT(RCC->BDCR, RCC_BDCR_LSESYSEN);
1317:Drivers/STM32WLxx_HAL_Driver/Inc/stm32wlxx_ll_rcc.h **** }
ARM GAS  C:\Users\NATHAN~1\AppData\Local\Temp\cc6e4y2d.s 			page 32


1318:Drivers/STM32WLxx_HAL_Driver/Inc/stm32wlxx_ll_rcc.h **** 
1319:Drivers/STM32WLxx_HAL_Driver/Inc/stm32wlxx_ll_rcc.h **** /**
1320:Drivers/STM32WLxx_HAL_Driver/Inc/stm32wlxx_ll_rcc.h ****   * @brief  Check if LSE oscillator propagation for system clock Ready
1321:Drivers/STM32WLxx_HAL_Driver/Inc/stm32wlxx_ll_rcc.h ****   * @rmtoll BDCR         LSEYSRDY     LL_RCC_LSE_IsPropagationReady
1322:Drivers/STM32WLxx_HAL_Driver/Inc/stm32wlxx_ll_rcc.h ****   * @retval State of bit (1 or 0).
1323:Drivers/STM32WLxx_HAL_Driver/Inc/stm32wlxx_ll_rcc.h ****   */
1324:Drivers/STM32WLxx_HAL_Driver/Inc/stm32wlxx_ll_rcc.h **** __STATIC_INLINE uint32_t LL_RCC_LSE_IsPropagationReady(void)
1325:Drivers/STM32WLxx_HAL_Driver/Inc/stm32wlxx_ll_rcc.h **** {
1326:Drivers/STM32WLxx_HAL_Driver/Inc/stm32wlxx_ll_rcc.h ****   return ((READ_BIT(RCC->BDCR, RCC_BDCR_LSESYSRDY) == (RCC_BDCR_LSESYSRDY)) ? 1UL : 0UL);
1327:Drivers/STM32WLxx_HAL_Driver/Inc/stm32wlxx_ll_rcc.h **** }
1328:Drivers/STM32WLxx_HAL_Driver/Inc/stm32wlxx_ll_rcc.h **** 
1329:Drivers/STM32WLxx_HAL_Driver/Inc/stm32wlxx_ll_rcc.h **** 
1330:Drivers/STM32WLxx_HAL_Driver/Inc/stm32wlxx_ll_rcc.h **** /**
1331:Drivers/STM32WLxx_HAL_Driver/Inc/stm32wlxx_ll_rcc.h ****   * @brief  Check if LSE oscillator Ready
1332:Drivers/STM32WLxx_HAL_Driver/Inc/stm32wlxx_ll_rcc.h ****   * @rmtoll BDCR         LSERDY        LL_RCC_LSE_IsReady
1333:Drivers/STM32WLxx_HAL_Driver/Inc/stm32wlxx_ll_rcc.h ****   * @retval State of bit (1 or 0).
1334:Drivers/STM32WLxx_HAL_Driver/Inc/stm32wlxx_ll_rcc.h ****   */
1335:Drivers/STM32WLxx_HAL_Driver/Inc/stm32wlxx_ll_rcc.h **** __STATIC_INLINE uint32_t LL_RCC_LSE_IsReady(void)
1336:Drivers/STM32WLxx_HAL_Driver/Inc/stm32wlxx_ll_rcc.h **** {
1337:Drivers/STM32WLxx_HAL_Driver/Inc/stm32wlxx_ll_rcc.h ****   return ((READ_BIT(RCC->BDCR, RCC_BDCR_LSERDY) == (RCC_BDCR_LSERDY)) ? 1UL : 0UL);
1338:Drivers/STM32WLxx_HAL_Driver/Inc/stm32wlxx_ll_rcc.h **** }
1339:Drivers/STM32WLxx_HAL_Driver/Inc/stm32wlxx_ll_rcc.h **** 
1340:Drivers/STM32WLxx_HAL_Driver/Inc/stm32wlxx_ll_rcc.h **** /**
1341:Drivers/STM32WLxx_HAL_Driver/Inc/stm32wlxx_ll_rcc.h ****   * @brief  Check if CSS on LSE failure Detection
1342:Drivers/STM32WLxx_HAL_Driver/Inc/stm32wlxx_ll_rcc.h ****   * @rmtoll BDCR         LSECSSD       LL_RCC_LSE_IsCSSDetected
1343:Drivers/STM32WLxx_HAL_Driver/Inc/stm32wlxx_ll_rcc.h ****   * @retval State of bit (1 or 0).
1344:Drivers/STM32WLxx_HAL_Driver/Inc/stm32wlxx_ll_rcc.h ****   */
1345:Drivers/STM32WLxx_HAL_Driver/Inc/stm32wlxx_ll_rcc.h **** __STATIC_INLINE uint32_t LL_RCC_LSE_IsCSSDetected(void)
1346:Drivers/STM32WLxx_HAL_Driver/Inc/stm32wlxx_ll_rcc.h **** {
1347:Drivers/STM32WLxx_HAL_Driver/Inc/stm32wlxx_ll_rcc.h ****   return ((READ_BIT(RCC->BDCR, RCC_BDCR_LSECSSD) == (RCC_BDCR_LSECSSD)) ? 1UL : 0UL);
1348:Drivers/STM32WLxx_HAL_Driver/Inc/stm32wlxx_ll_rcc.h **** }
1349:Drivers/STM32WLxx_HAL_Driver/Inc/stm32wlxx_ll_rcc.h **** 
1350:Drivers/STM32WLxx_HAL_Driver/Inc/stm32wlxx_ll_rcc.h **** /**
1351:Drivers/STM32WLxx_HAL_Driver/Inc/stm32wlxx_ll_rcc.h ****   * @}
1352:Drivers/STM32WLxx_HAL_Driver/Inc/stm32wlxx_ll_rcc.h ****   */
1353:Drivers/STM32WLxx_HAL_Driver/Inc/stm32wlxx_ll_rcc.h **** 
1354:Drivers/STM32WLxx_HAL_Driver/Inc/stm32wlxx_ll_rcc.h **** /** @defgroup RCC_LL_EF_LSI LSI
1355:Drivers/STM32WLxx_HAL_Driver/Inc/stm32wlxx_ll_rcc.h ****   * @{
1356:Drivers/STM32WLxx_HAL_Driver/Inc/stm32wlxx_ll_rcc.h ****   */
1357:Drivers/STM32WLxx_HAL_Driver/Inc/stm32wlxx_ll_rcc.h **** 
1358:Drivers/STM32WLxx_HAL_Driver/Inc/stm32wlxx_ll_rcc.h **** 
1359:Drivers/STM32WLxx_HAL_Driver/Inc/stm32wlxx_ll_rcc.h **** /**
1360:Drivers/STM32WLxx_HAL_Driver/Inc/stm32wlxx_ll_rcc.h ****   * @brief  Set LSI division factor
1361:Drivers/STM32WLxx_HAL_Driver/Inc/stm32wlxx_ll_rcc.h ****   * @rmtoll CSR          LSIPRE     LL_RCC_LSI_SetPrediv
1362:Drivers/STM32WLxx_HAL_Driver/Inc/stm32wlxx_ll_rcc.h ****   * @param  LSI_PREDIV This parameter can be one of the following values:
1363:Drivers/STM32WLxx_HAL_Driver/Inc/stm32wlxx_ll_rcc.h ****   *         @arg @ref LL_RCC_LSI_PREDIV_1
1364:Drivers/STM32WLxx_HAL_Driver/Inc/stm32wlxx_ll_rcc.h ****   *         @arg @ref LL_RCC_LSI_PREDIV_128
1365:Drivers/STM32WLxx_HAL_Driver/Inc/stm32wlxx_ll_rcc.h ****   * @retval None
1366:Drivers/STM32WLxx_HAL_Driver/Inc/stm32wlxx_ll_rcc.h ****   */
1367:Drivers/STM32WLxx_HAL_Driver/Inc/stm32wlxx_ll_rcc.h **** __STATIC_INLINE void LL_RCC_LSI_SetPrediv(uint32_t LSI_PREDIV)
1368:Drivers/STM32WLxx_HAL_Driver/Inc/stm32wlxx_ll_rcc.h **** {
1369:Drivers/STM32WLxx_HAL_Driver/Inc/stm32wlxx_ll_rcc.h ****   MODIFY_REG(RCC->CSR, RCC_CSR_LSIPRE, LSI_PREDIV);
1370:Drivers/STM32WLxx_HAL_Driver/Inc/stm32wlxx_ll_rcc.h **** }
1371:Drivers/STM32WLxx_HAL_Driver/Inc/stm32wlxx_ll_rcc.h **** 
1372:Drivers/STM32WLxx_HAL_Driver/Inc/stm32wlxx_ll_rcc.h **** /**
1373:Drivers/STM32WLxx_HAL_Driver/Inc/stm32wlxx_ll_rcc.h ****   * @brief  Get LSI division factor
1374:Drivers/STM32WLxx_HAL_Driver/Inc/stm32wlxx_ll_rcc.h ****   * @rmtoll CSR          LSIPRE     LL_RCC_LSI_GetPrediv
ARM GAS  C:\Users\NATHAN~1\AppData\Local\Temp\cc6e4y2d.s 			page 33


1375:Drivers/STM32WLxx_HAL_Driver/Inc/stm32wlxx_ll_rcc.h ****   * @retval Returned value can be one of the following values:
1376:Drivers/STM32WLxx_HAL_Driver/Inc/stm32wlxx_ll_rcc.h ****   *         @arg @ref LL_RCC_LSI_PREDIV_1
1377:Drivers/STM32WLxx_HAL_Driver/Inc/stm32wlxx_ll_rcc.h ****   *         @arg @ref LL_RCC_LSI_PREDIV_128
1378:Drivers/STM32WLxx_HAL_Driver/Inc/stm32wlxx_ll_rcc.h ****   */
1379:Drivers/STM32WLxx_HAL_Driver/Inc/stm32wlxx_ll_rcc.h **** __STATIC_INLINE uint32_t LL_RCC_LSI_GetPrediv(void)
1380:Drivers/STM32WLxx_HAL_Driver/Inc/stm32wlxx_ll_rcc.h **** {
1381:Drivers/STM32WLxx_HAL_Driver/Inc/stm32wlxx_ll_rcc.h ****   return (READ_BIT(RCC->CSR, RCC_CSR_LSIPRE));
1382:Drivers/STM32WLxx_HAL_Driver/Inc/stm32wlxx_ll_rcc.h **** }
1383:Drivers/STM32WLxx_HAL_Driver/Inc/stm32wlxx_ll_rcc.h **** 
1384:Drivers/STM32WLxx_HAL_Driver/Inc/stm32wlxx_ll_rcc.h **** 
1385:Drivers/STM32WLxx_HAL_Driver/Inc/stm32wlxx_ll_rcc.h **** /**
1386:Drivers/STM32WLxx_HAL_Driver/Inc/stm32wlxx_ll_rcc.h ****   * @brief  Enable LSI Oscillator
1387:Drivers/STM32WLxx_HAL_Driver/Inc/stm32wlxx_ll_rcc.h ****   * @rmtoll CSR          LSION         LL_RCC_LSI_Enable
1388:Drivers/STM32WLxx_HAL_Driver/Inc/stm32wlxx_ll_rcc.h ****   * @retval None
1389:Drivers/STM32WLxx_HAL_Driver/Inc/stm32wlxx_ll_rcc.h ****   */
1390:Drivers/STM32WLxx_HAL_Driver/Inc/stm32wlxx_ll_rcc.h **** __STATIC_INLINE void LL_RCC_LSI_Enable(void)
1391:Drivers/STM32WLxx_HAL_Driver/Inc/stm32wlxx_ll_rcc.h **** {
1392:Drivers/STM32WLxx_HAL_Driver/Inc/stm32wlxx_ll_rcc.h ****   SET_BIT(RCC->CSR, RCC_CSR_LSION);
1393:Drivers/STM32WLxx_HAL_Driver/Inc/stm32wlxx_ll_rcc.h **** }
1394:Drivers/STM32WLxx_HAL_Driver/Inc/stm32wlxx_ll_rcc.h **** 
1395:Drivers/STM32WLxx_HAL_Driver/Inc/stm32wlxx_ll_rcc.h **** /**
1396:Drivers/STM32WLxx_HAL_Driver/Inc/stm32wlxx_ll_rcc.h ****   * @brief  Disable LSI Oscillator
1397:Drivers/STM32WLxx_HAL_Driver/Inc/stm32wlxx_ll_rcc.h ****   * @rmtoll CSR          LSION         LL_RCC_LSI_Disable
1398:Drivers/STM32WLxx_HAL_Driver/Inc/stm32wlxx_ll_rcc.h ****   * @retval None
1399:Drivers/STM32WLxx_HAL_Driver/Inc/stm32wlxx_ll_rcc.h ****   */
1400:Drivers/STM32WLxx_HAL_Driver/Inc/stm32wlxx_ll_rcc.h **** __STATIC_INLINE void LL_RCC_LSI_Disable(void)
1401:Drivers/STM32WLxx_HAL_Driver/Inc/stm32wlxx_ll_rcc.h **** {
1402:Drivers/STM32WLxx_HAL_Driver/Inc/stm32wlxx_ll_rcc.h ****   CLEAR_BIT(RCC->CSR, RCC_CSR_LSION);
1403:Drivers/STM32WLxx_HAL_Driver/Inc/stm32wlxx_ll_rcc.h **** }
1404:Drivers/STM32WLxx_HAL_Driver/Inc/stm32wlxx_ll_rcc.h **** 
1405:Drivers/STM32WLxx_HAL_Driver/Inc/stm32wlxx_ll_rcc.h **** /**
1406:Drivers/STM32WLxx_HAL_Driver/Inc/stm32wlxx_ll_rcc.h ****   * @brief  Check if LSI is Ready
1407:Drivers/STM32WLxx_HAL_Driver/Inc/stm32wlxx_ll_rcc.h ****   * @rmtoll CSR          LSIRDY        LL_RCC_LSI_IsReady
1408:Drivers/STM32WLxx_HAL_Driver/Inc/stm32wlxx_ll_rcc.h ****   * @retval State of bit (1 or 0).
1409:Drivers/STM32WLxx_HAL_Driver/Inc/stm32wlxx_ll_rcc.h ****   */
1410:Drivers/STM32WLxx_HAL_Driver/Inc/stm32wlxx_ll_rcc.h **** __STATIC_INLINE uint32_t LL_RCC_LSI_IsReady(void)
1411:Drivers/STM32WLxx_HAL_Driver/Inc/stm32wlxx_ll_rcc.h **** {
1412:Drivers/STM32WLxx_HAL_Driver/Inc/stm32wlxx_ll_rcc.h ****   return ((READ_BIT(RCC->CSR, RCC_CSR_LSIRDY) == (RCC_CSR_LSIRDY)) ? 1UL : 0UL);
1413:Drivers/STM32WLxx_HAL_Driver/Inc/stm32wlxx_ll_rcc.h **** }
1414:Drivers/STM32WLxx_HAL_Driver/Inc/stm32wlxx_ll_rcc.h **** 
1415:Drivers/STM32WLxx_HAL_Driver/Inc/stm32wlxx_ll_rcc.h **** /**
1416:Drivers/STM32WLxx_HAL_Driver/Inc/stm32wlxx_ll_rcc.h ****   * @}
1417:Drivers/STM32WLxx_HAL_Driver/Inc/stm32wlxx_ll_rcc.h ****   */
1418:Drivers/STM32WLxx_HAL_Driver/Inc/stm32wlxx_ll_rcc.h **** 
1419:Drivers/STM32WLxx_HAL_Driver/Inc/stm32wlxx_ll_rcc.h **** /** @defgroup RCC_LL_EF_MSI MSI
1420:Drivers/STM32WLxx_HAL_Driver/Inc/stm32wlxx_ll_rcc.h ****   * @{
1421:Drivers/STM32WLxx_HAL_Driver/Inc/stm32wlxx_ll_rcc.h ****   */
1422:Drivers/STM32WLxx_HAL_Driver/Inc/stm32wlxx_ll_rcc.h **** 
1423:Drivers/STM32WLxx_HAL_Driver/Inc/stm32wlxx_ll_rcc.h **** /**
1424:Drivers/STM32WLxx_HAL_Driver/Inc/stm32wlxx_ll_rcc.h ****   * @brief  Enable MSI oscillator
1425:Drivers/STM32WLxx_HAL_Driver/Inc/stm32wlxx_ll_rcc.h ****   * @rmtoll CR           MSION         LL_RCC_MSI_Enable
1426:Drivers/STM32WLxx_HAL_Driver/Inc/stm32wlxx_ll_rcc.h ****   * @retval None
1427:Drivers/STM32WLxx_HAL_Driver/Inc/stm32wlxx_ll_rcc.h ****   */
1428:Drivers/STM32WLxx_HAL_Driver/Inc/stm32wlxx_ll_rcc.h **** __STATIC_INLINE void LL_RCC_MSI_Enable(void)
1429:Drivers/STM32WLxx_HAL_Driver/Inc/stm32wlxx_ll_rcc.h **** {
1430:Drivers/STM32WLxx_HAL_Driver/Inc/stm32wlxx_ll_rcc.h ****   SET_BIT(RCC->CR, RCC_CR_MSION);
1431:Drivers/STM32WLxx_HAL_Driver/Inc/stm32wlxx_ll_rcc.h **** }
ARM GAS  C:\Users\NATHAN~1\AppData\Local\Temp\cc6e4y2d.s 			page 34


1432:Drivers/STM32WLxx_HAL_Driver/Inc/stm32wlxx_ll_rcc.h **** 
1433:Drivers/STM32WLxx_HAL_Driver/Inc/stm32wlxx_ll_rcc.h **** /**
1434:Drivers/STM32WLxx_HAL_Driver/Inc/stm32wlxx_ll_rcc.h ****   * @brief  Disable MSI oscillator
1435:Drivers/STM32WLxx_HAL_Driver/Inc/stm32wlxx_ll_rcc.h ****   * @rmtoll CR           MSION         LL_RCC_MSI_Disable
1436:Drivers/STM32WLxx_HAL_Driver/Inc/stm32wlxx_ll_rcc.h ****   * @retval None
1437:Drivers/STM32WLxx_HAL_Driver/Inc/stm32wlxx_ll_rcc.h ****   */
1438:Drivers/STM32WLxx_HAL_Driver/Inc/stm32wlxx_ll_rcc.h **** __STATIC_INLINE void LL_RCC_MSI_Disable(void)
1439:Drivers/STM32WLxx_HAL_Driver/Inc/stm32wlxx_ll_rcc.h **** {
1440:Drivers/STM32WLxx_HAL_Driver/Inc/stm32wlxx_ll_rcc.h ****   CLEAR_BIT(RCC->CR, RCC_CR_MSION);
1441:Drivers/STM32WLxx_HAL_Driver/Inc/stm32wlxx_ll_rcc.h **** }
1442:Drivers/STM32WLxx_HAL_Driver/Inc/stm32wlxx_ll_rcc.h **** 
1443:Drivers/STM32WLxx_HAL_Driver/Inc/stm32wlxx_ll_rcc.h **** /**
1444:Drivers/STM32WLxx_HAL_Driver/Inc/stm32wlxx_ll_rcc.h ****   * @brief  Check if MSI oscillator Ready
1445:Drivers/STM32WLxx_HAL_Driver/Inc/stm32wlxx_ll_rcc.h ****   * @rmtoll CR           MSIRDY        LL_RCC_MSI_IsReady
1446:Drivers/STM32WLxx_HAL_Driver/Inc/stm32wlxx_ll_rcc.h ****   * @retval State of bit (1 or 0).
1447:Drivers/STM32WLxx_HAL_Driver/Inc/stm32wlxx_ll_rcc.h ****   */
1448:Drivers/STM32WLxx_HAL_Driver/Inc/stm32wlxx_ll_rcc.h **** __STATIC_INLINE uint32_t LL_RCC_MSI_IsReady(void)
1449:Drivers/STM32WLxx_HAL_Driver/Inc/stm32wlxx_ll_rcc.h **** {
1450:Drivers/STM32WLxx_HAL_Driver/Inc/stm32wlxx_ll_rcc.h ****   return ((READ_BIT(RCC->CR, RCC_CR_MSIRDY) == (RCC_CR_MSIRDY)) ? 1UL : 0UL);
1451:Drivers/STM32WLxx_HAL_Driver/Inc/stm32wlxx_ll_rcc.h **** }
1452:Drivers/STM32WLxx_HAL_Driver/Inc/stm32wlxx_ll_rcc.h **** 
1453:Drivers/STM32WLxx_HAL_Driver/Inc/stm32wlxx_ll_rcc.h **** /**
1454:Drivers/STM32WLxx_HAL_Driver/Inc/stm32wlxx_ll_rcc.h ****   * @brief  Enable MSI PLL-mode (Hardware auto calibration with LSE)
1455:Drivers/STM32WLxx_HAL_Driver/Inc/stm32wlxx_ll_rcc.h ****   * @note MSIPLLEN must be enabled after LSE is enabled (LSEON enabled)
1456:Drivers/STM32WLxx_HAL_Driver/Inc/stm32wlxx_ll_rcc.h ****   *       and ready (LSERDY set by hardware)
1457:Drivers/STM32WLxx_HAL_Driver/Inc/stm32wlxx_ll_rcc.h ****   * @note hardware protection to avoid enabling MSIPLLEN if LSE is not
1458:Drivers/STM32WLxx_HAL_Driver/Inc/stm32wlxx_ll_rcc.h ****   *       ready
1459:Drivers/STM32WLxx_HAL_Driver/Inc/stm32wlxx_ll_rcc.h ****   * @rmtoll CR           MSIPLLEN      LL_RCC_MSI_EnablePLLMode
1460:Drivers/STM32WLxx_HAL_Driver/Inc/stm32wlxx_ll_rcc.h ****   * @retval None
1461:Drivers/STM32WLxx_HAL_Driver/Inc/stm32wlxx_ll_rcc.h ****   */
1462:Drivers/STM32WLxx_HAL_Driver/Inc/stm32wlxx_ll_rcc.h **** __STATIC_INLINE void LL_RCC_MSI_EnablePLLMode(void)
1463:Drivers/STM32WLxx_HAL_Driver/Inc/stm32wlxx_ll_rcc.h **** {
1464:Drivers/STM32WLxx_HAL_Driver/Inc/stm32wlxx_ll_rcc.h ****   SET_BIT(RCC->CR, RCC_CR_MSIPLLEN);
1465:Drivers/STM32WLxx_HAL_Driver/Inc/stm32wlxx_ll_rcc.h **** }
1466:Drivers/STM32WLxx_HAL_Driver/Inc/stm32wlxx_ll_rcc.h **** 
1467:Drivers/STM32WLxx_HAL_Driver/Inc/stm32wlxx_ll_rcc.h **** /**
1468:Drivers/STM32WLxx_HAL_Driver/Inc/stm32wlxx_ll_rcc.h ****   * @brief  Disable MSI-PLL mode
1469:Drivers/STM32WLxx_HAL_Driver/Inc/stm32wlxx_ll_rcc.h ****   * @note cleared by hardware when LSE is disabled (LSEON = 0) or when
1470:Drivers/STM32WLxx_HAL_Driver/Inc/stm32wlxx_ll_rcc.h ****   *       the Clock Security System on LSE detects a LSE failure
1471:Drivers/STM32WLxx_HAL_Driver/Inc/stm32wlxx_ll_rcc.h ****   * @rmtoll CR           MSIPLLEN      LL_RCC_MSI_DisablePLLMode
1472:Drivers/STM32WLxx_HAL_Driver/Inc/stm32wlxx_ll_rcc.h ****   * @retval None
1473:Drivers/STM32WLxx_HAL_Driver/Inc/stm32wlxx_ll_rcc.h ****   */
1474:Drivers/STM32WLxx_HAL_Driver/Inc/stm32wlxx_ll_rcc.h **** __STATIC_INLINE void LL_RCC_MSI_DisablePLLMode(void)
1475:Drivers/STM32WLxx_HAL_Driver/Inc/stm32wlxx_ll_rcc.h **** {
1476:Drivers/STM32WLxx_HAL_Driver/Inc/stm32wlxx_ll_rcc.h ****   CLEAR_BIT(RCC->CR, RCC_CR_MSIPLLEN);
1477:Drivers/STM32WLxx_HAL_Driver/Inc/stm32wlxx_ll_rcc.h **** }
1478:Drivers/STM32WLxx_HAL_Driver/Inc/stm32wlxx_ll_rcc.h **** 
1479:Drivers/STM32WLxx_HAL_Driver/Inc/stm32wlxx_ll_rcc.h **** /**
1480:Drivers/STM32WLxx_HAL_Driver/Inc/stm32wlxx_ll_rcc.h ****   * @brief  Enable MSI clock range selection with MSIRANGE register
1481:Drivers/STM32WLxx_HAL_Driver/Inc/stm32wlxx_ll_rcc.h ****   * @note Write 0 has no effect. After a standby or a reset
1482:Drivers/STM32WLxx_HAL_Driver/Inc/stm32wlxx_ll_rcc.h ****   *       MSIRGSEL is at 0 and the MSI range value is provided by
1483:Drivers/STM32WLxx_HAL_Driver/Inc/stm32wlxx_ll_rcc.h ****   *       MSISRANGE
1484:Drivers/STM32WLxx_HAL_Driver/Inc/stm32wlxx_ll_rcc.h ****   * @rmtoll CR           MSIRGSEL      LL_RCC_MSI_EnableRangeSelection
1485:Drivers/STM32WLxx_HAL_Driver/Inc/stm32wlxx_ll_rcc.h ****   * @retval None
1486:Drivers/STM32WLxx_HAL_Driver/Inc/stm32wlxx_ll_rcc.h ****   */
1487:Drivers/STM32WLxx_HAL_Driver/Inc/stm32wlxx_ll_rcc.h **** __STATIC_INLINE void LL_RCC_MSI_EnableRangeSelection(void)
1488:Drivers/STM32WLxx_HAL_Driver/Inc/stm32wlxx_ll_rcc.h **** {
ARM GAS  C:\Users\NATHAN~1\AppData\Local\Temp\cc6e4y2d.s 			page 35


1489:Drivers/STM32WLxx_HAL_Driver/Inc/stm32wlxx_ll_rcc.h ****   SET_BIT(RCC->CR, RCC_CR_MSIRGSEL);
1490:Drivers/STM32WLxx_HAL_Driver/Inc/stm32wlxx_ll_rcc.h **** }
1491:Drivers/STM32WLxx_HAL_Driver/Inc/stm32wlxx_ll_rcc.h **** 
1492:Drivers/STM32WLxx_HAL_Driver/Inc/stm32wlxx_ll_rcc.h **** /**
1493:Drivers/STM32WLxx_HAL_Driver/Inc/stm32wlxx_ll_rcc.h ****   * @brief  Check if MSI clock range is selected with MSIRANGE register
1494:Drivers/STM32WLxx_HAL_Driver/Inc/stm32wlxx_ll_rcc.h ****   * @rmtoll CR           MSIRGSEL      LL_RCC_MSI_IsEnabledRangeSelect
1495:Drivers/STM32WLxx_HAL_Driver/Inc/stm32wlxx_ll_rcc.h ****   * @retval State of bit (1 or 0).
1496:Drivers/STM32WLxx_HAL_Driver/Inc/stm32wlxx_ll_rcc.h ****   */
1497:Drivers/STM32WLxx_HAL_Driver/Inc/stm32wlxx_ll_rcc.h **** __STATIC_INLINE uint32_t LL_RCC_MSI_IsEnabledRangeSelect(void)
1498:Drivers/STM32WLxx_HAL_Driver/Inc/stm32wlxx_ll_rcc.h **** {
1499:Drivers/STM32WLxx_HAL_Driver/Inc/stm32wlxx_ll_rcc.h ****   return ((READ_BIT(RCC->CR, RCC_CR_MSIRGSEL) == (RCC_CR_MSIRGSEL)) ? 1UL : 0UL);
1500:Drivers/STM32WLxx_HAL_Driver/Inc/stm32wlxx_ll_rcc.h **** }
1501:Drivers/STM32WLxx_HAL_Driver/Inc/stm32wlxx_ll_rcc.h **** 
1502:Drivers/STM32WLxx_HAL_Driver/Inc/stm32wlxx_ll_rcc.h **** /**
1503:Drivers/STM32WLxx_HAL_Driver/Inc/stm32wlxx_ll_rcc.h ****   * @brief  Configure the Internal Multi Speed oscillator (MSI) clock range in run mode.
1504:Drivers/STM32WLxx_HAL_Driver/Inc/stm32wlxx_ll_rcc.h ****   * @rmtoll CR           MSIRANGE      LL_RCC_MSI_SetRange
1505:Drivers/STM32WLxx_HAL_Driver/Inc/stm32wlxx_ll_rcc.h ****   * @param  Range This parameter can be one of the following values:
1506:Drivers/STM32WLxx_HAL_Driver/Inc/stm32wlxx_ll_rcc.h ****   *         @arg @ref LL_RCC_MSIRANGE_0
1507:Drivers/STM32WLxx_HAL_Driver/Inc/stm32wlxx_ll_rcc.h ****   *         @arg @ref LL_RCC_MSIRANGE_1
1508:Drivers/STM32WLxx_HAL_Driver/Inc/stm32wlxx_ll_rcc.h ****   *         @arg @ref LL_RCC_MSIRANGE_2
1509:Drivers/STM32WLxx_HAL_Driver/Inc/stm32wlxx_ll_rcc.h ****   *         @arg @ref LL_RCC_MSIRANGE_3
1510:Drivers/STM32WLxx_HAL_Driver/Inc/stm32wlxx_ll_rcc.h ****   *         @arg @ref LL_RCC_MSIRANGE_4
1511:Drivers/STM32WLxx_HAL_Driver/Inc/stm32wlxx_ll_rcc.h ****   *         @arg @ref LL_RCC_MSIRANGE_5
1512:Drivers/STM32WLxx_HAL_Driver/Inc/stm32wlxx_ll_rcc.h ****   *         @arg @ref LL_RCC_MSIRANGE_6
1513:Drivers/STM32WLxx_HAL_Driver/Inc/stm32wlxx_ll_rcc.h ****   *         @arg @ref LL_RCC_MSIRANGE_7
1514:Drivers/STM32WLxx_HAL_Driver/Inc/stm32wlxx_ll_rcc.h ****   *         @arg @ref LL_RCC_MSIRANGE_8
1515:Drivers/STM32WLxx_HAL_Driver/Inc/stm32wlxx_ll_rcc.h ****   *         @arg @ref LL_RCC_MSIRANGE_9
1516:Drivers/STM32WLxx_HAL_Driver/Inc/stm32wlxx_ll_rcc.h ****   *         @arg @ref LL_RCC_MSIRANGE_10
1517:Drivers/STM32WLxx_HAL_Driver/Inc/stm32wlxx_ll_rcc.h ****   *         @arg @ref LL_RCC_MSIRANGE_11
1518:Drivers/STM32WLxx_HAL_Driver/Inc/stm32wlxx_ll_rcc.h ****   * @retval None
1519:Drivers/STM32WLxx_HAL_Driver/Inc/stm32wlxx_ll_rcc.h ****   */
1520:Drivers/STM32WLxx_HAL_Driver/Inc/stm32wlxx_ll_rcc.h **** __STATIC_INLINE void LL_RCC_MSI_SetRange(uint32_t Range)
1521:Drivers/STM32WLxx_HAL_Driver/Inc/stm32wlxx_ll_rcc.h **** {
1522:Drivers/STM32WLxx_HAL_Driver/Inc/stm32wlxx_ll_rcc.h ****   MODIFY_REG(RCC->CR, RCC_CR_MSIRANGE, Range);
1523:Drivers/STM32WLxx_HAL_Driver/Inc/stm32wlxx_ll_rcc.h **** }
1524:Drivers/STM32WLxx_HAL_Driver/Inc/stm32wlxx_ll_rcc.h **** 
1525:Drivers/STM32WLxx_HAL_Driver/Inc/stm32wlxx_ll_rcc.h **** /**
1526:Drivers/STM32WLxx_HAL_Driver/Inc/stm32wlxx_ll_rcc.h ****   * @brief  Get the Internal Multi Speed oscillator (MSI) clock range in run mode.
1527:Drivers/STM32WLxx_HAL_Driver/Inc/stm32wlxx_ll_rcc.h ****   * @rmtoll CR           MSIRANGE      LL_RCC_MSI_GetRange
1528:Drivers/STM32WLxx_HAL_Driver/Inc/stm32wlxx_ll_rcc.h ****   * @retval Returned value can be one of the following values:
1529:Drivers/STM32WLxx_HAL_Driver/Inc/stm32wlxx_ll_rcc.h ****   *         @arg @ref LL_RCC_MSIRANGE_0
1530:Drivers/STM32WLxx_HAL_Driver/Inc/stm32wlxx_ll_rcc.h ****   *         @arg @ref LL_RCC_MSIRANGE_1
1531:Drivers/STM32WLxx_HAL_Driver/Inc/stm32wlxx_ll_rcc.h ****   *         @arg @ref LL_RCC_MSIRANGE_2
1532:Drivers/STM32WLxx_HAL_Driver/Inc/stm32wlxx_ll_rcc.h ****   *         @arg @ref LL_RCC_MSIRANGE_3
1533:Drivers/STM32WLxx_HAL_Driver/Inc/stm32wlxx_ll_rcc.h ****   *         @arg @ref LL_RCC_MSIRANGE_4
1534:Drivers/STM32WLxx_HAL_Driver/Inc/stm32wlxx_ll_rcc.h ****   *         @arg @ref LL_RCC_MSIRANGE_5
1535:Drivers/STM32WLxx_HAL_Driver/Inc/stm32wlxx_ll_rcc.h ****   *         @arg @ref LL_RCC_MSIRANGE_6
1536:Drivers/STM32WLxx_HAL_Driver/Inc/stm32wlxx_ll_rcc.h ****   *         @arg @ref LL_RCC_MSIRANGE_7
1537:Drivers/STM32WLxx_HAL_Driver/Inc/stm32wlxx_ll_rcc.h ****   *         @arg @ref LL_RCC_MSIRANGE_8
1538:Drivers/STM32WLxx_HAL_Driver/Inc/stm32wlxx_ll_rcc.h ****   *         @arg @ref LL_RCC_MSIRANGE_9
1539:Drivers/STM32WLxx_HAL_Driver/Inc/stm32wlxx_ll_rcc.h ****   *         @arg @ref LL_RCC_MSIRANGE_10
1540:Drivers/STM32WLxx_HAL_Driver/Inc/stm32wlxx_ll_rcc.h ****   *         @arg @ref LL_RCC_MSIRANGE_11
1541:Drivers/STM32WLxx_HAL_Driver/Inc/stm32wlxx_ll_rcc.h ****   */
1542:Drivers/STM32WLxx_HAL_Driver/Inc/stm32wlxx_ll_rcc.h **** __STATIC_INLINE uint32_t LL_RCC_MSI_GetRange(void)
1543:Drivers/STM32WLxx_HAL_Driver/Inc/stm32wlxx_ll_rcc.h **** {
1544:Drivers/STM32WLxx_HAL_Driver/Inc/stm32wlxx_ll_rcc.h ****   return (uint32_t)(READ_BIT(RCC->CR, RCC_CR_MSIRANGE));
1545:Drivers/STM32WLxx_HAL_Driver/Inc/stm32wlxx_ll_rcc.h **** }
ARM GAS  C:\Users\NATHAN~1\AppData\Local\Temp\cc6e4y2d.s 			page 36


1546:Drivers/STM32WLxx_HAL_Driver/Inc/stm32wlxx_ll_rcc.h **** 
1547:Drivers/STM32WLxx_HAL_Driver/Inc/stm32wlxx_ll_rcc.h **** /**
1548:Drivers/STM32WLxx_HAL_Driver/Inc/stm32wlxx_ll_rcc.h ****   * @brief  Configure MSI range used after standby
1549:Drivers/STM32WLxx_HAL_Driver/Inc/stm32wlxx_ll_rcc.h ****   * @rmtoll CSR          MSISRANGE     LL_RCC_MSI_SetRangeAfterStandby
1550:Drivers/STM32WLxx_HAL_Driver/Inc/stm32wlxx_ll_rcc.h ****   * @param  Range This parameter can be one of the following values:
1551:Drivers/STM32WLxx_HAL_Driver/Inc/stm32wlxx_ll_rcc.h ****   *         @arg @ref LL_RCC_MSISRANGE_4
1552:Drivers/STM32WLxx_HAL_Driver/Inc/stm32wlxx_ll_rcc.h ****   *         @arg @ref LL_RCC_MSISRANGE_5
1553:Drivers/STM32WLxx_HAL_Driver/Inc/stm32wlxx_ll_rcc.h ****   *         @arg @ref LL_RCC_MSISRANGE_6
1554:Drivers/STM32WLxx_HAL_Driver/Inc/stm32wlxx_ll_rcc.h ****   *         @arg @ref LL_RCC_MSISRANGE_7
1555:Drivers/STM32WLxx_HAL_Driver/Inc/stm32wlxx_ll_rcc.h ****   * @retval None
1556:Drivers/STM32WLxx_HAL_Driver/Inc/stm32wlxx_ll_rcc.h ****   */
1557:Drivers/STM32WLxx_HAL_Driver/Inc/stm32wlxx_ll_rcc.h **** __STATIC_INLINE void LL_RCC_MSI_SetRangeAfterStandby(uint32_t Range)
1558:Drivers/STM32WLxx_HAL_Driver/Inc/stm32wlxx_ll_rcc.h **** {
1559:Drivers/STM32WLxx_HAL_Driver/Inc/stm32wlxx_ll_rcc.h ****   MODIFY_REG(RCC->CSR, RCC_CSR_MSISRANGE, Range);
1560:Drivers/STM32WLxx_HAL_Driver/Inc/stm32wlxx_ll_rcc.h **** }
1561:Drivers/STM32WLxx_HAL_Driver/Inc/stm32wlxx_ll_rcc.h **** 
1562:Drivers/STM32WLxx_HAL_Driver/Inc/stm32wlxx_ll_rcc.h **** /**
1563:Drivers/STM32WLxx_HAL_Driver/Inc/stm32wlxx_ll_rcc.h ****   * @brief  Get MSI range used after standby
1564:Drivers/STM32WLxx_HAL_Driver/Inc/stm32wlxx_ll_rcc.h ****   * @rmtoll CSR          MSISRANGE     LL_RCC_MSI_GetRangeAfterStandby
1565:Drivers/STM32WLxx_HAL_Driver/Inc/stm32wlxx_ll_rcc.h ****   * @retval Returned value can be one of the following values:
1566:Drivers/STM32WLxx_HAL_Driver/Inc/stm32wlxx_ll_rcc.h ****   *         @arg @ref LL_RCC_MSISRANGE_4
1567:Drivers/STM32WLxx_HAL_Driver/Inc/stm32wlxx_ll_rcc.h ****   *         @arg @ref LL_RCC_MSISRANGE_5
1568:Drivers/STM32WLxx_HAL_Driver/Inc/stm32wlxx_ll_rcc.h ****   *         @arg @ref LL_RCC_MSISRANGE_6
1569:Drivers/STM32WLxx_HAL_Driver/Inc/stm32wlxx_ll_rcc.h ****   *         @arg @ref LL_RCC_MSISRANGE_7
1570:Drivers/STM32WLxx_HAL_Driver/Inc/stm32wlxx_ll_rcc.h ****   */
1571:Drivers/STM32WLxx_HAL_Driver/Inc/stm32wlxx_ll_rcc.h **** __STATIC_INLINE uint32_t LL_RCC_MSI_GetRangeAfterStandby(void)
1572:Drivers/STM32WLxx_HAL_Driver/Inc/stm32wlxx_ll_rcc.h **** {
1573:Drivers/STM32WLxx_HAL_Driver/Inc/stm32wlxx_ll_rcc.h ****   return (uint32_t)(READ_BIT(RCC->CSR, RCC_CSR_MSISRANGE));
1574:Drivers/STM32WLxx_HAL_Driver/Inc/stm32wlxx_ll_rcc.h **** }
1575:Drivers/STM32WLxx_HAL_Driver/Inc/stm32wlxx_ll_rcc.h **** 
1576:Drivers/STM32WLxx_HAL_Driver/Inc/stm32wlxx_ll_rcc.h **** /**
1577:Drivers/STM32WLxx_HAL_Driver/Inc/stm32wlxx_ll_rcc.h ****   * @brief  Get MSI Calibration value
1578:Drivers/STM32WLxx_HAL_Driver/Inc/stm32wlxx_ll_rcc.h ****   * @note When MSITRIM is written, MSICAL is updated with the sum of
1579:Drivers/STM32WLxx_HAL_Driver/Inc/stm32wlxx_ll_rcc.h ****   *       MSITRIM and the factory trim value
1580:Drivers/STM32WLxx_HAL_Driver/Inc/stm32wlxx_ll_rcc.h ****   * @rmtoll ICSCR        MSICAL        LL_RCC_MSI_GetCalibration
1581:Drivers/STM32WLxx_HAL_Driver/Inc/stm32wlxx_ll_rcc.h ****   * @retval Between Min_Data = 0 and Max_Data = 255
1582:Drivers/STM32WLxx_HAL_Driver/Inc/stm32wlxx_ll_rcc.h ****   */
1583:Drivers/STM32WLxx_HAL_Driver/Inc/stm32wlxx_ll_rcc.h **** __STATIC_INLINE uint32_t LL_RCC_MSI_GetCalibration(void)
1584:Drivers/STM32WLxx_HAL_Driver/Inc/stm32wlxx_ll_rcc.h **** {
1585:Drivers/STM32WLxx_HAL_Driver/Inc/stm32wlxx_ll_rcc.h ****   return (uint32_t)(READ_BIT(RCC->ICSCR, RCC_ICSCR_MSICAL) >> RCC_ICSCR_MSICAL_Pos);
1586:Drivers/STM32WLxx_HAL_Driver/Inc/stm32wlxx_ll_rcc.h **** }
1587:Drivers/STM32WLxx_HAL_Driver/Inc/stm32wlxx_ll_rcc.h **** 
1588:Drivers/STM32WLxx_HAL_Driver/Inc/stm32wlxx_ll_rcc.h **** /**
1589:Drivers/STM32WLxx_HAL_Driver/Inc/stm32wlxx_ll_rcc.h ****   * @brief  Set MSI Calibration trimming
1590:Drivers/STM32WLxx_HAL_Driver/Inc/stm32wlxx_ll_rcc.h ****   * @note user-programmable trimming value that is added to the MSICAL
1591:Drivers/STM32WLxx_HAL_Driver/Inc/stm32wlxx_ll_rcc.h ****   * @rmtoll ICSCR        MSITRIM       LL_RCC_MSI_SetCalibTrimming
1592:Drivers/STM32WLxx_HAL_Driver/Inc/stm32wlxx_ll_rcc.h ****   * @param  Value Between Min_Data = 0 and Max_Data = 255
1593:Drivers/STM32WLxx_HAL_Driver/Inc/stm32wlxx_ll_rcc.h ****   * @retval None
1594:Drivers/STM32WLxx_HAL_Driver/Inc/stm32wlxx_ll_rcc.h ****   */
1595:Drivers/STM32WLxx_HAL_Driver/Inc/stm32wlxx_ll_rcc.h **** __STATIC_INLINE void LL_RCC_MSI_SetCalibTrimming(uint32_t Value)
1596:Drivers/STM32WLxx_HAL_Driver/Inc/stm32wlxx_ll_rcc.h **** {
1597:Drivers/STM32WLxx_HAL_Driver/Inc/stm32wlxx_ll_rcc.h ****   MODIFY_REG(RCC->ICSCR, RCC_ICSCR_MSITRIM, Value << RCC_ICSCR_MSITRIM_Pos);
1598:Drivers/STM32WLxx_HAL_Driver/Inc/stm32wlxx_ll_rcc.h **** }
1599:Drivers/STM32WLxx_HAL_Driver/Inc/stm32wlxx_ll_rcc.h **** 
1600:Drivers/STM32WLxx_HAL_Driver/Inc/stm32wlxx_ll_rcc.h **** /**
1601:Drivers/STM32WLxx_HAL_Driver/Inc/stm32wlxx_ll_rcc.h ****   * @brief  Get MSI Calibration trimming
1602:Drivers/STM32WLxx_HAL_Driver/Inc/stm32wlxx_ll_rcc.h ****   * @rmtoll ICSCR        MSITRIM       LL_RCC_MSI_GetCalibTrimming
ARM GAS  C:\Users\NATHAN~1\AppData\Local\Temp\cc6e4y2d.s 			page 37


1603:Drivers/STM32WLxx_HAL_Driver/Inc/stm32wlxx_ll_rcc.h ****   * @retval Between 0 and 255
1604:Drivers/STM32WLxx_HAL_Driver/Inc/stm32wlxx_ll_rcc.h ****   */
1605:Drivers/STM32WLxx_HAL_Driver/Inc/stm32wlxx_ll_rcc.h **** __STATIC_INLINE uint32_t LL_RCC_MSI_GetCalibTrimming(void)
1606:Drivers/STM32WLxx_HAL_Driver/Inc/stm32wlxx_ll_rcc.h **** {
1607:Drivers/STM32WLxx_HAL_Driver/Inc/stm32wlxx_ll_rcc.h ****   return (uint32_t)(READ_BIT(RCC->ICSCR, RCC_ICSCR_MSITRIM) >> RCC_ICSCR_MSITRIM_Pos);
1608:Drivers/STM32WLxx_HAL_Driver/Inc/stm32wlxx_ll_rcc.h **** }
1609:Drivers/STM32WLxx_HAL_Driver/Inc/stm32wlxx_ll_rcc.h **** 
1610:Drivers/STM32WLxx_HAL_Driver/Inc/stm32wlxx_ll_rcc.h **** /**
1611:Drivers/STM32WLxx_HAL_Driver/Inc/stm32wlxx_ll_rcc.h ****   * @}
1612:Drivers/STM32WLxx_HAL_Driver/Inc/stm32wlxx_ll_rcc.h ****   */
1613:Drivers/STM32WLxx_HAL_Driver/Inc/stm32wlxx_ll_rcc.h **** 
1614:Drivers/STM32WLxx_HAL_Driver/Inc/stm32wlxx_ll_rcc.h **** /** @defgroup RCC_LL_EF_LSCO LSCO
1615:Drivers/STM32WLxx_HAL_Driver/Inc/stm32wlxx_ll_rcc.h ****   * @{
1616:Drivers/STM32WLxx_HAL_Driver/Inc/stm32wlxx_ll_rcc.h ****   */
1617:Drivers/STM32WLxx_HAL_Driver/Inc/stm32wlxx_ll_rcc.h **** 
1618:Drivers/STM32WLxx_HAL_Driver/Inc/stm32wlxx_ll_rcc.h **** /**
1619:Drivers/STM32WLxx_HAL_Driver/Inc/stm32wlxx_ll_rcc.h ****   * @brief  Enable Low speed clock
1620:Drivers/STM32WLxx_HAL_Driver/Inc/stm32wlxx_ll_rcc.h ****   * @rmtoll BDCR         LSCOEN        LL_RCC_LSCO_Enable
1621:Drivers/STM32WLxx_HAL_Driver/Inc/stm32wlxx_ll_rcc.h ****   * @retval None
1622:Drivers/STM32WLxx_HAL_Driver/Inc/stm32wlxx_ll_rcc.h ****   */
1623:Drivers/STM32WLxx_HAL_Driver/Inc/stm32wlxx_ll_rcc.h **** __STATIC_INLINE void LL_RCC_LSCO_Enable(void)
1624:Drivers/STM32WLxx_HAL_Driver/Inc/stm32wlxx_ll_rcc.h **** {
1625:Drivers/STM32WLxx_HAL_Driver/Inc/stm32wlxx_ll_rcc.h ****   SET_BIT(RCC->BDCR, RCC_BDCR_LSCOEN);
1626:Drivers/STM32WLxx_HAL_Driver/Inc/stm32wlxx_ll_rcc.h **** }
1627:Drivers/STM32WLxx_HAL_Driver/Inc/stm32wlxx_ll_rcc.h **** 
1628:Drivers/STM32WLxx_HAL_Driver/Inc/stm32wlxx_ll_rcc.h **** /**
1629:Drivers/STM32WLxx_HAL_Driver/Inc/stm32wlxx_ll_rcc.h ****   * @brief  Disable Low speed clock
1630:Drivers/STM32WLxx_HAL_Driver/Inc/stm32wlxx_ll_rcc.h ****   * @rmtoll BDCR         LSCOEN        LL_RCC_LSCO_Disable
1631:Drivers/STM32WLxx_HAL_Driver/Inc/stm32wlxx_ll_rcc.h ****   * @retval None
1632:Drivers/STM32WLxx_HAL_Driver/Inc/stm32wlxx_ll_rcc.h ****   */
1633:Drivers/STM32WLxx_HAL_Driver/Inc/stm32wlxx_ll_rcc.h **** __STATIC_INLINE void LL_RCC_LSCO_Disable(void)
1634:Drivers/STM32WLxx_HAL_Driver/Inc/stm32wlxx_ll_rcc.h **** {
1635:Drivers/STM32WLxx_HAL_Driver/Inc/stm32wlxx_ll_rcc.h ****   CLEAR_BIT(RCC->BDCR, RCC_BDCR_LSCOEN);
1636:Drivers/STM32WLxx_HAL_Driver/Inc/stm32wlxx_ll_rcc.h **** }
1637:Drivers/STM32WLxx_HAL_Driver/Inc/stm32wlxx_ll_rcc.h **** 
1638:Drivers/STM32WLxx_HAL_Driver/Inc/stm32wlxx_ll_rcc.h **** /**
1639:Drivers/STM32WLxx_HAL_Driver/Inc/stm32wlxx_ll_rcc.h ****   * @brief  Configure Low speed clock selection
1640:Drivers/STM32WLxx_HAL_Driver/Inc/stm32wlxx_ll_rcc.h ****   * @rmtoll BDCR         LSCOSEL       LL_RCC_LSCO_SetSource
1641:Drivers/STM32WLxx_HAL_Driver/Inc/stm32wlxx_ll_rcc.h ****   * @param  Source This parameter can be one of the following values:
1642:Drivers/STM32WLxx_HAL_Driver/Inc/stm32wlxx_ll_rcc.h ****   *         @arg @ref LL_RCC_LSCO_CLKSOURCE_LSI
1643:Drivers/STM32WLxx_HAL_Driver/Inc/stm32wlxx_ll_rcc.h ****   *         @arg @ref LL_RCC_LSCO_CLKSOURCE_LSE
1644:Drivers/STM32WLxx_HAL_Driver/Inc/stm32wlxx_ll_rcc.h ****   * @retval None
1645:Drivers/STM32WLxx_HAL_Driver/Inc/stm32wlxx_ll_rcc.h ****   */
1646:Drivers/STM32WLxx_HAL_Driver/Inc/stm32wlxx_ll_rcc.h **** __STATIC_INLINE void LL_RCC_LSCO_SetSource(uint32_t Source)
1647:Drivers/STM32WLxx_HAL_Driver/Inc/stm32wlxx_ll_rcc.h **** {
1648:Drivers/STM32WLxx_HAL_Driver/Inc/stm32wlxx_ll_rcc.h ****   MODIFY_REG(RCC->BDCR, RCC_BDCR_LSCOSEL, Source);
1649:Drivers/STM32WLxx_HAL_Driver/Inc/stm32wlxx_ll_rcc.h **** }
1650:Drivers/STM32WLxx_HAL_Driver/Inc/stm32wlxx_ll_rcc.h **** 
1651:Drivers/STM32WLxx_HAL_Driver/Inc/stm32wlxx_ll_rcc.h **** /**
1652:Drivers/STM32WLxx_HAL_Driver/Inc/stm32wlxx_ll_rcc.h ****   * @brief  Get Low speed clock selection
1653:Drivers/STM32WLxx_HAL_Driver/Inc/stm32wlxx_ll_rcc.h ****   * @rmtoll BDCR         LSCOSEL       LL_RCC_LSCO_GetSource
1654:Drivers/STM32WLxx_HAL_Driver/Inc/stm32wlxx_ll_rcc.h ****   * @retval Returned value can be one of the following values:
1655:Drivers/STM32WLxx_HAL_Driver/Inc/stm32wlxx_ll_rcc.h ****   *         @arg @ref LL_RCC_LSCO_CLKSOURCE_LSI
1656:Drivers/STM32WLxx_HAL_Driver/Inc/stm32wlxx_ll_rcc.h ****   *         @arg @ref LL_RCC_LSCO_CLKSOURCE_LSE
1657:Drivers/STM32WLxx_HAL_Driver/Inc/stm32wlxx_ll_rcc.h ****   */
1658:Drivers/STM32WLxx_HAL_Driver/Inc/stm32wlxx_ll_rcc.h **** __STATIC_INLINE uint32_t LL_RCC_LSCO_GetSource(void)
1659:Drivers/STM32WLxx_HAL_Driver/Inc/stm32wlxx_ll_rcc.h **** {
ARM GAS  C:\Users\NATHAN~1\AppData\Local\Temp\cc6e4y2d.s 			page 38


1660:Drivers/STM32WLxx_HAL_Driver/Inc/stm32wlxx_ll_rcc.h ****   return (uint32_t)(READ_BIT(RCC->BDCR, RCC_BDCR_LSCOSEL));
1661:Drivers/STM32WLxx_HAL_Driver/Inc/stm32wlxx_ll_rcc.h **** }
1662:Drivers/STM32WLxx_HAL_Driver/Inc/stm32wlxx_ll_rcc.h **** 
1663:Drivers/STM32WLxx_HAL_Driver/Inc/stm32wlxx_ll_rcc.h **** /**
1664:Drivers/STM32WLxx_HAL_Driver/Inc/stm32wlxx_ll_rcc.h ****   * @}
1665:Drivers/STM32WLxx_HAL_Driver/Inc/stm32wlxx_ll_rcc.h ****   */
1666:Drivers/STM32WLxx_HAL_Driver/Inc/stm32wlxx_ll_rcc.h **** 
1667:Drivers/STM32WLxx_HAL_Driver/Inc/stm32wlxx_ll_rcc.h **** /** @defgroup RCC_LL_EF_RF RF
1668:Drivers/STM32WLxx_HAL_Driver/Inc/stm32wlxx_ll_rcc.h ****   * @{
1669:Drivers/STM32WLxx_HAL_Driver/Inc/stm32wlxx_ll_rcc.h ****   */
1670:Drivers/STM32WLxx_HAL_Driver/Inc/stm32wlxx_ll_rcc.h **** 
1671:Drivers/STM32WLxx_HAL_Driver/Inc/stm32wlxx_ll_rcc.h **** /**
1672:Drivers/STM32WLxx_HAL_Driver/Inc/stm32wlxx_ll_rcc.h ****   * @brief  Enable radio reset
1673:Drivers/STM32WLxx_HAL_Driver/Inc/stm32wlxx_ll_rcc.h ****   * @rmtoll CSR           RFRST        LL_RCC_RF_EnableReset
1674:Drivers/STM32WLxx_HAL_Driver/Inc/stm32wlxx_ll_rcc.h ****   * @retval None
1675:Drivers/STM32WLxx_HAL_Driver/Inc/stm32wlxx_ll_rcc.h ****   */
1676:Drivers/STM32WLxx_HAL_Driver/Inc/stm32wlxx_ll_rcc.h **** __STATIC_INLINE void LL_RCC_RF_EnableReset(void)
1677:Drivers/STM32WLxx_HAL_Driver/Inc/stm32wlxx_ll_rcc.h **** {
1678:Drivers/STM32WLxx_HAL_Driver/Inc/stm32wlxx_ll_rcc.h ****   SET_BIT(RCC->CSR, RCC_CSR_RFRST);
1679:Drivers/STM32WLxx_HAL_Driver/Inc/stm32wlxx_ll_rcc.h **** }
1680:Drivers/STM32WLxx_HAL_Driver/Inc/stm32wlxx_ll_rcc.h **** 
1681:Drivers/STM32WLxx_HAL_Driver/Inc/stm32wlxx_ll_rcc.h **** /**
1682:Drivers/STM32WLxx_HAL_Driver/Inc/stm32wlxx_ll_rcc.h ****   * @brief  Disable radio reset
1683:Drivers/STM32WLxx_HAL_Driver/Inc/stm32wlxx_ll_rcc.h ****   * @rmtoll CSR           RFRST        LL_RCC_RF_DisableReset
1684:Drivers/STM32WLxx_HAL_Driver/Inc/stm32wlxx_ll_rcc.h ****   * @retval None
1685:Drivers/STM32WLxx_HAL_Driver/Inc/stm32wlxx_ll_rcc.h ****   */
1686:Drivers/STM32WLxx_HAL_Driver/Inc/stm32wlxx_ll_rcc.h **** __STATIC_INLINE void LL_RCC_RF_DisableReset(void)
1687:Drivers/STM32WLxx_HAL_Driver/Inc/stm32wlxx_ll_rcc.h **** {
1688:Drivers/STM32WLxx_HAL_Driver/Inc/stm32wlxx_ll_rcc.h ****   CLEAR_BIT(RCC->CSR, RCC_CSR_RFRST);
1689:Drivers/STM32WLxx_HAL_Driver/Inc/stm32wlxx_ll_rcc.h **** }
1690:Drivers/STM32WLxx_HAL_Driver/Inc/stm32wlxx_ll_rcc.h **** 
1691:Drivers/STM32WLxx_HAL_Driver/Inc/stm32wlxx_ll_rcc.h **** /**
1692:Drivers/STM32WLxx_HAL_Driver/Inc/stm32wlxx_ll_rcc.h ****   * @brief  Get radio reset
1693:Drivers/STM32WLxx_HAL_Driver/Inc/stm32wlxx_ll_rcc.h ****   * @rmtoll CSR           RFRST        LL_RCC_RF_IsEnabledReset
1694:Drivers/STM32WLxx_HAL_Driver/Inc/stm32wlxx_ll_rcc.h ****   * @retval None
1695:Drivers/STM32WLxx_HAL_Driver/Inc/stm32wlxx_ll_rcc.h ****   */
1696:Drivers/STM32WLxx_HAL_Driver/Inc/stm32wlxx_ll_rcc.h **** __STATIC_INLINE uint32_t LL_RCC_RF_IsEnabledReset(void)
1697:Drivers/STM32WLxx_HAL_Driver/Inc/stm32wlxx_ll_rcc.h **** {
1698:Drivers/STM32WLxx_HAL_Driver/Inc/stm32wlxx_ll_rcc.h ****   return ((READ_BIT(RCC->CSR, RCC_CSR_RFRST) == (RCC_CSR_RFRST)) ? 1UL : 0UL);
1699:Drivers/STM32WLxx_HAL_Driver/Inc/stm32wlxx_ll_rcc.h **** }
1700:Drivers/STM32WLxx_HAL_Driver/Inc/stm32wlxx_ll_rcc.h **** 
1701:Drivers/STM32WLxx_HAL_Driver/Inc/stm32wlxx_ll_rcc.h **** /**
1702:Drivers/STM32WLxx_HAL_Driver/Inc/stm32wlxx_ll_rcc.h ****   * @brief  Check if RCC flag Radio in reset is set or not.
1703:Drivers/STM32WLxx_HAL_Driver/Inc/stm32wlxx_ll_rcc.h ****   * @rmtoll CSR          RFRSTF      LL_RCC_IsRFUnderReset
1704:Drivers/STM32WLxx_HAL_Driver/Inc/stm32wlxx_ll_rcc.h ****   * @retval State of bit (1 or 0).
1705:Drivers/STM32WLxx_HAL_Driver/Inc/stm32wlxx_ll_rcc.h ****   */
1706:Drivers/STM32WLxx_HAL_Driver/Inc/stm32wlxx_ll_rcc.h **** __STATIC_INLINE uint32_t LL_RCC_IsRFUnderReset(void)
1707:Drivers/STM32WLxx_HAL_Driver/Inc/stm32wlxx_ll_rcc.h **** {
1708:Drivers/STM32WLxx_HAL_Driver/Inc/stm32wlxx_ll_rcc.h ****   return ((READ_BIT(RCC->CSR, RCC_CSR_RFRSTF) == (RCC_CSR_RFRSTF)) ? 1UL : 0UL);
1709:Drivers/STM32WLxx_HAL_Driver/Inc/stm32wlxx_ll_rcc.h **** }
1710:Drivers/STM32WLxx_HAL_Driver/Inc/stm32wlxx_ll_rcc.h **** 
1711:Drivers/STM32WLxx_HAL_Driver/Inc/stm32wlxx_ll_rcc.h **** 
1712:Drivers/STM32WLxx_HAL_Driver/Inc/stm32wlxx_ll_rcc.h **** /**
1713:Drivers/STM32WLxx_HAL_Driver/Inc/stm32wlxx_ll_rcc.h ****   * @}
1714:Drivers/STM32WLxx_HAL_Driver/Inc/stm32wlxx_ll_rcc.h ****   */
1715:Drivers/STM32WLxx_HAL_Driver/Inc/stm32wlxx_ll_rcc.h **** 
1716:Drivers/STM32WLxx_HAL_Driver/Inc/stm32wlxx_ll_rcc.h **** 
ARM GAS  C:\Users\NATHAN~1\AppData\Local\Temp\cc6e4y2d.s 			page 39


1717:Drivers/STM32WLxx_HAL_Driver/Inc/stm32wlxx_ll_rcc.h **** /** @defgroup RCC_LL_EF_System System
1718:Drivers/STM32WLxx_HAL_Driver/Inc/stm32wlxx_ll_rcc.h ****   * @{
1719:Drivers/STM32WLxx_HAL_Driver/Inc/stm32wlxx_ll_rcc.h ****   */
1720:Drivers/STM32WLxx_HAL_Driver/Inc/stm32wlxx_ll_rcc.h **** 
1721:Drivers/STM32WLxx_HAL_Driver/Inc/stm32wlxx_ll_rcc.h **** /**
1722:Drivers/STM32WLxx_HAL_Driver/Inc/stm32wlxx_ll_rcc.h ****   * @brief  Configure the system clock source
1723:Drivers/STM32WLxx_HAL_Driver/Inc/stm32wlxx_ll_rcc.h ****   * @rmtoll CFGR         SW            LL_RCC_SetSysClkSource
1724:Drivers/STM32WLxx_HAL_Driver/Inc/stm32wlxx_ll_rcc.h ****   * @param  Source This parameter can be one of the following values:
1725:Drivers/STM32WLxx_HAL_Driver/Inc/stm32wlxx_ll_rcc.h ****   *         @arg @ref LL_RCC_SYS_CLKSOURCE_MSI
1726:Drivers/STM32WLxx_HAL_Driver/Inc/stm32wlxx_ll_rcc.h ****   *         @arg @ref LL_RCC_SYS_CLKSOURCE_HSI
1727:Drivers/STM32WLxx_HAL_Driver/Inc/stm32wlxx_ll_rcc.h ****   *         @arg @ref LL_RCC_SYS_CLKSOURCE_HSE
1728:Drivers/STM32WLxx_HAL_Driver/Inc/stm32wlxx_ll_rcc.h ****   *         @arg @ref LL_RCC_SYS_CLKSOURCE_PLL
1729:Drivers/STM32WLxx_HAL_Driver/Inc/stm32wlxx_ll_rcc.h ****   * @retval None
1730:Drivers/STM32WLxx_HAL_Driver/Inc/stm32wlxx_ll_rcc.h ****   */
1731:Drivers/STM32WLxx_HAL_Driver/Inc/stm32wlxx_ll_rcc.h **** __STATIC_INLINE void LL_RCC_SetSysClkSource(uint32_t Source)
1732:Drivers/STM32WLxx_HAL_Driver/Inc/stm32wlxx_ll_rcc.h **** {
1733:Drivers/STM32WLxx_HAL_Driver/Inc/stm32wlxx_ll_rcc.h ****   MODIFY_REG(RCC->CFGR, RCC_CFGR_SW, Source);
1734:Drivers/STM32WLxx_HAL_Driver/Inc/stm32wlxx_ll_rcc.h **** }
1735:Drivers/STM32WLxx_HAL_Driver/Inc/stm32wlxx_ll_rcc.h **** 
1736:Drivers/STM32WLxx_HAL_Driver/Inc/stm32wlxx_ll_rcc.h **** /**
1737:Drivers/STM32WLxx_HAL_Driver/Inc/stm32wlxx_ll_rcc.h ****   * @brief  Get the system clock source
1738:Drivers/STM32WLxx_HAL_Driver/Inc/stm32wlxx_ll_rcc.h ****   * @rmtoll CFGR         SWS           LL_RCC_GetSysClkSource
1739:Drivers/STM32WLxx_HAL_Driver/Inc/stm32wlxx_ll_rcc.h ****   * @retval Returned value can be one of the following values:
1740:Drivers/STM32WLxx_HAL_Driver/Inc/stm32wlxx_ll_rcc.h ****   *         @arg @ref LL_RCC_SYS_CLKSOURCE_STATUS_MSI
1741:Drivers/STM32WLxx_HAL_Driver/Inc/stm32wlxx_ll_rcc.h ****   *         @arg @ref LL_RCC_SYS_CLKSOURCE_STATUS_HSI
1742:Drivers/STM32WLxx_HAL_Driver/Inc/stm32wlxx_ll_rcc.h ****   *         @arg @ref LL_RCC_SYS_CLKSOURCE_STATUS_HSE
1743:Drivers/STM32WLxx_HAL_Driver/Inc/stm32wlxx_ll_rcc.h ****   *         @arg @ref LL_RCC_SYS_CLKSOURCE_STATUS_PLL
1744:Drivers/STM32WLxx_HAL_Driver/Inc/stm32wlxx_ll_rcc.h ****   */
1745:Drivers/STM32WLxx_HAL_Driver/Inc/stm32wlxx_ll_rcc.h **** __STATIC_INLINE uint32_t LL_RCC_GetSysClkSource(void)
1746:Drivers/STM32WLxx_HAL_Driver/Inc/stm32wlxx_ll_rcc.h **** {
1747:Drivers/STM32WLxx_HAL_Driver/Inc/stm32wlxx_ll_rcc.h ****   return (uint32_t)(READ_BIT(RCC->CFGR, RCC_CFGR_SWS));
1748:Drivers/STM32WLxx_HAL_Driver/Inc/stm32wlxx_ll_rcc.h **** }
1749:Drivers/STM32WLxx_HAL_Driver/Inc/stm32wlxx_ll_rcc.h **** 
1750:Drivers/STM32WLxx_HAL_Driver/Inc/stm32wlxx_ll_rcc.h **** 
1751:Drivers/STM32WLxx_HAL_Driver/Inc/stm32wlxx_ll_rcc.h **** /**
1752:Drivers/STM32WLxx_HAL_Driver/Inc/stm32wlxx_ll_rcc.h ****   * @brief  Set AHB prescaler
1753:Drivers/STM32WLxx_HAL_Driver/Inc/stm32wlxx_ll_rcc.h ****   * @rmtoll CFGR         HPRE          LL_RCC_SetAHBPrescaler
1754:Drivers/STM32WLxx_HAL_Driver/Inc/stm32wlxx_ll_rcc.h ****   * @param  Prescaler This parameter can be one of the following values:
1755:Drivers/STM32WLxx_HAL_Driver/Inc/stm32wlxx_ll_rcc.h ****   *         @arg @ref LL_RCC_SYSCLK_DIV_1
1756:Drivers/STM32WLxx_HAL_Driver/Inc/stm32wlxx_ll_rcc.h ****   *         @arg @ref LL_RCC_SYSCLK_DIV_2
1757:Drivers/STM32WLxx_HAL_Driver/Inc/stm32wlxx_ll_rcc.h ****   *         @arg @ref LL_RCC_SYSCLK_DIV_3
1758:Drivers/STM32WLxx_HAL_Driver/Inc/stm32wlxx_ll_rcc.h ****   *         @arg @ref LL_RCC_SYSCLK_DIV_4
1759:Drivers/STM32WLxx_HAL_Driver/Inc/stm32wlxx_ll_rcc.h ****   *         @arg @ref LL_RCC_SYSCLK_DIV_5
1760:Drivers/STM32WLxx_HAL_Driver/Inc/stm32wlxx_ll_rcc.h ****   *         @arg @ref LL_RCC_SYSCLK_DIV_6
1761:Drivers/STM32WLxx_HAL_Driver/Inc/stm32wlxx_ll_rcc.h ****   *         @arg @ref LL_RCC_SYSCLK_DIV_8
1762:Drivers/STM32WLxx_HAL_Driver/Inc/stm32wlxx_ll_rcc.h ****   *         @arg @ref LL_RCC_SYSCLK_DIV_10
1763:Drivers/STM32WLxx_HAL_Driver/Inc/stm32wlxx_ll_rcc.h ****   *         @arg @ref LL_RCC_SYSCLK_DIV_16
1764:Drivers/STM32WLxx_HAL_Driver/Inc/stm32wlxx_ll_rcc.h ****   *         @arg @ref LL_RCC_SYSCLK_DIV_32
1765:Drivers/STM32WLxx_HAL_Driver/Inc/stm32wlxx_ll_rcc.h ****   *         @arg @ref LL_RCC_SYSCLK_DIV_64
1766:Drivers/STM32WLxx_HAL_Driver/Inc/stm32wlxx_ll_rcc.h ****   *         @arg @ref LL_RCC_SYSCLK_DIV_128
1767:Drivers/STM32WLxx_HAL_Driver/Inc/stm32wlxx_ll_rcc.h ****   *         @arg @ref LL_RCC_SYSCLK_DIV_256
1768:Drivers/STM32WLxx_HAL_Driver/Inc/stm32wlxx_ll_rcc.h ****   *         @arg @ref LL_RCC_SYSCLK_DIV_512
1769:Drivers/STM32WLxx_HAL_Driver/Inc/stm32wlxx_ll_rcc.h ****   * @retval None
1770:Drivers/STM32WLxx_HAL_Driver/Inc/stm32wlxx_ll_rcc.h ****   */
1771:Drivers/STM32WLxx_HAL_Driver/Inc/stm32wlxx_ll_rcc.h **** __STATIC_INLINE void LL_RCC_SetAHBPrescaler(uint32_t Prescaler)
1772:Drivers/STM32WLxx_HAL_Driver/Inc/stm32wlxx_ll_rcc.h **** {
1773:Drivers/STM32WLxx_HAL_Driver/Inc/stm32wlxx_ll_rcc.h ****   MODIFY_REG(RCC->CFGR, RCC_CFGR_HPRE, Prescaler);
ARM GAS  C:\Users\NATHAN~1\AppData\Local\Temp\cc6e4y2d.s 			page 40


1774:Drivers/STM32WLxx_HAL_Driver/Inc/stm32wlxx_ll_rcc.h **** }
1775:Drivers/STM32WLxx_HAL_Driver/Inc/stm32wlxx_ll_rcc.h **** 
1776:Drivers/STM32WLxx_HAL_Driver/Inc/stm32wlxx_ll_rcc.h **** #if defined(DUAL_CORE)
1777:Drivers/STM32WLxx_HAL_Driver/Inc/stm32wlxx_ll_rcc.h **** /**
1778:Drivers/STM32WLxx_HAL_Driver/Inc/stm32wlxx_ll_rcc.h ****   * @brief  Set CPU2 AHB prescaler
1779:Drivers/STM32WLxx_HAL_Driver/Inc/stm32wlxx_ll_rcc.h ****   * @rmtoll EXTCFGR         C2HPRE          LL_C2_RCC_SetAHBPrescaler
1780:Drivers/STM32WLxx_HAL_Driver/Inc/stm32wlxx_ll_rcc.h ****   * @param  Prescaler This parameter can be one of the following values:
1781:Drivers/STM32WLxx_HAL_Driver/Inc/stm32wlxx_ll_rcc.h ****   *         @arg @ref LL_RCC_SYSCLK_DIV_1
1782:Drivers/STM32WLxx_HAL_Driver/Inc/stm32wlxx_ll_rcc.h ****   *         @arg @ref LL_RCC_SYSCLK_DIV_2
1783:Drivers/STM32WLxx_HAL_Driver/Inc/stm32wlxx_ll_rcc.h ****   *         @arg @ref LL_RCC_SYSCLK_DIV_3
1784:Drivers/STM32WLxx_HAL_Driver/Inc/stm32wlxx_ll_rcc.h ****   *         @arg @ref LL_RCC_SYSCLK_DIV_4
1785:Drivers/STM32WLxx_HAL_Driver/Inc/stm32wlxx_ll_rcc.h ****   *         @arg @ref LL_RCC_SYSCLK_DIV_5
1786:Drivers/STM32WLxx_HAL_Driver/Inc/stm32wlxx_ll_rcc.h ****   *         @arg @ref LL_RCC_SYSCLK_DIV_6
1787:Drivers/STM32WLxx_HAL_Driver/Inc/stm32wlxx_ll_rcc.h ****   *         @arg @ref LL_RCC_SYSCLK_DIV_8
1788:Drivers/STM32WLxx_HAL_Driver/Inc/stm32wlxx_ll_rcc.h ****   *         @arg @ref LL_RCC_SYSCLK_DIV_10
1789:Drivers/STM32WLxx_HAL_Driver/Inc/stm32wlxx_ll_rcc.h ****   *         @arg @ref LL_RCC_SYSCLK_DIV_16
1790:Drivers/STM32WLxx_HAL_Driver/Inc/stm32wlxx_ll_rcc.h ****   *         @arg @ref LL_RCC_SYSCLK_DIV_32
1791:Drivers/STM32WLxx_HAL_Driver/Inc/stm32wlxx_ll_rcc.h ****   *         @arg @ref LL_RCC_SYSCLK_DIV_64
1792:Drivers/STM32WLxx_HAL_Driver/Inc/stm32wlxx_ll_rcc.h ****   *         @arg @ref LL_RCC_SYSCLK_DIV_128
1793:Drivers/STM32WLxx_HAL_Driver/Inc/stm32wlxx_ll_rcc.h ****   *         @arg @ref LL_RCC_SYSCLK_DIV_256
1794:Drivers/STM32WLxx_HAL_Driver/Inc/stm32wlxx_ll_rcc.h ****   *         @arg @ref LL_RCC_SYSCLK_DIV_512
1795:Drivers/STM32WLxx_HAL_Driver/Inc/stm32wlxx_ll_rcc.h ****   * @retval None
1796:Drivers/STM32WLxx_HAL_Driver/Inc/stm32wlxx_ll_rcc.h ****   */
1797:Drivers/STM32WLxx_HAL_Driver/Inc/stm32wlxx_ll_rcc.h **** __STATIC_INLINE void LL_C2_RCC_SetAHBPrescaler(uint32_t Prescaler)
1798:Drivers/STM32WLxx_HAL_Driver/Inc/stm32wlxx_ll_rcc.h **** {
1799:Drivers/STM32WLxx_HAL_Driver/Inc/stm32wlxx_ll_rcc.h ****   MODIFY_REG(RCC->EXTCFGR, RCC_EXTCFGR_C2HPRE, Prescaler);
1800:Drivers/STM32WLxx_HAL_Driver/Inc/stm32wlxx_ll_rcc.h **** }
1801:Drivers/STM32WLxx_HAL_Driver/Inc/stm32wlxx_ll_rcc.h **** #endif /* DUAL_CORE */
1802:Drivers/STM32WLxx_HAL_Driver/Inc/stm32wlxx_ll_rcc.h **** 
1803:Drivers/STM32WLxx_HAL_Driver/Inc/stm32wlxx_ll_rcc.h **** /**
1804:Drivers/STM32WLxx_HAL_Driver/Inc/stm32wlxx_ll_rcc.h ****   * @brief  Set AHB3 prescaler
1805:Drivers/STM32WLxx_HAL_Driver/Inc/stm32wlxx_ll_rcc.h ****   * @rmtoll EXTCFGR         SHDHPRE          LL_RCC_SetAHB3Prescaler
1806:Drivers/STM32WLxx_HAL_Driver/Inc/stm32wlxx_ll_rcc.h ****   * @param  Prescaler This parameter can be one of the following values:
1807:Drivers/STM32WLxx_HAL_Driver/Inc/stm32wlxx_ll_rcc.h ****   *         @arg @ref LL_RCC_SYSCLK_DIV_1
1808:Drivers/STM32WLxx_HAL_Driver/Inc/stm32wlxx_ll_rcc.h ****   *         @arg @ref LL_RCC_SYSCLK_DIV_2
1809:Drivers/STM32WLxx_HAL_Driver/Inc/stm32wlxx_ll_rcc.h ****   *         @arg @ref LL_RCC_SYSCLK_DIV_3
1810:Drivers/STM32WLxx_HAL_Driver/Inc/stm32wlxx_ll_rcc.h ****   *         @arg @ref LL_RCC_SYSCLK_DIV_4
1811:Drivers/STM32WLxx_HAL_Driver/Inc/stm32wlxx_ll_rcc.h ****   *         @arg @ref LL_RCC_SYSCLK_DIV_5
1812:Drivers/STM32WLxx_HAL_Driver/Inc/stm32wlxx_ll_rcc.h ****   *         @arg @ref LL_RCC_SYSCLK_DIV_6
1813:Drivers/STM32WLxx_HAL_Driver/Inc/stm32wlxx_ll_rcc.h ****   *         @arg @ref LL_RCC_SYSCLK_DIV_8
1814:Drivers/STM32WLxx_HAL_Driver/Inc/stm32wlxx_ll_rcc.h ****   *         @arg @ref LL_RCC_SYSCLK_DIV_10
1815:Drivers/STM32WLxx_HAL_Driver/Inc/stm32wlxx_ll_rcc.h ****   *         @arg @ref LL_RCC_SYSCLK_DIV_16
1816:Drivers/STM32WLxx_HAL_Driver/Inc/stm32wlxx_ll_rcc.h ****   *         @arg @ref LL_RCC_SYSCLK_DIV_32
1817:Drivers/STM32WLxx_HAL_Driver/Inc/stm32wlxx_ll_rcc.h ****   *         @arg @ref LL_RCC_SYSCLK_DIV_64
1818:Drivers/STM32WLxx_HAL_Driver/Inc/stm32wlxx_ll_rcc.h ****   *         @arg @ref LL_RCC_SYSCLK_DIV_128
1819:Drivers/STM32WLxx_HAL_Driver/Inc/stm32wlxx_ll_rcc.h ****   *         @arg @ref LL_RCC_SYSCLK_DIV_256
1820:Drivers/STM32WLxx_HAL_Driver/Inc/stm32wlxx_ll_rcc.h ****   *         @arg @ref LL_RCC_SYSCLK_DIV_512
1821:Drivers/STM32WLxx_HAL_Driver/Inc/stm32wlxx_ll_rcc.h ****   * @retval None
1822:Drivers/STM32WLxx_HAL_Driver/Inc/stm32wlxx_ll_rcc.h ****   */
1823:Drivers/STM32WLxx_HAL_Driver/Inc/stm32wlxx_ll_rcc.h **** __STATIC_INLINE void LL_RCC_SetAHB3Prescaler(uint32_t Prescaler)
1824:Drivers/STM32WLxx_HAL_Driver/Inc/stm32wlxx_ll_rcc.h **** {
1825:Drivers/STM32WLxx_HAL_Driver/Inc/stm32wlxx_ll_rcc.h ****   MODIFY_REG(RCC->EXTCFGR, RCC_EXTCFGR_SHDHPRE, Prescaler >> 4);
1826:Drivers/STM32WLxx_HAL_Driver/Inc/stm32wlxx_ll_rcc.h **** }
1827:Drivers/STM32WLxx_HAL_Driver/Inc/stm32wlxx_ll_rcc.h **** 
1828:Drivers/STM32WLxx_HAL_Driver/Inc/stm32wlxx_ll_rcc.h **** /**
1829:Drivers/STM32WLxx_HAL_Driver/Inc/stm32wlxx_ll_rcc.h ****   * @brief  Set APB1 prescaler
1830:Drivers/STM32WLxx_HAL_Driver/Inc/stm32wlxx_ll_rcc.h ****   * @rmtoll CFGR         PPRE1         LL_RCC_SetAPB1Prescaler
ARM GAS  C:\Users\NATHAN~1\AppData\Local\Temp\cc6e4y2d.s 			page 41


1831:Drivers/STM32WLxx_HAL_Driver/Inc/stm32wlxx_ll_rcc.h ****   * @param  Prescaler This parameter can be one of the following values:
1832:Drivers/STM32WLxx_HAL_Driver/Inc/stm32wlxx_ll_rcc.h ****   *         @arg @ref LL_RCC_APB1_DIV_1
1833:Drivers/STM32WLxx_HAL_Driver/Inc/stm32wlxx_ll_rcc.h ****   *         @arg @ref LL_RCC_APB1_DIV_2
1834:Drivers/STM32WLxx_HAL_Driver/Inc/stm32wlxx_ll_rcc.h ****   *         @arg @ref LL_RCC_APB1_DIV_4
1835:Drivers/STM32WLxx_HAL_Driver/Inc/stm32wlxx_ll_rcc.h ****   *         @arg @ref LL_RCC_APB1_DIV_8
1836:Drivers/STM32WLxx_HAL_Driver/Inc/stm32wlxx_ll_rcc.h ****   *         @arg @ref LL_RCC_APB1_DIV_16
1837:Drivers/STM32WLxx_HAL_Driver/Inc/stm32wlxx_ll_rcc.h ****   * @retval None
1838:Drivers/STM32WLxx_HAL_Driver/Inc/stm32wlxx_ll_rcc.h ****   */
1839:Drivers/STM32WLxx_HAL_Driver/Inc/stm32wlxx_ll_rcc.h **** __STATIC_INLINE void LL_RCC_SetAPB1Prescaler(uint32_t Prescaler)
1840:Drivers/STM32WLxx_HAL_Driver/Inc/stm32wlxx_ll_rcc.h **** {
1841:Drivers/STM32WLxx_HAL_Driver/Inc/stm32wlxx_ll_rcc.h ****   MODIFY_REG(RCC->CFGR, RCC_CFGR_PPRE1, Prescaler);
1842:Drivers/STM32WLxx_HAL_Driver/Inc/stm32wlxx_ll_rcc.h **** }
1843:Drivers/STM32WLxx_HAL_Driver/Inc/stm32wlxx_ll_rcc.h **** 
1844:Drivers/STM32WLxx_HAL_Driver/Inc/stm32wlxx_ll_rcc.h **** /**
1845:Drivers/STM32WLxx_HAL_Driver/Inc/stm32wlxx_ll_rcc.h ****   * @brief  Set APB2 prescaler
1846:Drivers/STM32WLxx_HAL_Driver/Inc/stm32wlxx_ll_rcc.h ****   * @rmtoll CFGR         PPRE2         LL_RCC_SetAPB2Prescaler
1847:Drivers/STM32WLxx_HAL_Driver/Inc/stm32wlxx_ll_rcc.h ****   * @param  Prescaler This parameter can be one of the following values:
1848:Drivers/STM32WLxx_HAL_Driver/Inc/stm32wlxx_ll_rcc.h ****   *         @arg @ref LL_RCC_APB2_DIV_1
1849:Drivers/STM32WLxx_HAL_Driver/Inc/stm32wlxx_ll_rcc.h ****   *         @arg @ref LL_RCC_APB2_DIV_2
1850:Drivers/STM32WLxx_HAL_Driver/Inc/stm32wlxx_ll_rcc.h ****   *         @arg @ref LL_RCC_APB2_DIV_4
1851:Drivers/STM32WLxx_HAL_Driver/Inc/stm32wlxx_ll_rcc.h ****   *         @arg @ref LL_RCC_APB2_DIV_8
1852:Drivers/STM32WLxx_HAL_Driver/Inc/stm32wlxx_ll_rcc.h ****   *         @arg @ref LL_RCC_APB2_DIV_16
1853:Drivers/STM32WLxx_HAL_Driver/Inc/stm32wlxx_ll_rcc.h ****   * @retval None
1854:Drivers/STM32WLxx_HAL_Driver/Inc/stm32wlxx_ll_rcc.h ****   */
1855:Drivers/STM32WLxx_HAL_Driver/Inc/stm32wlxx_ll_rcc.h **** __STATIC_INLINE void LL_RCC_SetAPB2Prescaler(uint32_t Prescaler)
1856:Drivers/STM32WLxx_HAL_Driver/Inc/stm32wlxx_ll_rcc.h **** {
1857:Drivers/STM32WLxx_HAL_Driver/Inc/stm32wlxx_ll_rcc.h ****   MODIFY_REG(RCC->CFGR, RCC_CFGR_PPRE2, Prescaler);
1858:Drivers/STM32WLxx_HAL_Driver/Inc/stm32wlxx_ll_rcc.h **** }
1859:Drivers/STM32WLxx_HAL_Driver/Inc/stm32wlxx_ll_rcc.h **** 
1860:Drivers/STM32WLxx_HAL_Driver/Inc/stm32wlxx_ll_rcc.h **** /**
1861:Drivers/STM32WLxx_HAL_Driver/Inc/stm32wlxx_ll_rcc.h ****   * @brief  Get AHB prescaler
1862:Drivers/STM32WLxx_HAL_Driver/Inc/stm32wlxx_ll_rcc.h ****   * @rmtoll CFGR         HPRE          LL_RCC_GetAHBPrescaler
1863:Drivers/STM32WLxx_HAL_Driver/Inc/stm32wlxx_ll_rcc.h ****   * @retval Returned value can be one of the following values:
1864:Drivers/STM32WLxx_HAL_Driver/Inc/stm32wlxx_ll_rcc.h ****   *         @arg @ref LL_RCC_SYSCLK_DIV_1
1865:Drivers/STM32WLxx_HAL_Driver/Inc/stm32wlxx_ll_rcc.h ****   *         @arg @ref LL_RCC_SYSCLK_DIV_2
1866:Drivers/STM32WLxx_HAL_Driver/Inc/stm32wlxx_ll_rcc.h ****   *         @arg @ref LL_RCC_SYSCLK_DIV_3
1867:Drivers/STM32WLxx_HAL_Driver/Inc/stm32wlxx_ll_rcc.h ****   *         @arg @ref LL_RCC_SYSCLK_DIV_4
1868:Drivers/STM32WLxx_HAL_Driver/Inc/stm32wlxx_ll_rcc.h ****   *         @arg @ref LL_RCC_SYSCLK_DIV_5
1869:Drivers/STM32WLxx_HAL_Driver/Inc/stm32wlxx_ll_rcc.h ****   *         @arg @ref LL_RCC_SYSCLK_DIV_6
1870:Drivers/STM32WLxx_HAL_Driver/Inc/stm32wlxx_ll_rcc.h ****   *         @arg @ref LL_RCC_SYSCLK_DIV_8
1871:Drivers/STM32WLxx_HAL_Driver/Inc/stm32wlxx_ll_rcc.h ****   *         @arg @ref LL_RCC_SYSCLK_DIV_10
1872:Drivers/STM32WLxx_HAL_Driver/Inc/stm32wlxx_ll_rcc.h ****   *         @arg @ref LL_RCC_SYSCLK_DIV_16
1873:Drivers/STM32WLxx_HAL_Driver/Inc/stm32wlxx_ll_rcc.h ****   *         @arg @ref LL_RCC_SYSCLK_DIV_32
1874:Drivers/STM32WLxx_HAL_Driver/Inc/stm32wlxx_ll_rcc.h ****   *         @arg @ref LL_RCC_SYSCLK_DIV_64
1875:Drivers/STM32WLxx_HAL_Driver/Inc/stm32wlxx_ll_rcc.h ****   *         @arg @ref LL_RCC_SYSCLK_DIV_128
1876:Drivers/STM32WLxx_HAL_Driver/Inc/stm32wlxx_ll_rcc.h ****   *         @arg @ref LL_RCC_SYSCLK_DIV_256
1877:Drivers/STM32WLxx_HAL_Driver/Inc/stm32wlxx_ll_rcc.h ****   *         @arg @ref LL_RCC_SYSCLK_DIV_512
1878:Drivers/STM32WLxx_HAL_Driver/Inc/stm32wlxx_ll_rcc.h ****   */
1879:Drivers/STM32WLxx_HAL_Driver/Inc/stm32wlxx_ll_rcc.h **** __STATIC_INLINE uint32_t LL_RCC_GetAHBPrescaler(void)
1880:Drivers/STM32WLxx_HAL_Driver/Inc/stm32wlxx_ll_rcc.h **** {
1881:Drivers/STM32WLxx_HAL_Driver/Inc/stm32wlxx_ll_rcc.h ****   return (uint32_t)(READ_BIT(RCC->CFGR, RCC_CFGR_HPRE));
1882:Drivers/STM32WLxx_HAL_Driver/Inc/stm32wlxx_ll_rcc.h **** }
1883:Drivers/STM32WLxx_HAL_Driver/Inc/stm32wlxx_ll_rcc.h **** 
1884:Drivers/STM32WLxx_HAL_Driver/Inc/stm32wlxx_ll_rcc.h **** #if defined(DUAL_CORE)
1885:Drivers/STM32WLxx_HAL_Driver/Inc/stm32wlxx_ll_rcc.h **** /**
1886:Drivers/STM32WLxx_HAL_Driver/Inc/stm32wlxx_ll_rcc.h ****   * @brief  Get C2 AHB prescaler
1887:Drivers/STM32WLxx_HAL_Driver/Inc/stm32wlxx_ll_rcc.h ****   * @rmtoll EXTCFGR         C2HPRE          LL_C2_RCC_GetAHBPrescaler
ARM GAS  C:\Users\NATHAN~1\AppData\Local\Temp\cc6e4y2d.s 			page 42


1888:Drivers/STM32WLxx_HAL_Driver/Inc/stm32wlxx_ll_rcc.h ****   * @retval Returned value can be one of the following values:
1889:Drivers/STM32WLxx_HAL_Driver/Inc/stm32wlxx_ll_rcc.h ****   *         @arg @ref LL_RCC_SYSCLK_DIV_1
1890:Drivers/STM32WLxx_HAL_Driver/Inc/stm32wlxx_ll_rcc.h ****   *         @arg @ref LL_RCC_SYSCLK_DIV_2
1891:Drivers/STM32WLxx_HAL_Driver/Inc/stm32wlxx_ll_rcc.h ****   *         @arg @ref LL_RCC_SYSCLK_DIV_3
1892:Drivers/STM32WLxx_HAL_Driver/Inc/stm32wlxx_ll_rcc.h ****   *         @arg @ref LL_RCC_SYSCLK_DIV_4
1893:Drivers/STM32WLxx_HAL_Driver/Inc/stm32wlxx_ll_rcc.h ****   *         @arg @ref LL_RCC_SYSCLK_DIV_5
1894:Drivers/STM32WLxx_HAL_Driver/Inc/stm32wlxx_ll_rcc.h ****   *         @arg @ref LL_RCC_SYSCLK_DIV_6
1895:Drivers/STM32WLxx_HAL_Driver/Inc/stm32wlxx_ll_rcc.h ****   *         @arg @ref LL_RCC_SYSCLK_DIV_8
1896:Drivers/STM32WLxx_HAL_Driver/Inc/stm32wlxx_ll_rcc.h ****   *         @arg @ref LL_RCC_SYSCLK_DIV_10
1897:Drivers/STM32WLxx_HAL_Driver/Inc/stm32wlxx_ll_rcc.h ****   *         @arg @ref LL_RCC_SYSCLK_DIV_16
1898:Drivers/STM32WLxx_HAL_Driver/Inc/stm32wlxx_ll_rcc.h ****   *         @arg @ref LL_RCC_SYSCLK_DIV_32
1899:Drivers/STM32WLxx_HAL_Driver/Inc/stm32wlxx_ll_rcc.h ****   *         @arg @ref LL_RCC_SYSCLK_DIV_64
1900:Drivers/STM32WLxx_HAL_Driver/Inc/stm32wlxx_ll_rcc.h ****   *         @arg @ref LL_RCC_SYSCLK_DIV_128
1901:Drivers/STM32WLxx_HAL_Driver/Inc/stm32wlxx_ll_rcc.h ****   *         @arg @ref LL_RCC_SYSCLK_DIV_256
1902:Drivers/STM32WLxx_HAL_Driver/Inc/stm32wlxx_ll_rcc.h ****   *         @arg @ref LL_RCC_SYSCLK_DIV_512
1903:Drivers/STM32WLxx_HAL_Driver/Inc/stm32wlxx_ll_rcc.h ****   */
1904:Drivers/STM32WLxx_HAL_Driver/Inc/stm32wlxx_ll_rcc.h **** __STATIC_INLINE uint32_t LL_C2_RCC_GetAHBPrescaler(void)
1905:Drivers/STM32WLxx_HAL_Driver/Inc/stm32wlxx_ll_rcc.h **** {
1906:Drivers/STM32WLxx_HAL_Driver/Inc/stm32wlxx_ll_rcc.h ****   return (uint32_t)(READ_BIT(RCC->EXTCFGR, RCC_EXTCFGR_C2HPRE));
1907:Drivers/STM32WLxx_HAL_Driver/Inc/stm32wlxx_ll_rcc.h **** }
1908:Drivers/STM32WLxx_HAL_Driver/Inc/stm32wlxx_ll_rcc.h **** #endif /* DUAL_CORE */
1909:Drivers/STM32WLxx_HAL_Driver/Inc/stm32wlxx_ll_rcc.h **** 
1910:Drivers/STM32WLxx_HAL_Driver/Inc/stm32wlxx_ll_rcc.h **** /**
1911:Drivers/STM32WLxx_HAL_Driver/Inc/stm32wlxx_ll_rcc.h ****   * @brief  Get AHB3 prescaler
1912:Drivers/STM32WLxx_HAL_Driver/Inc/stm32wlxx_ll_rcc.h ****   * @rmtoll EXTCFGR         SHDHPRE          LL_RCC_GetAHB3Prescaler
1913:Drivers/STM32WLxx_HAL_Driver/Inc/stm32wlxx_ll_rcc.h ****   * @retval Returned value can be one of the following values:
1914:Drivers/STM32WLxx_HAL_Driver/Inc/stm32wlxx_ll_rcc.h ****   *         @arg @ref LL_RCC_SYSCLK_DIV_1
1915:Drivers/STM32WLxx_HAL_Driver/Inc/stm32wlxx_ll_rcc.h ****   *         @arg @ref LL_RCC_SYSCLK_DIV_2
1916:Drivers/STM32WLxx_HAL_Driver/Inc/stm32wlxx_ll_rcc.h ****   *         @arg @ref LL_RCC_SYSCLK_DIV_3
1917:Drivers/STM32WLxx_HAL_Driver/Inc/stm32wlxx_ll_rcc.h ****   *         @arg @ref LL_RCC_SYSCLK_DIV_4
1918:Drivers/STM32WLxx_HAL_Driver/Inc/stm32wlxx_ll_rcc.h ****   *         @arg @ref LL_RCC_SYSCLK_DIV_5
1919:Drivers/STM32WLxx_HAL_Driver/Inc/stm32wlxx_ll_rcc.h ****   *         @arg @ref LL_RCC_SYSCLK_DIV_6
1920:Drivers/STM32WLxx_HAL_Driver/Inc/stm32wlxx_ll_rcc.h ****   *         @arg @ref LL_RCC_SYSCLK_DIV_8
1921:Drivers/STM32WLxx_HAL_Driver/Inc/stm32wlxx_ll_rcc.h ****   *         @arg @ref LL_RCC_SYSCLK_DIV_10
1922:Drivers/STM32WLxx_HAL_Driver/Inc/stm32wlxx_ll_rcc.h ****   *         @arg @ref LL_RCC_SYSCLK_DIV_16
1923:Drivers/STM32WLxx_HAL_Driver/Inc/stm32wlxx_ll_rcc.h ****   *         @arg @ref LL_RCC_SYSCLK_DIV_32
1924:Drivers/STM32WLxx_HAL_Driver/Inc/stm32wlxx_ll_rcc.h ****   *         @arg @ref LL_RCC_SYSCLK_DIV_64
1925:Drivers/STM32WLxx_HAL_Driver/Inc/stm32wlxx_ll_rcc.h ****   *         @arg @ref LL_RCC_SYSCLK_DIV_128
1926:Drivers/STM32WLxx_HAL_Driver/Inc/stm32wlxx_ll_rcc.h ****   *         @arg @ref LL_RCC_SYSCLK_DIV_256
1927:Drivers/STM32WLxx_HAL_Driver/Inc/stm32wlxx_ll_rcc.h ****   *         @arg @ref LL_RCC_SYSCLK_DIV_512
1928:Drivers/STM32WLxx_HAL_Driver/Inc/stm32wlxx_ll_rcc.h ****   */
1929:Drivers/STM32WLxx_HAL_Driver/Inc/stm32wlxx_ll_rcc.h **** __STATIC_INLINE uint32_t LL_RCC_GetAHB3Prescaler(void)
1930:Drivers/STM32WLxx_HAL_Driver/Inc/stm32wlxx_ll_rcc.h **** {
1931:Drivers/STM32WLxx_HAL_Driver/Inc/stm32wlxx_ll_rcc.h ****   return (uint32_t)(READ_BIT(RCC->EXTCFGR, RCC_EXTCFGR_SHDHPRE) << 4);
1932:Drivers/STM32WLxx_HAL_Driver/Inc/stm32wlxx_ll_rcc.h **** }
1933:Drivers/STM32WLxx_HAL_Driver/Inc/stm32wlxx_ll_rcc.h **** 
1934:Drivers/STM32WLxx_HAL_Driver/Inc/stm32wlxx_ll_rcc.h **** /**
1935:Drivers/STM32WLxx_HAL_Driver/Inc/stm32wlxx_ll_rcc.h ****   * @brief  Get APB1 prescaler
1936:Drivers/STM32WLxx_HAL_Driver/Inc/stm32wlxx_ll_rcc.h ****   * @rmtoll CFGR         PPRE1         LL_RCC_GetAPB1Prescaler
1937:Drivers/STM32WLxx_HAL_Driver/Inc/stm32wlxx_ll_rcc.h ****   * @retval Returned value can be one of the following values:
1938:Drivers/STM32WLxx_HAL_Driver/Inc/stm32wlxx_ll_rcc.h ****   *         @arg @ref LL_RCC_APB1_DIV_1
1939:Drivers/STM32WLxx_HAL_Driver/Inc/stm32wlxx_ll_rcc.h ****   *         @arg @ref LL_RCC_APB1_DIV_2
1940:Drivers/STM32WLxx_HAL_Driver/Inc/stm32wlxx_ll_rcc.h ****   *         @arg @ref LL_RCC_APB1_DIV_4
1941:Drivers/STM32WLxx_HAL_Driver/Inc/stm32wlxx_ll_rcc.h ****   *         @arg @ref LL_RCC_APB1_DIV_8
1942:Drivers/STM32WLxx_HAL_Driver/Inc/stm32wlxx_ll_rcc.h ****   *         @arg @ref LL_RCC_APB1_DIV_16
1943:Drivers/STM32WLxx_HAL_Driver/Inc/stm32wlxx_ll_rcc.h ****   */
1944:Drivers/STM32WLxx_HAL_Driver/Inc/stm32wlxx_ll_rcc.h **** __STATIC_INLINE uint32_t LL_RCC_GetAPB1Prescaler(void)
ARM GAS  C:\Users\NATHAN~1\AppData\Local\Temp\cc6e4y2d.s 			page 43


1945:Drivers/STM32WLxx_HAL_Driver/Inc/stm32wlxx_ll_rcc.h **** {
1946:Drivers/STM32WLxx_HAL_Driver/Inc/stm32wlxx_ll_rcc.h ****   return (uint32_t)(READ_BIT(RCC->CFGR, RCC_CFGR_PPRE1));
1947:Drivers/STM32WLxx_HAL_Driver/Inc/stm32wlxx_ll_rcc.h **** }
1948:Drivers/STM32WLxx_HAL_Driver/Inc/stm32wlxx_ll_rcc.h **** 
1949:Drivers/STM32WLxx_HAL_Driver/Inc/stm32wlxx_ll_rcc.h **** /**
1950:Drivers/STM32WLxx_HAL_Driver/Inc/stm32wlxx_ll_rcc.h ****   * @brief  Get APB2 prescaler
1951:Drivers/STM32WLxx_HAL_Driver/Inc/stm32wlxx_ll_rcc.h ****   * @rmtoll CFGR         PPRE2         LL_RCC_GetAPB2Prescaler
1952:Drivers/STM32WLxx_HAL_Driver/Inc/stm32wlxx_ll_rcc.h ****   * @retval Returned value can be one of the following values:
1953:Drivers/STM32WLxx_HAL_Driver/Inc/stm32wlxx_ll_rcc.h ****   *         @arg @ref LL_RCC_APB2_DIV_1
1954:Drivers/STM32WLxx_HAL_Driver/Inc/stm32wlxx_ll_rcc.h ****   *         @arg @ref LL_RCC_APB2_DIV_2
1955:Drivers/STM32WLxx_HAL_Driver/Inc/stm32wlxx_ll_rcc.h ****   *         @arg @ref LL_RCC_APB2_DIV_4
1956:Drivers/STM32WLxx_HAL_Driver/Inc/stm32wlxx_ll_rcc.h ****   *         @arg @ref LL_RCC_APB2_DIV_8
1957:Drivers/STM32WLxx_HAL_Driver/Inc/stm32wlxx_ll_rcc.h ****   *         @arg @ref LL_RCC_APB2_DIV_16
1958:Drivers/STM32WLxx_HAL_Driver/Inc/stm32wlxx_ll_rcc.h ****   */
1959:Drivers/STM32WLxx_HAL_Driver/Inc/stm32wlxx_ll_rcc.h **** __STATIC_INLINE uint32_t LL_RCC_GetAPB2Prescaler(void)
1960:Drivers/STM32WLxx_HAL_Driver/Inc/stm32wlxx_ll_rcc.h **** {
1961:Drivers/STM32WLxx_HAL_Driver/Inc/stm32wlxx_ll_rcc.h ****   return (uint32_t)(READ_BIT(RCC->CFGR, RCC_CFGR_PPRE2));
1962:Drivers/STM32WLxx_HAL_Driver/Inc/stm32wlxx_ll_rcc.h **** }
1963:Drivers/STM32WLxx_HAL_Driver/Inc/stm32wlxx_ll_rcc.h **** 
1964:Drivers/STM32WLxx_HAL_Driver/Inc/stm32wlxx_ll_rcc.h **** /**
1965:Drivers/STM32WLxx_HAL_Driver/Inc/stm32wlxx_ll_rcc.h ****   * @brief  Set Clock After Wake-Up From Stop mode
1966:Drivers/STM32WLxx_HAL_Driver/Inc/stm32wlxx_ll_rcc.h ****   * @rmtoll CFGR         STOPWUCK      LL_RCC_SetClkAfterWakeFromStop
1967:Drivers/STM32WLxx_HAL_Driver/Inc/stm32wlxx_ll_rcc.h ****   * @param  Clock This parameter can be one of the following values:
1968:Drivers/STM32WLxx_HAL_Driver/Inc/stm32wlxx_ll_rcc.h ****   *         @arg @ref LL_RCC_STOP_WAKEUPCLOCK_MSI
1969:Drivers/STM32WLxx_HAL_Driver/Inc/stm32wlxx_ll_rcc.h ****   *         @arg @ref LL_RCC_STOP_WAKEUPCLOCK_HSI
1970:Drivers/STM32WLxx_HAL_Driver/Inc/stm32wlxx_ll_rcc.h ****   * @retval None
1971:Drivers/STM32WLxx_HAL_Driver/Inc/stm32wlxx_ll_rcc.h ****   */
1972:Drivers/STM32WLxx_HAL_Driver/Inc/stm32wlxx_ll_rcc.h **** __STATIC_INLINE void LL_RCC_SetClkAfterWakeFromStop(uint32_t Clock)
1973:Drivers/STM32WLxx_HAL_Driver/Inc/stm32wlxx_ll_rcc.h **** {
1974:Drivers/STM32WLxx_HAL_Driver/Inc/stm32wlxx_ll_rcc.h ****   MODIFY_REG(RCC->CFGR, RCC_CFGR_STOPWUCK, Clock);
1975:Drivers/STM32WLxx_HAL_Driver/Inc/stm32wlxx_ll_rcc.h **** }
1976:Drivers/STM32WLxx_HAL_Driver/Inc/stm32wlxx_ll_rcc.h **** 
1977:Drivers/STM32WLxx_HAL_Driver/Inc/stm32wlxx_ll_rcc.h **** /**
1978:Drivers/STM32WLxx_HAL_Driver/Inc/stm32wlxx_ll_rcc.h ****   * @brief  Get Clock After Wake-Up From Stop mode
1979:Drivers/STM32WLxx_HAL_Driver/Inc/stm32wlxx_ll_rcc.h ****   * @rmtoll CFGR         STOPWUCK      LL_RCC_GetClkAfterWakeFromStop
1980:Drivers/STM32WLxx_HAL_Driver/Inc/stm32wlxx_ll_rcc.h ****   * @retval Returned value can be one of the following values:
1981:Drivers/STM32WLxx_HAL_Driver/Inc/stm32wlxx_ll_rcc.h ****   *         @arg @ref LL_RCC_STOP_WAKEUPCLOCK_MSI
1982:Drivers/STM32WLxx_HAL_Driver/Inc/stm32wlxx_ll_rcc.h ****   *         @arg @ref LL_RCC_STOP_WAKEUPCLOCK_HSI
1983:Drivers/STM32WLxx_HAL_Driver/Inc/stm32wlxx_ll_rcc.h ****   */
1984:Drivers/STM32WLxx_HAL_Driver/Inc/stm32wlxx_ll_rcc.h **** __STATIC_INLINE uint32_t LL_RCC_GetClkAfterWakeFromStop(void)
1985:Drivers/STM32WLxx_HAL_Driver/Inc/stm32wlxx_ll_rcc.h **** {
1986:Drivers/STM32WLxx_HAL_Driver/Inc/stm32wlxx_ll_rcc.h ****   return (uint32_t)(READ_BIT(RCC->CFGR, RCC_CFGR_STOPWUCK));
1987:Drivers/STM32WLxx_HAL_Driver/Inc/stm32wlxx_ll_rcc.h **** }
1988:Drivers/STM32WLxx_HAL_Driver/Inc/stm32wlxx_ll_rcc.h **** 
1989:Drivers/STM32WLxx_HAL_Driver/Inc/stm32wlxx_ll_rcc.h **** /**
1990:Drivers/STM32WLxx_HAL_Driver/Inc/stm32wlxx_ll_rcc.h ****   * @}
1991:Drivers/STM32WLxx_HAL_Driver/Inc/stm32wlxx_ll_rcc.h ****   */
1992:Drivers/STM32WLxx_HAL_Driver/Inc/stm32wlxx_ll_rcc.h **** 
1993:Drivers/STM32WLxx_HAL_Driver/Inc/stm32wlxx_ll_rcc.h **** 
1994:Drivers/STM32WLxx_HAL_Driver/Inc/stm32wlxx_ll_rcc.h **** /** @defgroup RCC_LL_EF_MCO MCO
1995:Drivers/STM32WLxx_HAL_Driver/Inc/stm32wlxx_ll_rcc.h ****   * @{
1996:Drivers/STM32WLxx_HAL_Driver/Inc/stm32wlxx_ll_rcc.h ****   */
1997:Drivers/STM32WLxx_HAL_Driver/Inc/stm32wlxx_ll_rcc.h **** 
1998:Drivers/STM32WLxx_HAL_Driver/Inc/stm32wlxx_ll_rcc.h **** /**
1999:Drivers/STM32WLxx_HAL_Driver/Inc/stm32wlxx_ll_rcc.h ****   * @brief  Configure MCOx
2000:Drivers/STM32WLxx_HAL_Driver/Inc/stm32wlxx_ll_rcc.h ****   * @rmtoll CFGR         MCOSEL        LL_RCC_ConfigMCO\n
2001:Drivers/STM32WLxx_HAL_Driver/Inc/stm32wlxx_ll_rcc.h ****   *         CFGR         MCOPRE        LL_RCC_ConfigMCO
ARM GAS  C:\Users\NATHAN~1\AppData\Local\Temp\cc6e4y2d.s 			page 44


2002:Drivers/STM32WLxx_HAL_Driver/Inc/stm32wlxx_ll_rcc.h ****   * @param  MCOxSource This parameter can be one of the following values:
2003:Drivers/STM32WLxx_HAL_Driver/Inc/stm32wlxx_ll_rcc.h ****   *         @arg @ref LL_RCC_MCO1SOURCE_NOCLOCK
2004:Drivers/STM32WLxx_HAL_Driver/Inc/stm32wlxx_ll_rcc.h ****   *         @arg @ref LL_RCC_MCO1SOURCE_SYSCLK
2005:Drivers/STM32WLxx_HAL_Driver/Inc/stm32wlxx_ll_rcc.h ****   *         @arg @ref LL_RCC_MCO1SOURCE_MSI
2006:Drivers/STM32WLxx_HAL_Driver/Inc/stm32wlxx_ll_rcc.h ****   *         @arg @ref LL_RCC_MCO1SOURCE_HSI
2007:Drivers/STM32WLxx_HAL_Driver/Inc/stm32wlxx_ll_rcc.h ****   *         @arg @ref LL_RCC_MCO1SOURCE_HSE
2008:Drivers/STM32WLxx_HAL_Driver/Inc/stm32wlxx_ll_rcc.h ****   *         @arg @ref LL_RCC_MCO1SOURCE_PLLCLK
2009:Drivers/STM32WLxx_HAL_Driver/Inc/stm32wlxx_ll_rcc.h ****   *         @arg @ref LL_RCC_MCO1SOURCE_LSI
2010:Drivers/STM32WLxx_HAL_Driver/Inc/stm32wlxx_ll_rcc.h ****   *         @arg @ref LL_RCC_MCO1SOURCE_LSE
2011:Drivers/STM32WLxx_HAL_Driver/Inc/stm32wlxx_ll_rcc.h ****   *         @arg @ref LL_RCC_MCO1SOURCE_PLLQCLK
2012:Drivers/STM32WLxx_HAL_Driver/Inc/stm32wlxx_ll_rcc.h ****   *         @arg @ref LL_RCC_MCO1SOURCE_PLLPCLK
2013:Drivers/STM32WLxx_HAL_Driver/Inc/stm32wlxx_ll_rcc.h ****   * @param  MCOxPrescaler This parameter can be one of the following values:
2014:Drivers/STM32WLxx_HAL_Driver/Inc/stm32wlxx_ll_rcc.h ****   *         @arg @ref LL_RCC_MCO1_DIV_1
2015:Drivers/STM32WLxx_HAL_Driver/Inc/stm32wlxx_ll_rcc.h ****   *         @arg @ref LL_RCC_MCO1_DIV_2
2016:Drivers/STM32WLxx_HAL_Driver/Inc/stm32wlxx_ll_rcc.h ****   *         @arg @ref LL_RCC_MCO1_DIV_4
2017:Drivers/STM32WLxx_HAL_Driver/Inc/stm32wlxx_ll_rcc.h ****   *         @arg @ref LL_RCC_MCO1_DIV_8
2018:Drivers/STM32WLxx_HAL_Driver/Inc/stm32wlxx_ll_rcc.h ****   *         @arg @ref LL_RCC_MCO1_DIV_16
2019:Drivers/STM32WLxx_HAL_Driver/Inc/stm32wlxx_ll_rcc.h ****   * @retval None
2020:Drivers/STM32WLxx_HAL_Driver/Inc/stm32wlxx_ll_rcc.h ****   */
2021:Drivers/STM32WLxx_HAL_Driver/Inc/stm32wlxx_ll_rcc.h **** __STATIC_INLINE void LL_RCC_ConfigMCO(uint32_t MCOxSource, uint32_t MCOxPrescaler)
2022:Drivers/STM32WLxx_HAL_Driver/Inc/stm32wlxx_ll_rcc.h **** {
2023:Drivers/STM32WLxx_HAL_Driver/Inc/stm32wlxx_ll_rcc.h ****   MODIFY_REG(RCC->CFGR, RCC_CFGR_MCOSEL | RCC_CFGR_MCOPRE, MCOxSource | MCOxPrescaler);
2024:Drivers/STM32WLxx_HAL_Driver/Inc/stm32wlxx_ll_rcc.h **** }
2025:Drivers/STM32WLxx_HAL_Driver/Inc/stm32wlxx_ll_rcc.h **** 
2026:Drivers/STM32WLxx_HAL_Driver/Inc/stm32wlxx_ll_rcc.h **** /**
2027:Drivers/STM32WLxx_HAL_Driver/Inc/stm32wlxx_ll_rcc.h ****   * @}
2028:Drivers/STM32WLxx_HAL_Driver/Inc/stm32wlxx_ll_rcc.h ****   */
2029:Drivers/STM32WLxx_HAL_Driver/Inc/stm32wlxx_ll_rcc.h **** 
2030:Drivers/STM32WLxx_HAL_Driver/Inc/stm32wlxx_ll_rcc.h **** /** @defgroup RCC_LL_EF_Peripheral_Clock_Source Peripheral Clock Source
2031:Drivers/STM32WLxx_HAL_Driver/Inc/stm32wlxx_ll_rcc.h ****   * @{
2032:Drivers/STM32WLxx_HAL_Driver/Inc/stm32wlxx_ll_rcc.h ****   */
2033:Drivers/STM32WLxx_HAL_Driver/Inc/stm32wlxx_ll_rcc.h **** 
2034:Drivers/STM32WLxx_HAL_Driver/Inc/stm32wlxx_ll_rcc.h **** /**
2035:Drivers/STM32WLxx_HAL_Driver/Inc/stm32wlxx_ll_rcc.h ****   * @brief  Configure USARTx clock source
2036:Drivers/STM32WLxx_HAL_Driver/Inc/stm32wlxx_ll_rcc.h ****   * @rmtoll CCIPR        USART1SEL     LL_RCC_SetUSARTClockSource
2037:Drivers/STM32WLxx_HAL_Driver/Inc/stm32wlxx_ll_rcc.h ****   * @param  USARTxSource This parameter can be one of the following values:
2038:Drivers/STM32WLxx_HAL_Driver/Inc/stm32wlxx_ll_rcc.h ****   *         @arg @ref LL_RCC_USART1_CLKSOURCE_PCLK2
2039:Drivers/STM32WLxx_HAL_Driver/Inc/stm32wlxx_ll_rcc.h ****   *         @arg @ref LL_RCC_USART1_CLKSOURCE_SYSCLK
2040:Drivers/STM32WLxx_HAL_Driver/Inc/stm32wlxx_ll_rcc.h ****   *         @arg @ref LL_RCC_USART1_CLKSOURCE_HSI
2041:Drivers/STM32WLxx_HAL_Driver/Inc/stm32wlxx_ll_rcc.h ****   *         @arg @ref LL_RCC_USART1_CLKSOURCE_LSE
2042:Drivers/STM32WLxx_HAL_Driver/Inc/stm32wlxx_ll_rcc.h ****   *         @arg @ref LL_RCC_USART2_CLKSOURCE_PCLK1
2043:Drivers/STM32WLxx_HAL_Driver/Inc/stm32wlxx_ll_rcc.h ****   *         @arg @ref LL_RCC_USART2_CLKSOURCE_SYSCLK
2044:Drivers/STM32WLxx_HAL_Driver/Inc/stm32wlxx_ll_rcc.h ****   *         @arg @ref LL_RCC_USART2_CLKSOURCE_HSI
2045:Drivers/STM32WLxx_HAL_Driver/Inc/stm32wlxx_ll_rcc.h ****   *         @arg @ref LL_RCC_USART2_CLKSOURCE_LSE
2046:Drivers/STM32WLxx_HAL_Driver/Inc/stm32wlxx_ll_rcc.h ****   * @retval None
2047:Drivers/STM32WLxx_HAL_Driver/Inc/stm32wlxx_ll_rcc.h ****   */
2048:Drivers/STM32WLxx_HAL_Driver/Inc/stm32wlxx_ll_rcc.h **** __STATIC_INLINE void LL_RCC_SetUSARTClockSource(uint32_t USARTxSource)
2049:Drivers/STM32WLxx_HAL_Driver/Inc/stm32wlxx_ll_rcc.h **** {
2050:Drivers/STM32WLxx_HAL_Driver/Inc/stm32wlxx_ll_rcc.h ****   MODIFY_REG(RCC->CCIPR, (USARTxSource >> 16), (USARTxSource & 0x0000FFFFU));
2051:Drivers/STM32WLxx_HAL_Driver/Inc/stm32wlxx_ll_rcc.h **** }
2052:Drivers/STM32WLxx_HAL_Driver/Inc/stm32wlxx_ll_rcc.h **** 
2053:Drivers/STM32WLxx_HAL_Driver/Inc/stm32wlxx_ll_rcc.h **** /**
2054:Drivers/STM32WLxx_HAL_Driver/Inc/stm32wlxx_ll_rcc.h ****   * @brief  Configure I2Sx clock source
2055:Drivers/STM32WLxx_HAL_Driver/Inc/stm32wlxx_ll_rcc.h ****   * @rmtoll CCIPR        I2S2SEL       LL_RCC_SetI2SClockSource
2056:Drivers/STM32WLxx_HAL_Driver/Inc/stm32wlxx_ll_rcc.h ****   * @param  I2SxSource This parameter can be one of the following values:
2057:Drivers/STM32WLxx_HAL_Driver/Inc/stm32wlxx_ll_rcc.h ****   *         @arg @ref LL_RCC_I2S2_CLKSOURCE_PLL
2058:Drivers/STM32WLxx_HAL_Driver/Inc/stm32wlxx_ll_rcc.h ****   *         @arg @ref LL_RCC_I2S2_CLKSOURCE_HSI
ARM GAS  C:\Users\NATHAN~1\AppData\Local\Temp\cc6e4y2d.s 			page 45


2059:Drivers/STM32WLxx_HAL_Driver/Inc/stm32wlxx_ll_rcc.h ****   *         @arg @ref LL_RCC_I2S2_CLKSOURCE_PIN
2060:Drivers/STM32WLxx_HAL_Driver/Inc/stm32wlxx_ll_rcc.h ****   * @retval None
2061:Drivers/STM32WLxx_HAL_Driver/Inc/stm32wlxx_ll_rcc.h ****   */
2062:Drivers/STM32WLxx_HAL_Driver/Inc/stm32wlxx_ll_rcc.h **** __STATIC_INLINE void LL_RCC_SetI2SClockSource(uint32_t I2SxSource)
2063:Drivers/STM32WLxx_HAL_Driver/Inc/stm32wlxx_ll_rcc.h **** {
2064:Drivers/STM32WLxx_HAL_Driver/Inc/stm32wlxx_ll_rcc.h ****   MODIFY_REG(RCC->CCIPR, RCC_CCIPR_I2S2SEL, I2SxSource);
2065:Drivers/STM32WLxx_HAL_Driver/Inc/stm32wlxx_ll_rcc.h **** }
2066:Drivers/STM32WLxx_HAL_Driver/Inc/stm32wlxx_ll_rcc.h **** 
2067:Drivers/STM32WLxx_HAL_Driver/Inc/stm32wlxx_ll_rcc.h **** /**
2068:Drivers/STM32WLxx_HAL_Driver/Inc/stm32wlxx_ll_rcc.h ****   * @brief  Configure LPUARTx clock source
2069:Drivers/STM32WLxx_HAL_Driver/Inc/stm32wlxx_ll_rcc.h ****   * @rmtoll CCIPR        LPUART1SEL    LL_RCC_SetLPUARTClockSource
2070:Drivers/STM32WLxx_HAL_Driver/Inc/stm32wlxx_ll_rcc.h ****   * @param  LPUARTxSource This parameter can be one of the following values:
2071:Drivers/STM32WLxx_HAL_Driver/Inc/stm32wlxx_ll_rcc.h ****   *         @arg @ref LL_RCC_LPUART1_CLKSOURCE_PCLK1
2072:Drivers/STM32WLxx_HAL_Driver/Inc/stm32wlxx_ll_rcc.h ****   *         @arg @ref LL_RCC_LPUART1_CLKSOURCE_SYSCLK
2073:Drivers/STM32WLxx_HAL_Driver/Inc/stm32wlxx_ll_rcc.h ****   *         @arg @ref LL_RCC_LPUART1_CLKSOURCE_HSI
2074:Drivers/STM32WLxx_HAL_Driver/Inc/stm32wlxx_ll_rcc.h ****   *         @arg @ref LL_RCC_LPUART1_CLKSOURCE_LSE
2075:Drivers/STM32WLxx_HAL_Driver/Inc/stm32wlxx_ll_rcc.h ****   * @retval None
2076:Drivers/STM32WLxx_HAL_Driver/Inc/stm32wlxx_ll_rcc.h ****   */
2077:Drivers/STM32WLxx_HAL_Driver/Inc/stm32wlxx_ll_rcc.h **** __STATIC_INLINE void LL_RCC_SetLPUARTClockSource(uint32_t LPUARTxSource)
2078:Drivers/STM32WLxx_HAL_Driver/Inc/stm32wlxx_ll_rcc.h **** {
2079:Drivers/STM32WLxx_HAL_Driver/Inc/stm32wlxx_ll_rcc.h ****   MODIFY_REG(RCC->CCIPR, RCC_CCIPR_LPUART1SEL, LPUARTxSource);
2080:Drivers/STM32WLxx_HAL_Driver/Inc/stm32wlxx_ll_rcc.h **** }
2081:Drivers/STM32WLxx_HAL_Driver/Inc/stm32wlxx_ll_rcc.h **** 
2082:Drivers/STM32WLxx_HAL_Driver/Inc/stm32wlxx_ll_rcc.h **** /**
2083:Drivers/STM32WLxx_HAL_Driver/Inc/stm32wlxx_ll_rcc.h ****   * @brief  Configure I2Cx clock source
2084:Drivers/STM32WLxx_HAL_Driver/Inc/stm32wlxx_ll_rcc.h ****   * @rmtoll CCIPR        I2CxSEL       LL_RCC_SetI2CClockSource
2085:Drivers/STM32WLxx_HAL_Driver/Inc/stm32wlxx_ll_rcc.h ****   * @param  I2CxSource This parameter can be one of the following values:
2086:Drivers/STM32WLxx_HAL_Driver/Inc/stm32wlxx_ll_rcc.h ****   *         @arg @ref LL_RCC_I2C1_CLKSOURCE_PCLK1
2087:Drivers/STM32WLxx_HAL_Driver/Inc/stm32wlxx_ll_rcc.h ****   *         @arg @ref LL_RCC_I2C1_CLKSOURCE_SYSCLK
2088:Drivers/STM32WLxx_HAL_Driver/Inc/stm32wlxx_ll_rcc.h ****   *         @arg @ref LL_RCC_I2C1_CLKSOURCE_HSI
2089:Drivers/STM32WLxx_HAL_Driver/Inc/stm32wlxx_ll_rcc.h ****   *         @arg @ref LL_RCC_I2C2_CLKSOURCE_PCLK1
2090:Drivers/STM32WLxx_HAL_Driver/Inc/stm32wlxx_ll_rcc.h ****   *         @arg @ref LL_RCC_I2C2_CLKSOURCE_SYSCLK
2091:Drivers/STM32WLxx_HAL_Driver/Inc/stm32wlxx_ll_rcc.h ****   *         @arg @ref LL_RCC_I2C2_CLKSOURCE_HSI
2092:Drivers/STM32WLxx_HAL_Driver/Inc/stm32wlxx_ll_rcc.h ****   *         @arg @ref LL_RCC_I2C3_CLKSOURCE_PCLK1
2093:Drivers/STM32WLxx_HAL_Driver/Inc/stm32wlxx_ll_rcc.h ****   *         @arg @ref LL_RCC_I2C3_CLKSOURCE_SYSCLK
2094:Drivers/STM32WLxx_HAL_Driver/Inc/stm32wlxx_ll_rcc.h ****   *         @arg @ref LL_RCC_I2C3_CLKSOURCE_HSI
2095:Drivers/STM32WLxx_HAL_Driver/Inc/stm32wlxx_ll_rcc.h ****   * @retval None
2096:Drivers/STM32WLxx_HAL_Driver/Inc/stm32wlxx_ll_rcc.h ****   */
2097:Drivers/STM32WLxx_HAL_Driver/Inc/stm32wlxx_ll_rcc.h **** __STATIC_INLINE void LL_RCC_SetI2CClockSource(uint32_t I2CxSource)
2098:Drivers/STM32WLxx_HAL_Driver/Inc/stm32wlxx_ll_rcc.h **** {
2099:Drivers/STM32WLxx_HAL_Driver/Inc/stm32wlxx_ll_rcc.h ****   MODIFY_REG(RCC->CCIPR, ((I2CxSource >> 4) & 0x000FF000U), ((I2CxSource << 4) & 0x000FF000U));
2100:Drivers/STM32WLxx_HAL_Driver/Inc/stm32wlxx_ll_rcc.h **** }
2101:Drivers/STM32WLxx_HAL_Driver/Inc/stm32wlxx_ll_rcc.h **** 
2102:Drivers/STM32WLxx_HAL_Driver/Inc/stm32wlxx_ll_rcc.h **** /**
2103:Drivers/STM32WLxx_HAL_Driver/Inc/stm32wlxx_ll_rcc.h ****   * @brief  Configure LPTIMx clock source
2104:Drivers/STM32WLxx_HAL_Driver/Inc/stm32wlxx_ll_rcc.h ****   * @rmtoll CCIPR        LPTIMxSEL     LL_RCC_SetLPTIMClockSource
2105:Drivers/STM32WLxx_HAL_Driver/Inc/stm32wlxx_ll_rcc.h ****   * @param  LPTIMxSource This parameter can be one of the following values:
2106:Drivers/STM32WLxx_HAL_Driver/Inc/stm32wlxx_ll_rcc.h ****   *         @arg @ref LL_RCC_LPTIM1_CLKSOURCE_PCLK1
2107:Drivers/STM32WLxx_HAL_Driver/Inc/stm32wlxx_ll_rcc.h ****   *         @arg @ref LL_RCC_LPTIM1_CLKSOURCE_LSI
2108:Drivers/STM32WLxx_HAL_Driver/Inc/stm32wlxx_ll_rcc.h ****   *         @arg @ref LL_RCC_LPTIM1_CLKSOURCE_HSI
2109:Drivers/STM32WLxx_HAL_Driver/Inc/stm32wlxx_ll_rcc.h ****   *         @arg @ref LL_RCC_LPTIM1_CLKSOURCE_LSE
2110:Drivers/STM32WLxx_HAL_Driver/Inc/stm32wlxx_ll_rcc.h ****   *         @arg @ref LL_RCC_LPTIM2_CLKSOURCE_PCLK1
2111:Drivers/STM32WLxx_HAL_Driver/Inc/stm32wlxx_ll_rcc.h ****   *         @arg @ref LL_RCC_LPTIM2_CLKSOURCE_LSI
2112:Drivers/STM32WLxx_HAL_Driver/Inc/stm32wlxx_ll_rcc.h ****   *         @arg @ref LL_RCC_LPTIM2_CLKSOURCE_HSI
2113:Drivers/STM32WLxx_HAL_Driver/Inc/stm32wlxx_ll_rcc.h ****   *         @arg @ref LL_RCC_LPTIM2_CLKSOURCE_LSE
2114:Drivers/STM32WLxx_HAL_Driver/Inc/stm32wlxx_ll_rcc.h ****   *         @arg @ref LL_RCC_LPTIM3_CLKSOURCE_PCLK1
2115:Drivers/STM32WLxx_HAL_Driver/Inc/stm32wlxx_ll_rcc.h ****   *         @arg @ref LL_RCC_LPTIM3_CLKSOURCE_LSI
ARM GAS  C:\Users\NATHAN~1\AppData\Local\Temp\cc6e4y2d.s 			page 46


2116:Drivers/STM32WLxx_HAL_Driver/Inc/stm32wlxx_ll_rcc.h ****   *         @arg @ref LL_RCC_LPTIM3_CLKSOURCE_HSI
2117:Drivers/STM32WLxx_HAL_Driver/Inc/stm32wlxx_ll_rcc.h ****   *         @arg @ref LL_RCC_LPTIM3_CLKSOURCE_LSE
2118:Drivers/STM32WLxx_HAL_Driver/Inc/stm32wlxx_ll_rcc.h ****   * @retval None
2119:Drivers/STM32WLxx_HAL_Driver/Inc/stm32wlxx_ll_rcc.h ****   */
2120:Drivers/STM32WLxx_HAL_Driver/Inc/stm32wlxx_ll_rcc.h **** __STATIC_INLINE void LL_RCC_SetLPTIMClockSource(uint32_t LPTIMxSource)
2121:Drivers/STM32WLxx_HAL_Driver/Inc/stm32wlxx_ll_rcc.h **** {
2122:Drivers/STM32WLxx_HAL_Driver/Inc/stm32wlxx_ll_rcc.h ****   MODIFY_REG(RCC->CCIPR, (LPTIMxSource & 0xFFFF0000U), (LPTIMxSource << 16));
2123:Drivers/STM32WLxx_HAL_Driver/Inc/stm32wlxx_ll_rcc.h **** }
2124:Drivers/STM32WLxx_HAL_Driver/Inc/stm32wlxx_ll_rcc.h **** 
2125:Drivers/STM32WLxx_HAL_Driver/Inc/stm32wlxx_ll_rcc.h **** /**
2126:Drivers/STM32WLxx_HAL_Driver/Inc/stm32wlxx_ll_rcc.h ****   * @brief  Configure RNG clock source
2127:Drivers/STM32WLxx_HAL_Driver/Inc/stm32wlxx_ll_rcc.h ****   * @rmtoll CCIPR        RNGSEL      LL_RCC_SetRNGClockSource
2128:Drivers/STM32WLxx_HAL_Driver/Inc/stm32wlxx_ll_rcc.h ****   * @param  RNGxSource This parameter can be one of the following values:
2129:Drivers/STM32WLxx_HAL_Driver/Inc/stm32wlxx_ll_rcc.h ****   *         @arg @ref LL_RCC_RNG_CLKSOURCE_PLL
2130:Drivers/STM32WLxx_HAL_Driver/Inc/stm32wlxx_ll_rcc.h ****   *         @arg @ref LL_RCC_RNG_CLKSOURCE_LSI
2131:Drivers/STM32WLxx_HAL_Driver/Inc/stm32wlxx_ll_rcc.h ****   *         @arg @ref LL_RCC_RNG_CLKSOURCE_LSE
2132:Drivers/STM32WLxx_HAL_Driver/Inc/stm32wlxx_ll_rcc.h ****   *         @arg @ref LL_RCC_RNG_CLKSOURCE_MSI
2133:Drivers/STM32WLxx_HAL_Driver/Inc/stm32wlxx_ll_rcc.h ****   * @retval None
2134:Drivers/STM32WLxx_HAL_Driver/Inc/stm32wlxx_ll_rcc.h ****   */
2135:Drivers/STM32WLxx_HAL_Driver/Inc/stm32wlxx_ll_rcc.h **** __STATIC_INLINE void LL_RCC_SetRNGClockSource(uint32_t RNGxSource)
2136:Drivers/STM32WLxx_HAL_Driver/Inc/stm32wlxx_ll_rcc.h **** {
2137:Drivers/STM32WLxx_HAL_Driver/Inc/stm32wlxx_ll_rcc.h ****   MODIFY_REG(RCC->CCIPR, RCC_CCIPR_RNGSEL, RNGxSource);
2138:Drivers/STM32WLxx_HAL_Driver/Inc/stm32wlxx_ll_rcc.h **** }
2139:Drivers/STM32WLxx_HAL_Driver/Inc/stm32wlxx_ll_rcc.h **** 
2140:Drivers/STM32WLxx_HAL_Driver/Inc/stm32wlxx_ll_rcc.h **** 
2141:Drivers/STM32WLxx_HAL_Driver/Inc/stm32wlxx_ll_rcc.h **** /**
2142:Drivers/STM32WLxx_HAL_Driver/Inc/stm32wlxx_ll_rcc.h ****   * @brief  Configure ADC clock source
2143:Drivers/STM32WLxx_HAL_Driver/Inc/stm32wlxx_ll_rcc.h ****   * @rmtoll CCIPR        ADCSEL        LL_RCC_SetADCClockSource
2144:Drivers/STM32WLxx_HAL_Driver/Inc/stm32wlxx_ll_rcc.h ****   * @param  ADCxSource This parameter can be one of the following values:
2145:Drivers/STM32WLxx_HAL_Driver/Inc/stm32wlxx_ll_rcc.h ****   *         @arg @ref LL_RCC_ADC_CLKSOURCE_NONE
2146:Drivers/STM32WLxx_HAL_Driver/Inc/stm32wlxx_ll_rcc.h ****   *         @arg @ref LL_RCC_ADC_CLKSOURCE_PLL
2147:Drivers/STM32WLxx_HAL_Driver/Inc/stm32wlxx_ll_rcc.h ****   *         @arg @ref LL_RCC_ADC_CLKSOURCE_SYSCLK
2148:Drivers/STM32WLxx_HAL_Driver/Inc/stm32wlxx_ll_rcc.h ****   * @retval None
2149:Drivers/STM32WLxx_HAL_Driver/Inc/stm32wlxx_ll_rcc.h ****   */
2150:Drivers/STM32WLxx_HAL_Driver/Inc/stm32wlxx_ll_rcc.h **** __STATIC_INLINE void LL_RCC_SetADCClockSource(uint32_t ADCxSource)
2151:Drivers/STM32WLxx_HAL_Driver/Inc/stm32wlxx_ll_rcc.h **** {
2152:Drivers/STM32WLxx_HAL_Driver/Inc/stm32wlxx_ll_rcc.h ****   MODIFY_REG(RCC->CCIPR, RCC_CCIPR_ADCSEL, ADCxSource);
2153:Drivers/STM32WLxx_HAL_Driver/Inc/stm32wlxx_ll_rcc.h **** }
2154:Drivers/STM32WLxx_HAL_Driver/Inc/stm32wlxx_ll_rcc.h **** 
2155:Drivers/STM32WLxx_HAL_Driver/Inc/stm32wlxx_ll_rcc.h **** /**
2156:Drivers/STM32WLxx_HAL_Driver/Inc/stm32wlxx_ll_rcc.h ****   * @brief  Get USARTx clock source
2157:Drivers/STM32WLxx_HAL_Driver/Inc/stm32wlxx_ll_rcc.h ****   * @rmtoll CCIPR        USART1SEL     LL_RCC_GetUSARTClockSource
2158:Drivers/STM32WLxx_HAL_Driver/Inc/stm32wlxx_ll_rcc.h ****   * @param  USARTx This parameter can be one of the following values:
2159:Drivers/STM32WLxx_HAL_Driver/Inc/stm32wlxx_ll_rcc.h ****   *         @arg @ref LL_RCC_USART1_CLKSOURCE
2160:Drivers/STM32WLxx_HAL_Driver/Inc/stm32wlxx_ll_rcc.h ****   * @retval Returned value can be one of the following values:
2161:Drivers/STM32WLxx_HAL_Driver/Inc/stm32wlxx_ll_rcc.h ****   *         @arg @ref LL_RCC_USART1_CLKSOURCE_PCLK2
2162:Drivers/STM32WLxx_HAL_Driver/Inc/stm32wlxx_ll_rcc.h ****   *         @arg @ref LL_RCC_USART1_CLKSOURCE_SYSCLK
2163:Drivers/STM32WLxx_HAL_Driver/Inc/stm32wlxx_ll_rcc.h ****   *         @arg @ref LL_RCC_USART1_CLKSOURCE_HSI
2164:Drivers/STM32WLxx_HAL_Driver/Inc/stm32wlxx_ll_rcc.h ****   *         @arg @ref LL_RCC_USART1_CLKSOURCE_LSE
2165:Drivers/STM32WLxx_HAL_Driver/Inc/stm32wlxx_ll_rcc.h ****   *         @arg @ref LL_RCC_USART2_CLKSOURCE_PCLK1
2166:Drivers/STM32WLxx_HAL_Driver/Inc/stm32wlxx_ll_rcc.h ****   *         @arg @ref LL_RCC_USART2_CLKSOURCE_SYSCLK
2167:Drivers/STM32WLxx_HAL_Driver/Inc/stm32wlxx_ll_rcc.h ****   *         @arg @ref LL_RCC_USART2_CLKSOURCE_HSI
2168:Drivers/STM32WLxx_HAL_Driver/Inc/stm32wlxx_ll_rcc.h ****   *         @arg @ref LL_RCC_USART2_CLKSOURCE_LSE
2169:Drivers/STM32WLxx_HAL_Driver/Inc/stm32wlxx_ll_rcc.h ****   */
2170:Drivers/STM32WLxx_HAL_Driver/Inc/stm32wlxx_ll_rcc.h **** __STATIC_INLINE uint32_t LL_RCC_GetUSARTClockSource(uint32_t USARTx)
2171:Drivers/STM32WLxx_HAL_Driver/Inc/stm32wlxx_ll_rcc.h **** {
2172:Drivers/STM32WLxx_HAL_Driver/Inc/stm32wlxx_ll_rcc.h ****   return (uint32_t)(READ_BIT(RCC->CCIPR, USARTx) | (USARTx << 16));
ARM GAS  C:\Users\NATHAN~1\AppData\Local\Temp\cc6e4y2d.s 			page 47


2173:Drivers/STM32WLxx_HAL_Driver/Inc/stm32wlxx_ll_rcc.h **** }
2174:Drivers/STM32WLxx_HAL_Driver/Inc/stm32wlxx_ll_rcc.h **** 
2175:Drivers/STM32WLxx_HAL_Driver/Inc/stm32wlxx_ll_rcc.h **** /**
2176:Drivers/STM32WLxx_HAL_Driver/Inc/stm32wlxx_ll_rcc.h ****   * @brief  Get I2Sx clock source
2177:Drivers/STM32WLxx_HAL_Driver/Inc/stm32wlxx_ll_rcc.h ****   * @rmtoll CCIPR        I2S2SEL        LL_RCC_GetI2SClockSource
2178:Drivers/STM32WLxx_HAL_Driver/Inc/stm32wlxx_ll_rcc.h ****   * @param  I2Sx This parameter can be one of the following values:
2179:Drivers/STM32WLxx_HAL_Driver/Inc/stm32wlxx_ll_rcc.h ****   *         @arg @ref LL_RCC_I2S2_CLKSOURCE
2180:Drivers/STM32WLxx_HAL_Driver/Inc/stm32wlxx_ll_rcc.h ****   * @retval Returned value can be one of the following values:
2181:Drivers/STM32WLxx_HAL_Driver/Inc/stm32wlxx_ll_rcc.h ****   *         @arg @ref LL_RCC_I2S2_CLKSOURCE_PLL
2182:Drivers/STM32WLxx_HAL_Driver/Inc/stm32wlxx_ll_rcc.h ****   *         @arg @ref LL_RCC_I2S2_CLKSOURCE_HSI
2183:Drivers/STM32WLxx_HAL_Driver/Inc/stm32wlxx_ll_rcc.h ****   *         @arg @ref LL_RCC_I2S2_CLKSOURCE_PIN
2184:Drivers/STM32WLxx_HAL_Driver/Inc/stm32wlxx_ll_rcc.h ****   */
2185:Drivers/STM32WLxx_HAL_Driver/Inc/stm32wlxx_ll_rcc.h **** __STATIC_INLINE uint32_t LL_RCC_GetI2SClockSource(uint32_t I2Sx)
2186:Drivers/STM32WLxx_HAL_Driver/Inc/stm32wlxx_ll_rcc.h **** {
2187:Drivers/STM32WLxx_HAL_Driver/Inc/stm32wlxx_ll_rcc.h ****   return (uint32_t)(READ_BIT(RCC->CCIPR, I2Sx));
2188:Drivers/STM32WLxx_HAL_Driver/Inc/stm32wlxx_ll_rcc.h **** }
2189:Drivers/STM32WLxx_HAL_Driver/Inc/stm32wlxx_ll_rcc.h **** 
2190:Drivers/STM32WLxx_HAL_Driver/Inc/stm32wlxx_ll_rcc.h **** /**
2191:Drivers/STM32WLxx_HAL_Driver/Inc/stm32wlxx_ll_rcc.h ****   * @brief  Get LPUARTx clock source
2192:Drivers/STM32WLxx_HAL_Driver/Inc/stm32wlxx_ll_rcc.h ****   * @rmtoll CCIPR        LPUART1SEL    LL_RCC_GetLPUARTClockSource
2193:Drivers/STM32WLxx_HAL_Driver/Inc/stm32wlxx_ll_rcc.h ****   * @param  LPUARTx This parameter can be one of the following values:
2194:Drivers/STM32WLxx_HAL_Driver/Inc/stm32wlxx_ll_rcc.h ****   *         @arg @ref LL_RCC_LPUART1_CLKSOURCE
2195:Drivers/STM32WLxx_HAL_Driver/Inc/stm32wlxx_ll_rcc.h ****   * @retval Returned value can be one of the following values:
2196:Drivers/STM32WLxx_HAL_Driver/Inc/stm32wlxx_ll_rcc.h ****   *         @arg @ref LL_RCC_LPUART1_CLKSOURCE_PCLK1
2197:Drivers/STM32WLxx_HAL_Driver/Inc/stm32wlxx_ll_rcc.h ****   *         @arg @ref LL_RCC_LPUART1_CLKSOURCE_SYSCLK
2198:Drivers/STM32WLxx_HAL_Driver/Inc/stm32wlxx_ll_rcc.h ****   *         @arg @ref LL_RCC_LPUART1_CLKSOURCE_HSI
2199:Drivers/STM32WLxx_HAL_Driver/Inc/stm32wlxx_ll_rcc.h ****   *         @arg @ref LL_RCC_LPUART1_CLKSOURCE_LSE
2200:Drivers/STM32WLxx_HAL_Driver/Inc/stm32wlxx_ll_rcc.h ****   */
2201:Drivers/STM32WLxx_HAL_Driver/Inc/stm32wlxx_ll_rcc.h **** __STATIC_INLINE uint32_t LL_RCC_GetLPUARTClockSource(uint32_t LPUARTx)
2202:Drivers/STM32WLxx_HAL_Driver/Inc/stm32wlxx_ll_rcc.h **** {
2203:Drivers/STM32WLxx_HAL_Driver/Inc/stm32wlxx_ll_rcc.h ****   return (uint32_t)(READ_BIT(RCC->CCIPR, LPUARTx));
2204:Drivers/STM32WLxx_HAL_Driver/Inc/stm32wlxx_ll_rcc.h **** }
2205:Drivers/STM32WLxx_HAL_Driver/Inc/stm32wlxx_ll_rcc.h **** 
2206:Drivers/STM32WLxx_HAL_Driver/Inc/stm32wlxx_ll_rcc.h **** /**
2207:Drivers/STM32WLxx_HAL_Driver/Inc/stm32wlxx_ll_rcc.h ****   * @brief  Get I2Cx clock source
2208:Drivers/STM32WLxx_HAL_Driver/Inc/stm32wlxx_ll_rcc.h ****   * @rmtoll CCIPR        I2CxSEL       LL_RCC_GetI2CClockSource
2209:Drivers/STM32WLxx_HAL_Driver/Inc/stm32wlxx_ll_rcc.h ****   * @param  I2Cx This parameter can be one of the following values:
2210:Drivers/STM32WLxx_HAL_Driver/Inc/stm32wlxx_ll_rcc.h ****   *         @arg @ref LL_RCC_I2C1_CLKSOURCE
2211:Drivers/STM32WLxx_HAL_Driver/Inc/stm32wlxx_ll_rcc.h ****   *         @arg @ref LL_RCC_I2C3_CLKSOURCE
2212:Drivers/STM32WLxx_HAL_Driver/Inc/stm32wlxx_ll_rcc.h ****   * @retval Returned value can be one of the following values:
2213:Drivers/STM32WLxx_HAL_Driver/Inc/stm32wlxx_ll_rcc.h ****   *         @arg @ref LL_RCC_I2C1_CLKSOURCE_PCLK1
2214:Drivers/STM32WLxx_HAL_Driver/Inc/stm32wlxx_ll_rcc.h ****   *         @arg @ref LL_RCC_I2C1_CLKSOURCE_SYSCLK
2215:Drivers/STM32WLxx_HAL_Driver/Inc/stm32wlxx_ll_rcc.h ****   *         @arg @ref LL_RCC_I2C1_CLKSOURCE_HSI
2216:Drivers/STM32WLxx_HAL_Driver/Inc/stm32wlxx_ll_rcc.h ****   *         @arg @ref LL_RCC_I2C2_CLKSOURCE_PCLK1
2217:Drivers/STM32WLxx_HAL_Driver/Inc/stm32wlxx_ll_rcc.h ****   *         @arg @ref LL_RCC_I2C2_CLKSOURCE_SYSCLK
2218:Drivers/STM32WLxx_HAL_Driver/Inc/stm32wlxx_ll_rcc.h ****   *         @arg @ref LL_RCC_I2C2_CLKSOURCE_HSI
2219:Drivers/STM32WLxx_HAL_Driver/Inc/stm32wlxx_ll_rcc.h ****   *         @arg @ref LL_RCC_I2C3_CLKSOURCE_PCLK1
2220:Drivers/STM32WLxx_HAL_Driver/Inc/stm32wlxx_ll_rcc.h ****   *         @arg @ref LL_RCC_I2C3_CLKSOURCE_SYSCLK
2221:Drivers/STM32WLxx_HAL_Driver/Inc/stm32wlxx_ll_rcc.h ****   *         @arg @ref LL_RCC_I2C3_CLKSOURCE_HSI
2222:Drivers/STM32WLxx_HAL_Driver/Inc/stm32wlxx_ll_rcc.h ****   */
2223:Drivers/STM32WLxx_HAL_Driver/Inc/stm32wlxx_ll_rcc.h **** __STATIC_INLINE uint32_t LL_RCC_GetI2CClockSource(uint32_t I2Cx)
2224:Drivers/STM32WLxx_HAL_Driver/Inc/stm32wlxx_ll_rcc.h **** {
2225:Drivers/STM32WLxx_HAL_Driver/Inc/stm32wlxx_ll_rcc.h ****   return (uint32_t)((READ_BIT(RCC->CCIPR, I2Cx) >> 4) | (I2Cx << 4));
2226:Drivers/STM32WLxx_HAL_Driver/Inc/stm32wlxx_ll_rcc.h **** }
2227:Drivers/STM32WLxx_HAL_Driver/Inc/stm32wlxx_ll_rcc.h **** 
2228:Drivers/STM32WLxx_HAL_Driver/Inc/stm32wlxx_ll_rcc.h **** /**
2229:Drivers/STM32WLxx_HAL_Driver/Inc/stm32wlxx_ll_rcc.h ****   * @brief  Get LPTIMx clock source
ARM GAS  C:\Users\NATHAN~1\AppData\Local\Temp\cc6e4y2d.s 			page 48


2230:Drivers/STM32WLxx_HAL_Driver/Inc/stm32wlxx_ll_rcc.h ****   * @rmtoll CCIPR        LPTIMxSEL     LL_RCC_GetLPTIMClockSource
2231:Drivers/STM32WLxx_HAL_Driver/Inc/stm32wlxx_ll_rcc.h ****   * @param  LPTIMx This parameter can be one of the following values:
2232:Drivers/STM32WLxx_HAL_Driver/Inc/stm32wlxx_ll_rcc.h ****   *         @arg @ref LL_RCC_LPTIM1_CLKSOURCE
2233:Drivers/STM32WLxx_HAL_Driver/Inc/stm32wlxx_ll_rcc.h ****   *         @arg @ref LL_RCC_LPTIM2_CLKSOURCE
2234:Drivers/STM32WLxx_HAL_Driver/Inc/stm32wlxx_ll_rcc.h ****   *         @arg @ref LL_RCC_LPTIM3_CLKSOURCE
2235:Drivers/STM32WLxx_HAL_Driver/Inc/stm32wlxx_ll_rcc.h ****   * @retval Returned value can be one of the following values:
2236:Drivers/STM32WLxx_HAL_Driver/Inc/stm32wlxx_ll_rcc.h ****   *         @arg @ref LL_RCC_LPTIM1_CLKSOURCE_PCLK1
2237:Drivers/STM32WLxx_HAL_Driver/Inc/stm32wlxx_ll_rcc.h ****   *         @arg @ref LL_RCC_LPTIM1_CLKSOURCE_LSI
2238:Drivers/STM32WLxx_HAL_Driver/Inc/stm32wlxx_ll_rcc.h ****   *         @arg @ref LL_RCC_LPTIM1_CLKSOURCE_HSI
2239:Drivers/STM32WLxx_HAL_Driver/Inc/stm32wlxx_ll_rcc.h ****   *         @arg @ref LL_RCC_LPTIM1_CLKSOURCE_LSE
2240:Drivers/STM32WLxx_HAL_Driver/Inc/stm32wlxx_ll_rcc.h ****   *         @arg @ref LL_RCC_LPTIM2_CLKSOURCE_PCLK1
2241:Drivers/STM32WLxx_HAL_Driver/Inc/stm32wlxx_ll_rcc.h ****   *         @arg @ref LL_RCC_LPTIM2_CLKSOURCE_LSI
2242:Drivers/STM32WLxx_HAL_Driver/Inc/stm32wlxx_ll_rcc.h ****   *         @arg @ref LL_RCC_LPTIM2_CLKSOURCE_HSI
2243:Drivers/STM32WLxx_HAL_Driver/Inc/stm32wlxx_ll_rcc.h ****   *         @arg @ref LL_RCC_LPTIM2_CLKSOURCE_LSE
2244:Drivers/STM32WLxx_HAL_Driver/Inc/stm32wlxx_ll_rcc.h ****   *         @arg @ref LL_RCC_LPTIM3_CLKSOURCE_PCLK1
2245:Drivers/STM32WLxx_HAL_Driver/Inc/stm32wlxx_ll_rcc.h ****   *         @arg @ref LL_RCC_LPTIM3_CLKSOURCE_LSI
2246:Drivers/STM32WLxx_HAL_Driver/Inc/stm32wlxx_ll_rcc.h ****   *         @arg @ref LL_RCC_LPTIM3_CLKSOURCE_HSI
2247:Drivers/STM32WLxx_HAL_Driver/Inc/stm32wlxx_ll_rcc.h ****   *         @arg @ref LL_RCC_LPTIM3_CLKSOURCE_LSE
2248:Drivers/STM32WLxx_HAL_Driver/Inc/stm32wlxx_ll_rcc.h **** 
2249:Drivers/STM32WLxx_HAL_Driver/Inc/stm32wlxx_ll_rcc.h ****   */
2250:Drivers/STM32WLxx_HAL_Driver/Inc/stm32wlxx_ll_rcc.h **** __STATIC_INLINE uint32_t LL_RCC_GetLPTIMClockSource(uint32_t LPTIMx)
2251:Drivers/STM32WLxx_HAL_Driver/Inc/stm32wlxx_ll_rcc.h **** {
2252:Drivers/STM32WLxx_HAL_Driver/Inc/stm32wlxx_ll_rcc.h ****   return (uint32_t)((READ_BIT(RCC->CCIPR, LPTIMx) >> 16) | LPTIMx);
2253:Drivers/STM32WLxx_HAL_Driver/Inc/stm32wlxx_ll_rcc.h **** }
2254:Drivers/STM32WLxx_HAL_Driver/Inc/stm32wlxx_ll_rcc.h **** 
2255:Drivers/STM32WLxx_HAL_Driver/Inc/stm32wlxx_ll_rcc.h **** /**
2256:Drivers/STM32WLxx_HAL_Driver/Inc/stm32wlxx_ll_rcc.h ****   * @brief  Get RNGx clock source
2257:Drivers/STM32WLxx_HAL_Driver/Inc/stm32wlxx_ll_rcc.h ****   * @rmtoll CCIPR        RNGSEL      LL_RCC_GetRNGClockSource
2258:Drivers/STM32WLxx_HAL_Driver/Inc/stm32wlxx_ll_rcc.h ****   * @param  RNGx This parameter can be one of the following values:
2259:Drivers/STM32WLxx_HAL_Driver/Inc/stm32wlxx_ll_rcc.h ****   *         @arg @ref LL_RCC_RNG_CLKSOURCE
2260:Drivers/STM32WLxx_HAL_Driver/Inc/stm32wlxx_ll_rcc.h ****   * @retval Returned value can be one of the following values:
2261:Drivers/STM32WLxx_HAL_Driver/Inc/stm32wlxx_ll_rcc.h ****   *         @arg @ref LL_RCC_RNG_CLKSOURCE_PLL
2262:Drivers/STM32WLxx_HAL_Driver/Inc/stm32wlxx_ll_rcc.h ****   *         @arg @ref LL_RCC_RNG_CLKSOURCE_LSI
2263:Drivers/STM32WLxx_HAL_Driver/Inc/stm32wlxx_ll_rcc.h ****   *         @arg @ref LL_RCC_RNG_CLKSOURCE_LSE
2264:Drivers/STM32WLxx_HAL_Driver/Inc/stm32wlxx_ll_rcc.h ****   *         @arg @ref LL_RCC_RNG_CLKSOURCE_MSI
2265:Drivers/STM32WLxx_HAL_Driver/Inc/stm32wlxx_ll_rcc.h ****   */
2266:Drivers/STM32WLxx_HAL_Driver/Inc/stm32wlxx_ll_rcc.h **** __STATIC_INLINE uint32_t LL_RCC_GetRNGClockSource(uint32_t RNGx)
2267:Drivers/STM32WLxx_HAL_Driver/Inc/stm32wlxx_ll_rcc.h **** {
2268:Drivers/STM32WLxx_HAL_Driver/Inc/stm32wlxx_ll_rcc.h ****   return (uint32_t)(READ_BIT(RCC->CCIPR, RNGx));
2269:Drivers/STM32WLxx_HAL_Driver/Inc/stm32wlxx_ll_rcc.h **** }
2270:Drivers/STM32WLxx_HAL_Driver/Inc/stm32wlxx_ll_rcc.h **** 
2271:Drivers/STM32WLxx_HAL_Driver/Inc/stm32wlxx_ll_rcc.h **** /**
2272:Drivers/STM32WLxx_HAL_Driver/Inc/stm32wlxx_ll_rcc.h ****   * @brief  Get ADCx clock source
2273:Drivers/STM32WLxx_HAL_Driver/Inc/stm32wlxx_ll_rcc.h ****   * @rmtoll CCIPR        ADCSEL        LL_RCC_GetADCClockSource
2274:Drivers/STM32WLxx_HAL_Driver/Inc/stm32wlxx_ll_rcc.h ****   * @param  ADCx This parameter can be one of the following values:
2275:Drivers/STM32WLxx_HAL_Driver/Inc/stm32wlxx_ll_rcc.h ****   *         @arg @ref LL_RCC_ADC_CLKSOURCE
2276:Drivers/STM32WLxx_HAL_Driver/Inc/stm32wlxx_ll_rcc.h ****   * @retval Returned value can be one of the following values:
2277:Drivers/STM32WLxx_HAL_Driver/Inc/stm32wlxx_ll_rcc.h ****   *         @arg @ref LL_RCC_ADC_CLKSOURCE_NONE
2278:Drivers/STM32WLxx_HAL_Driver/Inc/stm32wlxx_ll_rcc.h ****   *         @arg @ref LL_RCC_ADC_CLKSOURCE_HSI
2279:Drivers/STM32WLxx_HAL_Driver/Inc/stm32wlxx_ll_rcc.h ****   *         @arg @ref LL_RCC_ADC_CLKSOURCE_PLL
2280:Drivers/STM32WLxx_HAL_Driver/Inc/stm32wlxx_ll_rcc.h ****   *         @arg @ref LL_RCC_ADC_CLKSOURCE_SYSCLK
2281:Drivers/STM32WLxx_HAL_Driver/Inc/stm32wlxx_ll_rcc.h ****   */
2282:Drivers/STM32WLxx_HAL_Driver/Inc/stm32wlxx_ll_rcc.h **** __STATIC_INLINE uint32_t LL_RCC_GetADCClockSource(uint32_t ADCx)
2283:Drivers/STM32WLxx_HAL_Driver/Inc/stm32wlxx_ll_rcc.h **** {
2284:Drivers/STM32WLxx_HAL_Driver/Inc/stm32wlxx_ll_rcc.h ****   return (uint32_t)(READ_BIT(RCC->CCIPR, ADCx));
2285:Drivers/STM32WLxx_HAL_Driver/Inc/stm32wlxx_ll_rcc.h **** }
2286:Drivers/STM32WLxx_HAL_Driver/Inc/stm32wlxx_ll_rcc.h **** 
ARM GAS  C:\Users\NATHAN~1\AppData\Local\Temp\cc6e4y2d.s 			page 49


2287:Drivers/STM32WLxx_HAL_Driver/Inc/stm32wlxx_ll_rcc.h **** /**
2288:Drivers/STM32WLxx_HAL_Driver/Inc/stm32wlxx_ll_rcc.h ****   * @}
2289:Drivers/STM32WLxx_HAL_Driver/Inc/stm32wlxx_ll_rcc.h ****   */
2290:Drivers/STM32WLxx_HAL_Driver/Inc/stm32wlxx_ll_rcc.h **** 
2291:Drivers/STM32WLxx_HAL_Driver/Inc/stm32wlxx_ll_rcc.h **** /** @defgroup RCC_LL_EF_RTC RTC
2292:Drivers/STM32WLxx_HAL_Driver/Inc/stm32wlxx_ll_rcc.h ****   * @{
2293:Drivers/STM32WLxx_HAL_Driver/Inc/stm32wlxx_ll_rcc.h ****   */
2294:Drivers/STM32WLxx_HAL_Driver/Inc/stm32wlxx_ll_rcc.h **** 
2295:Drivers/STM32WLxx_HAL_Driver/Inc/stm32wlxx_ll_rcc.h **** /**
2296:Drivers/STM32WLxx_HAL_Driver/Inc/stm32wlxx_ll_rcc.h ****   * @brief  Set RTC Clock Source
2297:Drivers/STM32WLxx_HAL_Driver/Inc/stm32wlxx_ll_rcc.h ****   * @note Once the RTC clock source has been selected, it cannot be changed anymore unless
