ARM GAS  C:\Users\NATHAN~1\AppData\Local\Temp\cc8eZusg.s 			page 1


   1              		.cpu cortex-m4
   2              		.arch armv7e-m
   3              		.fpu softvfp
   4              		.eabi_attribute 20, 1
   5              		.eabi_attribute 21, 1
   6              		.eabi_attribute 23, 3
   7              		.eabi_attribute 24, 1
   8              		.eabi_attribute 25, 1
   9              		.eabi_attribute 26, 1
  10              		.eabi_attribute 30, 1
  11              		.eabi_attribute 34, 1
  12              		.eabi_attribute 18, 4
  13              		.file	"stm32wlxx_hal_flash_ex.c"
  14              		.text
  15              	.Ltext0:
  16              		.cfi_sections	.debug_frame
  17              		.section	.text.FLASH_MassErase,"ax",%progbits
  18              		.align	1
  19              		.syntax unified
  20              		.thumb
  21              		.thumb_func
  23              	FLASH_MassErase:
  24              	.LFB977:
  25              		.file 1 "Drivers/STM32WLxx_HAL_Driver/Src/stm32wlxx_hal_flash_ex.c"
   1:Drivers/STM32WLxx_HAL_Driver/Src/stm32wlxx_hal_flash_ex.c **** /**
   2:Drivers/STM32WLxx_HAL_Driver/Src/stm32wlxx_hal_flash_ex.c ****   ******************************************************************************
   3:Drivers/STM32WLxx_HAL_Driver/Src/stm32wlxx_hal_flash_ex.c ****   * @file    stm32wlxx_hal_flash_ex.c
   4:Drivers/STM32WLxx_HAL_Driver/Src/stm32wlxx_hal_flash_ex.c ****   * @author  MCD Application Team
   5:Drivers/STM32WLxx_HAL_Driver/Src/stm32wlxx_hal_flash_ex.c ****   * @brief   Extended FLASH HAL module driver.
   6:Drivers/STM32WLxx_HAL_Driver/Src/stm32wlxx_hal_flash_ex.c ****   *          This file provides firmware functions to manage the following
   7:Drivers/STM32WLxx_HAL_Driver/Src/stm32wlxx_hal_flash_ex.c ****   *          functionalities of the FLASH extended peripheral:
   8:Drivers/STM32WLxx_HAL_Driver/Src/stm32wlxx_hal_flash_ex.c ****   *           + Extended programming operations functions
   9:Drivers/STM32WLxx_HAL_Driver/Src/stm32wlxx_hal_flash_ex.c ****   *
  10:Drivers/STM32WLxx_HAL_Driver/Src/stm32wlxx_hal_flash_ex.c ****  @verbatim
  11:Drivers/STM32WLxx_HAL_Driver/Src/stm32wlxx_hal_flash_ex.c ****  ==============================================================================
  12:Drivers/STM32WLxx_HAL_Driver/Src/stm32wlxx_hal_flash_ex.c ****                    ##### Flash Extended features #####
  13:Drivers/STM32WLxx_HAL_Driver/Src/stm32wlxx_hal_flash_ex.c ****   ==============================================================================
  14:Drivers/STM32WLxx_HAL_Driver/Src/stm32wlxx_hal_flash_ex.c **** 
  15:Drivers/STM32WLxx_HAL_Driver/Src/stm32wlxx_hal_flash_ex.c ****   [..] Comparing to other previous devices, the FLASH interface for STM32WLxx
  16:Drivers/STM32WLxx_HAL_Driver/Src/stm32wlxx_hal_flash_ex.c ****        devices contains the following additional features
  17:Drivers/STM32WLxx_HAL_Driver/Src/stm32wlxx_hal_flash_ex.c **** 
  18:Drivers/STM32WLxx_HAL_Driver/Src/stm32wlxx_hal_flash_ex.c ****        (+) Capacity up to 256kB with single bank architecture supporting read-while-write
  19:Drivers/STM32WLxx_HAL_Driver/Src/stm32wlxx_hal_flash_ex.c ****            capability (RWW)
  20:Drivers/STM32WLxx_HAL_Driver/Src/stm32wlxx_hal_flash_ex.c ****        (+) Single bank memory organization
  21:Drivers/STM32WLxx_HAL_Driver/Src/stm32wlxx_hal_flash_ex.c ****        (+) PCROP protection
  22:Drivers/STM32WLxx_HAL_Driver/Src/stm32wlxx_hal_flash_ex.c ****        (+) WRP protection
  23:Drivers/STM32WLxx_HAL_Driver/Src/stm32wlxx_hal_flash_ex.c ****        (+) CPU2 Security area
  24:Drivers/STM32WLxx_HAL_Driver/Src/stm32wlxx_hal_flash_ex.c ****        (+) Program Erase Suspend feature
  25:Drivers/STM32WLxx_HAL_Driver/Src/stm32wlxx_hal_flash_ex.c **** 
  26:Drivers/STM32WLxx_HAL_Driver/Src/stm32wlxx_hal_flash_ex.c ****                         ##### How to use this driver #####
  27:Drivers/STM32WLxx_HAL_Driver/Src/stm32wlxx_hal_flash_ex.c ****  ==============================================================================
  28:Drivers/STM32WLxx_HAL_Driver/Src/stm32wlxx_hal_flash_ex.c ****   [..] This driver provides functions to configure and program the FLASH memory
  29:Drivers/STM32WLxx_HAL_Driver/Src/stm32wlxx_hal_flash_ex.c ****        of all STM32WLxx devices. It includes
  30:Drivers/STM32WLxx_HAL_Driver/Src/stm32wlxx_hal_flash_ex.c ****       (#) Flash Memory Erase functions:
  31:Drivers/STM32WLxx_HAL_Driver/Src/stm32wlxx_hal_flash_ex.c ****            (++) Lock and Unlock the FLASH interface using HAL_FLASH_Unlock() and
  32:Drivers/STM32WLxx_HAL_Driver/Src/stm32wlxx_hal_flash_ex.c ****                 HAL_FLASH_Lock() functions
  33:Drivers/STM32WLxx_HAL_Driver/Src/stm32wlxx_hal_flash_ex.c ****            (++) Erase function: Erase page, erase all sectors
ARM GAS  C:\Users\NATHAN~1\AppData\Local\Temp\cc8eZusg.s 			page 2


  34:Drivers/STM32WLxx_HAL_Driver/Src/stm32wlxx_hal_flash_ex.c ****            (++) There are two modes of erase :
  35:Drivers/STM32WLxx_HAL_Driver/Src/stm32wlxx_hal_flash_ex.c ****              (+++) Polling Mode using HAL_FLASHEx_Erase()
  36:Drivers/STM32WLxx_HAL_Driver/Src/stm32wlxx_hal_flash_ex.c ****              (+++) Interrupt Mode using HAL_FLASHEx_Erase_IT()
  37:Drivers/STM32WLxx_HAL_Driver/Src/stm32wlxx_hal_flash_ex.c **** 
  38:Drivers/STM32WLxx_HAL_Driver/Src/stm32wlxx_hal_flash_ex.c ****       (#) Option Bytes Programming function: Use HAL_FLASHEx_OBProgram() to :
  39:Drivers/STM32WLxx_HAL_Driver/Src/stm32wlxx_hal_flash_ex.c ****         (++) Set/Reset the write protection (per 4 KByte)
  40:Drivers/STM32WLxx_HAL_Driver/Src/stm32wlxx_hal_flash_ex.c ****         (++) Set the Read protection Level
  41:Drivers/STM32WLxx_HAL_Driver/Src/stm32wlxx_hal_flash_ex.c ****         (++) Program the user Option Bytes
  42:Drivers/STM32WLxx_HAL_Driver/Src/stm32wlxx_hal_flash_ex.c ****         (++) Configure the PCROP protection (per 2 KByte)
  43:Drivers/STM32WLxx_HAL_Driver/Src/stm32wlxx_hal_flash_ex.c ****         (++) Configure the IPCC Buffer start Address
  44:Drivers/STM32WLxx_HAL_Driver/Src/stm32wlxx_hal_flash_ex.c ****         (++) Configure the CPU2 boot region and reset vector start Address
  45:Drivers/STM32WLxx_HAL_Driver/Src/stm32wlxx_hal_flash_ex.c ****         (++) Configure the Flash and SRAM2 secure area
  46:Drivers/STM32WLxx_HAL_Driver/Src/stm32wlxx_hal_flash_ex.c **** 
  47:Drivers/STM32WLxx_HAL_Driver/Src/stm32wlxx_hal_flash_ex.c ****       (#) Get Option Bytes Configuration function: Use HAL_FLASHEx_OBGetConfig() to :
  48:Drivers/STM32WLxx_HAL_Driver/Src/stm32wlxx_hal_flash_ex.c ****         (++) Get the value of a write protection area
  49:Drivers/STM32WLxx_HAL_Driver/Src/stm32wlxx_hal_flash_ex.c ****         (++) Know if the read protection is activated
  50:Drivers/STM32WLxx_HAL_Driver/Src/stm32wlxx_hal_flash_ex.c ****         (++) Get the value of the user Option Bytes
  51:Drivers/STM32WLxx_HAL_Driver/Src/stm32wlxx_hal_flash_ex.c ****         (++) Get the value of a PCROP area
  52:Drivers/STM32WLxx_HAL_Driver/Src/stm32wlxx_hal_flash_ex.c ****         (++) Get the IPCC Buffer start Address
  53:Drivers/STM32WLxx_HAL_Driver/Src/stm32wlxx_hal_flash_ex.c ****         (++) Get the CPU2 boot region and reset vector start Address
  54:Drivers/STM32WLxx_HAL_Driver/Src/stm32wlxx_hal_flash_ex.c ****         (++) Get the Flash and SRAM2 secure area
  55:Drivers/STM32WLxx_HAL_Driver/Src/stm32wlxx_hal_flash_ex.c **** 
  56:Drivers/STM32WLxx_HAL_Driver/Src/stm32wlxx_hal_flash_ex.c ****       (#) Flash Suspend, Allow functions:
  57:Drivers/STM32WLxx_HAL_Driver/Src/stm32wlxx_hal_flash_ex.c ****            (++) Suspend or Allow new program or erase operation request using HAL_FLASHEx_SuspendOp
  58:Drivers/STM32WLxx_HAL_Driver/Src/stm32wlxx_hal_flash_ex.c ****                 HAL_FLASHEx_AllowOperation() functions
  59:Drivers/STM32WLxx_HAL_Driver/Src/stm32wlxx_hal_flash_ex.c **** 
  60:Drivers/STM32WLxx_HAL_Driver/Src/stm32wlxx_hal_flash_ex.c ****       (#) Check is flash content is empty or not using HAL_FLASHEx_FlashEmptyCheck().
  61:Drivers/STM32WLxx_HAL_Driver/Src/stm32wlxx_hal_flash_ex.c ****           and modify this setting (for flash loader purpose e.g.) using
  62:Drivers/STM32WLxx_HAL_Driver/Src/stm32wlxx_hal_flash_ex.c ****           HAL_FLASHEx_ForceFlashEmpty().
  63:Drivers/STM32WLxx_HAL_Driver/Src/stm32wlxx_hal_flash_ex.c **** 
  64:Drivers/STM32WLxx_HAL_Driver/Src/stm32wlxx_hal_flash_ex.c ****       (#) Enable, Disable CPU2 debug access using HAL_FLASHEx_EnableC2Debug() or
  65:Drivers/STM32WLxx_HAL_Driver/Src/stm32wlxx_hal_flash_ex.c ****           HAL_FLASHEx_DisableC2Debug()
  66:Drivers/STM32WLxx_HAL_Driver/Src/stm32wlxx_hal_flash_ex.c **** 
  67:Drivers/STM32WLxx_HAL_Driver/Src/stm32wlxx_hal_flash_ex.c ****       (#) Enable Secure Hide Protection area access using HAL_FLASHEx_EnableSecHideProtection()
  68:Drivers/STM32WLxx_HAL_Driver/Src/stm32wlxx_hal_flash_ex.c ****          (++) Enable Secure Hide Protection area access done by hardware on a system reset
  69:Drivers/STM32WLxx_HAL_Driver/Src/stm32wlxx_hal_flash_ex.c **** 
  70:Drivers/STM32WLxx_HAL_Driver/Src/stm32wlxx_hal_flash_ex.c ****       (#) Privilege mode configuration function: Use HAL_FLASHEx_ConfigPrivMode()
  71:Drivers/STM32WLxx_HAL_Driver/Src/stm32wlxx_hal_flash_ex.c ****         (++) FLASH register can be protected against non-privilege accesses
  72:Drivers/STM32WLxx_HAL_Driver/Src/stm32wlxx_hal_flash_ex.c **** 
  73:Drivers/STM32WLxx_HAL_Driver/Src/stm32wlxx_hal_flash_ex.c ****       (#) Get the privilege mode configuration function: Use HAL_FLASHEx_GetPrivMode()
  74:Drivers/STM32WLxx_HAL_Driver/Src/stm32wlxx_hal_flash_ex.c ****         (++) Returns if the FLASH registers are protected against non-privilege accesses
  75:Drivers/STM32WLxx_HAL_Driver/Src/stm32wlxx_hal_flash_ex.c **** 
  76:Drivers/STM32WLxx_HAL_Driver/Src/stm32wlxx_hal_flash_ex.c ****  @endverbatim
  77:Drivers/STM32WLxx_HAL_Driver/Src/stm32wlxx_hal_flash_ex.c ****   ******************************************************************************
  78:Drivers/STM32WLxx_HAL_Driver/Src/stm32wlxx_hal_flash_ex.c ****   * @attention
  79:Drivers/STM32WLxx_HAL_Driver/Src/stm32wlxx_hal_flash_ex.c ****   *
  80:Drivers/STM32WLxx_HAL_Driver/Src/stm32wlxx_hal_flash_ex.c ****   * <h2><center>&copy; Copyright (c) 2020 STMicroelectronics.
  81:Drivers/STM32WLxx_HAL_Driver/Src/stm32wlxx_hal_flash_ex.c ****   * All rights reserved.</center></h2>
  82:Drivers/STM32WLxx_HAL_Driver/Src/stm32wlxx_hal_flash_ex.c ****   *
  83:Drivers/STM32WLxx_HAL_Driver/Src/stm32wlxx_hal_flash_ex.c ****   * This software component is licensed by ST under BSD 3-Clause license,
  84:Drivers/STM32WLxx_HAL_Driver/Src/stm32wlxx_hal_flash_ex.c ****   * the "License"; You may not use this file except in compliance with the
  85:Drivers/STM32WLxx_HAL_Driver/Src/stm32wlxx_hal_flash_ex.c ****   * License. You may obtain a copy of the License at:
  86:Drivers/STM32WLxx_HAL_Driver/Src/stm32wlxx_hal_flash_ex.c ****   *                       opensource.org/licenses/BSD-3-Clause
  87:Drivers/STM32WLxx_HAL_Driver/Src/stm32wlxx_hal_flash_ex.c ****   *
  88:Drivers/STM32WLxx_HAL_Driver/Src/stm32wlxx_hal_flash_ex.c ****   ******************************************************************************
  89:Drivers/STM32WLxx_HAL_Driver/Src/stm32wlxx_hal_flash_ex.c ****   */
  90:Drivers/STM32WLxx_HAL_Driver/Src/stm32wlxx_hal_flash_ex.c **** 
ARM GAS  C:\Users\NATHAN~1\AppData\Local\Temp\cc8eZusg.s 			page 3


  91:Drivers/STM32WLxx_HAL_Driver/Src/stm32wlxx_hal_flash_ex.c **** /* Includes ------------------------------------------------------------------*/
  92:Drivers/STM32WLxx_HAL_Driver/Src/stm32wlxx_hal_flash_ex.c **** #include "stm32wlxx_hal.h"
  93:Drivers/STM32WLxx_HAL_Driver/Src/stm32wlxx_hal_flash_ex.c **** 
  94:Drivers/STM32WLxx_HAL_Driver/Src/stm32wlxx_hal_flash_ex.c **** /** @addtogroup STM32WLxx_HAL_Driver
  95:Drivers/STM32WLxx_HAL_Driver/Src/stm32wlxx_hal_flash_ex.c ****   * @{
  96:Drivers/STM32WLxx_HAL_Driver/Src/stm32wlxx_hal_flash_ex.c ****   */
  97:Drivers/STM32WLxx_HAL_Driver/Src/stm32wlxx_hal_flash_ex.c **** 
  98:Drivers/STM32WLxx_HAL_Driver/Src/stm32wlxx_hal_flash_ex.c **** /** @defgroup FLASHEx FLASHEx
  99:Drivers/STM32WLxx_HAL_Driver/Src/stm32wlxx_hal_flash_ex.c ****   * @brief FLASH Extended HAL module driver
 100:Drivers/STM32WLxx_HAL_Driver/Src/stm32wlxx_hal_flash_ex.c ****   * @{
 101:Drivers/STM32WLxx_HAL_Driver/Src/stm32wlxx_hal_flash_ex.c ****   */
 102:Drivers/STM32WLxx_HAL_Driver/Src/stm32wlxx_hal_flash_ex.c **** 
 103:Drivers/STM32WLxx_HAL_Driver/Src/stm32wlxx_hal_flash_ex.c **** #ifdef HAL_FLASH_MODULE_ENABLED
 104:Drivers/STM32WLxx_HAL_Driver/Src/stm32wlxx_hal_flash_ex.c **** 
 105:Drivers/STM32WLxx_HAL_Driver/Src/stm32wlxx_hal_flash_ex.c **** /* Private typedef -----------------------------------------------------------*/
 106:Drivers/STM32WLxx_HAL_Driver/Src/stm32wlxx_hal_flash_ex.c **** /* Private define ------------------------------------------------------------*/
 107:Drivers/STM32WLxx_HAL_Driver/Src/stm32wlxx_hal_flash_ex.c **** /* Private macro -------------------------------------------------------------*/
 108:Drivers/STM32WLxx_HAL_Driver/Src/stm32wlxx_hal_flash_ex.c **** /* Private variables ---------------------------------------------------------*/
 109:Drivers/STM32WLxx_HAL_Driver/Src/stm32wlxx_hal_flash_ex.c **** /* Private function prototypes -----------------------------------------------*/
 110:Drivers/STM32WLxx_HAL_Driver/Src/stm32wlxx_hal_flash_ex.c **** /** @defgroup FLASHEx_Private_Functions FLASHEx Private Functions
 111:Drivers/STM32WLxx_HAL_Driver/Src/stm32wlxx_hal_flash_ex.c ****  * @{
 112:Drivers/STM32WLxx_HAL_Driver/Src/stm32wlxx_hal_flash_ex.c ****  */
 113:Drivers/STM32WLxx_HAL_Driver/Src/stm32wlxx_hal_flash_ex.c **** static void              FLASH_MassErase(void);
 114:Drivers/STM32WLxx_HAL_Driver/Src/stm32wlxx_hal_flash_ex.c **** static void              FLASH_AcknowledgePageErase(void);
 115:Drivers/STM32WLxx_HAL_Driver/Src/stm32wlxx_hal_flash_ex.c **** static void              FLASH_FlushCaches(void);
 116:Drivers/STM32WLxx_HAL_Driver/Src/stm32wlxx_hal_flash_ex.c **** static void              FLASH_OB_WRPConfig(uint32_t WRPArea, uint32_t WRPStartOffset, uint32_t WRD
 117:Drivers/STM32WLxx_HAL_Driver/Src/stm32wlxx_hal_flash_ex.c **** static void              FLASH_OB_OptrConfig(uint32_t UserType, uint32_t UserConfig, uint32_t RDPLe
 118:Drivers/STM32WLxx_HAL_Driver/Src/stm32wlxx_hal_flash_ex.c **** static void              FLASH_OB_PCROP1AConfig(uint32_t PCROPConfig, uint32_t PCROP1AStartAddr, ui
 119:Drivers/STM32WLxx_HAL_Driver/Src/stm32wlxx_hal_flash_ex.c **** static void              FLASH_OB_PCROP1BConfig(uint32_t PCROP1BStartAddr, uint32_t PCROP1BEndAddr)
 120:Drivers/STM32WLxx_HAL_Driver/Src/stm32wlxx_hal_flash_ex.c **** #if defined(DUAL_CORE)
 121:Drivers/STM32WLxx_HAL_Driver/Src/stm32wlxx_hal_flash_ex.c **** static void              FLASH_OB_IPCCBufferAddrConfig(uint32_t IPCCDataBufAddr);
 122:Drivers/STM32WLxx_HAL_Driver/Src/stm32wlxx_hal_flash_ex.c **** static void              FLASH_OB_SecureConfig(FLASH_OBProgramInitTypeDef *pOBParam);
 123:Drivers/STM32WLxx_HAL_Driver/Src/stm32wlxx_hal_flash_ex.c **** #endif /* DUAL_CORE */
 124:Drivers/STM32WLxx_HAL_Driver/Src/stm32wlxx_hal_flash_ex.c **** static void              FLASH_OB_GetWRP(uint32_t WRPArea, uint32_t *WRPStartOffset, uint32_t *WRDP
 125:Drivers/STM32WLxx_HAL_Driver/Src/stm32wlxx_hal_flash_ex.c **** static uint32_t          FLASH_OB_GetRDP(void);
 126:Drivers/STM32WLxx_HAL_Driver/Src/stm32wlxx_hal_flash_ex.c **** static uint32_t          FLASH_OB_GetUser(void);
 127:Drivers/STM32WLxx_HAL_Driver/Src/stm32wlxx_hal_flash_ex.c **** static void              FLASH_OB_GetPCROP(uint32_t *PCROPConfig, uint32_t *PCROP1AStartAddr, uint3
 128:Drivers/STM32WLxx_HAL_Driver/Src/stm32wlxx_hal_flash_ex.c **** #if defined(DUAL_CORE)
 129:Drivers/STM32WLxx_HAL_Driver/Src/stm32wlxx_hal_flash_ex.c **** static uint32_t          FLASH_OB_GetIPCCBufferAddr(void);
 130:Drivers/STM32WLxx_HAL_Driver/Src/stm32wlxx_hal_flash_ex.c **** static void              FLASH_OB_GetSecureMemoryConfig(uint32_t *SecureFlashStartAddr, uint32_t *H
 131:Drivers/STM32WLxx_HAL_Driver/Src/stm32wlxx_hal_flash_ex.c **** static void              FLASH_OB_GetC2BootResetConfig(uint32_t *C2BootResetVectAddr, uint32_t *C2B
 132:Drivers/STM32WLxx_HAL_Driver/Src/stm32wlxx_hal_flash_ex.c **** #endif /* DUAL_CORE */
 133:Drivers/STM32WLxx_HAL_Driver/Src/stm32wlxx_hal_flash_ex.c **** static HAL_StatusTypeDef FLASH_OB_ProceedWriteOperation(void);
 134:Drivers/STM32WLxx_HAL_Driver/Src/stm32wlxx_hal_flash_ex.c **** #if defined(DUAL_CORE)
 135:Drivers/STM32WLxx_HAL_Driver/Src/stm32wlxx_hal_flash_ex.c **** static uint32_t          FLASH_OB_GetSUBGHZSPISecureAccess(void);
 136:Drivers/STM32WLxx_HAL_Driver/Src/stm32wlxx_hal_flash_ex.c **** static uint32_t          FLASH_OB_GetC2DebugAccessMode(void);
 137:Drivers/STM32WLxx_HAL_Driver/Src/stm32wlxx_hal_flash_ex.c **** static void              FLASH_OB_ConfigSecureMode(uint32_t SecureMode, uint32_t *Reg, uint32_t Bit
 138:Drivers/STM32WLxx_HAL_Driver/Src/stm32wlxx_hal_flash_ex.c **** static uint32_t          FLASH_OB_GetSecureMode(uint32_t Reg, uint32_t Bit, uint32_t ValueEnable, u
 139:Drivers/STM32WLxx_HAL_Driver/Src/stm32wlxx_hal_flash_ex.c **** #endif /* DUAL_CORE */
 140:Drivers/STM32WLxx_HAL_Driver/Src/stm32wlxx_hal_flash_ex.c **** /**
 141:Drivers/STM32WLxx_HAL_Driver/Src/stm32wlxx_hal_flash_ex.c ****   * @}
 142:Drivers/STM32WLxx_HAL_Driver/Src/stm32wlxx_hal_flash_ex.c ****   */
 143:Drivers/STM32WLxx_HAL_Driver/Src/stm32wlxx_hal_flash_ex.c **** 
 144:Drivers/STM32WLxx_HAL_Driver/Src/stm32wlxx_hal_flash_ex.c **** /* Exported functions -------------------------------------------------------*/
 145:Drivers/STM32WLxx_HAL_Driver/Src/stm32wlxx_hal_flash_ex.c **** /** @defgroup FLASHEx_Exported_Functions FLASH Extended Exported Functions
 146:Drivers/STM32WLxx_HAL_Driver/Src/stm32wlxx_hal_flash_ex.c ****   * @{
 147:Drivers/STM32WLxx_HAL_Driver/Src/stm32wlxx_hal_flash_ex.c ****   */
ARM GAS  C:\Users\NATHAN~1\AppData\Local\Temp\cc8eZusg.s 			page 4


 148:Drivers/STM32WLxx_HAL_Driver/Src/stm32wlxx_hal_flash_ex.c **** 
 149:Drivers/STM32WLxx_HAL_Driver/Src/stm32wlxx_hal_flash_ex.c **** /** @defgroup FLASHEx_Exported_Functions_Group1 Extended IO operation functions
 150:Drivers/STM32WLxx_HAL_Driver/Src/stm32wlxx_hal_flash_ex.c ****  *  @brief   Extended IO operation functions
 151:Drivers/STM32WLxx_HAL_Driver/Src/stm32wlxx_hal_flash_ex.c ****  *
 152:Drivers/STM32WLxx_HAL_Driver/Src/stm32wlxx_hal_flash_ex.c **** @verbatim
 153:Drivers/STM32WLxx_HAL_Driver/Src/stm32wlxx_hal_flash_ex.c ****  ===============================================================================
 154:Drivers/STM32WLxx_HAL_Driver/Src/stm32wlxx_hal_flash_ex.c ****                 ##### Extended programming operation functions #####
 155:Drivers/STM32WLxx_HAL_Driver/Src/stm32wlxx_hal_flash_ex.c ****  ===============================================================================
 156:Drivers/STM32WLxx_HAL_Driver/Src/stm32wlxx_hal_flash_ex.c ****     [..]
 157:Drivers/STM32WLxx_HAL_Driver/Src/stm32wlxx_hal_flash_ex.c ****     This subsection provides a set of functions allowing to manage the Extended FLASH
 158:Drivers/STM32WLxx_HAL_Driver/Src/stm32wlxx_hal_flash_ex.c ****     programming operations Operations.
 159:Drivers/STM32WLxx_HAL_Driver/Src/stm32wlxx_hal_flash_ex.c **** 
 160:Drivers/STM32WLxx_HAL_Driver/Src/stm32wlxx_hal_flash_ex.c **** @endverbatim
 161:Drivers/STM32WLxx_HAL_Driver/Src/stm32wlxx_hal_flash_ex.c ****   * @{
 162:Drivers/STM32WLxx_HAL_Driver/Src/stm32wlxx_hal_flash_ex.c ****   */
 163:Drivers/STM32WLxx_HAL_Driver/Src/stm32wlxx_hal_flash_ex.c **** /**
 164:Drivers/STM32WLxx_HAL_Driver/Src/stm32wlxx_hal_flash_ex.c ****   * @brief  Perform a mass erase or erase the specified FLASH memory pages.
 165:Drivers/STM32WLxx_HAL_Driver/Src/stm32wlxx_hal_flash_ex.c ****   * @note   Before any operation, it is possible to check there is no operation suspended
 166:Drivers/STM32WLxx_HAL_Driver/Src/stm32wlxx_hal_flash_ex.c ****   *         by call HAL_FLASHEx_IsOperationSuspended()
 167:Drivers/STM32WLxx_HAL_Driver/Src/stm32wlxx_hal_flash_ex.c ****   * @param[in]  pEraseInit Pointer to an @ref FLASH_EraseInitTypeDef structure that
 168:Drivers/STM32WLxx_HAL_Driver/Src/stm32wlxx_hal_flash_ex.c ****   *         contains the configuration information for the erasing.
 169:Drivers/STM32WLxx_HAL_Driver/Src/stm32wlxx_hal_flash_ex.c ****   * @param[out]  PageError Pointer to variable that contains the configuration
 170:Drivers/STM32WLxx_HAL_Driver/Src/stm32wlxx_hal_flash_ex.c ****   *         information on faulty page in case of error (0xFFFFFFFF means that all
 171:Drivers/STM32WLxx_HAL_Driver/Src/stm32wlxx_hal_flash_ex.c ****   *         the pages have been correctly erased)
 172:Drivers/STM32WLxx_HAL_Driver/Src/stm32wlxx_hal_flash_ex.c ****   * @retval HAL Status
 173:Drivers/STM32WLxx_HAL_Driver/Src/stm32wlxx_hal_flash_ex.c ****   */
 174:Drivers/STM32WLxx_HAL_Driver/Src/stm32wlxx_hal_flash_ex.c **** HAL_StatusTypeDef HAL_FLASHEx_Erase(FLASH_EraseInitTypeDef *pEraseInit, uint32_t *PageError)
 175:Drivers/STM32WLxx_HAL_Driver/Src/stm32wlxx_hal_flash_ex.c **** {
 176:Drivers/STM32WLxx_HAL_Driver/Src/stm32wlxx_hal_flash_ex.c ****   HAL_StatusTypeDef status;
 177:Drivers/STM32WLxx_HAL_Driver/Src/stm32wlxx_hal_flash_ex.c ****   uint32_t index;
 178:Drivers/STM32WLxx_HAL_Driver/Src/stm32wlxx_hal_flash_ex.c **** 
 179:Drivers/STM32WLxx_HAL_Driver/Src/stm32wlxx_hal_flash_ex.c ****   /* Check the parameters */
 180:Drivers/STM32WLxx_HAL_Driver/Src/stm32wlxx_hal_flash_ex.c ****   assert_param(IS_FLASH_TYPEERASE(pEraseInit->TypeErase));
 181:Drivers/STM32WLxx_HAL_Driver/Src/stm32wlxx_hal_flash_ex.c **** 
 182:Drivers/STM32WLxx_HAL_Driver/Src/stm32wlxx_hal_flash_ex.c ****   /* Process Locked */
 183:Drivers/STM32WLxx_HAL_Driver/Src/stm32wlxx_hal_flash_ex.c ****   __HAL_LOCK(&pFlash);
 184:Drivers/STM32WLxx_HAL_Driver/Src/stm32wlxx_hal_flash_ex.c **** 
 185:Drivers/STM32WLxx_HAL_Driver/Src/stm32wlxx_hal_flash_ex.c ****   /* Reset error code */
 186:Drivers/STM32WLxx_HAL_Driver/Src/stm32wlxx_hal_flash_ex.c ****   pFlash.ErrorCode = HAL_FLASH_ERROR_NONE;
 187:Drivers/STM32WLxx_HAL_Driver/Src/stm32wlxx_hal_flash_ex.c **** 
 188:Drivers/STM32WLxx_HAL_Driver/Src/stm32wlxx_hal_flash_ex.c ****   /* Verify that next operation can be proceed */
 189:Drivers/STM32WLxx_HAL_Driver/Src/stm32wlxx_hal_flash_ex.c ****   status = FLASH_WaitForLastOperation(FLASH_TIMEOUT_VALUE);
 190:Drivers/STM32WLxx_HAL_Driver/Src/stm32wlxx_hal_flash_ex.c **** 
 191:Drivers/STM32WLxx_HAL_Driver/Src/stm32wlxx_hal_flash_ex.c ****   if (status == HAL_OK)
 192:Drivers/STM32WLxx_HAL_Driver/Src/stm32wlxx_hal_flash_ex.c ****   {
 193:Drivers/STM32WLxx_HAL_Driver/Src/stm32wlxx_hal_flash_ex.c ****     if (pEraseInit->TypeErase == FLASH_TYPEERASE_MASSERASE)
 194:Drivers/STM32WLxx_HAL_Driver/Src/stm32wlxx_hal_flash_ex.c ****     {
 195:Drivers/STM32WLxx_HAL_Driver/Src/stm32wlxx_hal_flash_ex.c ****       /* Mass erase to be done */
 196:Drivers/STM32WLxx_HAL_Driver/Src/stm32wlxx_hal_flash_ex.c ****       FLASH_MassErase();
 197:Drivers/STM32WLxx_HAL_Driver/Src/stm32wlxx_hal_flash_ex.c **** 
 198:Drivers/STM32WLxx_HAL_Driver/Src/stm32wlxx_hal_flash_ex.c ****       /* Wait for last operation to be completed */
 199:Drivers/STM32WLxx_HAL_Driver/Src/stm32wlxx_hal_flash_ex.c ****       status = FLASH_WaitForLastOperation(FLASH_TIMEOUT_VALUE);
 200:Drivers/STM32WLxx_HAL_Driver/Src/stm32wlxx_hal_flash_ex.c **** 
 201:Drivers/STM32WLxx_HAL_Driver/Src/stm32wlxx_hal_flash_ex.c ****       /* If operation is completed or interrupted, no need to clear the Mass Erase Bit */
 202:Drivers/STM32WLxx_HAL_Driver/Src/stm32wlxx_hal_flash_ex.c ****     }
 203:Drivers/STM32WLxx_HAL_Driver/Src/stm32wlxx_hal_flash_ex.c ****     else
 204:Drivers/STM32WLxx_HAL_Driver/Src/stm32wlxx_hal_flash_ex.c ****     {
ARM GAS  C:\Users\NATHAN~1\AppData\Local\Temp\cc8eZusg.s 			page 5


 205:Drivers/STM32WLxx_HAL_Driver/Src/stm32wlxx_hal_flash_ex.c ****       /*Initialization of PageError variable*/
 206:Drivers/STM32WLxx_HAL_Driver/Src/stm32wlxx_hal_flash_ex.c ****       *PageError = 0xFFFFFFFFU;
 207:Drivers/STM32WLxx_HAL_Driver/Src/stm32wlxx_hal_flash_ex.c **** 
 208:Drivers/STM32WLxx_HAL_Driver/Src/stm32wlxx_hal_flash_ex.c ****       for (index = pEraseInit->Page; index < (pEraseInit->Page + pEraseInit->NbPages); index++)
 209:Drivers/STM32WLxx_HAL_Driver/Src/stm32wlxx_hal_flash_ex.c ****       {
 210:Drivers/STM32WLxx_HAL_Driver/Src/stm32wlxx_hal_flash_ex.c ****         /* Start erase page */
 211:Drivers/STM32WLxx_HAL_Driver/Src/stm32wlxx_hal_flash_ex.c ****         FLASH_PageErase(index);
 212:Drivers/STM32WLxx_HAL_Driver/Src/stm32wlxx_hal_flash_ex.c **** 
 213:Drivers/STM32WLxx_HAL_Driver/Src/stm32wlxx_hal_flash_ex.c ****         /* Wait for last operation to be completed */
 214:Drivers/STM32WLxx_HAL_Driver/Src/stm32wlxx_hal_flash_ex.c ****         status = FLASH_WaitForLastOperation(FLASH_TIMEOUT_VALUE);
 215:Drivers/STM32WLxx_HAL_Driver/Src/stm32wlxx_hal_flash_ex.c **** 
 216:Drivers/STM32WLxx_HAL_Driver/Src/stm32wlxx_hal_flash_ex.c ****         if (status != HAL_OK)
 217:Drivers/STM32WLxx_HAL_Driver/Src/stm32wlxx_hal_flash_ex.c ****         {
 218:Drivers/STM32WLxx_HAL_Driver/Src/stm32wlxx_hal_flash_ex.c ****           /* In case of error, stop erase procedure and return the faulty address */
 219:Drivers/STM32WLxx_HAL_Driver/Src/stm32wlxx_hal_flash_ex.c ****           *PageError = index;
 220:Drivers/STM32WLxx_HAL_Driver/Src/stm32wlxx_hal_flash_ex.c ****           break;
 221:Drivers/STM32WLxx_HAL_Driver/Src/stm32wlxx_hal_flash_ex.c ****         }
 222:Drivers/STM32WLxx_HAL_Driver/Src/stm32wlxx_hal_flash_ex.c ****       }
 223:Drivers/STM32WLxx_HAL_Driver/Src/stm32wlxx_hal_flash_ex.c **** 
 224:Drivers/STM32WLxx_HAL_Driver/Src/stm32wlxx_hal_flash_ex.c ****       /* If operation is completed or interrupted, disable the Page Erase Bit */
 225:Drivers/STM32WLxx_HAL_Driver/Src/stm32wlxx_hal_flash_ex.c ****       FLASH_AcknowledgePageErase();
 226:Drivers/STM32WLxx_HAL_Driver/Src/stm32wlxx_hal_flash_ex.c ****     }
 227:Drivers/STM32WLxx_HAL_Driver/Src/stm32wlxx_hal_flash_ex.c **** 
 228:Drivers/STM32WLxx_HAL_Driver/Src/stm32wlxx_hal_flash_ex.c ****     /* Flush the caches to be sure of the data consistency */
 229:Drivers/STM32WLxx_HAL_Driver/Src/stm32wlxx_hal_flash_ex.c ****     FLASH_FlushCaches();
 230:Drivers/STM32WLxx_HAL_Driver/Src/stm32wlxx_hal_flash_ex.c ****   }
 231:Drivers/STM32WLxx_HAL_Driver/Src/stm32wlxx_hal_flash_ex.c **** 
 232:Drivers/STM32WLxx_HAL_Driver/Src/stm32wlxx_hal_flash_ex.c ****   /* Process Unlocked */
 233:Drivers/STM32WLxx_HAL_Driver/Src/stm32wlxx_hal_flash_ex.c ****   __HAL_UNLOCK(&pFlash);
 234:Drivers/STM32WLxx_HAL_Driver/Src/stm32wlxx_hal_flash_ex.c **** 
 235:Drivers/STM32WLxx_HAL_Driver/Src/stm32wlxx_hal_flash_ex.c ****   return status;
 236:Drivers/STM32WLxx_HAL_Driver/Src/stm32wlxx_hal_flash_ex.c **** }
 237:Drivers/STM32WLxx_HAL_Driver/Src/stm32wlxx_hal_flash_ex.c **** 
 238:Drivers/STM32WLxx_HAL_Driver/Src/stm32wlxx_hal_flash_ex.c **** /**
 239:Drivers/STM32WLxx_HAL_Driver/Src/stm32wlxx_hal_flash_ex.c ****   * @brief  Perform a mass erase or erase the specified FLASH memory pages with interrupt enabled.
 240:Drivers/STM32WLxx_HAL_Driver/Src/stm32wlxx_hal_flash_ex.c ****   * @note   Before any operation, it is possible to check there is no operation suspended
 241:Drivers/STM32WLxx_HAL_Driver/Src/stm32wlxx_hal_flash_ex.c ****   *         by call HAL_FLASHEx_IsOperationSuspended()
 242:Drivers/STM32WLxx_HAL_Driver/Src/stm32wlxx_hal_flash_ex.c ****   * @param  pEraseInit Pointer to an @ref FLASH_EraseInitTypeDef structure that
 243:Drivers/STM32WLxx_HAL_Driver/Src/stm32wlxx_hal_flash_ex.c ****   *         contains the configuration information for the erasing.
 244:Drivers/STM32WLxx_HAL_Driver/Src/stm32wlxx_hal_flash_ex.c ****   * @retval HAL Status
 245:Drivers/STM32WLxx_HAL_Driver/Src/stm32wlxx_hal_flash_ex.c ****   */
 246:Drivers/STM32WLxx_HAL_Driver/Src/stm32wlxx_hal_flash_ex.c **** HAL_StatusTypeDef HAL_FLASHEx_Erase_IT(FLASH_EraseInitTypeDef *pEraseInit)
 247:Drivers/STM32WLxx_HAL_Driver/Src/stm32wlxx_hal_flash_ex.c **** {
 248:Drivers/STM32WLxx_HAL_Driver/Src/stm32wlxx_hal_flash_ex.c ****   HAL_StatusTypeDef status;
 249:Drivers/STM32WLxx_HAL_Driver/Src/stm32wlxx_hal_flash_ex.c **** 
 250:Drivers/STM32WLxx_HAL_Driver/Src/stm32wlxx_hal_flash_ex.c ****   /* Check the parameters */
 251:Drivers/STM32WLxx_HAL_Driver/Src/stm32wlxx_hal_flash_ex.c ****   assert_param(IS_FLASH_TYPEERASE(pEraseInit->TypeErase));
 252:Drivers/STM32WLxx_HAL_Driver/Src/stm32wlxx_hal_flash_ex.c **** 
 253:Drivers/STM32WLxx_HAL_Driver/Src/stm32wlxx_hal_flash_ex.c ****   /* Process Locked */
 254:Drivers/STM32WLxx_HAL_Driver/Src/stm32wlxx_hal_flash_ex.c ****   __HAL_LOCK(&pFlash);
 255:Drivers/STM32WLxx_HAL_Driver/Src/stm32wlxx_hal_flash_ex.c **** 
 256:Drivers/STM32WLxx_HAL_Driver/Src/stm32wlxx_hal_flash_ex.c ****   /* Reset error code */
 257:Drivers/STM32WLxx_HAL_Driver/Src/stm32wlxx_hal_flash_ex.c ****   pFlash.ErrorCode = HAL_FLASH_ERROR_NONE;
 258:Drivers/STM32WLxx_HAL_Driver/Src/stm32wlxx_hal_flash_ex.c **** 
 259:Drivers/STM32WLxx_HAL_Driver/Src/stm32wlxx_hal_flash_ex.c ****   /* save procedure for interrupt treatment */
 260:Drivers/STM32WLxx_HAL_Driver/Src/stm32wlxx_hal_flash_ex.c ****   pFlash.ProcedureOnGoing = pEraseInit->TypeErase;
 261:Drivers/STM32WLxx_HAL_Driver/Src/stm32wlxx_hal_flash_ex.c **** 
ARM GAS  C:\Users\NATHAN~1\AppData\Local\Temp\cc8eZusg.s 			page 6


 262:Drivers/STM32WLxx_HAL_Driver/Src/stm32wlxx_hal_flash_ex.c ****   /* Verify that next operation can be proceed */
 263:Drivers/STM32WLxx_HAL_Driver/Src/stm32wlxx_hal_flash_ex.c ****   status = FLASH_WaitForLastOperation(FLASH_TIMEOUT_VALUE);
 264:Drivers/STM32WLxx_HAL_Driver/Src/stm32wlxx_hal_flash_ex.c **** 
 265:Drivers/STM32WLxx_HAL_Driver/Src/stm32wlxx_hal_flash_ex.c ****   if (status != HAL_OK)
 266:Drivers/STM32WLxx_HAL_Driver/Src/stm32wlxx_hal_flash_ex.c ****   {
 267:Drivers/STM32WLxx_HAL_Driver/Src/stm32wlxx_hal_flash_ex.c ****     /* Process Unlocked */
 268:Drivers/STM32WLxx_HAL_Driver/Src/stm32wlxx_hal_flash_ex.c ****     __HAL_UNLOCK(&pFlash);
 269:Drivers/STM32WLxx_HAL_Driver/Src/stm32wlxx_hal_flash_ex.c ****   }
 270:Drivers/STM32WLxx_HAL_Driver/Src/stm32wlxx_hal_flash_ex.c ****   else
 271:Drivers/STM32WLxx_HAL_Driver/Src/stm32wlxx_hal_flash_ex.c ****   {
 272:Drivers/STM32WLxx_HAL_Driver/Src/stm32wlxx_hal_flash_ex.c ****     /* Enable End of Operation and Error interrupts */
 273:Drivers/STM32WLxx_HAL_Driver/Src/stm32wlxx_hal_flash_ex.c ****     __HAL_FLASH_ENABLE_IT(FLASH_IT_EOP | FLASH_IT_OPERR);
 274:Drivers/STM32WLxx_HAL_Driver/Src/stm32wlxx_hal_flash_ex.c **** 
 275:Drivers/STM32WLxx_HAL_Driver/Src/stm32wlxx_hal_flash_ex.c ****     if (pEraseInit->TypeErase == FLASH_TYPEERASE_MASSERASE)
 276:Drivers/STM32WLxx_HAL_Driver/Src/stm32wlxx_hal_flash_ex.c ****     {
 277:Drivers/STM32WLxx_HAL_Driver/Src/stm32wlxx_hal_flash_ex.c ****       /* Set Page to 0 for Interrupt callback management */
 278:Drivers/STM32WLxx_HAL_Driver/Src/stm32wlxx_hal_flash_ex.c ****       pFlash.Page = 0;
 279:Drivers/STM32WLxx_HAL_Driver/Src/stm32wlxx_hal_flash_ex.c **** 
 280:Drivers/STM32WLxx_HAL_Driver/Src/stm32wlxx_hal_flash_ex.c ****       /* Proceed to Mass Erase */
 281:Drivers/STM32WLxx_HAL_Driver/Src/stm32wlxx_hal_flash_ex.c ****       FLASH_MassErase();
 282:Drivers/STM32WLxx_HAL_Driver/Src/stm32wlxx_hal_flash_ex.c ****     }
 283:Drivers/STM32WLxx_HAL_Driver/Src/stm32wlxx_hal_flash_ex.c ****     else
 284:Drivers/STM32WLxx_HAL_Driver/Src/stm32wlxx_hal_flash_ex.c ****     {
 285:Drivers/STM32WLxx_HAL_Driver/Src/stm32wlxx_hal_flash_ex.c ****       /* Erase by page to be done */
 286:Drivers/STM32WLxx_HAL_Driver/Src/stm32wlxx_hal_flash_ex.c ****       pFlash.NbPagesToErase = pEraseInit->NbPages;
 287:Drivers/STM32WLxx_HAL_Driver/Src/stm32wlxx_hal_flash_ex.c ****       pFlash.Page = pEraseInit->Page;
 288:Drivers/STM32WLxx_HAL_Driver/Src/stm32wlxx_hal_flash_ex.c **** 
 289:Drivers/STM32WLxx_HAL_Driver/Src/stm32wlxx_hal_flash_ex.c ****       /*Erase 1st page and wait for IT */
 290:Drivers/STM32WLxx_HAL_Driver/Src/stm32wlxx_hal_flash_ex.c ****       FLASH_PageErase(pEraseInit->Page);
 291:Drivers/STM32WLxx_HAL_Driver/Src/stm32wlxx_hal_flash_ex.c ****     }
 292:Drivers/STM32WLxx_HAL_Driver/Src/stm32wlxx_hal_flash_ex.c ****   }
 293:Drivers/STM32WLxx_HAL_Driver/Src/stm32wlxx_hal_flash_ex.c **** 
 294:Drivers/STM32WLxx_HAL_Driver/Src/stm32wlxx_hal_flash_ex.c ****   /* return status */
 295:Drivers/STM32WLxx_HAL_Driver/Src/stm32wlxx_hal_flash_ex.c ****   return status;
 296:Drivers/STM32WLxx_HAL_Driver/Src/stm32wlxx_hal_flash_ex.c **** }
 297:Drivers/STM32WLxx_HAL_Driver/Src/stm32wlxx_hal_flash_ex.c **** 
 298:Drivers/STM32WLxx_HAL_Driver/Src/stm32wlxx_hal_flash_ex.c **** /**
 299:Drivers/STM32WLxx_HAL_Driver/Src/stm32wlxx_hal_flash_ex.c ****   * @brief  Program Option bytes.
 300:Drivers/STM32WLxx_HAL_Driver/Src/stm32wlxx_hal_flash_ex.c ****   * @param  pOBInit Pointer to an @ref FLASH_OBProgramInitTypeDef structure that
 301:Drivers/STM32WLxx_HAL_Driver/Src/stm32wlxx_hal_flash_ex.c ****   *         contains the configuration information for the programming.
 302:Drivers/STM32WLxx_HAL_Driver/Src/stm32wlxx_hal_flash_ex.c ****   * @note   To configure any option bytes, the option lock bit OPTLOCK must be
 303:Drivers/STM32WLxx_HAL_Driver/Src/stm32wlxx_hal_flash_ex.c ****   *         cleared with the call of @ref HAL_FLASH_OB_Unlock() function.
 304:Drivers/STM32WLxx_HAL_Driver/Src/stm32wlxx_hal_flash_ex.c ****   * @note   New option bytes configuration will be taken into account only
 305:Drivers/STM32WLxx_HAL_Driver/Src/stm32wlxx_hal_flash_ex.c ****   *         - after an option bytes launch through the call of @ref HAL_FLASH_OB_Launch()
 306:Drivers/STM32WLxx_HAL_Driver/Src/stm32wlxx_hal_flash_ex.c ****   *         - a Power On Reset
 307:Drivers/STM32WLxx_HAL_Driver/Src/stm32wlxx_hal_flash_ex.c ****   *         - an exit from Standby or Shutdown mode.
 308:Drivers/STM32WLxx_HAL_Driver/Src/stm32wlxx_hal_flash_ex.c ****   * @retval HAL Status
 309:Drivers/STM32WLxx_HAL_Driver/Src/stm32wlxx_hal_flash_ex.c ****   */
 310:Drivers/STM32WLxx_HAL_Driver/Src/stm32wlxx_hal_flash_ex.c **** HAL_StatusTypeDef HAL_FLASHEx_OBProgram(FLASH_OBProgramInitTypeDef *pOBInit)
 311:Drivers/STM32WLxx_HAL_Driver/Src/stm32wlxx_hal_flash_ex.c **** {
 312:Drivers/STM32WLxx_HAL_Driver/Src/stm32wlxx_hal_flash_ex.c ****   uint32_t optr;
 313:Drivers/STM32WLxx_HAL_Driver/Src/stm32wlxx_hal_flash_ex.c ****   HAL_StatusTypeDef status;
 314:Drivers/STM32WLxx_HAL_Driver/Src/stm32wlxx_hal_flash_ex.c **** 
 315:Drivers/STM32WLxx_HAL_Driver/Src/stm32wlxx_hal_flash_ex.c ****   /* Check the parameters */
 316:Drivers/STM32WLxx_HAL_Driver/Src/stm32wlxx_hal_flash_ex.c ****   assert_param(IS_OPTIONBYTE(pOBInit->OptionType));
 317:Drivers/STM32WLxx_HAL_Driver/Src/stm32wlxx_hal_flash_ex.c **** 
 318:Drivers/STM32WLxx_HAL_Driver/Src/stm32wlxx_hal_flash_ex.c ****   /* Process Locked */
ARM GAS  C:\Users\NATHAN~1\AppData\Local\Temp\cc8eZusg.s 			page 7


 319:Drivers/STM32WLxx_HAL_Driver/Src/stm32wlxx_hal_flash_ex.c ****   __HAL_LOCK(&pFlash);
 320:Drivers/STM32WLxx_HAL_Driver/Src/stm32wlxx_hal_flash_ex.c **** 
 321:Drivers/STM32WLxx_HAL_Driver/Src/stm32wlxx_hal_flash_ex.c ****   pFlash.ErrorCode = HAL_FLASH_ERROR_NONE;
 322:Drivers/STM32WLxx_HAL_Driver/Src/stm32wlxx_hal_flash_ex.c **** 
 323:Drivers/STM32WLxx_HAL_Driver/Src/stm32wlxx_hal_flash_ex.c ****   /* Write protection configuration */
 324:Drivers/STM32WLxx_HAL_Driver/Src/stm32wlxx_hal_flash_ex.c ****   if ((pOBInit->OptionType & OPTIONBYTE_WRP) != 0U)
 325:Drivers/STM32WLxx_HAL_Driver/Src/stm32wlxx_hal_flash_ex.c ****   {
 326:Drivers/STM32WLxx_HAL_Driver/Src/stm32wlxx_hal_flash_ex.c ****     /* Configure of Write protection on the selected area */
 327:Drivers/STM32WLxx_HAL_Driver/Src/stm32wlxx_hal_flash_ex.c ****     FLASH_OB_WRPConfig(pOBInit->WRPArea, pOBInit->WRPStartOffset, pOBInit->WRPEndOffset);
 328:Drivers/STM32WLxx_HAL_Driver/Src/stm32wlxx_hal_flash_ex.c ****   }
 329:Drivers/STM32WLxx_HAL_Driver/Src/stm32wlxx_hal_flash_ex.c **** 
 330:Drivers/STM32WLxx_HAL_Driver/Src/stm32wlxx_hal_flash_ex.c ****   /* Option register */
 331:Drivers/STM32WLxx_HAL_Driver/Src/stm32wlxx_hal_flash_ex.c ****   if ((pOBInit->OptionType & (OPTIONBYTE_RDP | OPTIONBYTE_USER)) == (OPTIONBYTE_RDP | OPTIONBYTE_US
 332:Drivers/STM32WLxx_HAL_Driver/Src/stm32wlxx_hal_flash_ex.c ****   {
 333:Drivers/STM32WLxx_HAL_Driver/Src/stm32wlxx_hal_flash_ex.c ****     /* Fully modify OPTR register with RDP & user data */
 334:Drivers/STM32WLxx_HAL_Driver/Src/stm32wlxx_hal_flash_ex.c ****     FLASH_OB_OptrConfig(pOBInit->UserType, pOBInit->UserConfig, pOBInit->RDPLevel);
 335:Drivers/STM32WLxx_HAL_Driver/Src/stm32wlxx_hal_flash_ex.c ****   }
 336:Drivers/STM32WLxx_HAL_Driver/Src/stm32wlxx_hal_flash_ex.c ****   else if ((pOBInit->OptionType & OPTIONBYTE_RDP) != 0U)
 337:Drivers/STM32WLxx_HAL_Driver/Src/stm32wlxx_hal_flash_ex.c ****   {
 338:Drivers/STM32WLxx_HAL_Driver/Src/stm32wlxx_hal_flash_ex.c ****     /* Only modify RDP so get current user data */
 339:Drivers/STM32WLxx_HAL_Driver/Src/stm32wlxx_hal_flash_ex.c ****     optr = FLASH_OB_GetUser();
 340:Drivers/STM32WLxx_HAL_Driver/Src/stm32wlxx_hal_flash_ex.c **** 
 341:Drivers/STM32WLxx_HAL_Driver/Src/stm32wlxx_hal_flash_ex.c ****     /* Remove BOR LEVEL User Type*/
 342:Drivers/STM32WLxx_HAL_Driver/Src/stm32wlxx_hal_flash_ex.c ****     optr &= ~OB_USER_BOR_LEV;
 343:Drivers/STM32WLxx_HAL_Driver/Src/stm32wlxx_hal_flash_ex.c **** 
 344:Drivers/STM32WLxx_HAL_Driver/Src/stm32wlxx_hal_flash_ex.c ****     FLASH_OB_OptrConfig(optr, optr, pOBInit->RDPLevel);
 345:Drivers/STM32WLxx_HAL_Driver/Src/stm32wlxx_hal_flash_ex.c ****   }
 346:Drivers/STM32WLxx_HAL_Driver/Src/stm32wlxx_hal_flash_ex.c ****   else if ((pOBInit->OptionType & OPTIONBYTE_USER) != 0U)
 347:Drivers/STM32WLxx_HAL_Driver/Src/stm32wlxx_hal_flash_ex.c ****   {
 348:Drivers/STM32WLxx_HAL_Driver/Src/stm32wlxx_hal_flash_ex.c ****     /* Only modify user so get current RDP level */
 349:Drivers/STM32WLxx_HAL_Driver/Src/stm32wlxx_hal_flash_ex.c ****     optr = FLASH_OB_GetRDP();
 350:Drivers/STM32WLxx_HAL_Driver/Src/stm32wlxx_hal_flash_ex.c ****     FLASH_OB_OptrConfig(pOBInit->UserType, pOBInit->UserConfig, optr);
 351:Drivers/STM32WLxx_HAL_Driver/Src/stm32wlxx_hal_flash_ex.c ****   }
 352:Drivers/STM32WLxx_HAL_Driver/Src/stm32wlxx_hal_flash_ex.c ****   else
 353:Drivers/STM32WLxx_HAL_Driver/Src/stm32wlxx_hal_flash_ex.c ****   {
 354:Drivers/STM32WLxx_HAL_Driver/Src/stm32wlxx_hal_flash_ex.c ****     /* Do Nothing */
 355:Drivers/STM32WLxx_HAL_Driver/Src/stm32wlxx_hal_flash_ex.c ****   }
 356:Drivers/STM32WLxx_HAL_Driver/Src/stm32wlxx_hal_flash_ex.c **** 
 357:Drivers/STM32WLxx_HAL_Driver/Src/stm32wlxx_hal_flash_ex.c ****   /* PCROP Configuration */
 358:Drivers/STM32WLxx_HAL_Driver/Src/stm32wlxx_hal_flash_ex.c ****   if ((pOBInit->OptionType & OPTIONBYTE_PCROP) != 0U)
 359:Drivers/STM32WLxx_HAL_Driver/Src/stm32wlxx_hal_flash_ex.c ****   {
 360:Drivers/STM32WLxx_HAL_Driver/Src/stm32wlxx_hal_flash_ex.c ****     /* Check the parameters */
 361:Drivers/STM32WLxx_HAL_Driver/Src/stm32wlxx_hal_flash_ex.c ****     assert_param(IS_OB_PCROP_CONFIG(pOBInit->PCROPConfig));
 362:Drivers/STM32WLxx_HAL_Driver/Src/stm32wlxx_hal_flash_ex.c **** 
 363:Drivers/STM32WLxx_HAL_Driver/Src/stm32wlxx_hal_flash_ex.c ****     if ((pOBInit->PCROPConfig & (OB_PCROP_ZONE_A | OB_PCROP_RDP_ERASE)) != 0U)
 364:Drivers/STM32WLxx_HAL_Driver/Src/stm32wlxx_hal_flash_ex.c ****     {
 365:Drivers/STM32WLxx_HAL_Driver/Src/stm32wlxx_hal_flash_ex.c ****       /* Configure the Zone 1A Proprietary code readout protection */
 366:Drivers/STM32WLxx_HAL_Driver/Src/stm32wlxx_hal_flash_ex.c ****       FLASH_OB_PCROP1AConfig(pOBInit->PCROPConfig, pOBInit->PCROP1AStartAddr, pOBInit->PCROP1AEndAd
 367:Drivers/STM32WLxx_HAL_Driver/Src/stm32wlxx_hal_flash_ex.c ****     }
 368:Drivers/STM32WLxx_HAL_Driver/Src/stm32wlxx_hal_flash_ex.c **** 
 369:Drivers/STM32WLxx_HAL_Driver/Src/stm32wlxx_hal_flash_ex.c ****     if ((pOBInit->PCROPConfig & OB_PCROP_ZONE_B) != 0U)
 370:Drivers/STM32WLxx_HAL_Driver/Src/stm32wlxx_hal_flash_ex.c ****     {
 371:Drivers/STM32WLxx_HAL_Driver/Src/stm32wlxx_hal_flash_ex.c ****       /* Configure the Zone 1B Proprietary code readout protection */
 372:Drivers/STM32WLxx_HAL_Driver/Src/stm32wlxx_hal_flash_ex.c ****       FLASH_OB_PCROP1BConfig(pOBInit->PCROP1BStartAddr, pOBInit->PCROP1BEndAddr);
 373:Drivers/STM32WLxx_HAL_Driver/Src/stm32wlxx_hal_flash_ex.c ****     }
 374:Drivers/STM32WLxx_HAL_Driver/Src/stm32wlxx_hal_flash_ex.c ****   }
 375:Drivers/STM32WLxx_HAL_Driver/Src/stm32wlxx_hal_flash_ex.c **** 
ARM GAS  C:\Users\NATHAN~1\AppData\Local\Temp\cc8eZusg.s 			page 8


 376:Drivers/STM32WLxx_HAL_Driver/Src/stm32wlxx_hal_flash_ex.c **** #if defined(DUAL_CORE)
 377:Drivers/STM32WLxx_HAL_Driver/Src/stm32wlxx_hal_flash_ex.c ****   /*  Secure mode and CPU2 Boot Vector */
 378:Drivers/STM32WLxx_HAL_Driver/Src/stm32wlxx_hal_flash_ex.c ****   if ((pOBInit->OptionType & (OPTIONBYTE_SECURE_MODE | OPTIONBYTE_C2_BOOT_VECT | OPTIONBYTE_C2_DEBU
 379:Drivers/STM32WLxx_HAL_Driver/Src/stm32wlxx_hal_flash_ex.c ****   {
 380:Drivers/STM32WLxx_HAL_Driver/Src/stm32wlxx_hal_flash_ex.c ****     /* Set the secure flash, SRAM memory start address, CPU2 boot reset vector or CPU2 debug access
 381:Drivers/STM32WLxx_HAL_Driver/Src/stm32wlxx_hal_flash_ex.c ****     FLASH_OB_SecureConfig(pOBInit);
 382:Drivers/STM32WLxx_HAL_Driver/Src/stm32wlxx_hal_flash_ex.c ****   }
 383:Drivers/STM32WLxx_HAL_Driver/Src/stm32wlxx_hal_flash_ex.c **** 
 384:Drivers/STM32WLxx_HAL_Driver/Src/stm32wlxx_hal_flash_ex.c ****   /* IPCC mailbox data buffer address */
 385:Drivers/STM32WLxx_HAL_Driver/Src/stm32wlxx_hal_flash_ex.c ****   if ((pOBInit->OptionType & OPTIONBYTE_IPCC_BUF_ADDR) != 0U)
 386:Drivers/STM32WLxx_HAL_Driver/Src/stm32wlxx_hal_flash_ex.c ****   {
 387:Drivers/STM32WLxx_HAL_Driver/Src/stm32wlxx_hal_flash_ex.c ****     /* Configure the IPCC data buffer address */
 388:Drivers/STM32WLxx_HAL_Driver/Src/stm32wlxx_hal_flash_ex.c ****     FLASH_OB_IPCCBufferAddrConfig(pOBInit->IPCCdataBufAddr);
 389:Drivers/STM32WLxx_HAL_Driver/Src/stm32wlxx_hal_flash_ex.c ****   }
 390:Drivers/STM32WLxx_HAL_Driver/Src/stm32wlxx_hal_flash_ex.c **** #endif /* DUAL_CORE */
 391:Drivers/STM32WLxx_HAL_Driver/Src/stm32wlxx_hal_flash_ex.c **** 
 392:Drivers/STM32WLxx_HAL_Driver/Src/stm32wlxx_hal_flash_ex.c ****   /* Proceed the OB Write Operation */
 393:Drivers/STM32WLxx_HAL_Driver/Src/stm32wlxx_hal_flash_ex.c ****   status = FLASH_OB_ProceedWriteOperation();
 394:Drivers/STM32WLxx_HAL_Driver/Src/stm32wlxx_hal_flash_ex.c **** 
 395:Drivers/STM32WLxx_HAL_Driver/Src/stm32wlxx_hal_flash_ex.c ****   /* Process Unlocked */
 396:Drivers/STM32WLxx_HAL_Driver/Src/stm32wlxx_hal_flash_ex.c ****   __HAL_UNLOCK(&pFlash);
 397:Drivers/STM32WLxx_HAL_Driver/Src/stm32wlxx_hal_flash_ex.c **** 
 398:Drivers/STM32WLxx_HAL_Driver/Src/stm32wlxx_hal_flash_ex.c ****   /* return status */
 399:Drivers/STM32WLxx_HAL_Driver/Src/stm32wlxx_hal_flash_ex.c ****   return status;
 400:Drivers/STM32WLxx_HAL_Driver/Src/stm32wlxx_hal_flash_ex.c **** }
 401:Drivers/STM32WLxx_HAL_Driver/Src/stm32wlxx_hal_flash_ex.c **** 
 402:Drivers/STM32WLxx_HAL_Driver/Src/stm32wlxx_hal_flash_ex.c **** /**
 403:Drivers/STM32WLxx_HAL_Driver/Src/stm32wlxx_hal_flash_ex.c ****   * @brief  Get the Option bytes configuration.
 404:Drivers/STM32WLxx_HAL_Driver/Src/stm32wlxx_hal_flash_ex.c ****   * @note   warning: this API only read flash register, it does not reflect any
 405:Drivers/STM32WLxx_HAL_Driver/Src/stm32wlxx_hal_flash_ex.c ****   *         change that would have been programmed between previous Option byte
 406:Drivers/STM32WLxx_HAL_Driver/Src/stm32wlxx_hal_flash_ex.c ****   *         loading and current call.
 407:Drivers/STM32WLxx_HAL_Driver/Src/stm32wlxx_hal_flash_ex.c ****   * @param  pOBInit Pointer to an @ref FLASH_OBProgramInitTypeDef structure that contains the
 408:Drivers/STM32WLxx_HAL_Driver/Src/stm32wlxx_hal_flash_ex.c ****   *                  configuration information. The fields pOBInit->WRPArea and
 409:Drivers/STM32WLxx_HAL_Driver/Src/stm32wlxx_hal_flash_ex.c ****   *                  pOBInit->PCROPConfig should indicate which area is requested
 410:Drivers/STM32WLxx_HAL_Driver/Src/stm32wlxx_hal_flash_ex.c ****   *                  for the WRP and PCROP.
 411:Drivers/STM32WLxx_HAL_Driver/Src/stm32wlxx_hal_flash_ex.c ****   * @retval None
 412:Drivers/STM32WLxx_HAL_Driver/Src/stm32wlxx_hal_flash_ex.c ****   */
 413:Drivers/STM32WLxx_HAL_Driver/Src/stm32wlxx_hal_flash_ex.c **** void HAL_FLASHEx_OBGetConfig(FLASH_OBProgramInitTypeDef *pOBInit)
 414:Drivers/STM32WLxx_HAL_Driver/Src/stm32wlxx_hal_flash_ex.c **** {
 415:Drivers/STM32WLxx_HAL_Driver/Src/stm32wlxx_hal_flash_ex.c ****   pOBInit->OptionType = OPTIONBYTE_ALL;
 416:Drivers/STM32WLxx_HAL_Driver/Src/stm32wlxx_hal_flash_ex.c **** 
 417:Drivers/STM32WLxx_HAL_Driver/Src/stm32wlxx_hal_flash_ex.c ****   if ((pOBInit->WRPArea == OB_WRPAREA_BANK1_AREAA) || (pOBInit->WRPArea == OB_WRPAREA_BANK1_AREAB))
 418:Drivers/STM32WLxx_HAL_Driver/Src/stm32wlxx_hal_flash_ex.c ****   {
 419:Drivers/STM32WLxx_HAL_Driver/Src/stm32wlxx_hal_flash_ex.c ****     /* Get write protection on the selected area */
 420:Drivers/STM32WLxx_HAL_Driver/Src/stm32wlxx_hal_flash_ex.c ****     FLASH_OB_GetWRP(pOBInit->WRPArea, &(pOBInit->WRPStartOffset), &(pOBInit->WRPEndOffset));
 421:Drivers/STM32WLxx_HAL_Driver/Src/stm32wlxx_hal_flash_ex.c ****   }
 422:Drivers/STM32WLxx_HAL_Driver/Src/stm32wlxx_hal_flash_ex.c **** 
 423:Drivers/STM32WLxx_HAL_Driver/Src/stm32wlxx_hal_flash_ex.c ****   /* Get Read protection level */
 424:Drivers/STM32WLxx_HAL_Driver/Src/stm32wlxx_hal_flash_ex.c ****   pOBInit->RDPLevel = FLASH_OB_GetRDP();
 425:Drivers/STM32WLxx_HAL_Driver/Src/stm32wlxx_hal_flash_ex.c **** 
 426:Drivers/STM32WLxx_HAL_Driver/Src/stm32wlxx_hal_flash_ex.c ****   /* Get the user option bytes */
 427:Drivers/STM32WLxx_HAL_Driver/Src/stm32wlxx_hal_flash_ex.c ****   pOBInit->UserConfig = FLASH_OB_GetUser();
 428:Drivers/STM32WLxx_HAL_Driver/Src/stm32wlxx_hal_flash_ex.c ****   pOBInit->UserType = OB_USER_ALL;
 429:Drivers/STM32WLxx_HAL_Driver/Src/stm32wlxx_hal_flash_ex.c **** 
 430:Drivers/STM32WLxx_HAL_Driver/Src/stm32wlxx_hal_flash_ex.c ****   /* Get the Zone 1A and 1B Proprietary code readout protection */
 431:Drivers/STM32WLxx_HAL_Driver/Src/stm32wlxx_hal_flash_ex.c ****   FLASH_OB_GetPCROP(&(pOBInit->PCROPConfig), &(pOBInit->PCROP1AStartAddr), &(pOBInit->PCROP1AEndAdd
 432:Drivers/STM32WLxx_HAL_Driver/Src/stm32wlxx_hal_flash_ex.c ****   pOBInit->PCROPConfig |= (OB_PCROP_ZONE_A | OB_PCROP_ZONE_B);
ARM GAS  C:\Users\NATHAN~1\AppData\Local\Temp\cc8eZusg.s 			page 9


 433:Drivers/STM32WLxx_HAL_Driver/Src/stm32wlxx_hal_flash_ex.c **** 
 434:Drivers/STM32WLxx_HAL_Driver/Src/stm32wlxx_hal_flash_ex.c **** #if defined(DUAL_CORE)
 435:Drivers/STM32WLxx_HAL_Driver/Src/stm32wlxx_hal_flash_ex.c ****   /* Get the IPCC start Address */
 436:Drivers/STM32WLxx_HAL_Driver/Src/stm32wlxx_hal_flash_ex.c ****   pOBInit->IPCCdataBufAddr = FLASH_OB_GetIPCCBufferAddr();
 437:Drivers/STM32WLxx_HAL_Driver/Src/stm32wlxx_hal_flash_ex.c **** 
 438:Drivers/STM32WLxx_HAL_Driver/Src/stm32wlxx_hal_flash_ex.c ****   /* Get the Secure Flash start address, Secure Hide Protection start address Secure Backup SRAM2 s
 439:Drivers/STM32WLxx_HAL_Driver/Src/stm32wlxx_hal_flash_ex.c ****   FLASH_OB_GetSecureMemoryConfig(&(pOBInit->SecureFlashStartAddr), &(pOBInit->HideProtectionStartAd
 440:Drivers/STM32WLxx_HAL_Driver/Src/stm32wlxx_hal_flash_ex.c **** 
 441:Drivers/STM32WLxx_HAL_Driver/Src/stm32wlxx_hal_flash_ex.c ****   /* Get the M0+ Secure Boot reset vector address and Secure Boot memory selection */
 442:Drivers/STM32WLxx_HAL_Driver/Src/stm32wlxx_hal_flash_ex.c ****   FLASH_OB_GetC2BootResetConfig(&(pOBInit->C2SecureBootVectAddr), &(pOBInit->C2BootRegion));
 443:Drivers/STM32WLxx_HAL_Driver/Src/stm32wlxx_hal_flash_ex.c **** 
 444:Drivers/STM32WLxx_HAL_Driver/Src/stm32wlxx_hal_flash_ex.c ****   /* Get the Sub-GHz radio SPI Secure Access */
 445:Drivers/STM32WLxx_HAL_Driver/Src/stm32wlxx_hal_flash_ex.c ****   pOBInit->SUBGHZSPISecureAccess = FLASH_OB_GetSUBGHZSPISecureAccess();
 446:Drivers/STM32WLxx_HAL_Driver/Src/stm32wlxx_hal_flash_ex.c **** 
 447:Drivers/STM32WLxx_HAL_Driver/Src/stm32wlxx_hal_flash_ex.c ****   /* Get the CPU2 Debug Access Mode */
 448:Drivers/STM32WLxx_HAL_Driver/Src/stm32wlxx_hal_flash_ex.c ****   pOBInit->C2DebugAccessMode = FLASH_OB_GetC2DebugAccessMode();
 449:Drivers/STM32WLxx_HAL_Driver/Src/stm32wlxx_hal_flash_ex.c **** #endif /* DUAL_CORE */
 450:Drivers/STM32WLxx_HAL_Driver/Src/stm32wlxx_hal_flash_ex.c **** }
 451:Drivers/STM32WLxx_HAL_Driver/Src/stm32wlxx_hal_flash_ex.c **** 
 452:Drivers/STM32WLxx_HAL_Driver/Src/stm32wlxx_hal_flash_ex.c **** /**
 453:Drivers/STM32WLxx_HAL_Driver/Src/stm32wlxx_hal_flash_ex.c ****   * @brief  Flash Empty check
 454:Drivers/STM32WLxx_HAL_Driver/Src/stm32wlxx_hal_flash_ex.c ****   * @note   This API checks if first location in Flash is programmed or not.
 455:Drivers/STM32WLxx_HAL_Driver/Src/stm32wlxx_hal_flash_ex.c ****   *         This check is done once by Option Byte Loader.
 456:Drivers/STM32WLxx_HAL_Driver/Src/stm32wlxx_hal_flash_ex.c ****   * @retval Returned value can be one of the following values:
 457:Drivers/STM32WLxx_HAL_Driver/Src/stm32wlxx_hal_flash_ex.c ****   *         @arg @ref FLASH_PROG_NOT_EMPTY 1st location in Flash is programmed
 458:Drivers/STM32WLxx_HAL_Driver/Src/stm32wlxx_hal_flash_ex.c ****   *         @arg @ref FLASH_PROG_EMPTY 1st location in Flash is empty
 459:Drivers/STM32WLxx_HAL_Driver/Src/stm32wlxx_hal_flash_ex.c ****   */
 460:Drivers/STM32WLxx_HAL_Driver/Src/stm32wlxx_hal_flash_ex.c **** uint32_t HAL_FLASHEx_FlashEmptyCheck(void)
 461:Drivers/STM32WLxx_HAL_Driver/Src/stm32wlxx_hal_flash_ex.c **** {
 462:Drivers/STM32WLxx_HAL_Driver/Src/stm32wlxx_hal_flash_ex.c ****   return (READ_BIT(FLASH->ACR, FLASH_ACR_EMPTY));
 463:Drivers/STM32WLxx_HAL_Driver/Src/stm32wlxx_hal_flash_ex.c **** }
 464:Drivers/STM32WLxx_HAL_Driver/Src/stm32wlxx_hal_flash_ex.c **** 
 465:Drivers/STM32WLxx_HAL_Driver/Src/stm32wlxx_hal_flash_ex.c **** 
 466:Drivers/STM32WLxx_HAL_Driver/Src/stm32wlxx_hal_flash_ex.c **** /**
 467:Drivers/STM32WLxx_HAL_Driver/Src/stm32wlxx_hal_flash_ex.c ****   * @brief  Force Empty check value.
 468:Drivers/STM32WLxx_HAL_Driver/Src/stm32wlxx_hal_flash_ex.c ****   * @note   Allows to modify program empty check value in order to force this
 469:Drivers/STM32WLxx_HAL_Driver/Src/stm32wlxx_hal_flash_ex.c ****   *         information in Flash Interface, for all next reset that do not launch
 470:Drivers/STM32WLxx_HAL_Driver/Src/stm32wlxx_hal_flash_ex.c ****   *         Option Byte Loader.
 471:Drivers/STM32WLxx_HAL_Driver/Src/stm32wlxx_hal_flash_ex.c ****   * @param  FlashEmpty Specifies the empty check value
 472:Drivers/STM32WLxx_HAL_Driver/Src/stm32wlxx_hal_flash_ex.c ****   *          This parameter can be one of the following values:
 473:Drivers/STM32WLxx_HAL_Driver/Src/stm32wlxx_hal_flash_ex.c ****   *            @arg @ref FLASH_PROG_NOT_EMPTY 1st location in Flash is programmed
 474:Drivers/STM32WLxx_HAL_Driver/Src/stm32wlxx_hal_flash_ex.c ****   *            @arg @ref FLASH_PROG_EMPTY 1st location in Flash is empty
 475:Drivers/STM32WLxx_HAL_Driver/Src/stm32wlxx_hal_flash_ex.c ****   * @retval None
 476:Drivers/STM32WLxx_HAL_Driver/Src/stm32wlxx_hal_flash_ex.c ****   */
 477:Drivers/STM32WLxx_HAL_Driver/Src/stm32wlxx_hal_flash_ex.c **** void HAL_FLASHEx_ForceFlashEmpty(uint32_t FlashEmpty)
 478:Drivers/STM32WLxx_HAL_Driver/Src/stm32wlxx_hal_flash_ex.c **** {
 479:Drivers/STM32WLxx_HAL_Driver/Src/stm32wlxx_hal_flash_ex.c ****   assert_param(IS_FLASH_EMPTY_CHECK(FlashEmpty));
 480:Drivers/STM32WLxx_HAL_Driver/Src/stm32wlxx_hal_flash_ex.c **** 
 481:Drivers/STM32WLxx_HAL_Driver/Src/stm32wlxx_hal_flash_ex.c ****   MODIFY_REG(FLASH->ACR, FLASH_ACR_EMPTY, FlashEmpty);
 482:Drivers/STM32WLxx_HAL_Driver/Src/stm32wlxx_hal_flash_ex.c **** }
 483:Drivers/STM32WLxx_HAL_Driver/Src/stm32wlxx_hal_flash_ex.c **** 
 484:Drivers/STM32WLxx_HAL_Driver/Src/stm32wlxx_hal_flash_ex.c **** /**
 485:Drivers/STM32WLxx_HAL_Driver/Src/stm32wlxx_hal_flash_ex.c ****   * @brief  Suspend new program or erase operation request.
 486:Drivers/STM32WLxx_HAL_Driver/Src/stm32wlxx_hal_flash_ex.c ****   * @note   Any new Flash program and erase operation on both CPU side will be suspended
 487:Drivers/STM32WLxx_HAL_Driver/Src/stm32wlxx_hal_flash_ex.c ****   *         until this bit and the same bit in Flash CPU2 access control register (FLASH_C2ACR) are
 488:Drivers/STM32WLxx_HAL_Driver/Src/stm32wlxx_hal_flash_ex.c ****   *         cleared. The PESD bit in both the Flash status register (FLASH_SR) and Flash
 489:Drivers/STM32WLxx_HAL_Driver/Src/stm32wlxx_hal_flash_ex.c ****   *         CPU2 status register (FLASH_C2SR) register will be set when at least one PES
ARM GAS  C:\Users\NATHAN~1\AppData\Local\Temp\cc8eZusg.s 			page 10


 490:Drivers/STM32WLxx_HAL_Driver/Src/stm32wlxx_hal_flash_ex.c ****   *         bit in FLASH_ACR or FLASH_C2ACR is set.
 491:Drivers/STM32WLxx_HAL_Driver/Src/stm32wlxx_hal_flash_ex.c ****   * @retval None
 492:Drivers/STM32WLxx_HAL_Driver/Src/stm32wlxx_hal_flash_ex.c ****   */
 493:Drivers/STM32WLxx_HAL_Driver/Src/stm32wlxx_hal_flash_ex.c **** void HAL_FLASHEx_SuspendOperation(void)
 494:Drivers/STM32WLxx_HAL_Driver/Src/stm32wlxx_hal_flash_ex.c **** {
 495:Drivers/STM32WLxx_HAL_Driver/Src/stm32wlxx_hal_flash_ex.c **** #if defined(CORE_CM0PLUS)
 496:Drivers/STM32WLxx_HAL_Driver/Src/stm32wlxx_hal_flash_ex.c ****   SET_BIT(FLASH->C2ACR, FLASH_C2ACR_PES);
 497:Drivers/STM32WLxx_HAL_Driver/Src/stm32wlxx_hal_flash_ex.c **** #else
 498:Drivers/STM32WLxx_HAL_Driver/Src/stm32wlxx_hal_flash_ex.c ****   SET_BIT(FLASH->ACR, FLASH_ACR_PES);
 499:Drivers/STM32WLxx_HAL_Driver/Src/stm32wlxx_hal_flash_ex.c **** #endif
 500:Drivers/STM32WLxx_HAL_Driver/Src/stm32wlxx_hal_flash_ex.c **** }
 501:Drivers/STM32WLxx_HAL_Driver/Src/stm32wlxx_hal_flash_ex.c **** 
 502:Drivers/STM32WLxx_HAL_Driver/Src/stm32wlxx_hal_flash_ex.c **** /**
 503:Drivers/STM32WLxx_HAL_Driver/Src/stm32wlxx_hal_flash_ex.c ****   * @brief  Allow new program or erase operation request.
 504:Drivers/STM32WLxx_HAL_Driver/Src/stm32wlxx_hal_flash_ex.c ****   * @note   Any new Flash program and erase operation on both CPU side will be allowed
 505:Drivers/STM32WLxx_HAL_Driver/Src/stm32wlxx_hal_flash_ex.c ****   *         until one of this bit or the same bit in Flash CPU2 access control register (FLASH_C2AC
 506:Drivers/STM32WLxx_HAL_Driver/Src/stm32wlxx_hal_flash_ex.c ****   *         set. The PESD bit in both the Flash status register (FLASH_SR) and Flash
 507:Drivers/STM32WLxx_HAL_Driver/Src/stm32wlxx_hal_flash_ex.c ****   *         CPU2 status register (FLASH_C2SR) register will be clear when both PES
 508:Drivers/STM32WLxx_HAL_Driver/Src/stm32wlxx_hal_flash_ex.c ****   *         bit in FLASH_ACR or FLASH_C2ACR is cleared.
 509:Drivers/STM32WLxx_HAL_Driver/Src/stm32wlxx_hal_flash_ex.c ****   * @retval None
 510:Drivers/STM32WLxx_HAL_Driver/Src/stm32wlxx_hal_flash_ex.c ****   */
 511:Drivers/STM32WLxx_HAL_Driver/Src/stm32wlxx_hal_flash_ex.c **** void HAL_FLASHEx_AllowOperation(void)
 512:Drivers/STM32WLxx_HAL_Driver/Src/stm32wlxx_hal_flash_ex.c **** {
 513:Drivers/STM32WLxx_HAL_Driver/Src/stm32wlxx_hal_flash_ex.c **** #if defined(CORE_CM0PLUS)
 514:Drivers/STM32WLxx_HAL_Driver/Src/stm32wlxx_hal_flash_ex.c ****   CLEAR_BIT(FLASH->C2ACR, FLASH_C2ACR_PES);
 515:Drivers/STM32WLxx_HAL_Driver/Src/stm32wlxx_hal_flash_ex.c **** #else
 516:Drivers/STM32WLxx_HAL_Driver/Src/stm32wlxx_hal_flash_ex.c ****   CLEAR_BIT(FLASH->ACR, FLASH_ACR_PES);
 517:Drivers/STM32WLxx_HAL_Driver/Src/stm32wlxx_hal_flash_ex.c **** #endif
 518:Drivers/STM32WLxx_HAL_Driver/Src/stm32wlxx_hal_flash_ex.c **** }
 519:Drivers/STM32WLxx_HAL_Driver/Src/stm32wlxx_hal_flash_ex.c **** 
 520:Drivers/STM32WLxx_HAL_Driver/Src/stm32wlxx_hal_flash_ex.c **** /**
 521:Drivers/STM32WLxx_HAL_Driver/Src/stm32wlxx_hal_flash_ex.c ****   * @brief  Check if new program or erase operation request from CPU1 or CPU2 is suspended
 522:Drivers/STM32WLxx_HAL_Driver/Src/stm32wlxx_hal_flash_ex.c ****   * @note   Any new Flash program and erase operation on both CPU side will be allowed
 523:Drivers/STM32WLxx_HAL_Driver/Src/stm32wlxx_hal_flash_ex.c ****   *         until one of this bit or the same bit in Flash CPU2 access control register (FLASH_C2AC
 524:Drivers/STM32WLxx_HAL_Driver/Src/stm32wlxx_hal_flash_ex.c ****   *         set. The PESD bit in both the Flash status register (FLASH_SR) and Flash
 525:Drivers/STM32WLxx_HAL_Driver/Src/stm32wlxx_hal_flash_ex.c ****   *         CPU2 status register (FLASH_C2SR) register will be cleared when both PES
 526:Drivers/STM32WLxx_HAL_Driver/Src/stm32wlxx_hal_flash_ex.c ****   *         bit in FLASH_ACR and FLASH_C2ACR are cleared.
 527:Drivers/STM32WLxx_HAL_Driver/Src/stm32wlxx_hal_flash_ex.c ****   * @retval Status
 528:Drivers/STM32WLxx_HAL_Driver/Src/stm32wlxx_hal_flash_ex.c ****   *          - 0 : No suspended flash operation
 529:Drivers/STM32WLxx_HAL_Driver/Src/stm32wlxx_hal_flash_ex.c ****   *          - 1 : Flash operation is suspended
 530:Drivers/STM32WLxx_HAL_Driver/Src/stm32wlxx_hal_flash_ex.c ****   */
 531:Drivers/STM32WLxx_HAL_Driver/Src/stm32wlxx_hal_flash_ex.c **** uint32_t HAL_FLASHEx_IsOperationSuspended(void)
 532:Drivers/STM32WLxx_HAL_Driver/Src/stm32wlxx_hal_flash_ex.c **** {
 533:Drivers/STM32WLxx_HAL_Driver/Src/stm32wlxx_hal_flash_ex.c ****   uint32_t status = 0U;
 534:Drivers/STM32WLxx_HAL_Driver/Src/stm32wlxx_hal_flash_ex.c **** 
 535:Drivers/STM32WLxx_HAL_Driver/Src/stm32wlxx_hal_flash_ex.c **** #if defined(CORE_CM0PLUS)
 536:Drivers/STM32WLxx_HAL_Driver/Src/stm32wlxx_hal_flash_ex.c ****   if (READ_BIT(FLASH->C2SR, FLASH_C2SR_PESD) == FLASH_C2SR_PESD)
 537:Drivers/STM32WLxx_HAL_Driver/Src/stm32wlxx_hal_flash_ex.c **** #else
 538:Drivers/STM32WLxx_HAL_Driver/Src/stm32wlxx_hal_flash_ex.c ****   if (READ_BIT(FLASH->SR, FLASH_SR_PESD) == FLASH_SR_PESD)
 539:Drivers/STM32WLxx_HAL_Driver/Src/stm32wlxx_hal_flash_ex.c **** #endif
 540:Drivers/STM32WLxx_HAL_Driver/Src/stm32wlxx_hal_flash_ex.c ****   {
 541:Drivers/STM32WLxx_HAL_Driver/Src/stm32wlxx_hal_flash_ex.c ****     status = 1U;
 542:Drivers/STM32WLxx_HAL_Driver/Src/stm32wlxx_hal_flash_ex.c ****   }
 543:Drivers/STM32WLxx_HAL_Driver/Src/stm32wlxx_hal_flash_ex.c **** 
 544:Drivers/STM32WLxx_HAL_Driver/Src/stm32wlxx_hal_flash_ex.c ****   return status;
 545:Drivers/STM32WLxx_HAL_Driver/Src/stm32wlxx_hal_flash_ex.c **** }
 546:Drivers/STM32WLxx_HAL_Driver/Src/stm32wlxx_hal_flash_ex.c **** 
ARM GAS  C:\Users\NATHAN~1\AppData\Local\Temp\cc8eZusg.s 			page 11


 547:Drivers/STM32WLxx_HAL_Driver/Src/stm32wlxx_hal_flash_ex.c **** #if defined(DUAL_CORE)
 548:Drivers/STM32WLxx_HAL_Driver/Src/stm32wlxx_hal_flash_ex.c **** /**
 549:Drivers/STM32WLxx_HAL_Driver/Src/stm32wlxx_hal_flash_ex.c ****   * @brief  Disable CPU2 debug access.
 550:Drivers/STM32WLxx_HAL_Driver/Src/stm32wlxx_hal_flash_ex.c ****   * @note   This feature can only be accessed by a secure privileged CPU2
 551:Drivers/STM32WLxx_HAL_Driver/Src/stm32wlxx_hal_flash_ex.c ****   *         When FLASH_SFR_HDPAD = 0 (Secure Hide Protection area enabled) the CPU2 software debug 
 552:Drivers/STM32WLxx_HAL_Driver/Src/stm32wlxx_hal_flash_ex.c ****   *         When FLASH_SFR_HDPAD = 1 (Secure Hide Protection area disabled) the CPU2 software debug
 553:Drivers/STM32WLxx_HAL_Driver/Src/stm32wlxx_hal_flash_ex.c ****   * @retval None
 554:Drivers/STM32WLxx_HAL_Driver/Src/stm32wlxx_hal_flash_ex.c ****   */
 555:Drivers/STM32WLxx_HAL_Driver/Src/stm32wlxx_hal_flash_ex.c **** void HAL_FLASHEx_DisableC2Debug(void)
 556:Drivers/STM32WLxx_HAL_Driver/Src/stm32wlxx_hal_flash_ex.c **** {
 557:Drivers/STM32WLxx_HAL_Driver/Src/stm32wlxx_hal_flash_ex.c ****   CLEAR_BIT(FLASH->ACR2, FLASH_ACR2_C2SWDBGEN);
 558:Drivers/STM32WLxx_HAL_Driver/Src/stm32wlxx_hal_flash_ex.c **** }
 559:Drivers/STM32WLxx_HAL_Driver/Src/stm32wlxx_hal_flash_ex.c **** 
 560:Drivers/STM32WLxx_HAL_Driver/Src/stm32wlxx_hal_flash_ex.c **** /**
 561:Drivers/STM32WLxx_HAL_Driver/Src/stm32wlxx_hal_flash_ex.c ****   * @brief  Enable CPU2 debug access (When also enabled in FLASH_SFR_DDS).
 562:Drivers/STM32WLxx_HAL_Driver/Src/stm32wlxx_hal_flash_ex.c ****   * @note   This feature can only be accessed by a secure privileged CPU2
 563:Drivers/STM32WLxx_HAL_Driver/Src/stm32wlxx_hal_flash_ex.c ****   *         When FLASH_SFR_HDPAD = 0 (Secure Hide Protection area enabled) the CPU2 software debug 
 564:Drivers/STM32WLxx_HAL_Driver/Src/stm32wlxx_hal_flash_ex.c ****   *         When FLASH_SFR_HDPAD = 1 (Secure Hide Protection area disabled) the CPU2 software debug
 565:Drivers/STM32WLxx_HAL_Driver/Src/stm32wlxx_hal_flash_ex.c ****   * @retval None
 566:Drivers/STM32WLxx_HAL_Driver/Src/stm32wlxx_hal_flash_ex.c ****   */
 567:Drivers/STM32WLxx_HAL_Driver/Src/stm32wlxx_hal_flash_ex.c **** void HAL_FLASHEx_EnableC2Debug(void)
 568:Drivers/STM32WLxx_HAL_Driver/Src/stm32wlxx_hal_flash_ex.c **** {
 569:Drivers/STM32WLxx_HAL_Driver/Src/stm32wlxx_hal_flash_ex.c ****   SET_BIT(FLASH->ACR2, FLASH_ACR2_C2SWDBGEN);
 570:Drivers/STM32WLxx_HAL_Driver/Src/stm32wlxx_hal_flash_ex.c **** }
 571:Drivers/STM32WLxx_HAL_Driver/Src/stm32wlxx_hal_flash_ex.c **** 
 572:Drivers/STM32WLxx_HAL_Driver/Src/stm32wlxx_hal_flash_ex.c **** /**
 573:Drivers/STM32WLxx_HAL_Driver/Src/stm32wlxx_hal_flash_ex.c ****   * @brief  Enable Secure Hide Protection Area access.
 574:Drivers/STM32WLxx_HAL_Driver/Src/stm32wlxx_hal_flash_ex.c ****   * @note   This feature can only be accessed by a secure privileged CPU2
 575:Drivers/STM32WLxx_HAL_Driver/Src/stm32wlxx_hal_flash_ex.c ****   *         This bit is set by software and will only be reset by hardware on a system reset.
 576:Drivers/STM32WLxx_HAL_Driver/Src/stm32wlxx_hal_flash_ex.c ****   * @retval None
 577:Drivers/STM32WLxx_HAL_Driver/Src/stm32wlxx_hal_flash_ex.c ****   */
 578:Drivers/STM32WLxx_HAL_Driver/Src/stm32wlxx_hal_flash_ex.c **** void HAL_FLASHEx_EnableSecHideProtection(void)
 579:Drivers/STM32WLxx_HAL_Driver/Src/stm32wlxx_hal_flash_ex.c **** {
 580:Drivers/STM32WLxx_HAL_Driver/Src/stm32wlxx_hal_flash_ex.c ****   SET_BIT(FLASH->ACR2, FLASH_ACR2_HDPADIS);
 581:Drivers/STM32WLxx_HAL_Driver/Src/stm32wlxx_hal_flash_ex.c **** }
 582:Drivers/STM32WLxx_HAL_Driver/Src/stm32wlxx_hal_flash_ex.c **** 
 583:Drivers/STM32WLxx_HAL_Driver/Src/stm32wlxx_hal_flash_ex.c **** /**
 584:Drivers/STM32WLxx_HAL_Driver/Src/stm32wlxx_hal_flash_ex.c ****   * @brief  Configuration of the privilege attribute.
 585:Drivers/STM32WLxx_HAL_Driver/Src/stm32wlxx_hal_flash_ex.c ****   * @note   This feature can only be accessed by a secure privileged CPU2
 586:Drivers/STM32WLxx_HAL_Driver/Src/stm32wlxx_hal_flash_ex.c ****   * @param  PrivMode indicate privilege mode configuration
 587:Drivers/STM32WLxx_HAL_Driver/Src/stm32wlxx_hal_flash_ex.c ****   *          This parameter can be one of the following values:
 588:Drivers/STM32WLxx_HAL_Driver/Src/stm32wlxx_hal_flash_ex.c ****   *            @arg @ref FLASH_PRIV_GRANTED Access to Flash registers is granted
 589:Drivers/STM32WLxx_HAL_Driver/Src/stm32wlxx_hal_flash_ex.c ****   *            @arg @ref FLASH_PRIV_DENIED Access to Flash registers is denied to non-privilege acc
 590:Drivers/STM32WLxx_HAL_Driver/Src/stm32wlxx_hal_flash_ex.c ****   * @retval None
 591:Drivers/STM32WLxx_HAL_Driver/Src/stm32wlxx_hal_flash_ex.c ****   */
 592:Drivers/STM32WLxx_HAL_Driver/Src/stm32wlxx_hal_flash_ex.c **** void HAL_FLASHEx_ConfigPrivMode(uint32_t PrivMode)
 593:Drivers/STM32WLxx_HAL_Driver/Src/stm32wlxx_hal_flash_ex.c **** {
 594:Drivers/STM32WLxx_HAL_Driver/Src/stm32wlxx_hal_flash_ex.c ****   /* Check the parameters */
 595:Drivers/STM32WLxx_HAL_Driver/Src/stm32wlxx_hal_flash_ex.c ****   assert_param(IS_FLASH_CFGPRIVMODE(PrivMode));
 596:Drivers/STM32WLxx_HAL_Driver/Src/stm32wlxx_hal_flash_ex.c **** 
 597:Drivers/STM32WLxx_HAL_Driver/Src/stm32wlxx_hal_flash_ex.c ****   MODIFY_REG(FLASH->ACR2, FLASH_ACR2_PRIVMODE, PrivMode);
 598:Drivers/STM32WLxx_HAL_Driver/Src/stm32wlxx_hal_flash_ex.c **** }
 599:Drivers/STM32WLxx_HAL_Driver/Src/stm32wlxx_hal_flash_ex.c **** 
 600:Drivers/STM32WLxx_HAL_Driver/Src/stm32wlxx_hal_flash_ex.c **** /**
 601:Drivers/STM32WLxx_HAL_Driver/Src/stm32wlxx_hal_flash_ex.c ****   * @brief  Return the value of the privilege attribute.
 602:Drivers/STM32WLxx_HAL_Driver/Src/stm32wlxx_hal_flash_ex.c ****   * @note   This feature can only be accessed by a secure privileged CPU2
 603:Drivers/STM32WLxx_HAL_Driver/Src/stm32wlxx_hal_flash_ex.c ****   * @retval It indicates privilege mode configuration.
ARM GAS  C:\Users\NATHAN~1\AppData\Local\Temp\cc8eZusg.s 			page 12


 604:Drivers/STM32WLxx_HAL_Driver/Src/stm32wlxx_hal_flash_ex.c ****   *          This return value can be one of the following values:
 605:Drivers/STM32WLxx_HAL_Driver/Src/stm32wlxx_hal_flash_ex.c ****   *            @arg @ref FLASH_PRIV_GRANTED Access to Flash registers is granted
 606:Drivers/STM32WLxx_HAL_Driver/Src/stm32wlxx_hal_flash_ex.c ****   *            @arg @ref FLASH_PRIV_DENIED Access to Flash registers is denied to non-privilege acc
 607:Drivers/STM32WLxx_HAL_Driver/Src/stm32wlxx_hal_flash_ex.c ****   */
 608:Drivers/STM32WLxx_HAL_Driver/Src/stm32wlxx_hal_flash_ex.c **** uint32_t HAL_FLASHEx_GetPrivMode(void)
 609:Drivers/STM32WLxx_HAL_Driver/Src/stm32wlxx_hal_flash_ex.c **** {
 610:Drivers/STM32WLxx_HAL_Driver/Src/stm32wlxx_hal_flash_ex.c ****   return (FLASH->ACR2 & FLASH_ACR2_PRIVMODE);
 611:Drivers/STM32WLxx_HAL_Driver/Src/stm32wlxx_hal_flash_ex.c **** }
 612:Drivers/STM32WLxx_HAL_Driver/Src/stm32wlxx_hal_flash_ex.c **** #endif /* DUAL_CORE */
 613:Drivers/STM32WLxx_HAL_Driver/Src/stm32wlxx_hal_flash_ex.c **** 
 614:Drivers/STM32WLxx_HAL_Driver/Src/stm32wlxx_hal_flash_ex.c **** /**
 615:Drivers/STM32WLxx_HAL_Driver/Src/stm32wlxx_hal_flash_ex.c ****   * @}
 616:Drivers/STM32WLxx_HAL_Driver/Src/stm32wlxx_hal_flash_ex.c ****   */
 617:Drivers/STM32WLxx_HAL_Driver/Src/stm32wlxx_hal_flash_ex.c **** 
 618:Drivers/STM32WLxx_HAL_Driver/Src/stm32wlxx_hal_flash_ex.c **** /**
 619:Drivers/STM32WLxx_HAL_Driver/Src/stm32wlxx_hal_flash_ex.c ****   * @}
 620:Drivers/STM32WLxx_HAL_Driver/Src/stm32wlxx_hal_flash_ex.c ****   */
 621:Drivers/STM32WLxx_HAL_Driver/Src/stm32wlxx_hal_flash_ex.c **** 
 622:Drivers/STM32WLxx_HAL_Driver/Src/stm32wlxx_hal_flash_ex.c **** /* Private functions ---------------------------------------------------------*/
 623:Drivers/STM32WLxx_HAL_Driver/Src/stm32wlxx_hal_flash_ex.c **** /** @addtogroup FLASHEx_Private_Functions
 624:Drivers/STM32WLxx_HAL_Driver/Src/stm32wlxx_hal_flash_ex.c ****   * @{
 625:Drivers/STM32WLxx_HAL_Driver/Src/stm32wlxx_hal_flash_ex.c ****   */
 626:Drivers/STM32WLxx_HAL_Driver/Src/stm32wlxx_hal_flash_ex.c **** 
 627:Drivers/STM32WLxx_HAL_Driver/Src/stm32wlxx_hal_flash_ex.c **** /**
 628:Drivers/STM32WLxx_HAL_Driver/Src/stm32wlxx_hal_flash_ex.c ****   * @brief  Mass erase of FLASH memory.
 629:Drivers/STM32WLxx_HAL_Driver/Src/stm32wlxx_hal_flash_ex.c ****   * @retval None
 630:Drivers/STM32WLxx_HAL_Driver/Src/stm32wlxx_hal_flash_ex.c ****   */
 631:Drivers/STM32WLxx_HAL_Driver/Src/stm32wlxx_hal_flash_ex.c **** static void FLASH_MassErase(void)
 632:Drivers/STM32WLxx_HAL_Driver/Src/stm32wlxx_hal_flash_ex.c **** {
  26              		.loc 1 632 1 view -0
  27              		.cfi_startproc
  28              		@ args = 0, pretend = 0, frame = 0
  29              		@ frame_needed = 0, uses_anonymous_args = 0
  30              		@ link register save eliminated.
 633:Drivers/STM32WLxx_HAL_Driver/Src/stm32wlxx_hal_flash_ex.c ****   /* Set the Mass Erase Bit and start bit */
 634:Drivers/STM32WLxx_HAL_Driver/Src/stm32wlxx_hal_flash_ex.c **** #ifdef CORE_CM0PLUS
 635:Drivers/STM32WLxx_HAL_Driver/Src/stm32wlxx_hal_flash_ex.c ****   SET_BIT(FLASH->C2CR, (FLASH_CR_MER | FLASH_CR_STRT));
 636:Drivers/STM32WLxx_HAL_Driver/Src/stm32wlxx_hal_flash_ex.c **** #else
 637:Drivers/STM32WLxx_HAL_Driver/Src/stm32wlxx_hal_flash_ex.c ****   SET_BIT(FLASH->CR, (FLASH_CR_MER | FLASH_CR_STRT));
  31              		.loc 1 637 3 view .LVU1
  32 0000 034A     		ldr	r2, .L2
  33 0002 5369     		ldr	r3, [r2, #20]
  34 0004 43F48033 		orr	r3, r3, #65536
  35 0008 43F00403 		orr	r3, r3, #4
  36 000c 5361     		str	r3, [r2, #20]
 638:Drivers/STM32WLxx_HAL_Driver/Src/stm32wlxx_hal_flash_ex.c **** #endif
 639:Drivers/STM32WLxx_HAL_Driver/Src/stm32wlxx_hal_flash_ex.c **** }
  37              		.loc 1 639 1 is_stmt 0 view .LVU2
  38 000e 7047     		bx	lr
  39              	.L3:
  40              		.align	2
  41              	.L2:
  42 0010 00400058 		.word	1476411392
  43              		.cfi_endproc
  44              	.LFE977:
  46              		.section	.text.FLASH_FlushCaches,"ax",%progbits
  47              		.align	1
ARM GAS  C:\Users\NATHAN~1\AppData\Local\Temp\cc8eZusg.s 			page 13


  48              		.syntax unified
  49              		.thumb
  50              		.thumb_func
  52              	FLASH_FlushCaches:
  53              	.LFB979:
 640:Drivers/STM32WLxx_HAL_Driver/Src/stm32wlxx_hal_flash_ex.c **** 
 641:Drivers/STM32WLxx_HAL_Driver/Src/stm32wlxx_hal_flash_ex.c **** /**
 642:Drivers/STM32WLxx_HAL_Driver/Src/stm32wlxx_hal_flash_ex.c ****   * @brief  Erase the specified FLASH memory page.
 643:Drivers/STM32WLxx_HAL_Driver/Src/stm32wlxx_hal_flash_ex.c ****   * @param  Page FLASH page to erase
 644:Drivers/STM32WLxx_HAL_Driver/Src/stm32wlxx_hal_flash_ex.c ****   *         This parameter must be a value between 0 and (max number of pages in Flash - 1)
 645:Drivers/STM32WLxx_HAL_Driver/Src/stm32wlxx_hal_flash_ex.c ****   * @retval None
 646:Drivers/STM32WLxx_HAL_Driver/Src/stm32wlxx_hal_flash_ex.c ****   */
 647:Drivers/STM32WLxx_HAL_Driver/Src/stm32wlxx_hal_flash_ex.c **** void FLASH_PageErase(uint32_t Page)
 648:Drivers/STM32WLxx_HAL_Driver/Src/stm32wlxx_hal_flash_ex.c **** {
 649:Drivers/STM32WLxx_HAL_Driver/Src/stm32wlxx_hal_flash_ex.c ****   /* Check the parameters */
 650:Drivers/STM32WLxx_HAL_Driver/Src/stm32wlxx_hal_flash_ex.c ****   assert_param(IS_FLASH_PAGE(Page));
 651:Drivers/STM32WLxx_HAL_Driver/Src/stm32wlxx_hal_flash_ex.c **** 
 652:Drivers/STM32WLxx_HAL_Driver/Src/stm32wlxx_hal_flash_ex.c ****   /* Proceed to erase the page */
 653:Drivers/STM32WLxx_HAL_Driver/Src/stm32wlxx_hal_flash_ex.c **** #ifdef CORE_CM0PLUS
 654:Drivers/STM32WLxx_HAL_Driver/Src/stm32wlxx_hal_flash_ex.c ****   MODIFY_REG(FLASH->C2CR, FLASH_CR_PNB, ((Page << FLASH_CR_PNB_Pos) | FLASH_CR_PER | FLASH_CR_STRT)
 655:Drivers/STM32WLxx_HAL_Driver/Src/stm32wlxx_hal_flash_ex.c **** #else
 656:Drivers/STM32WLxx_HAL_Driver/Src/stm32wlxx_hal_flash_ex.c ****   MODIFY_REG(FLASH->CR, FLASH_CR_PNB, ((Page << FLASH_CR_PNB_Pos) | FLASH_CR_PER | FLASH_CR_STRT));
 657:Drivers/STM32WLxx_HAL_Driver/Src/stm32wlxx_hal_flash_ex.c **** #endif
 658:Drivers/STM32WLxx_HAL_Driver/Src/stm32wlxx_hal_flash_ex.c **** }
 659:Drivers/STM32WLxx_HAL_Driver/Src/stm32wlxx_hal_flash_ex.c **** 
 660:Drivers/STM32WLxx_HAL_Driver/Src/stm32wlxx_hal_flash_ex.c **** /**
 661:Drivers/STM32WLxx_HAL_Driver/Src/stm32wlxx_hal_flash_ex.c ****   * @brief  Flush the instruction and data caches.
 662:Drivers/STM32WLxx_HAL_Driver/Src/stm32wlxx_hal_flash_ex.c ****   * @retval None
 663:Drivers/STM32WLxx_HAL_Driver/Src/stm32wlxx_hal_flash_ex.c ****   */
 664:Drivers/STM32WLxx_HAL_Driver/Src/stm32wlxx_hal_flash_ex.c **** void FLASH_FlushCaches(void)
 665:Drivers/STM32WLxx_HAL_Driver/Src/stm32wlxx_hal_flash_ex.c **** {
  54              		.loc 1 665 1 is_stmt 1 view -0
  55              		.cfi_startproc
  56              		@ args = 0, pretend = 0, frame = 0
  57              		@ frame_needed = 0, uses_anonymous_args = 0
  58              		@ link register save eliminated.
 666:Drivers/STM32WLxx_HAL_Driver/Src/stm32wlxx_hal_flash_ex.c ****   /* Flush instruction cache  */
 667:Drivers/STM32WLxx_HAL_Driver/Src/stm32wlxx_hal_flash_ex.c ****   if (READ_BIT(FLASH->ACR, FLASH_ACR_ICEN) == 1U)
  59              		.loc 1 667 3 view .LVU4
  60              		.loc 1 667 7 is_stmt 0 view .LVU5
  61 0000 184B     		ldr	r3, .L9
  62 0002 1B68     		ldr	r3, [r3]
  63 0004 03F40073 		and	r3, r3, #512
  64              		.loc 1 667 6 view .LVU6
  65 0008 012B     		cmp	r3, #1
  66 000a 06D0     		beq	.L7
  67              	.L5:
 668:Drivers/STM32WLxx_HAL_Driver/Src/stm32wlxx_hal_flash_ex.c ****   {
 669:Drivers/STM32WLxx_HAL_Driver/Src/stm32wlxx_hal_flash_ex.c ****     /* Disable instruction cache  */
 670:Drivers/STM32WLxx_HAL_Driver/Src/stm32wlxx_hal_flash_ex.c ****     __HAL_FLASH_INSTRUCTION_CACHE_DISABLE();
 671:Drivers/STM32WLxx_HAL_Driver/Src/stm32wlxx_hal_flash_ex.c ****     /* Reset instruction cache */
 672:Drivers/STM32WLxx_HAL_Driver/Src/stm32wlxx_hal_flash_ex.c ****     __HAL_FLASH_INSTRUCTION_CACHE_RESET();
 673:Drivers/STM32WLxx_HAL_Driver/Src/stm32wlxx_hal_flash_ex.c ****     /* Enable instruction cache */
 674:Drivers/STM32WLxx_HAL_Driver/Src/stm32wlxx_hal_flash_ex.c ****     __HAL_FLASH_INSTRUCTION_CACHE_ENABLE();
 675:Drivers/STM32WLxx_HAL_Driver/Src/stm32wlxx_hal_flash_ex.c ****   }
 676:Drivers/STM32WLxx_HAL_Driver/Src/stm32wlxx_hal_flash_ex.c **** 
 677:Drivers/STM32WLxx_HAL_Driver/Src/stm32wlxx_hal_flash_ex.c **** #ifdef CORE_CM0PLUS
ARM GAS  C:\Users\NATHAN~1\AppData\Local\Temp\cc8eZusg.s 			page 14


 678:Drivers/STM32WLxx_HAL_Driver/Src/stm32wlxx_hal_flash_ex.c **** #else
 679:Drivers/STM32WLxx_HAL_Driver/Src/stm32wlxx_hal_flash_ex.c ****   /* Flush data cache */
 680:Drivers/STM32WLxx_HAL_Driver/Src/stm32wlxx_hal_flash_ex.c ****   if (READ_BIT(FLASH->ACR, FLASH_ACR_DCEN) == 1U)
  68              		.loc 1 680 3 is_stmt 1 view .LVU7
  69              		.loc 1 680 7 is_stmt 0 view .LVU8
  70 000c 154B     		ldr	r3, .L9
  71 000e 1B68     		ldr	r3, [r3]
  72 0010 03F48063 		and	r3, r3, #1024
  73              		.loc 1 680 6 view .LVU9
  74 0014 012B     		cmp	r3, #1
  75 0016 12D0     		beq	.L8
  76              	.L4:
 681:Drivers/STM32WLxx_HAL_Driver/Src/stm32wlxx_hal_flash_ex.c ****   {
 682:Drivers/STM32WLxx_HAL_Driver/Src/stm32wlxx_hal_flash_ex.c ****     /* Disable data cache  */
 683:Drivers/STM32WLxx_HAL_Driver/Src/stm32wlxx_hal_flash_ex.c ****     __HAL_FLASH_DATA_CACHE_DISABLE();
 684:Drivers/STM32WLxx_HAL_Driver/Src/stm32wlxx_hal_flash_ex.c ****     /* Reset data cache */
 685:Drivers/STM32WLxx_HAL_Driver/Src/stm32wlxx_hal_flash_ex.c ****     __HAL_FLASH_DATA_CACHE_RESET();
 686:Drivers/STM32WLxx_HAL_Driver/Src/stm32wlxx_hal_flash_ex.c ****     /* Enable data cache */
 687:Drivers/STM32WLxx_HAL_Driver/Src/stm32wlxx_hal_flash_ex.c ****     __HAL_FLASH_DATA_CACHE_ENABLE();
 688:Drivers/STM32WLxx_HAL_Driver/Src/stm32wlxx_hal_flash_ex.c ****   }
 689:Drivers/STM32WLxx_HAL_Driver/Src/stm32wlxx_hal_flash_ex.c **** #endif
 690:Drivers/STM32WLxx_HAL_Driver/Src/stm32wlxx_hal_flash_ex.c **** }
  77              		.loc 1 690 1 view .LVU10
  78 0018 7047     		bx	lr
  79              	.L7:
 670:Drivers/STM32WLxx_HAL_Driver/Src/stm32wlxx_hal_flash_ex.c ****     /* Reset instruction cache */
  80              		.loc 1 670 5 is_stmt 1 view .LVU11
  81 001a 124B     		ldr	r3, .L9
  82 001c 1A68     		ldr	r2, [r3]
  83 001e 22F40072 		bic	r2, r2, #512
  84 0022 1A60     		str	r2, [r3]
 672:Drivers/STM32WLxx_HAL_Driver/Src/stm32wlxx_hal_flash_ex.c ****     /* Enable instruction cache */
  85              		.loc 1 672 5 view .LVU12
 672:Drivers/STM32WLxx_HAL_Driver/Src/stm32wlxx_hal_flash_ex.c ****     /* Enable instruction cache */
  86              		.loc 1 672 5 view .LVU13
  87 0024 1A68     		ldr	r2, [r3]
  88 0026 42F40062 		orr	r2, r2, #2048
  89 002a 1A60     		str	r2, [r3]
 672:Drivers/STM32WLxx_HAL_Driver/Src/stm32wlxx_hal_flash_ex.c ****     /* Enable instruction cache */
  90              		.loc 1 672 5 view .LVU14
  91 002c 1A68     		ldr	r2, [r3]
  92 002e 22F40062 		bic	r2, r2, #2048
  93 0032 1A60     		str	r2, [r3]
 672:Drivers/STM32WLxx_HAL_Driver/Src/stm32wlxx_hal_flash_ex.c ****     /* Enable instruction cache */
  94              		.loc 1 672 5 view .LVU15
 674:Drivers/STM32WLxx_HAL_Driver/Src/stm32wlxx_hal_flash_ex.c ****   }
  95              		.loc 1 674 5 view .LVU16
  96 0034 1A68     		ldr	r2, [r3]
  97 0036 42F40072 		orr	r2, r2, #512
  98 003a 1A60     		str	r2, [r3]
  99 003c E6E7     		b	.L5
 100              	.L8:
 683:Drivers/STM32WLxx_HAL_Driver/Src/stm32wlxx_hal_flash_ex.c ****     /* Reset data cache */
 101              		.loc 1 683 5 view .LVU17
 102 003e 094B     		ldr	r3, .L9
 103 0040 1A68     		ldr	r2, [r3]
 104 0042 22F48062 		bic	r2, r2, #1024
ARM GAS  C:\Users\NATHAN~1\AppData\Local\Temp\cc8eZusg.s 			page 15


 105 0046 1A60     		str	r2, [r3]
 685:Drivers/STM32WLxx_HAL_Driver/Src/stm32wlxx_hal_flash_ex.c ****     /* Enable data cache */
 106              		.loc 1 685 5 view .LVU18
 685:Drivers/STM32WLxx_HAL_Driver/Src/stm32wlxx_hal_flash_ex.c ****     /* Enable data cache */
 107              		.loc 1 685 5 view .LVU19
 108 0048 1A68     		ldr	r2, [r3]
 109 004a 42F48052 		orr	r2, r2, #4096
 110 004e 1A60     		str	r2, [r3]
 685:Drivers/STM32WLxx_HAL_Driver/Src/stm32wlxx_hal_flash_ex.c ****     /* Enable data cache */
 111              		.loc 1 685 5 view .LVU20
 112 0050 1A68     		ldr	r2, [r3]
 113 0052 22F48052 		bic	r2, r2, #4096
 114 0056 1A60     		str	r2, [r3]
 685:Drivers/STM32WLxx_HAL_Driver/Src/stm32wlxx_hal_flash_ex.c ****     /* Enable data cache */
 115              		.loc 1 685 5 view .LVU21
 687:Drivers/STM32WLxx_HAL_Driver/Src/stm32wlxx_hal_flash_ex.c ****   }
 116              		.loc 1 687 5 view .LVU22
 117 0058 1A68     		ldr	r2, [r3]
 118 005a 42F48062 		orr	r2, r2, #1024
 119 005e 1A60     		str	r2, [r3]
 120              		.loc 1 690 1 is_stmt 0 view .LVU23
 121 0060 DAE7     		b	.L4
 122              	.L10:
 123 0062 00BF     		.align	2
 124              	.L9:
 125 0064 00400058 		.word	1476411392
 126              		.cfi_endproc
 127              	.LFE979:
 129              		.section	.text.FLASH_AcknowledgePageErase,"ax",%progbits
 130              		.align	1
 131              		.syntax unified
 132              		.thumb
 133              		.thumb_func
 135              	FLASH_AcknowledgePageErase:
 136              	.LFB980:
 691:Drivers/STM32WLxx_HAL_Driver/Src/stm32wlxx_hal_flash_ex.c **** 
 692:Drivers/STM32WLxx_HAL_Driver/Src/stm32wlxx_hal_flash_ex.c **** /**
 693:Drivers/STM32WLxx_HAL_Driver/Src/stm32wlxx_hal_flash_ex.c ****   * @brief  Acknlowldge the page erase operation.
 694:Drivers/STM32WLxx_HAL_Driver/Src/stm32wlxx_hal_flash_ex.c ****   * @retval None
 695:Drivers/STM32WLxx_HAL_Driver/Src/stm32wlxx_hal_flash_ex.c ****   */
 696:Drivers/STM32WLxx_HAL_Driver/Src/stm32wlxx_hal_flash_ex.c **** static void FLASH_AcknowledgePageErase(void)
 697:Drivers/STM32WLxx_HAL_Driver/Src/stm32wlxx_hal_flash_ex.c **** {
 137              		.loc 1 697 1 is_stmt 1 view -0
 138              		.cfi_startproc
 139              		@ args = 0, pretend = 0, frame = 0
 140              		@ frame_needed = 0, uses_anonymous_args = 0
 141              		@ link register save eliminated.
 698:Drivers/STM32WLxx_HAL_Driver/Src/stm32wlxx_hal_flash_ex.c **** #ifdef CORE_CM0PLUS
 699:Drivers/STM32WLxx_HAL_Driver/Src/stm32wlxx_hal_flash_ex.c ****   CLEAR_BIT(FLASH->C2CR, (FLASH_CR_PER | FLASH_CR_PNB));
 700:Drivers/STM32WLxx_HAL_Driver/Src/stm32wlxx_hal_flash_ex.c **** #else
 701:Drivers/STM32WLxx_HAL_Driver/Src/stm32wlxx_hal_flash_ex.c ****   CLEAR_BIT(FLASH->CR, (FLASH_CR_PER | FLASH_CR_PNB));
 142              		.loc 1 701 3 view .LVU25
 143 0000 034A     		ldr	r2, .L12
 144 0002 5369     		ldr	r3, [r2, #20]
 145 0004 23F47E73 		bic	r3, r3, #1016
 146 0008 23F00203 		bic	r3, r3, #2
 147 000c 5361     		str	r3, [r2, #20]
ARM GAS  C:\Users\NATHAN~1\AppData\Local\Temp\cc8eZusg.s 			page 16


 702:Drivers/STM32WLxx_HAL_Driver/Src/stm32wlxx_hal_flash_ex.c **** #endif
 703:Drivers/STM32WLxx_HAL_Driver/Src/stm32wlxx_hal_flash_ex.c **** }
 148              		.loc 1 703 1 is_stmt 0 view .LVU26
 149 000e 7047     		bx	lr
 150              	.L13:
 151              		.align	2
 152              	.L12:
 153 0010 00400058 		.word	1476411392
 154              		.cfi_endproc
 155              	.LFE980:
 157              		.section	.text.FLASH_OB_WRPConfig,"ax",%progbits
 158              		.align	1
 159              		.syntax unified
 160              		.thumb
 161              		.thumb_func
 163              	FLASH_OB_WRPConfig:
 164              	.LVL0:
 165              	.LFB981:
 704:Drivers/STM32WLxx_HAL_Driver/Src/stm32wlxx_hal_flash_ex.c **** 
 705:Drivers/STM32WLxx_HAL_Driver/Src/stm32wlxx_hal_flash_ex.c **** /**
 706:Drivers/STM32WLxx_HAL_Driver/Src/stm32wlxx_hal_flash_ex.c ****   * @brief  Configure the write protection of the desired pages.
 707:Drivers/STM32WLxx_HAL_Driver/Src/stm32wlxx_hal_flash_ex.c ****   * @note   When WRP is active in a zone, it cannot be erased or programmed.
 708:Drivers/STM32WLxx_HAL_Driver/Src/stm32wlxx_hal_flash_ex.c ****   *         Consequently, a software mass erase cannot be performed if one zone
 709:Drivers/STM32WLxx_HAL_Driver/Src/stm32wlxx_hal_flash_ex.c ****   *         is write-protected.
 710:Drivers/STM32WLxx_HAL_Driver/Src/stm32wlxx_hal_flash_ex.c ****   * @note   When the memory read protection level is selected (RDP level = 1),
 711:Drivers/STM32WLxx_HAL_Driver/Src/stm32wlxx_hal_flash_ex.c ****   *         it is not possible to program or erase Flash memory if the CPU debug
 712:Drivers/STM32WLxx_HAL_Driver/Src/stm32wlxx_hal_flash_ex.c ****   *         features are connected (JTAG or single wire) or boot code is being
 713:Drivers/STM32WLxx_HAL_Driver/Src/stm32wlxx_hal_flash_ex.c ****   *         executed from RAM or System flash, even if WRP is not activated.
 714:Drivers/STM32WLxx_HAL_Driver/Src/stm32wlxx_hal_flash_ex.c ****   * @note   To configure the WRP options, the option lock bit OPTLOCK must be
 715:Drivers/STM32WLxx_HAL_Driver/Src/stm32wlxx_hal_flash_ex.c ****   *         cleared with the call of the @ref HAL_FLASH_OB_Unlock() function.
 716:Drivers/STM32WLxx_HAL_Driver/Src/stm32wlxx_hal_flash_ex.c ****   * @note   To validate the WRP options, the option bytes must be reloaded
 717:Drivers/STM32WLxx_HAL_Driver/Src/stm32wlxx_hal_flash_ex.c ****   *         through the call of the @ref HAL_FLASH_OB_Launch() function.
 718:Drivers/STM32WLxx_HAL_Driver/Src/stm32wlxx_hal_flash_ex.c ****   * @param  WRPArea Specifies the area to be configured.
 719:Drivers/STM32WLxx_HAL_Driver/Src/stm32wlxx_hal_flash_ex.c ****   *          This parameter can be one of the following values:
 720:Drivers/STM32WLxx_HAL_Driver/Src/stm32wlxx_hal_flash_ex.c ****   *            @arg @ref OB_WRPAREA_BANK1_AREAA Flash Bank 1 Area A
 721:Drivers/STM32WLxx_HAL_Driver/Src/stm32wlxx_hal_flash_ex.c ****   *            @arg @ref OB_WRPAREA_BANK1_AREAB Flash Bank 1 Area B
 722:Drivers/STM32WLxx_HAL_Driver/Src/stm32wlxx_hal_flash_ex.c ****   * @param  WRPStartOffset Specifies the start page of the write protected area
 723:Drivers/STM32WLxx_HAL_Driver/Src/stm32wlxx_hal_flash_ex.c ****   *          This parameter can be page number between 0 and (max number of pages in the Flash - 1)
 724:Drivers/STM32WLxx_HAL_Driver/Src/stm32wlxx_hal_flash_ex.c ****   * @param  WRDPEndOffset Specifies the end page of the write protected area
 725:Drivers/STM32WLxx_HAL_Driver/Src/stm32wlxx_hal_flash_ex.c ****   *          This parameter can be page number between WRPStartOffset and (max number of pages in t
 726:Drivers/STM32WLxx_HAL_Driver/Src/stm32wlxx_hal_flash_ex.c ****   * @retval None
 727:Drivers/STM32WLxx_HAL_Driver/Src/stm32wlxx_hal_flash_ex.c ****   */
 728:Drivers/STM32WLxx_HAL_Driver/Src/stm32wlxx_hal_flash_ex.c **** static void FLASH_OB_WRPConfig(uint32_t WRPArea, uint32_t WRPStartOffset, uint32_t WRDPEndOffset)
 729:Drivers/STM32WLxx_HAL_Driver/Src/stm32wlxx_hal_flash_ex.c **** {
 166              		.loc 1 729 1 is_stmt 1 view -0
 167              		.cfi_startproc
 168              		@ args = 0, pretend = 0, frame = 0
 169              		@ frame_needed = 0, uses_anonymous_args = 0
 170              		@ link register save eliminated.
 730:Drivers/STM32WLxx_HAL_Driver/Src/stm32wlxx_hal_flash_ex.c ****   /* Check the parameters */
 731:Drivers/STM32WLxx_HAL_Driver/Src/stm32wlxx_hal_flash_ex.c ****   assert_param(IS_OB_WRPAREA(WRPArea));
 171              		.loc 1 731 3 view .LVU28
 732:Drivers/STM32WLxx_HAL_Driver/Src/stm32wlxx_hal_flash_ex.c ****   assert_param(IS_FLASH_PAGE(WRPStartOffset));
 172              		.loc 1 732 3 view .LVU29
 733:Drivers/STM32WLxx_HAL_Driver/Src/stm32wlxx_hal_flash_ex.c ****   assert_param(IS_FLASH_PAGE(WRDPEndOffset));
 173              		.loc 1 733 3 view .LVU30
 734:Drivers/STM32WLxx_HAL_Driver/Src/stm32wlxx_hal_flash_ex.c **** 
ARM GAS  C:\Users\NATHAN~1\AppData\Local\Temp\cc8eZusg.s 			page 17


 735:Drivers/STM32WLxx_HAL_Driver/Src/stm32wlxx_hal_flash_ex.c ****   /* Configure the write protected area */
 736:Drivers/STM32WLxx_HAL_Driver/Src/stm32wlxx_hal_flash_ex.c ****   if (WRPArea == OB_WRPAREA_BANK1_AREAA)
 174              		.loc 1 736 3 view .LVU31
 175              		.loc 1 736 6 is_stmt 0 view .LVU32
 176 0000 40B9     		cbnz	r0, .L15
 737:Drivers/STM32WLxx_HAL_Driver/Src/stm32wlxx_hal_flash_ex.c ****   {
 738:Drivers/STM32WLxx_HAL_Driver/Src/stm32wlxx_hal_flash_ex.c ****     MODIFY_REG(FLASH->WRP1AR, (FLASH_WRP1AR_WRP1A_STRT | FLASH_WRP1AR_WRP1A_END),
 177              		.loc 1 738 5 is_stmt 1 view .LVU33
 178 0002 0948     		ldr	r0, .L17
 179              	.LVL1:
 180              		.loc 1 738 5 is_stmt 0 view .LVU34
 181 0004 C36A     		ldr	r3, [r0, #44]
 182 0006 23F07F13 		bic	r3, r3, #8323199
 183 000a 41EA0241 		orr	r1, r1, r2, lsl #16
 184              	.LVL2:
 185              		.loc 1 738 5 view .LVU35
 186 000e 1943     		orrs	r1, r1, r3
 187 0010 C162     		str	r1, [r0, #44]
 188 0012 7047     		bx	lr
 189              	.LVL3:
 190              	.L15:
 739:Drivers/STM32WLxx_HAL_Driver/Src/stm32wlxx_hal_flash_ex.c ****                (WRPStartOffset | (WRDPEndOffset << FLASH_WRP1AR_WRP1A_END_Pos)));
 740:Drivers/STM32WLxx_HAL_Driver/Src/stm32wlxx_hal_flash_ex.c ****   }
 741:Drivers/STM32WLxx_HAL_Driver/Src/stm32wlxx_hal_flash_ex.c ****   else /* OB_WRPAREA_BANK1_AREAB */
 742:Drivers/STM32WLxx_HAL_Driver/Src/stm32wlxx_hal_flash_ex.c ****   {
 743:Drivers/STM32WLxx_HAL_Driver/Src/stm32wlxx_hal_flash_ex.c ****     MODIFY_REG(FLASH->WRP1BR, (FLASH_WRP1BR_WRP1B_STRT | FLASH_WRP1BR_WRP1B_END),
 191              		.loc 1 743 5 is_stmt 1 view .LVU36
 192 0014 0448     		ldr	r0, .L17
 193              	.LVL4:
 194              		.loc 1 743 5 is_stmt 0 view .LVU37
 195 0016 036B     		ldr	r3, [r0, #48]
 196 0018 23F07F13 		bic	r3, r3, #8323199
 197 001c 41EA0241 		orr	r1, r1, r2, lsl #16
 198              	.LVL5:
 199              		.loc 1 743 5 view .LVU38
 200 0020 1943     		orrs	r1, r1, r3
 201 0022 0163     		str	r1, [r0, #48]
 744:Drivers/STM32WLxx_HAL_Driver/Src/stm32wlxx_hal_flash_ex.c ****                (WRPStartOffset | (WRDPEndOffset << FLASH_WRP1AR_WRP1A_END_Pos)));
 745:Drivers/STM32WLxx_HAL_Driver/Src/stm32wlxx_hal_flash_ex.c ****   }
 746:Drivers/STM32WLxx_HAL_Driver/Src/stm32wlxx_hal_flash_ex.c **** }
 202              		.loc 1 746 1 view .LVU39
 203 0024 7047     		bx	lr
 204              	.L18:
 205 0026 00BF     		.align	2
 206              	.L17:
 207 0028 00400058 		.word	1476411392
 208              		.cfi_endproc
 209              	.LFE981:
 211              		.section	.text.FLASH_OB_OptrConfig,"ax",%progbits
 212              		.align	1
 213              		.syntax unified
 214              		.thumb
 215              		.thumb_func
 217              	FLASH_OB_OptrConfig:
 218              	.LVL6:
 219              	.LFB982:
 747:Drivers/STM32WLxx_HAL_Driver/Src/stm32wlxx_hal_flash_ex.c **** 
ARM GAS  C:\Users\NATHAN~1\AppData\Local\Temp\cc8eZusg.s 			page 18


 748:Drivers/STM32WLxx_HAL_Driver/Src/stm32wlxx_hal_flash_ex.c **** #if defined(DUAL_CORE) /* Comment duplicated for Document generation */
 749:Drivers/STM32WLxx_HAL_Driver/Src/stm32wlxx_hal_flash_ex.c **** /**
 750:Drivers/STM32WLxx_HAL_Driver/Src/stm32wlxx_hal_flash_ex.c ****   * @brief  Set user & RDP configuration
 751:Drivers/STM32WLxx_HAL_Driver/Src/stm32wlxx_hal_flash_ex.c ****   * @note   !!! Warning : When enabling OB_RDP level 2 it's no more possible
 752:Drivers/STM32WLxx_HAL_Driver/Src/stm32wlxx_hal_flash_ex.c ****   *         to go back to level 1 or 0 !!!
 753:Drivers/STM32WLxx_HAL_Driver/Src/stm32wlxx_hal_flash_ex.c ****   * @param  UserType The FLASH User Option Bytes to be modified
 754:Drivers/STM32WLxx_HAL_Driver/Src/stm32wlxx_hal_flash_ex.c ****   *         This parameter can be a combination of all the following values:
 755:Drivers/STM32WLxx_HAL_Driver/Src/stm32wlxx_hal_flash_ex.c ****   *         @arg @ref OB_USER_BOR_LEV or @ref OB_USER_nRST_STOP or @ref OB_USER_nRST_STDBY or
 756:Drivers/STM32WLxx_HAL_Driver/Src/stm32wlxx_hal_flash_ex.c ****   *         @arg @ref OB_USER_nRST_SHDW or @ref OB_USER_IWDG_SW or @ref OB_USER_IWDG_STOP or
 757:Drivers/STM32WLxx_HAL_Driver/Src/stm32wlxx_hal_flash_ex.c ****   *         @arg @ref OB_USER_IWDG_STDBY or @ref OB_USER_WWDG_SW or @ref OB_USER_nBOOT1 or
 758:Drivers/STM32WLxx_HAL_Driver/Src/stm32wlxx_hal_flash_ex.c ****   *         @arg @ref OB_USER_SRAM2_PE or @ref OB_USER_SRAM_RST or @ref OB_USER_nSWBOOT0 or
 759:Drivers/STM32WLxx_HAL_Driver/Src/stm32wlxx_hal_flash_ex.c ****   *         @arg @ref OB_USER_nBOOT0 or @ref OB_USER_BOOT_LOCK or @ref OB_USER_BOOT_LOCK or @ref OB
 760:Drivers/STM32WLxx_HAL_Driver/Src/stm32wlxx_hal_flash_ex.c ****   * @param  UserConfig The FLASH User Option Bytes values.
 761:Drivers/STM32WLxx_HAL_Driver/Src/stm32wlxx_hal_flash_ex.c ****   *         This parameter can be a combination of all the following values:
 762:Drivers/STM32WLxx_HAL_Driver/Src/stm32wlxx_hal_flash_ex.c ****   *         @arg @ref OB_BOR_LEVEL_0 or @ref OB_BOR_LEVEL_1 or ... or @ref OB_BOR_LEVEL_4
 763:Drivers/STM32WLxx_HAL_Driver/Src/stm32wlxx_hal_flash_ex.c ****   *         @arg @ref OB_STOP_RST or @ref OB_STOP_NORST
 764:Drivers/STM32WLxx_HAL_Driver/Src/stm32wlxx_hal_flash_ex.c ****   *         @arg @ref OB_STANDBY_RST or @ref OB_STANDBY_NORST
 765:Drivers/STM32WLxx_HAL_Driver/Src/stm32wlxx_hal_flash_ex.c ****   *         @arg @ref OB_SHUTDOWN_RST or @ref OB_SHUTDOWN_NORST
 766:Drivers/STM32WLxx_HAL_Driver/Src/stm32wlxx_hal_flash_ex.c ****   *         @arg @ref OB_IWDG_SW or @ref OB_IWDG_HW
 767:Drivers/STM32WLxx_HAL_Driver/Src/stm32wlxx_hal_flash_ex.c ****   *         @arg @ref OB_IWDG_STOP_FREEZE or @ref OB_IWDG_STOP_RUN
 768:Drivers/STM32WLxx_HAL_Driver/Src/stm32wlxx_hal_flash_ex.c ****   *         @arg @ref OB_IWDG_STDBY_FREEZE or @ref OB_IWDG_STDBY_RUN
 769:Drivers/STM32WLxx_HAL_Driver/Src/stm32wlxx_hal_flash_ex.c ****   *         @arg @ref OB_WWDG_SW or @ref OB_WWDG_HW
 770:Drivers/STM32WLxx_HAL_Driver/Src/stm32wlxx_hal_flash_ex.c ****   *         @arg @ref OB_BOOT1_RESET or @ref OB_BOOT1_SET
 771:Drivers/STM32WLxx_HAL_Driver/Src/stm32wlxx_hal_flash_ex.c ****   *         @arg @ref OB_SRAM2_PARITY_ENABLE or @ref OB_SRAM2_PARITY_DISABLE
 772:Drivers/STM32WLxx_HAL_Driver/Src/stm32wlxx_hal_flash_ex.c ****   *         @arg @ref OB_SRAM_RST_ERASE or @ref OB_SRAM_RST_NOT_ERASE
 773:Drivers/STM32WLxx_HAL_Driver/Src/stm32wlxx_hal_flash_ex.c ****   *         @arg @ref OB_BOOT0_FROM_OB or @ref OB_BOOT0_FROM_PIN
 774:Drivers/STM32WLxx_HAL_Driver/Src/stm32wlxx_hal_flash_ex.c ****   *         @arg @ref OB_BOOT0_RESET or @ref OB_BOOT0_SET
 775:Drivers/STM32WLxx_HAL_Driver/Src/stm32wlxx_hal_flash_ex.c ****   *         @arg @ref OB_BOOT_LOCK_DISABLE or @ref OB_BOOT_LOCK_ENABLE
 776:Drivers/STM32WLxx_HAL_Driver/Src/stm32wlxx_hal_flash_ex.c ****   *         @arg @ref OB_C2BOOT_LOCK_DISABLE or @ref OB_C2BOOT_LOCK_ENABLE
 777:Drivers/STM32WLxx_HAL_Driver/Src/stm32wlxx_hal_flash_ex.c ****   * @param  RDPLevel: specifies the read protection level.
 778:Drivers/STM32WLxx_HAL_Driver/Src/stm32wlxx_hal_flash_ex.c ****   *         This parameter can be one of the following values:
 779:Drivers/STM32WLxx_HAL_Driver/Src/stm32wlxx_hal_flash_ex.c ****   *            @arg @ref OB_RDP_LEVEL_0 No protection
 780:Drivers/STM32WLxx_HAL_Driver/Src/stm32wlxx_hal_flash_ex.c ****   *            @arg @ref OB_RDP_LEVEL_1 Read protection of the memory
 781:Drivers/STM32WLxx_HAL_Driver/Src/stm32wlxx_hal_flash_ex.c ****   *            @arg @ref OB_RDP_LEVEL_2 Full chip protection
 782:Drivers/STM32WLxx_HAL_Driver/Src/stm32wlxx_hal_flash_ex.c ****   * @retval None
 783:Drivers/STM32WLxx_HAL_Driver/Src/stm32wlxx_hal_flash_ex.c ****   */
 784:Drivers/STM32WLxx_HAL_Driver/Src/stm32wlxx_hal_flash_ex.c **** #else
 785:Drivers/STM32WLxx_HAL_Driver/Src/stm32wlxx_hal_flash_ex.c **** /**
 786:Drivers/STM32WLxx_HAL_Driver/Src/stm32wlxx_hal_flash_ex.c ****   * @brief  Set user & RDP configuration
 787:Drivers/STM32WLxx_HAL_Driver/Src/stm32wlxx_hal_flash_ex.c ****   * @note   !!! Warning : When enabling OB_RDP level 2 it's no more possible
 788:Drivers/STM32WLxx_HAL_Driver/Src/stm32wlxx_hal_flash_ex.c ****   *         to go back to level 1 or 0 !!!
 789:Drivers/STM32WLxx_HAL_Driver/Src/stm32wlxx_hal_flash_ex.c ****   * @param  UserType The FLASH User Option Bytes to be modified
 790:Drivers/STM32WLxx_HAL_Driver/Src/stm32wlxx_hal_flash_ex.c ****   *         This parameter can be a combination of all the following values:
 791:Drivers/STM32WLxx_HAL_Driver/Src/stm32wlxx_hal_flash_ex.c ****   *         @arg @ref OB_USER_BOR_LEV or @ref OB_USER_nRST_STOP or @ref OB_USER_nRST_STDBY or
 792:Drivers/STM32WLxx_HAL_Driver/Src/stm32wlxx_hal_flash_ex.c ****   *         @arg @ref OB_USER_nRST_SHDW or @ref OB_USER_IWDG_SW or @ref OB_USER_IWDG_STOP or
 793:Drivers/STM32WLxx_HAL_Driver/Src/stm32wlxx_hal_flash_ex.c ****   *         @arg @ref OB_USER_IWDG_STDBY or @ref OB_USER_WWDG_SW or @ref OB_USER_nBOOT1 or
 794:Drivers/STM32WLxx_HAL_Driver/Src/stm32wlxx_hal_flash_ex.c ****   *         @arg @ref OB_USER_SRAM2_PE or @ref OB_USER_SRAM_RST or @ref OB_USER_nSWBOOT0 or
 795:Drivers/STM32WLxx_HAL_Driver/Src/stm32wlxx_hal_flash_ex.c ****   *         @arg @ref OB_USER_nBOOT0 or @ref OB_USER_BOOT_LOCK or @ref OB_USER_BOOT_LOCK or @ref OB
 796:Drivers/STM32WLxx_HAL_Driver/Src/stm32wlxx_hal_flash_ex.c ****   * @param  UserConfig The FLASH User Option Bytes values.
 797:Drivers/STM32WLxx_HAL_Driver/Src/stm32wlxx_hal_flash_ex.c ****   *         This parameter can be a combination of all the following values:
 798:Drivers/STM32WLxx_HAL_Driver/Src/stm32wlxx_hal_flash_ex.c ****   *         @arg @ref OB_BOR_LEVEL_0 or @ref OB_BOR_LEVEL_1 or ... or @ref OB_BOR_LEVEL_4
 799:Drivers/STM32WLxx_HAL_Driver/Src/stm32wlxx_hal_flash_ex.c ****   *         @arg @ref OB_STOP_RST or @ref OB_STOP_NORST
 800:Drivers/STM32WLxx_HAL_Driver/Src/stm32wlxx_hal_flash_ex.c ****   *         @arg @ref OB_STANDBY_RST or @ref OB_STANDBY_NORST
 801:Drivers/STM32WLxx_HAL_Driver/Src/stm32wlxx_hal_flash_ex.c ****   *         @arg @ref OB_SHUTDOWN_RST or @ref OB_SHUTDOWN_NORST
 802:Drivers/STM32WLxx_HAL_Driver/Src/stm32wlxx_hal_flash_ex.c ****   *         @arg @ref OB_IWDG_SW or @ref OB_IWDG_HW
 803:Drivers/STM32WLxx_HAL_Driver/Src/stm32wlxx_hal_flash_ex.c ****   *         @arg @ref OB_IWDG_STOP_FREEZE or @ref OB_IWDG_STOP_RUN
 804:Drivers/STM32WLxx_HAL_Driver/Src/stm32wlxx_hal_flash_ex.c ****   *         @arg @ref OB_IWDG_STDBY_FREEZE or @ref OB_IWDG_STDBY_RUN
ARM GAS  C:\Users\NATHAN~1\AppData\Local\Temp\cc8eZusg.s 			page 19


 805:Drivers/STM32WLxx_HAL_Driver/Src/stm32wlxx_hal_flash_ex.c ****   *         @arg @ref OB_WWDG_SW or @ref OB_WWDG_HW
 806:Drivers/STM32WLxx_HAL_Driver/Src/stm32wlxx_hal_flash_ex.c ****   *         @arg @ref OB_BOOT1_RESET or @ref OB_BOOT1_SET
 807:Drivers/STM32WLxx_HAL_Driver/Src/stm32wlxx_hal_flash_ex.c ****   *         @arg @ref OB_SRAM2_PARITY_ENABLE or @ref OB_SRAM2_PARITY_DISABLE
 808:Drivers/STM32WLxx_HAL_Driver/Src/stm32wlxx_hal_flash_ex.c ****   *         @arg @ref OB_SRAM_RST_ERASE or @ref OB_SRAM_RST_NOT_ERASE
 809:Drivers/STM32WLxx_HAL_Driver/Src/stm32wlxx_hal_flash_ex.c ****   *         @arg @ref OB_BOOT0_FROM_OB or @ref OB_BOOT0_FROM_PIN
 810:Drivers/STM32WLxx_HAL_Driver/Src/stm32wlxx_hal_flash_ex.c ****   *         @arg @ref OB_BOOT0_RESET or @ref OB_BOOT0_SET
 811:Drivers/STM32WLxx_HAL_Driver/Src/stm32wlxx_hal_flash_ex.c ****   *         @arg @ref OB_BOOT_LOCK_DISABLE or @ref OB_BOOT_LOCK_ENABLE
 812:Drivers/STM32WLxx_HAL_Driver/Src/stm32wlxx_hal_flash_ex.c ****   * @param  RDPLevel: specifies the read protection level.
 813:Drivers/STM32WLxx_HAL_Driver/Src/stm32wlxx_hal_flash_ex.c ****   *         This parameter can be one of the following values:
 814:Drivers/STM32WLxx_HAL_Driver/Src/stm32wlxx_hal_flash_ex.c ****   *            @arg @ref OB_RDP_LEVEL_0 No protection
 815:Drivers/STM32WLxx_HAL_Driver/Src/stm32wlxx_hal_flash_ex.c ****   *            @arg @ref OB_RDP_LEVEL_1 Read protection of the memory
 816:Drivers/STM32WLxx_HAL_Driver/Src/stm32wlxx_hal_flash_ex.c ****   *            @arg @ref OB_RDP_LEVEL_2 Full chip protection
 817:Drivers/STM32WLxx_HAL_Driver/Src/stm32wlxx_hal_flash_ex.c ****   * @retval None
 818:Drivers/STM32WLxx_HAL_Driver/Src/stm32wlxx_hal_flash_ex.c ****   */
 819:Drivers/STM32WLxx_HAL_Driver/Src/stm32wlxx_hal_flash_ex.c **** #endif
 820:Drivers/STM32WLxx_HAL_Driver/Src/stm32wlxx_hal_flash_ex.c **** static void FLASH_OB_OptrConfig(uint32_t UserType, uint32_t UserConfig, uint32_t RDPLevel)
 821:Drivers/STM32WLxx_HAL_Driver/Src/stm32wlxx_hal_flash_ex.c **** {
 220              		.loc 1 821 1 is_stmt 1 view -0
 221              		.cfi_startproc
 222              		@ args = 0, pretend = 0, frame = 0
 223              		@ frame_needed = 0, uses_anonymous_args = 0
 224              		@ link register save eliminated.
 225              		.loc 1 821 1 is_stmt 0 view .LVU41
 226 0000 10B4     		push	{r4}
 227              	.LCFI0:
 228              		.cfi_def_cfa_offset 4
 229              		.cfi_offset 4, -4
 822:Drivers/STM32WLxx_HAL_Driver/Src/stm32wlxx_hal_flash_ex.c ****   uint32_t optr;
 230              		.loc 1 822 3 is_stmt 1 view .LVU42
 823:Drivers/STM32WLxx_HAL_Driver/Src/stm32wlxx_hal_flash_ex.c **** 
 824:Drivers/STM32WLxx_HAL_Driver/Src/stm32wlxx_hal_flash_ex.c ****   /* Check the parameters */
 825:Drivers/STM32WLxx_HAL_Driver/Src/stm32wlxx_hal_flash_ex.c ****   assert_param(IS_OB_USER_TYPE(UserType));
 231              		.loc 1 825 3 view .LVU43
 826:Drivers/STM32WLxx_HAL_Driver/Src/stm32wlxx_hal_flash_ex.c ****   assert_param(IS_OB_USER_CONFIG(UserType, UserConfig));
 232              		.loc 1 826 3 view .LVU44
 827:Drivers/STM32WLxx_HAL_Driver/Src/stm32wlxx_hal_flash_ex.c ****   assert_param(IS_OB_RDP_LEVEL(RDPLevel));
 233              		.loc 1 827 3 view .LVU45
 828:Drivers/STM32WLxx_HAL_Driver/Src/stm32wlxx_hal_flash_ex.c **** 
 829:Drivers/STM32WLxx_HAL_Driver/Src/stm32wlxx_hal_flash_ex.c ****   /* Configure the RDP level in the option bytes register */
 830:Drivers/STM32WLxx_HAL_Driver/Src/stm32wlxx_hal_flash_ex.c ****   optr = FLASH->OPTR;
 234              		.loc 1 830 3 view .LVU46
 235              		.loc 1 830 8 is_stmt 0 view .LVU47
 236 0002 054C     		ldr	r4, .L21
 237 0004 236A     		ldr	r3, [r4, #32]
 238              	.LVL7:
 831:Drivers/STM32WLxx_HAL_Driver/Src/stm32wlxx_hal_flash_ex.c ****   optr &= ~(UserType | FLASH_OPTR_RDP);
 239              		.loc 1 831 3 is_stmt 1 view .LVU48
 240              		.loc 1 831 22 is_stmt 0 view .LVU49
 241 0006 40F0FF00 		orr	r0, r0, #255
 242              	.LVL8:
 243              		.loc 1 831 8 view .LVU50
 244 000a 23EA0003 		bic	r3, r3, r0
 245              	.LVL9:
 832:Drivers/STM32WLxx_HAL_Driver/Src/stm32wlxx_hal_flash_ex.c ****   FLASH->OPTR = (optr | UserConfig | RDPLevel);
 246              		.loc 1 832 3 is_stmt 1 view .LVU51
 247              		.loc 1 832 23 is_stmt 0 view .LVU52
 248 000e 0B43     		orrs	r3, r3, r1
ARM GAS  C:\Users\NATHAN~1\AppData\Local\Temp\cc8eZusg.s 			page 20


 249              	.LVL10:
 250              		.loc 1 832 36 view .LVU53
 251 0010 1343     		orrs	r3, r3, r2
 252              		.loc 1 832 15 view .LVU54
 253 0012 2362     		str	r3, [r4, #32]
 833:Drivers/STM32WLxx_HAL_Driver/Src/stm32wlxx_hal_flash_ex.c **** }
 254              		.loc 1 833 1 view .LVU55
 255 0014 10BC     		pop	{r4}
 256              	.LCFI1:
 257              		.cfi_restore 4
 258              		.cfi_def_cfa_offset 0
 259 0016 7047     		bx	lr
 260              	.L22:
 261              		.align	2
 262              	.L21:
 263 0018 00400058 		.word	1476411392
 264              		.cfi_endproc
 265              	.LFE982:
 267              		.section	.text.FLASH_OB_PCROP1AConfig,"ax",%progbits
 268              		.align	1
 269              		.syntax unified
 270              		.thumb
 271              		.thumb_func
 273              	FLASH_OB_PCROP1AConfig:
 274              	.LVL11:
 275              	.LFB983:
 834:Drivers/STM32WLxx_HAL_Driver/Src/stm32wlxx_hal_flash_ex.c **** 
 835:Drivers/STM32WLxx_HAL_Driver/Src/stm32wlxx_hal_flash_ex.c **** /**
 836:Drivers/STM32WLxx_HAL_Driver/Src/stm32wlxx_hal_flash_ex.c ****   * @brief  Configure the Zone 1A Proprietary code readout protection of the desired addresses,
 837:Drivers/STM32WLxx_HAL_Driver/Src/stm32wlxx_hal_flash_ex.c ****   *         and erase configuration on RDP regression.
 838:Drivers/STM32WLxx_HAL_Driver/Src/stm32wlxx_hal_flash_ex.c ****   * @note   To configure the PCROP options, the option lock bit OPTLOCK must be
 839:Drivers/STM32WLxx_HAL_Driver/Src/stm32wlxx_hal_flash_ex.c ****   *         cleared with the call of the @ref HAL_FLASH_OB_Unlock() function.
 840:Drivers/STM32WLxx_HAL_Driver/Src/stm32wlxx_hal_flash_ex.c ****   * @note   To validate the PCROP options, the option bytes must be reloaded
 841:Drivers/STM32WLxx_HAL_Driver/Src/stm32wlxx_hal_flash_ex.c ****   *         through the call of the @ref HAL_FLASH_OB_Launch() function.
 842:Drivers/STM32WLxx_HAL_Driver/Src/stm32wlxx_hal_flash_ex.c ****   * @param  PCROPConfig: specifies the erase configuration (OB_PCROP_RDP_NOT_ERASE or OB_PCROP_RDP_
 843:Drivers/STM32WLxx_HAL_Driver/Src/stm32wlxx_hal_flash_ex.c ****   *         on RDP level 1 regression.
 844:Drivers/STM32WLxx_HAL_Driver/Src/stm32wlxx_hal_flash_ex.c ****   * @param  PCROP1AStartAddr Specifies the Zone 1A Start address of the Proprietary code readout pr
 845:Drivers/STM32WLxx_HAL_Driver/Src/stm32wlxx_hal_flash_ex.c ****   *         This parameter can be an address between begin and end of the flash
 846:Drivers/STM32WLxx_HAL_Driver/Src/stm32wlxx_hal_flash_ex.c ****   * @param  PCROP1AEndAddr Specifies the Zone 1A end address of the Proprietary code readout protec
 847:Drivers/STM32WLxx_HAL_Driver/Src/stm32wlxx_hal_flash_ex.c ****   *         This parameter can be an address between PCROP1AStartAddr and end of the flash
 848:Drivers/STM32WLxx_HAL_Driver/Src/stm32wlxx_hal_flash_ex.c ****   * @retval None
 849:Drivers/STM32WLxx_HAL_Driver/Src/stm32wlxx_hal_flash_ex.c ****   */
 850:Drivers/STM32WLxx_HAL_Driver/Src/stm32wlxx_hal_flash_ex.c **** static void FLASH_OB_PCROP1AConfig(uint32_t PCROPConfig, uint32_t PCROP1AStartAddr, uint32_t PCROP1
 851:Drivers/STM32WLxx_HAL_Driver/Src/stm32wlxx_hal_flash_ex.c **** {
 276              		.loc 1 851 1 is_stmt 1 view -0
 277              		.cfi_startproc
 278              		@ args = 0, pretend = 0, frame = 0
 279              		@ frame_needed = 0, uses_anonymous_args = 0
 280              		@ link register save eliminated.
 852:Drivers/STM32WLxx_HAL_Driver/Src/stm32wlxx_hal_flash_ex.c ****   uint32_t startoffset;
 281              		.loc 1 852 3 view .LVU57
 853:Drivers/STM32WLxx_HAL_Driver/Src/stm32wlxx_hal_flash_ex.c ****   uint32_t endoffset;
 282              		.loc 1 853 3 view .LVU58
 854:Drivers/STM32WLxx_HAL_Driver/Src/stm32wlxx_hal_flash_ex.c ****   uint32_t pcrop1aend;
 283              		.loc 1 854 3 view .LVU59
 855:Drivers/STM32WLxx_HAL_Driver/Src/stm32wlxx_hal_flash_ex.c **** 
 856:Drivers/STM32WLxx_HAL_Driver/Src/stm32wlxx_hal_flash_ex.c ****   /* Check the parameters */
ARM GAS  C:\Users\NATHAN~1\AppData\Local\Temp\cc8eZusg.s 			page 21


 857:Drivers/STM32WLxx_HAL_Driver/Src/stm32wlxx_hal_flash_ex.c ****   assert_param(IS_OB_PCROP_CONFIG(PCROPConfig));
 284              		.loc 1 857 3 view .LVU60
 858:Drivers/STM32WLxx_HAL_Driver/Src/stm32wlxx_hal_flash_ex.c ****   assert_param(IS_FLASH_MAIN_MEM_ADDRESS(PCROP1AStartAddr));
 285              		.loc 1 858 3 view .LVU61
 859:Drivers/STM32WLxx_HAL_Driver/Src/stm32wlxx_hal_flash_ex.c ****   assert_param(IS_FLASH_MAIN_MEM_ADDRESS(PCROP1AEndAddr));
 286              		.loc 1 859 3 view .LVU62
 860:Drivers/STM32WLxx_HAL_Driver/Src/stm32wlxx_hal_flash_ex.c **** 
 861:Drivers/STM32WLxx_HAL_Driver/Src/stm32wlxx_hal_flash_ex.c ****   /* get pcrop 1A end register */
 862:Drivers/STM32WLxx_HAL_Driver/Src/stm32wlxx_hal_flash_ex.c ****   pcrop1aend = FLASH->PCROP1AER;
 287              		.loc 1 862 3 view .LVU63
 288              		.loc 1 862 14 is_stmt 0 view .LVU64
 289 0000 104B     		ldr	r3, .L34
 290 0002 9B6A     		ldr	r3, [r3, #40]
 291              	.LVL12:
 863:Drivers/STM32WLxx_HAL_Driver/Src/stm32wlxx_hal_flash_ex.c **** 
 864:Drivers/STM32WLxx_HAL_Driver/Src/stm32wlxx_hal_flash_ex.c ****   /* Configure the Proprietary code readout protection offset */
 865:Drivers/STM32WLxx_HAL_Driver/Src/stm32wlxx_hal_flash_ex.c ****   if ((PCROPConfig & OB_PCROP_ZONE_A) != 0U)
 292              		.loc 1 865 3 is_stmt 1 view .LVU65
 293              		.loc 1 865 6 is_stmt 0 view .LVU66
 294 0004 10F0010F 		tst	r0, #1
 295 0008 14D0     		beq	.L27
 851:Drivers/STM32WLxx_HAL_Driver/Src/stm32wlxx_hal_flash_ex.c ****   uint32_t startoffset;
 296              		.loc 1 851 1 view .LVU67
 297 000a 10B4     		push	{r4}
 298              	.LCFI2:
 299              		.cfi_def_cfa_offset 4
 300              		.cfi_offset 4, -4
 866:Drivers/STM32WLxx_HAL_Driver/Src/stm32wlxx_hal_flash_ex.c ****   {
 867:Drivers/STM32WLxx_HAL_Driver/Src/stm32wlxx_hal_flash_ex.c ****     /* Compute offset depending on pcrop granularity */
 868:Drivers/STM32WLxx_HAL_Driver/Src/stm32wlxx_hal_flash_ex.c ****     startoffset = ((PCROP1AStartAddr - FLASH_BASE) >> FLASH_PCROP_GRANULARITY_OFFSET); /* 2K pages 
 301              		.loc 1 868 5 is_stmt 1 view .LVU68
 302              		.loc 1 868 38 is_stmt 0 view .LVU69
 303 000c 01F17841 		add	r1, r1, #-134217728
 304              	.LVL13:
 305              		.loc 1 868 17 view .LVU70
 306 0010 890A     		lsrs	r1, r1, #10
 307              	.LVL14:
 869:Drivers/STM32WLxx_HAL_Driver/Src/stm32wlxx_hal_flash_ex.c ****     endoffset = ((PCROP1AEndAddr - FLASH_BASE) >> FLASH_PCROP_GRANULARITY_OFFSET); /* 2K pages */
 308              		.loc 1 869 5 is_stmt 1 view .LVU71
 309              		.loc 1 869 34 is_stmt 0 view .LVU72
 310 0012 02F17842 		add	r2, r2, #-134217728
 311              	.LVL15:
 870:Drivers/STM32WLxx_HAL_Driver/Src/stm32wlxx_hal_flash_ex.c **** 
 871:Drivers/STM32WLxx_HAL_Driver/Src/stm32wlxx_hal_flash_ex.c ****     /* Set Zone A start offset */
 872:Drivers/STM32WLxx_HAL_Driver/Src/stm32wlxx_hal_flash_ex.c ****     WRITE_REG(FLASH->PCROP1ASR, startoffset);
 312              		.loc 1 872 5 is_stmt 1 view .LVU73
 313 0016 0B4C     		ldr	r4, .L34
 314 0018 6162     		str	r1, [r4, #36]
 873:Drivers/STM32WLxx_HAL_Driver/Src/stm32wlxx_hal_flash_ex.c **** 
 874:Drivers/STM32WLxx_HAL_Driver/Src/stm32wlxx_hal_flash_ex.c ****     /* Set Zone A end offset */
 875:Drivers/STM32WLxx_HAL_Driver/Src/stm32wlxx_hal_flash_ex.c ****     pcrop1aend &= ~FLASH_PCROP1AER_PCROP1A_END;
 315              		.loc 1 875 5 view .LVU74
 316              		.loc 1 875 16 is_stmt 0 view .LVU75
 317 001a 23F0FF03 		bic	r3, r3, #255
 318              	.LVL16:
 876:Drivers/STM32WLxx_HAL_Driver/Src/stm32wlxx_hal_flash_ex.c ****     pcrop1aend |= endoffset;
 319              		.loc 1 876 5 is_stmt 1 view .LVU76
ARM GAS  C:\Users\NATHAN~1\AppData\Local\Temp\cc8eZusg.s 			page 22


 320              		.loc 1 876 16 is_stmt 0 view .LVU77
 321 001e 43EA9223 		orr	r3, r3, r2, lsr #10
 322              	.LVL17:
 877:Drivers/STM32WLxx_HAL_Driver/Src/stm32wlxx_hal_flash_ex.c ****   }
 878:Drivers/STM32WLxx_HAL_Driver/Src/stm32wlxx_hal_flash_ex.c **** 
 879:Drivers/STM32WLxx_HAL_Driver/Src/stm32wlxx_hal_flash_ex.c ****   /* Set RDP erase protection if needed. This bit is only set & will be reset by mass erase */
 880:Drivers/STM32WLxx_HAL_Driver/Src/stm32wlxx_hal_flash_ex.c ****   if ((PCROPConfig & OB_PCROP_RDP_ERASE) != 0U)
 323              		.loc 1 880 3 is_stmt 1 view .LVU78
 324              		.loc 1 880 6 is_stmt 0 view .LVU79
 325 0022 0028     		cmp	r0, #0
 326 0024 03DB     		blt	.L32
 327              	.L25:
 881:Drivers/STM32WLxx_HAL_Driver/Src/stm32wlxx_hal_flash_ex.c ****   {
 882:Drivers/STM32WLxx_HAL_Driver/Src/stm32wlxx_hal_flash_ex.c ****     pcrop1aend |= FLASH_PCROP1AER_PCROP_RDP;
 883:Drivers/STM32WLxx_HAL_Driver/Src/stm32wlxx_hal_flash_ex.c ****   }
 884:Drivers/STM32WLxx_HAL_Driver/Src/stm32wlxx_hal_flash_ex.c **** 
 885:Drivers/STM32WLxx_HAL_Driver/Src/stm32wlxx_hal_flash_ex.c ****   /* set 1A End register */
 886:Drivers/STM32WLxx_HAL_Driver/Src/stm32wlxx_hal_flash_ex.c ****   WRITE_REG(FLASH->PCROP1AER, pcrop1aend);
 328              		.loc 1 886 3 is_stmt 1 view .LVU80
 329 0026 074A     		ldr	r2, .L34
 330              	.LVL18:
 331              		.loc 1 886 3 is_stmt 0 view .LVU81
 332 0028 9362     		str	r3, [r2, #40]
 887:Drivers/STM32WLxx_HAL_Driver/Src/stm32wlxx_hal_flash_ex.c **** }
 333              		.loc 1 887 1 view .LVU82
 334 002a 10BC     		pop	{r4}
 335              	.LCFI3:
 336              		.cfi_remember_state
 337              		.cfi_restore 4
 338              		.cfi_def_cfa_offset 0
 339 002c 7047     		bx	lr
 340              	.LVL19:
 341              	.L32:
 342              	.LCFI4:
 343              		.cfi_restore_state
 882:Drivers/STM32WLxx_HAL_Driver/Src/stm32wlxx_hal_flash_ex.c ****   }
 344              		.loc 1 882 5 is_stmt 1 view .LVU83
 882:Drivers/STM32WLxx_HAL_Driver/Src/stm32wlxx_hal_flash_ex.c ****   }
 345              		.loc 1 882 16 is_stmt 0 view .LVU84
 346 002e 43F00043 		orr	r3, r3, #-2147483648
 347              	.LVL20:
 882:Drivers/STM32WLxx_HAL_Driver/Src/stm32wlxx_hal_flash_ex.c ****   }
 348              		.loc 1 882 16 view .LVU85
 349 0032 F8E7     		b	.L25
 350              	.LVL21:
 351              	.L27:
 352              	.LCFI5:
 353              		.cfi_def_cfa_offset 0
 354              		.cfi_restore 4
 880:Drivers/STM32WLxx_HAL_Driver/Src/stm32wlxx_hal_flash_ex.c ****   {
 355              		.loc 1 880 3 is_stmt 1 view .LVU86
 880:Drivers/STM32WLxx_HAL_Driver/Src/stm32wlxx_hal_flash_ex.c ****   {
 356              		.loc 1 880 6 is_stmt 0 view .LVU87
 357 0034 0028     		cmp	r0, #0
 358 0036 02DB     		blt	.L33
 359              	.L29:
 886:Drivers/STM32WLxx_HAL_Driver/Src/stm32wlxx_hal_flash_ex.c **** }
ARM GAS  C:\Users\NATHAN~1\AppData\Local\Temp\cc8eZusg.s 			page 23


 360              		.loc 1 886 3 is_stmt 1 view .LVU88
 361 0038 024A     		ldr	r2, .L34
 362              	.LVL22:
 886:Drivers/STM32WLxx_HAL_Driver/Src/stm32wlxx_hal_flash_ex.c **** }
 363              		.loc 1 886 3 is_stmt 0 view .LVU89
 364 003a 9362     		str	r3, [r2, #40]
 365 003c 7047     		bx	lr
 366              	.LVL23:
 367              	.L33:
 882:Drivers/STM32WLxx_HAL_Driver/Src/stm32wlxx_hal_flash_ex.c ****   }
 368              		.loc 1 882 5 is_stmt 1 view .LVU90
 882:Drivers/STM32WLxx_HAL_Driver/Src/stm32wlxx_hal_flash_ex.c ****   }
 369              		.loc 1 882 16 is_stmt 0 view .LVU91
 370 003e 43F00043 		orr	r3, r3, #-2147483648
 371              	.LVL24:
 882:Drivers/STM32WLxx_HAL_Driver/Src/stm32wlxx_hal_flash_ex.c ****   }
 372              		.loc 1 882 16 view .LVU92
 373 0042 F9E7     		b	.L29
 374              	.L35:
 375              		.align	2
 376              	.L34:
 377 0044 00400058 		.word	1476411392
 378              		.cfi_endproc
 379              	.LFE983:
 381              		.section	.text.FLASH_OB_PCROP1BConfig,"ax",%progbits
 382              		.align	1
 383              		.syntax unified
 384              		.thumb
 385              		.thumb_func
 387              	FLASH_OB_PCROP1BConfig:
 388              	.LVL25:
 389              	.LFB984:
 888:Drivers/STM32WLxx_HAL_Driver/Src/stm32wlxx_hal_flash_ex.c **** 
 889:Drivers/STM32WLxx_HAL_Driver/Src/stm32wlxx_hal_flash_ex.c **** /**
 890:Drivers/STM32WLxx_HAL_Driver/Src/stm32wlxx_hal_flash_ex.c ****   * @brief  Configure the Zone 1B Proprietary code readout protection of the desired addresses.
 891:Drivers/STM32WLxx_HAL_Driver/Src/stm32wlxx_hal_flash_ex.c ****   * @note   To configure the PCROP options, the option lock bit OPTLOCK must be
 892:Drivers/STM32WLxx_HAL_Driver/Src/stm32wlxx_hal_flash_ex.c ****   *         cleared with the call of the @ref HAL_FLASH_OB_Unlock() function.
 893:Drivers/STM32WLxx_HAL_Driver/Src/stm32wlxx_hal_flash_ex.c ****   * @note   To validate the PCROP options, the option bytes must be reloaded
 894:Drivers/STM32WLxx_HAL_Driver/Src/stm32wlxx_hal_flash_ex.c ****   *         through the call of the @ref HAL_FLASH_OB_Launch() function.
 895:Drivers/STM32WLxx_HAL_Driver/Src/stm32wlxx_hal_flash_ex.c ****   * @param  PCROP1BStartAddr Specifies the Zone 1B Start address of the Proprietary code readout pr
 896:Drivers/STM32WLxx_HAL_Driver/Src/stm32wlxx_hal_flash_ex.c ****   *         This parameter can be an address between begin and end of the flash
 897:Drivers/STM32WLxx_HAL_Driver/Src/stm32wlxx_hal_flash_ex.c ****   * @param  PCROP1BEndAddr Specifies the Zone 1B end address of the Proprietary code readout protec
 898:Drivers/STM32WLxx_HAL_Driver/Src/stm32wlxx_hal_flash_ex.c ****   *         This parameter can be an address between PCROP1BStartAddr and end of the flash
 899:Drivers/STM32WLxx_HAL_Driver/Src/stm32wlxx_hal_flash_ex.c ****   * @retval None
 900:Drivers/STM32WLxx_HAL_Driver/Src/stm32wlxx_hal_flash_ex.c ****   */
 901:Drivers/STM32WLxx_HAL_Driver/Src/stm32wlxx_hal_flash_ex.c **** static void FLASH_OB_PCROP1BConfig(uint32_t PCROP1BStartAddr, uint32_t PCROP1BEndAddr)
 902:Drivers/STM32WLxx_HAL_Driver/Src/stm32wlxx_hal_flash_ex.c **** {
 390              		.loc 1 902 1 is_stmt 1 view -0
 391              		.cfi_startproc
 392              		@ args = 0, pretend = 0, frame = 0
 393              		@ frame_needed = 0, uses_anonymous_args = 0
 394              		@ link register save eliminated.
 903:Drivers/STM32WLxx_HAL_Driver/Src/stm32wlxx_hal_flash_ex.c ****   uint32_t startoffset;
 395              		.loc 1 903 3 view .LVU94
 904:Drivers/STM32WLxx_HAL_Driver/Src/stm32wlxx_hal_flash_ex.c ****   uint32_t endoffset;
 396              		.loc 1 904 3 view .LVU95
 905:Drivers/STM32WLxx_HAL_Driver/Src/stm32wlxx_hal_flash_ex.c **** 
ARM GAS  C:\Users\NATHAN~1\AppData\Local\Temp\cc8eZusg.s 			page 24


 906:Drivers/STM32WLxx_HAL_Driver/Src/stm32wlxx_hal_flash_ex.c ****   /* Check the parameters */
 907:Drivers/STM32WLxx_HAL_Driver/Src/stm32wlxx_hal_flash_ex.c ****   assert_param(IS_FLASH_MAIN_MEM_ADDRESS(PCROP1BStartAddr));
 397              		.loc 1 907 3 view .LVU96
 908:Drivers/STM32WLxx_HAL_Driver/Src/stm32wlxx_hal_flash_ex.c ****   assert_param(IS_FLASH_MAIN_MEM_ADDRESS(PCROP1BEndAddr));
 398              		.loc 1 908 3 view .LVU97
 909:Drivers/STM32WLxx_HAL_Driver/Src/stm32wlxx_hal_flash_ex.c **** 
 910:Drivers/STM32WLxx_HAL_Driver/Src/stm32wlxx_hal_flash_ex.c ****   /* Compute offset depending on pcrop granularity */
 911:Drivers/STM32WLxx_HAL_Driver/Src/stm32wlxx_hal_flash_ex.c ****   startoffset = ((PCROP1BStartAddr - FLASH_BASE) >> FLASH_PCROP_GRANULARITY_OFFSET); /* 2K pages */
 399              		.loc 1 911 3 view .LVU98
 400              		.loc 1 911 36 is_stmt 0 view .LVU99
 401 0000 00F17840 		add	r0, r0, #-134217728
 402              	.LVL26:
 403              		.loc 1 911 15 view .LVU100
 404 0004 800A     		lsrs	r0, r0, #10
 405              	.LVL27:
 912:Drivers/STM32WLxx_HAL_Driver/Src/stm32wlxx_hal_flash_ex.c ****   endoffset = ((PCROP1BEndAddr - FLASH_BASE) >> FLASH_PCROP_GRANULARITY_OFFSET); /* 2K pages */
 406              		.loc 1 912 3 is_stmt 1 view .LVU101
 407              		.loc 1 912 32 is_stmt 0 view .LVU102
 408 0006 01F17841 		add	r1, r1, #-134217728
 409              	.LVL28:
 410              		.loc 1 912 13 view .LVU103
 411 000a 890A     		lsrs	r1, r1, #10
 412              	.LVL29:
 913:Drivers/STM32WLxx_HAL_Driver/Src/stm32wlxx_hal_flash_ex.c **** 
 914:Drivers/STM32WLxx_HAL_Driver/Src/stm32wlxx_hal_flash_ex.c ****   /* Configure the Proprietary code readout protection start address */
 915:Drivers/STM32WLxx_HAL_Driver/Src/stm32wlxx_hal_flash_ex.c ****   WRITE_REG(FLASH->PCROP1BSR, startoffset);
 413              		.loc 1 915 3 is_stmt 1 view .LVU104
 414 000c 014B     		ldr	r3, .L37
 415 000e 5863     		str	r0, [r3, #52]
 916:Drivers/STM32WLxx_HAL_Driver/Src/stm32wlxx_hal_flash_ex.c **** 
 917:Drivers/STM32WLxx_HAL_Driver/Src/stm32wlxx_hal_flash_ex.c ****   /* Configure the Proprietary code readout protection end address */
 918:Drivers/STM32WLxx_HAL_Driver/Src/stm32wlxx_hal_flash_ex.c ****   WRITE_REG(FLASH->PCROP1BER, endoffset);
 416              		.loc 1 918 3 view .LVU105
 417 0010 9963     		str	r1, [r3, #56]
 919:Drivers/STM32WLxx_HAL_Driver/Src/stm32wlxx_hal_flash_ex.c **** }
 418              		.loc 1 919 1 is_stmt 0 view .LVU106
 419 0012 7047     		bx	lr
 420              	.L38:
 421              		.align	2
 422              	.L37:
 423 0014 00400058 		.word	1476411392
 424              		.cfi_endproc
 425              	.LFE984:
 427              		.section	.text.FLASH_OB_GetWRP,"ax",%progbits
 428              		.align	1
 429              		.syntax unified
 430              		.thumb
 431              		.thumb_func
 433              	FLASH_OB_GetWRP:
 434              	.LVL30:
 435              	.LFB985:
 920:Drivers/STM32WLxx_HAL_Driver/Src/stm32wlxx_hal_flash_ex.c **** 
 921:Drivers/STM32WLxx_HAL_Driver/Src/stm32wlxx_hal_flash_ex.c **** #if defined(DUAL_CORE)
 922:Drivers/STM32WLxx_HAL_Driver/Src/stm32wlxx_hal_flash_ex.c **** /**
 923:Drivers/STM32WLxx_HAL_Driver/Src/stm32wlxx_hal_flash_ex.c ****   * @brief  Program the FLASH IPCC data buffer address.
 924:Drivers/STM32WLxx_HAL_Driver/Src/stm32wlxx_hal_flash_ex.c ****   * @note   To configure the extra user option bytes, the option lock bit OPTLOCK must
 925:Drivers/STM32WLxx_HAL_Driver/Src/stm32wlxx_hal_flash_ex.c ****   *         be cleared with the call of the @ref HAL_FLASH_OB_Unlock() function.
ARM GAS  C:\Users\NATHAN~1\AppData\Local\Temp\cc8eZusg.s 			page 25


 926:Drivers/STM32WLxx_HAL_Driver/Src/stm32wlxx_hal_flash_ex.c ****   * @note   To validate the extra user option bytes, the option bytes must be reloaded
 927:Drivers/STM32WLxx_HAL_Driver/Src/stm32wlxx_hal_flash_ex.c ****   *         through the call of the @ref HAL_FLASH_OB_Launch() function.
 928:Drivers/STM32WLxx_HAL_Driver/Src/stm32wlxx_hal_flash_ex.c ****   * @param  IPCCDataBufAddr IPCC data buffer start address area in SRAM1 or SRAM2
 929:Drivers/STM32WLxx_HAL_Driver/Src/stm32wlxx_hal_flash_ex.c ****   *         This parameter must be the double-word aligned
 930:Drivers/STM32WLxx_HAL_Driver/Src/stm32wlxx_hal_flash_ex.c ****   * @retval None
 931:Drivers/STM32WLxx_HAL_Driver/Src/stm32wlxx_hal_flash_ex.c ****   */
 932:Drivers/STM32WLxx_HAL_Driver/Src/stm32wlxx_hal_flash_ex.c **** static void FLASH_OB_IPCCBufferAddrConfig(uint32_t IPCCDataBufAddr)
 933:Drivers/STM32WLxx_HAL_Driver/Src/stm32wlxx_hal_flash_ex.c **** {
 934:Drivers/STM32WLxx_HAL_Driver/Src/stm32wlxx_hal_flash_ex.c ****   assert_param(IS_OB_IPCC_BUF_ADDR(IPCCDataBufAddr));
 935:Drivers/STM32WLxx_HAL_Driver/Src/stm32wlxx_hal_flash_ex.c **** 
 936:Drivers/STM32WLxx_HAL_Driver/Src/stm32wlxx_hal_flash_ex.c ****   /* Configure the option bytes register */
 937:Drivers/STM32WLxx_HAL_Driver/Src/stm32wlxx_hal_flash_ex.c ****   WRITE_REG(FLASH->IPCCBR, (uint32_t)((IPCCDataBufAddr - SRAM1_BASE) >> 4));
 938:Drivers/STM32WLxx_HAL_Driver/Src/stm32wlxx_hal_flash_ex.c **** }
 939:Drivers/STM32WLxx_HAL_Driver/Src/stm32wlxx_hal_flash_ex.c **** 
 940:Drivers/STM32WLxx_HAL_Driver/Src/stm32wlxx_hal_flash_ex.c **** /**
 941:Drivers/STM32WLxx_HAL_Driver/Src/stm32wlxx_hal_flash_ex.c ****   * @brief  Configure the secure start address of the different memories,
 942:Drivers/STM32WLxx_HAL_Driver/Src/stm32wlxx_hal_flash_ex.c ****   *         the secure mode, the CPU2 Secure Boot reset vector and the CPU2 debug access
 943:Drivers/STM32WLxx_HAL_Driver/Src/stm32wlxx_hal_flash_ex.c ****   * @note   To configure the PCROP options, the option lock bit OPTLOCK must be
 944:Drivers/STM32WLxx_HAL_Driver/Src/stm32wlxx_hal_flash_ex.c ****   *         cleared with the call of the @ref HAL_FLASH_OB_Unlock() function.
 945:Drivers/STM32WLxx_HAL_Driver/Src/stm32wlxx_hal_flash_ex.c ****   * @param  pOBParam Pointer to an @ref FLASH_OBProgramInitTypeDef structure that
 946:Drivers/STM32WLxx_HAL_Driver/Src/stm32wlxx_hal_flash_ex.c ****   *         contains the configuration information for the programming
 947:Drivers/STM32WLxx_HAL_Driver/Src/stm32wlxx_hal_flash_ex.c ****   * @retval void
 948:Drivers/STM32WLxx_HAL_Driver/Src/stm32wlxx_hal_flash_ex.c ****   */
 949:Drivers/STM32WLxx_HAL_Driver/Src/stm32wlxx_hal_flash_ex.c **** static void FLASH_OB_SecureConfig(FLASH_OBProgramInitTypeDef *pOBParam)
 950:Drivers/STM32WLxx_HAL_Driver/Src/stm32wlxx_hal_flash_ex.c **** {
 951:Drivers/STM32WLxx_HAL_Driver/Src/stm32wlxx_hal_flash_ex.c ****   uint32_t sfr_reg_val = READ_REG(FLASH->SFR);
 952:Drivers/STM32WLxx_HAL_Driver/Src/stm32wlxx_hal_flash_ex.c ****   uint32_t srrvr_reg_val = READ_REG(FLASH->SRRVR);
 953:Drivers/STM32WLxx_HAL_Driver/Src/stm32wlxx_hal_flash_ex.c **** 
 954:Drivers/STM32WLxx_HAL_Driver/Src/stm32wlxx_hal_flash_ex.c ****   if ((pOBParam->OptionType & OPTIONBYTE_SECURE_MODE) != 0U)
 955:Drivers/STM32WLxx_HAL_Driver/Src/stm32wlxx_hal_flash_ex.c ****   {
 956:Drivers/STM32WLxx_HAL_Driver/Src/stm32wlxx_hal_flash_ex.c ****     assert_param(IS_OB_SFSA_START_ADDR(pOBParam->SecureFlashStartAddr));
 957:Drivers/STM32WLxx_HAL_Driver/Src/stm32wlxx_hal_flash_ex.c ****     assert_param(IS_OB_SBRSA_START_ADDR(pOBParam->SecureSRAM2StartAddr));
 958:Drivers/STM32WLxx_HAL_Driver/Src/stm32wlxx_hal_flash_ex.c ****     assert_param(IS_OB_SNBRSA_START_ADDR(pOBParam->SecureSRAM1StartAddr));
 959:Drivers/STM32WLxx_HAL_Driver/Src/stm32wlxx_hal_flash_ex.c ****     assert_param(IS_OB_HDPSA_START_ADDR(pOBParam->HideProtectionStartAddr));
 960:Drivers/STM32WLxx_HAL_Driver/Src/stm32wlxx_hal_flash_ex.c ****     assert_param(IS_OB_SECURE_MODE(pOBParam->SecureMode));
 961:Drivers/STM32WLxx_HAL_Driver/Src/stm32wlxx_hal_flash_ex.c **** 
 962:Drivers/STM32WLxx_HAL_Driver/Src/stm32wlxx_hal_flash_ex.c ****     /* Configure SFR register content with start FLASH PAGE index to secure and start FLASH PAGE in
 963:Drivers/STM32WLxx_HAL_Driver/Src/stm32wlxx_hal_flash_ex.c ****     MODIFY_REG(sfr_reg_val, (FLASH_SFR_SFSA | FLASH_SFR_HDPSA), \
 964:Drivers/STM32WLxx_HAL_Driver/Src/stm32wlxx_hal_flash_ex.c ****                ((((pOBParam->SecureFlashStartAddr - FLASH_BASE) / FLASH_PAGE_SIZE) << FLASH_SFR_SFS
 965:Drivers/STM32WLxx_HAL_Driver/Src/stm32wlxx_hal_flash_ex.c ****                 (((pOBParam->HideProtectionStartAddr - FLASH_BASE) / FLASH_PAGE_SIZE) << FLASH_SFR_
 966:Drivers/STM32WLxx_HAL_Driver/Src/stm32wlxx_hal_flash_ex.c **** 
 967:Drivers/STM32WLxx_HAL_Driver/Src/stm32wlxx_hal_flash_ex.c ****     /* Configure SRRVR register */
 968:Drivers/STM32WLxx_HAL_Driver/Src/stm32wlxx_hal_flash_ex.c ****     MODIFY_REG(srrvr_reg_val, (FLASH_SRRVR_SBRSA | FLASH_SRRVR_SNBRSA), \
 969:Drivers/STM32WLxx_HAL_Driver/Src/stm32wlxx_hal_flash_ex.c ****                (((((pOBParam->SecureSRAM2StartAddr - SRAM2_BASE) >> SRAM_SECURE_PAGE_GRANULARITY_OF
 970:Drivers/STM32WLxx_HAL_Driver/Src/stm32wlxx_hal_flash_ex.c ****                 ((((pOBParam->SecureSRAM1StartAddr - SRAM1_BASE) >> SRAM_SECURE_PAGE_GRANULARITY_OF
 971:Drivers/STM32WLxx_HAL_Driver/Src/stm32wlxx_hal_flash_ex.c **** 
 972:Drivers/STM32WLxx_HAL_Driver/Src/stm32wlxx_hal_flash_ex.c ****     /* If Full System Secure mode is requested, clear all the corresponding bit */
 973:Drivers/STM32WLxx_HAL_Driver/Src/stm32wlxx_hal_flash_ex.c ****     /* Else set the corresponding bit */
 974:Drivers/STM32WLxx_HAL_Driver/Src/stm32wlxx_hal_flash_ex.c ****     if (pOBParam->SecureMode == OB_SECURE_SYSTEM_AND_ALL_AREAS_ENABLE)
 975:Drivers/STM32WLxx_HAL_Driver/Src/stm32wlxx_hal_flash_ex.c ****     {
 976:Drivers/STM32WLxx_HAL_Driver/Src/stm32wlxx_hal_flash_ex.c ****       CLEAR_BIT(sfr_reg_val, (FLASH_SFR_FSD | FLASH_SFR_HDPAD));
 977:Drivers/STM32WLxx_HAL_Driver/Src/stm32wlxx_hal_flash_ex.c ****       CLEAR_BIT(srrvr_reg_val, (FLASH_SRRVR_BRSD | FLASH_SRRVR_NBRSD));
 978:Drivers/STM32WLxx_HAL_Driver/Src/stm32wlxx_hal_flash_ex.c ****     }
 979:Drivers/STM32WLxx_HAL_Driver/Src/stm32wlxx_hal_flash_ex.c ****     else if (pOBParam->SecureMode == OB_SECURE_SYSTEM_AND_ALL_AREAS_DISABLE)
 980:Drivers/STM32WLxx_HAL_Driver/Src/stm32wlxx_hal_flash_ex.c ****     {
 981:Drivers/STM32WLxx_HAL_Driver/Src/stm32wlxx_hal_flash_ex.c ****       SET_BIT(sfr_reg_val, (FLASH_SFR_FSD | FLASH_SFR_HDPAD));
 982:Drivers/STM32WLxx_HAL_Driver/Src/stm32wlxx_hal_flash_ex.c ****       SET_BIT(srrvr_reg_val, (FLASH_SRRVR_BRSD | FLASH_SRRVR_NBRSD));
ARM GAS  C:\Users\NATHAN~1\AppData\Local\Temp\cc8eZusg.s 			page 26


 983:Drivers/STM32WLxx_HAL_Driver/Src/stm32wlxx_hal_flash_ex.c ****     }
 984:Drivers/STM32WLxx_HAL_Driver/Src/stm32wlxx_hal_flash_ex.c ****     else /* Enable Secure Area bit per bit */
 985:Drivers/STM32WLxx_HAL_Driver/Src/stm32wlxx_hal_flash_ex.c ****     {
 986:Drivers/STM32WLxx_HAL_Driver/Src/stm32wlxx_hal_flash_ex.c ****       /* Set Flash Area in secure if requested */
 987:Drivers/STM32WLxx_HAL_Driver/Src/stm32wlxx_hal_flash_ex.c ****       FLASH_OB_ConfigSecureMode(pOBParam->SecureMode, &sfr_reg_val, FLASH_SFR_FSD, OB_SECURE_SYSTEM
 988:Drivers/STM32WLxx_HAL_Driver/Src/stm32wlxx_hal_flash_ex.c **** 
 989:Drivers/STM32WLxx_HAL_Driver/Src/stm32wlxx_hal_flash_ex.c ****       /* Set Hide Protection Area in secure if requested */
 990:Drivers/STM32WLxx_HAL_Driver/Src/stm32wlxx_hal_flash_ex.c ****       FLASH_OB_ConfigSecureMode(pOBParam->SecureMode, &sfr_reg_val, FLASH_SFR_HDPAD, OB_SECURE_HIDE
 991:Drivers/STM32WLxx_HAL_Driver/Src/stm32wlxx_hal_flash_ex.c **** 
 992:Drivers/STM32WLxx_HAL_Driver/Src/stm32wlxx_hal_flash_ex.c ****       /* Set SRAM1 Area in secure if requested */
 993:Drivers/STM32WLxx_HAL_Driver/Src/stm32wlxx_hal_flash_ex.c ****       FLASH_OB_ConfigSecureMode(pOBParam->SecureMode, &srrvr_reg_val, FLASH_SRRVR_NBRSD, OB_SECURE_
 994:Drivers/STM32WLxx_HAL_Driver/Src/stm32wlxx_hal_flash_ex.c **** 
 995:Drivers/STM32WLxx_HAL_Driver/Src/stm32wlxx_hal_flash_ex.c ****       /* Set SRAM2 Area in secure if requested */
 996:Drivers/STM32WLxx_HAL_Driver/Src/stm32wlxx_hal_flash_ex.c ****       FLASH_OB_ConfigSecureMode(pOBParam->SecureMode, &srrvr_reg_val, FLASH_SRRVR_BRSD, OB_SECURE_S
 997:Drivers/STM32WLxx_HAL_Driver/Src/stm32wlxx_hal_flash_ex.c ****     }
 998:Drivers/STM32WLxx_HAL_Driver/Src/stm32wlxx_hal_flash_ex.c ****   }
 999:Drivers/STM32WLxx_HAL_Driver/Src/stm32wlxx_hal_flash_ex.c **** 
1000:Drivers/STM32WLxx_HAL_Driver/Src/stm32wlxx_hal_flash_ex.c ****   /* Boot vector */
1001:Drivers/STM32WLxx_HAL_Driver/Src/stm32wlxx_hal_flash_ex.c ****   if ((pOBParam->OptionType & OPTIONBYTE_C2_BOOT_VECT) != 0U)
1002:Drivers/STM32WLxx_HAL_Driver/Src/stm32wlxx_hal_flash_ex.c ****   {
1003:Drivers/STM32WLxx_HAL_Driver/Src/stm32wlxx_hal_flash_ex.c ****     /* Check the parameters */
1004:Drivers/STM32WLxx_HAL_Driver/Src/stm32wlxx_hal_flash_ex.c ****     assert_param(IS_OB_BOOT_VECTOR_ADDR(pOBParam->C2SecureBootVectAddr));
1005:Drivers/STM32WLxx_HAL_Driver/Src/stm32wlxx_hal_flash_ex.c ****     assert_param(IS_OB_BOOT_REGION(pOBParam->C2BootRegion));
1006:Drivers/STM32WLxx_HAL_Driver/Src/stm32wlxx_hal_flash_ex.c **** 
1007:Drivers/STM32WLxx_HAL_Driver/Src/stm32wlxx_hal_flash_ex.c ****     /* Set the boot vector */
1008:Drivers/STM32WLxx_HAL_Driver/Src/stm32wlxx_hal_flash_ex.c ****     if (pOBParam->C2BootRegion == OB_C2_BOOT_FROM_FLASH)
1009:Drivers/STM32WLxx_HAL_Driver/Src/stm32wlxx_hal_flash_ex.c ****     {
1010:Drivers/STM32WLxx_HAL_Driver/Src/stm32wlxx_hal_flash_ex.c ****       MODIFY_REG(srrvr_reg_val, (FLASH_SRRVR_SBRV | FLASH_SRRVR_C2OPT), (((pOBParam->C2SecureBootVe
1011:Drivers/STM32WLxx_HAL_Driver/Src/stm32wlxx_hal_flash_ex.c ****     }
1012:Drivers/STM32WLxx_HAL_Driver/Src/stm32wlxx_hal_flash_ex.c ****     else
1013:Drivers/STM32WLxx_HAL_Driver/Src/stm32wlxx_hal_flash_ex.c ****     {
1014:Drivers/STM32WLxx_HAL_Driver/Src/stm32wlxx_hal_flash_ex.c ****       MODIFY_REG(srrvr_reg_val, (FLASH_SRRVR_SBRV | FLASH_SRRVR_C2OPT), (((pOBParam->C2SecureBootVe
1015:Drivers/STM32WLxx_HAL_Driver/Src/stm32wlxx_hal_flash_ex.c ****     }
1016:Drivers/STM32WLxx_HAL_Driver/Src/stm32wlxx_hal_flash_ex.c ****   }
1017:Drivers/STM32WLxx_HAL_Driver/Src/stm32wlxx_hal_flash_ex.c **** 
1018:Drivers/STM32WLxx_HAL_Driver/Src/stm32wlxx_hal_flash_ex.c ****   /* CPU2 Debug Access */
1019:Drivers/STM32WLxx_HAL_Driver/Src/stm32wlxx_hal_flash_ex.c ****   if ((pOBParam->OptionType & OPTIONBYTE_C2_DEBUG_ACCESS) != 0U)
1020:Drivers/STM32WLxx_HAL_Driver/Src/stm32wlxx_hal_flash_ex.c ****   {
1021:Drivers/STM32WLxx_HAL_Driver/Src/stm32wlxx_hal_flash_ex.c ****     /* Check the parameters */
1022:Drivers/STM32WLxx_HAL_Driver/Src/stm32wlxx_hal_flash_ex.c ****     assert_param(IS_OB_C2_DEBUG_MODE(pOBParam->C2DebugAccessMode));
1023:Drivers/STM32WLxx_HAL_Driver/Src/stm32wlxx_hal_flash_ex.c **** 
1024:Drivers/STM32WLxx_HAL_Driver/Src/stm32wlxx_hal_flash_ex.c ****     /* Set the CPU2 Debug Access */
1025:Drivers/STM32WLxx_HAL_Driver/Src/stm32wlxx_hal_flash_ex.c ****     MODIFY_REG(sfr_reg_val, FLASH_SFR_DDS, (uint32_t)pOBParam->C2DebugAccessMode);
1026:Drivers/STM32WLxx_HAL_Driver/Src/stm32wlxx_hal_flash_ex.c ****   }
1027:Drivers/STM32WLxx_HAL_Driver/Src/stm32wlxx_hal_flash_ex.c **** 
1028:Drivers/STM32WLxx_HAL_Driver/Src/stm32wlxx_hal_flash_ex.c ****   /* Sub-GHz radio SPI Access */
1029:Drivers/STM32WLxx_HAL_Driver/Src/stm32wlxx_hal_flash_ex.c ****   if ((pOBParam->OptionType & OPTIONBYTE_SUBGHZSPI_SECURE_ACCESS) != 0U)
1030:Drivers/STM32WLxx_HAL_Driver/Src/stm32wlxx_hal_flash_ex.c ****   {
1031:Drivers/STM32WLxx_HAL_Driver/Src/stm32wlxx_hal_flash_ex.c ****     /* Check the parameters */
1032:Drivers/STM32WLxx_HAL_Driver/Src/stm32wlxx_hal_flash_ex.c ****     assert_param(IS_OB_SUBGHZSPI_SECURE_ACCESS(pOBParam->SUBGHZSPISecureAccess));
1033:Drivers/STM32WLxx_HAL_Driver/Src/stm32wlxx_hal_flash_ex.c **** 
1034:Drivers/STM32WLxx_HAL_Driver/Src/stm32wlxx_hal_flash_ex.c ****     /* Set the Sub-GHz radio SPI Secure Access */
1035:Drivers/STM32WLxx_HAL_Driver/Src/stm32wlxx_hal_flash_ex.c ****     MODIFY_REG(sfr_reg_val, FLASH_SFR_SUBGHZSPISD, (uint32_t)pOBParam->SUBGHZSPISecureAccess);
1036:Drivers/STM32WLxx_HAL_Driver/Src/stm32wlxx_hal_flash_ex.c ****   }
1037:Drivers/STM32WLxx_HAL_Driver/Src/stm32wlxx_hal_flash_ex.c **** 
1038:Drivers/STM32WLxx_HAL_Driver/Src/stm32wlxx_hal_flash_ex.c ****   /* Update Flash registers */
1039:Drivers/STM32WLxx_HAL_Driver/Src/stm32wlxx_hal_flash_ex.c ****   WRITE_REG(FLASH->SFR, sfr_reg_val);
ARM GAS  C:\Users\NATHAN~1\AppData\Local\Temp\cc8eZusg.s 			page 27


1040:Drivers/STM32WLxx_HAL_Driver/Src/stm32wlxx_hal_flash_ex.c ****   WRITE_REG(FLASH->SRRVR, srrvr_reg_val);
1041:Drivers/STM32WLxx_HAL_Driver/Src/stm32wlxx_hal_flash_ex.c **** }
1042:Drivers/STM32WLxx_HAL_Driver/Src/stm32wlxx_hal_flash_ex.c **** #endif /* DUAL_CORE */
1043:Drivers/STM32WLxx_HAL_Driver/Src/stm32wlxx_hal_flash_ex.c **** 
1044:Drivers/STM32WLxx_HAL_Driver/Src/stm32wlxx_hal_flash_ex.c **** /**
1045:Drivers/STM32WLxx_HAL_Driver/Src/stm32wlxx_hal_flash_ex.c ****   * @brief  Return the FLASH Write Protection Option Bytes value.
1046:Drivers/STM32WLxx_HAL_Driver/Src/stm32wlxx_hal_flash_ex.c ****   * @param[in]   WRPArea Specifies the area to be returned.
1047:Drivers/STM32WLxx_HAL_Driver/Src/stm32wlxx_hal_flash_ex.c ****   *              This parameter can be one of the following values:
1048:Drivers/STM32WLxx_HAL_Driver/Src/stm32wlxx_hal_flash_ex.c ****   *              @arg @ref OB_WRPAREA_BANK1_AREAA Flash Bank 1 Area A
1049:Drivers/STM32WLxx_HAL_Driver/Src/stm32wlxx_hal_flash_ex.c ****   *              @arg @ref OB_WRPAREA_BANK1_AREAB Flash Bank 1 Area B
1050:Drivers/STM32WLxx_HAL_Driver/Src/stm32wlxx_hal_flash_ex.c ****   * @param[out]  WRPStartOffset Specifies the address where to copied the start page
1051:Drivers/STM32WLxx_HAL_Driver/Src/stm32wlxx_hal_flash_ex.c ****   *                             of the write protected area
1052:Drivers/STM32WLxx_HAL_Driver/Src/stm32wlxx_hal_flash_ex.c ****   * @param[out]  WRDPEndOffset Specifies the address where to copied the end page of
1053:Drivers/STM32WLxx_HAL_Driver/Src/stm32wlxx_hal_flash_ex.c ****   *                            the write protected area
1054:Drivers/STM32WLxx_HAL_Driver/Src/stm32wlxx_hal_flash_ex.c ****   * @retval None
1055:Drivers/STM32WLxx_HAL_Driver/Src/stm32wlxx_hal_flash_ex.c ****   */
1056:Drivers/STM32WLxx_HAL_Driver/Src/stm32wlxx_hal_flash_ex.c **** static void FLASH_OB_GetWRP(uint32_t WRPArea, uint32_t *WRPStartOffset, uint32_t *WRDPEndOffset)
1057:Drivers/STM32WLxx_HAL_Driver/Src/stm32wlxx_hal_flash_ex.c **** {
 436              		.loc 1 1057 1 is_stmt 1 view -0
 437              		.cfi_startproc
 438              		@ args = 0, pretend = 0, frame = 0
 439              		@ frame_needed = 0, uses_anonymous_args = 0
 440              		@ link register save eliminated.
1058:Drivers/STM32WLxx_HAL_Driver/Src/stm32wlxx_hal_flash_ex.c ****   /* Check the parameters */
1059:Drivers/STM32WLxx_HAL_Driver/Src/stm32wlxx_hal_flash_ex.c ****   assert_param(IS_OB_WRPAREA(WRPArea));
 441              		.loc 1 1059 3 view .LVU108
1060:Drivers/STM32WLxx_HAL_Driver/Src/stm32wlxx_hal_flash_ex.c **** 
1061:Drivers/STM32WLxx_HAL_Driver/Src/stm32wlxx_hal_flash_ex.c ****   /* Get the configuration of the write protected area */
1062:Drivers/STM32WLxx_HAL_Driver/Src/stm32wlxx_hal_flash_ex.c ****   if (WRPArea == OB_WRPAREA_BANK1_AREAA)
 442              		.loc 1 1062 3 view .LVU109
 443              		.loc 1 1062 6 is_stmt 0 view .LVU110
 444 0000 48B9     		cbnz	r0, .L40
1063:Drivers/STM32WLxx_HAL_Driver/Src/stm32wlxx_hal_flash_ex.c ****   {
1064:Drivers/STM32WLxx_HAL_Driver/Src/stm32wlxx_hal_flash_ex.c ****     *WRPStartOffset = READ_BIT(FLASH->WRP1AR, FLASH_WRP1AR_WRP1A_STRT);
 445              		.loc 1 1064 5 is_stmt 1 view .LVU111
 446              		.loc 1 1064 23 is_stmt 0 view .LVU112
 447 0002 0A48     		ldr	r0, .L42
 448              	.LVL31:
 449              		.loc 1 1064 23 view .LVU113
 450 0004 C36A     		ldr	r3, [r0, #44]
 451 0006 03F07F03 		and	r3, r3, #127
 452              		.loc 1 1064 21 view .LVU114
 453 000a 0B60     		str	r3, [r1]
1065:Drivers/STM32WLxx_HAL_Driver/Src/stm32wlxx_hal_flash_ex.c ****     *WRDPEndOffset = (READ_BIT(FLASH->WRP1AR, FLASH_WRP1AR_WRP1A_END) >> FLASH_WRP1AR_WRP1A_END_Pos
 454              		.loc 1 1065 5 is_stmt 1 view .LVU115
 455              		.loc 1 1065 23 is_stmt 0 view .LVU116
 456 000c C36A     		ldr	r3, [r0, #44]
 457              		.loc 1 1065 71 view .LVU117
 458 000e C3F30643 		ubfx	r3, r3, #16, #7
 459              		.loc 1 1065 20 view .LVU118
 460 0012 1360     		str	r3, [r2]
 461 0014 7047     		bx	lr
 462              	.LVL32:
 463              	.L40:
1066:Drivers/STM32WLxx_HAL_Driver/Src/stm32wlxx_hal_flash_ex.c ****   }
1067:Drivers/STM32WLxx_HAL_Driver/Src/stm32wlxx_hal_flash_ex.c ****   else /* OB_WRPAREA_BANK1_AREAB */
1068:Drivers/STM32WLxx_HAL_Driver/Src/stm32wlxx_hal_flash_ex.c ****   {
ARM GAS  C:\Users\NATHAN~1\AppData\Local\Temp\cc8eZusg.s 			page 28


1069:Drivers/STM32WLxx_HAL_Driver/Src/stm32wlxx_hal_flash_ex.c ****     *WRPStartOffset = READ_BIT(FLASH->WRP1BR, FLASH_WRP1BR_WRP1B_STRT);
 464              		.loc 1 1069 5 is_stmt 1 view .LVU119
 465              		.loc 1 1069 23 is_stmt 0 view .LVU120
 466 0016 0548     		ldr	r0, .L42
 467              	.LVL33:
 468              		.loc 1 1069 23 view .LVU121
 469 0018 036B     		ldr	r3, [r0, #48]
 470 001a 03F07F03 		and	r3, r3, #127
 471              		.loc 1 1069 21 view .LVU122
 472 001e 0B60     		str	r3, [r1]
1070:Drivers/STM32WLxx_HAL_Driver/Src/stm32wlxx_hal_flash_ex.c ****     *WRDPEndOffset = (READ_BIT(FLASH->WRP1BR, FLASH_WRP1BR_WRP1B_END) >> FLASH_WRP1BR_WRP1B_END_Pos
 473              		.loc 1 1070 5 is_stmt 1 view .LVU123
 474              		.loc 1 1070 23 is_stmt 0 view .LVU124
 475 0020 036B     		ldr	r3, [r0, #48]
 476              		.loc 1 1070 71 view .LVU125
 477 0022 C3F30643 		ubfx	r3, r3, #16, #7
 478              		.loc 1 1070 20 view .LVU126
 479 0026 1360     		str	r3, [r2]
1071:Drivers/STM32WLxx_HAL_Driver/Src/stm32wlxx_hal_flash_ex.c ****   }
1072:Drivers/STM32WLxx_HAL_Driver/Src/stm32wlxx_hal_flash_ex.c **** }
 480              		.loc 1 1072 1 view .LVU127
 481 0028 7047     		bx	lr
 482              	.L43:
 483 002a 00BF     		.align	2
 484              	.L42:
 485 002c 00400058 		.word	1476411392
 486              		.cfi_endproc
 487              	.LFE985:
 489              		.section	.text.FLASH_OB_GetRDP,"ax",%progbits
 490              		.align	1
 491              		.syntax unified
 492              		.thumb
 493              		.thumb_func
 495              	FLASH_OB_GetRDP:
 496              	.LFB986:
1073:Drivers/STM32WLxx_HAL_Driver/Src/stm32wlxx_hal_flash_ex.c **** 
1074:Drivers/STM32WLxx_HAL_Driver/Src/stm32wlxx_hal_flash_ex.c **** /**
1075:Drivers/STM32WLxx_HAL_Driver/Src/stm32wlxx_hal_flash_ex.c ****   * @brief  Return the FLASH Read Protection level.
1076:Drivers/STM32WLxx_HAL_Driver/Src/stm32wlxx_hal_flash_ex.c ****   * @retval FLASH ReadOut Protection Status:
1077:Drivers/STM32WLxx_HAL_Driver/Src/stm32wlxx_hal_flash_ex.c ****   *         This return value can be one of the following values:
1078:Drivers/STM32WLxx_HAL_Driver/Src/stm32wlxx_hal_flash_ex.c ****   *            @arg @ref OB_RDP_LEVEL_0 No protection
1079:Drivers/STM32WLxx_HAL_Driver/Src/stm32wlxx_hal_flash_ex.c ****   *            @arg @ref OB_RDP_LEVEL_1 Read protection of the memory
1080:Drivers/STM32WLxx_HAL_Driver/Src/stm32wlxx_hal_flash_ex.c ****   *            @arg @ref OB_RDP_LEVEL_2 Full chip protection
1081:Drivers/STM32WLxx_HAL_Driver/Src/stm32wlxx_hal_flash_ex.c ****   */
1082:Drivers/STM32WLxx_HAL_Driver/Src/stm32wlxx_hal_flash_ex.c **** static uint32_t FLASH_OB_GetRDP(void)
1083:Drivers/STM32WLxx_HAL_Driver/Src/stm32wlxx_hal_flash_ex.c **** {
 497              		.loc 1 1083 1 is_stmt 1 view -0
 498              		.cfi_startproc
 499              		@ args = 0, pretend = 0, frame = 0
 500              		@ frame_needed = 0, uses_anonymous_args = 0
 501              		@ link register save eliminated.
1084:Drivers/STM32WLxx_HAL_Driver/Src/stm32wlxx_hal_flash_ex.c ****   uint32_t rdplvl = READ_BIT(FLASH->OPTR, FLASH_OPTR_RDP);
 502              		.loc 1 1084 3 view .LVU129
 503              		.loc 1 1084 21 is_stmt 0 view .LVU130
 504 0000 044B     		ldr	r3, .L47
 505 0002 186A     		ldr	r0, [r3, #32]
 506              		.loc 1 1084 12 view .LVU131
ARM GAS  C:\Users\NATHAN~1\AppData\Local\Temp\cc8eZusg.s 			page 29


 507 0004 C0B2     		uxtb	r0, r0
 508              	.LVL34:
1085:Drivers/STM32WLxx_HAL_Driver/Src/stm32wlxx_hal_flash_ex.c **** 
1086:Drivers/STM32WLxx_HAL_Driver/Src/stm32wlxx_hal_flash_ex.c ****   if ((rdplvl != OB_RDP_LEVEL_0) && (rdplvl != OB_RDP_LEVEL_2))
 509              		.loc 1 1086 3 is_stmt 1 view .LVU132
 510              		.loc 1 1086 6 is_stmt 0 view .LVU133
 511 0006 AA28     		cmp	r0, #170
 512 0008 02D0     		beq	.L44
 513              		.loc 1 1086 34 discriminator 1 view .LVU134
 514 000a CC28     		cmp	r0, #204
 515 000c 00D0     		beq	.L44
1087:Drivers/STM32WLxx_HAL_Driver/Src/stm32wlxx_hal_flash_ex.c ****   {
1088:Drivers/STM32WLxx_HAL_Driver/Src/stm32wlxx_hal_flash_ex.c ****     return (OB_RDP_LEVEL_1);
 516              		.loc 1 1088 12 view .LVU135
 517 000e BB20     		movs	r0, #187
 518              	.LVL35:
 519              	.L44:
1089:Drivers/STM32WLxx_HAL_Driver/Src/stm32wlxx_hal_flash_ex.c ****   }
1090:Drivers/STM32WLxx_HAL_Driver/Src/stm32wlxx_hal_flash_ex.c ****   else
1091:Drivers/STM32WLxx_HAL_Driver/Src/stm32wlxx_hal_flash_ex.c ****   {
1092:Drivers/STM32WLxx_HAL_Driver/Src/stm32wlxx_hal_flash_ex.c ****     return rdplvl;
1093:Drivers/STM32WLxx_HAL_Driver/Src/stm32wlxx_hal_flash_ex.c ****   }
1094:Drivers/STM32WLxx_HAL_Driver/Src/stm32wlxx_hal_flash_ex.c **** }
 520              		.loc 1 1094 1 view .LVU136
 521 0010 7047     		bx	lr
 522              	.L48:
 523 0012 00BF     		.align	2
 524              	.L47:
 525 0014 00400058 		.word	1476411392
 526              		.cfi_endproc
 527              	.LFE986:
 529              		.section	.text.FLASH_OB_GetUser,"ax",%progbits
 530              		.align	1
 531              		.syntax unified
 532              		.thumb
 533              		.thumb_func
 535              	FLASH_OB_GetUser:
 536              	.LFB987:
1095:Drivers/STM32WLxx_HAL_Driver/Src/stm32wlxx_hal_flash_ex.c **** 
1096:Drivers/STM32WLxx_HAL_Driver/Src/stm32wlxx_hal_flash_ex.c **** #if defined(DUAL_CORE) /* Comment duplicated for Document generation */
1097:Drivers/STM32WLxx_HAL_Driver/Src/stm32wlxx_hal_flash_ex.c **** /**
1098:Drivers/STM32WLxx_HAL_Driver/Src/stm32wlxx_hal_flash_ex.c ****   * @brief  Return the FLASH User Option Byte value.
1099:Drivers/STM32WLxx_HAL_Driver/Src/stm32wlxx_hal_flash_ex.c ****   * @retval This return value can be a combination of all the following values:
1100:Drivers/STM32WLxx_HAL_Driver/Src/stm32wlxx_hal_flash_ex.c ****   *         @arg @ref OB_BOR_LEVEL_0 or @ref OB_BOR_LEVEL_1 or ... or @ref OB_BOR_LEVEL_4
1101:Drivers/STM32WLxx_HAL_Driver/Src/stm32wlxx_hal_flash_ex.c ****   *         @arg @ref OB_STOP_RST or @ref OB_STOP_RST
1102:Drivers/STM32WLxx_HAL_Driver/Src/stm32wlxx_hal_flash_ex.c ****   *         @arg @ref OB_STANDBY_RST or @ref OB_STANDBY_NORST
1103:Drivers/STM32WLxx_HAL_Driver/Src/stm32wlxx_hal_flash_ex.c ****   *         @arg @ref OB_SHUTDOWN_RST or @ref OB_SHUTDOWN_NORST
1104:Drivers/STM32WLxx_HAL_Driver/Src/stm32wlxx_hal_flash_ex.c ****   *         @arg @ref OB_IWDG_SW or @ref OB_IWDG_HW
1105:Drivers/STM32WLxx_HAL_Driver/Src/stm32wlxx_hal_flash_ex.c ****   *         @arg @ref OB_IWDG_STOP_FREEZE or @ref OB_IWDG_STOP_RUN
1106:Drivers/STM32WLxx_HAL_Driver/Src/stm32wlxx_hal_flash_ex.c ****   *         @arg @ref OB_IWDG_STDBY_FREEZE or @ref OB_IWDG_STDBY_RUN
1107:Drivers/STM32WLxx_HAL_Driver/Src/stm32wlxx_hal_flash_ex.c ****   *         @arg @ref OB_WWDG_SW or @ref OB_WWDG_HW
1108:Drivers/STM32WLxx_HAL_Driver/Src/stm32wlxx_hal_flash_ex.c ****   *         @arg @ref OB_BOOT1_RESET or @ref OB_BOOT1_SET
1109:Drivers/STM32WLxx_HAL_Driver/Src/stm32wlxx_hal_flash_ex.c ****   *         @arg @ref OB_SRAM2_PARITY_ENABLE or @ref OB_SRAM2_PARITY_DISABLE
1110:Drivers/STM32WLxx_HAL_Driver/Src/stm32wlxx_hal_flash_ex.c ****   *         @arg @ref OB_SRAM_RST_ERASE or @ref OB_SRAM_RST_NOT_ERASE
1111:Drivers/STM32WLxx_HAL_Driver/Src/stm32wlxx_hal_flash_ex.c ****   *         @arg @ref OB_BOOT0_FROM_OB or @ref OB_BOOT0_FROM_PIN
1112:Drivers/STM32WLxx_HAL_Driver/Src/stm32wlxx_hal_flash_ex.c ****   *         @arg @ref OB_BOOT0_RESET or @ref OB_BOOT0_SET
1113:Drivers/STM32WLxx_HAL_Driver/Src/stm32wlxx_hal_flash_ex.c ****   *         @arg @ref OB_BOOT_LOCK_DISABLE or @ref OB_BOOT_LOCK_ENABLE
ARM GAS  C:\Users\NATHAN~1\AppData\Local\Temp\cc8eZusg.s 			page 30


1114:Drivers/STM32WLxx_HAL_Driver/Src/stm32wlxx_hal_flash_ex.c ****   *         @arg @ref OB_C2BOOT_LOCK_DISABLE or @ref OB_C2BOOT_LOCK_ENABLE
1115:Drivers/STM32WLxx_HAL_Driver/Src/stm32wlxx_hal_flash_ex.c ****   */
1116:Drivers/STM32WLxx_HAL_Driver/Src/stm32wlxx_hal_flash_ex.c **** #else
1117:Drivers/STM32WLxx_HAL_Driver/Src/stm32wlxx_hal_flash_ex.c **** /**
1118:Drivers/STM32WLxx_HAL_Driver/Src/stm32wlxx_hal_flash_ex.c ****   * @brief  Return the FLASH User Option Byte value.
1119:Drivers/STM32WLxx_HAL_Driver/Src/stm32wlxx_hal_flash_ex.c ****   * @retval This return value can be a combination of all the following values:
1120:Drivers/STM32WLxx_HAL_Driver/Src/stm32wlxx_hal_flash_ex.c ****   *         @arg @ref OB_BOR_LEVEL_0 or @ref OB_BOR_LEVEL_1 or ... or @ref OB_BOR_LEVEL_4
1121:Drivers/STM32WLxx_HAL_Driver/Src/stm32wlxx_hal_flash_ex.c ****   *         @arg @ref OB_STOP_RST or @ref OB_STOP_RST
1122:Drivers/STM32WLxx_HAL_Driver/Src/stm32wlxx_hal_flash_ex.c ****   *         @arg @ref OB_STANDBY_RST or @ref OB_STANDBY_NORST
1123:Drivers/STM32WLxx_HAL_Driver/Src/stm32wlxx_hal_flash_ex.c ****   *         @arg @ref OB_SHUTDOWN_RST or @ref OB_SHUTDOWN_NORST
1124:Drivers/STM32WLxx_HAL_Driver/Src/stm32wlxx_hal_flash_ex.c ****   *         @arg @ref OB_IWDG_SW or @ref OB_IWDG_HW
1125:Drivers/STM32WLxx_HAL_Driver/Src/stm32wlxx_hal_flash_ex.c ****   *         @arg @ref OB_IWDG_STOP_FREEZE or @ref OB_IWDG_STOP_RUN
1126:Drivers/STM32WLxx_HAL_Driver/Src/stm32wlxx_hal_flash_ex.c ****   *         @arg @ref OB_IWDG_STDBY_FREEZE or @ref OB_IWDG_STDBY_RUN
1127:Drivers/STM32WLxx_HAL_Driver/Src/stm32wlxx_hal_flash_ex.c ****   *         @arg @ref OB_WWDG_SW or @ref OB_WWDG_HW
1128:Drivers/STM32WLxx_HAL_Driver/Src/stm32wlxx_hal_flash_ex.c ****   *         @arg @ref OB_BOOT1_RESET or @ref OB_BOOT1_SET
1129:Drivers/STM32WLxx_HAL_Driver/Src/stm32wlxx_hal_flash_ex.c ****   *         @arg @ref OB_SRAM2_PARITY_ENABLE or @ref OB_SRAM2_PARITY_DISABLE
1130:Drivers/STM32WLxx_HAL_Driver/Src/stm32wlxx_hal_flash_ex.c ****   *         @arg @ref OB_SRAM_RST_ERASE or @ref OB_SRAM_RST_NOT_ERASE
1131:Drivers/STM32WLxx_HAL_Driver/Src/stm32wlxx_hal_flash_ex.c ****   *         @arg @ref OB_BOOT0_FROM_OB or @ref OB_BOOT0_FROM_PIN
1132:Drivers/STM32WLxx_HAL_Driver/Src/stm32wlxx_hal_flash_ex.c ****   *         @arg @ref OB_BOOT0_RESET or @ref OB_BOOT0_SET
1133:Drivers/STM32WLxx_HAL_Driver/Src/stm32wlxx_hal_flash_ex.c ****   *         @arg @ref OB_BOOT_LOCK_DISABLE or @ref OB_BOOT_LOCK_ENABLE
1134:Drivers/STM32WLxx_HAL_Driver/Src/stm32wlxx_hal_flash_ex.c ****   */
1135:Drivers/STM32WLxx_HAL_Driver/Src/stm32wlxx_hal_flash_ex.c **** #endif
1136:Drivers/STM32WLxx_HAL_Driver/Src/stm32wlxx_hal_flash_ex.c **** static uint32_t FLASH_OB_GetUser(void)
1137:Drivers/STM32WLxx_HAL_Driver/Src/stm32wlxx_hal_flash_ex.c **** {
 537              		.loc 1 1137 1 is_stmt 1 view -0
 538              		.cfi_startproc
 539              		@ args = 0, pretend = 0, frame = 0
 540              		@ frame_needed = 0, uses_anonymous_args = 0
 541              		@ link register save eliminated.
1138:Drivers/STM32WLxx_HAL_Driver/Src/stm32wlxx_hal_flash_ex.c ****   uint32_t user_config = (READ_REG(FLASH->OPTR) & OB_USER_ALL);
 542              		.loc 1 1138 3 view .LVU138
 543              		.loc 1 1138 27 is_stmt 0 view .LVU139
 544 0000 024B     		ldr	r3, .L50
 545 0002 1B6A     		ldr	r3, [r3, #32]
 546              	.LVL36:
1139:Drivers/STM32WLxx_HAL_Driver/Src/stm32wlxx_hal_flash_ex.c ****   CLEAR_BIT(user_config, (FLASH_OPTR_RDP | FLASH_OPTR_ESE));
 547              		.loc 1 1139 3 is_stmt 1 view .LVU140
1140:Drivers/STM32WLxx_HAL_Driver/Src/stm32wlxx_hal_flash_ex.c **** 
1141:Drivers/STM32WLxx_HAL_Driver/Src/stm32wlxx_hal_flash_ex.c ****   return user_config;
 548              		.loc 1 1141 3 view .LVU141
1142:Drivers/STM32WLxx_HAL_Driver/Src/stm32wlxx_hal_flash_ex.c **** }
 549              		.loc 1 1142 1 is_stmt 0 view .LVU142
 550 0004 0248     		ldr	r0, .L50+4
 551 0006 1840     		ands	r0, r0, r3
 552              	.LVL37:
 553              		.loc 1 1142 1 view .LVU143
 554 0008 7047     		bx	lr
 555              	.L51:
 556 000a 00BF     		.align	2
 557              	.L50:
 558 000c 00400058 		.word	1476411392
 559 0010 007E8F4F 		.word	1334803968
 560              		.cfi_endproc
 561              	.LFE987:
 563              		.section	.text.FLASH_OB_GetPCROP,"ax",%progbits
 564              		.align	1
 565              		.syntax unified
ARM GAS  C:\Users\NATHAN~1\AppData\Local\Temp\cc8eZusg.s 			page 31


 566              		.thumb
 567              		.thumb_func
 569              	FLASH_OB_GetPCROP:
 570              	.LVL38:
 571              	.LFB988:
1143:Drivers/STM32WLxx_HAL_Driver/Src/stm32wlxx_hal_flash_ex.c **** 
1144:Drivers/STM32WLxx_HAL_Driver/Src/stm32wlxx_hal_flash_ex.c **** /**
1145:Drivers/STM32WLxx_HAL_Driver/Src/stm32wlxx_hal_flash_ex.c ****   * @brief  Return the FLASH Write Protection Option Bytes value.
1146:Drivers/STM32WLxx_HAL_Driver/Src/stm32wlxx_hal_flash_ex.c ****   * @param PCROPConfig [out] Specifies the address where to copied the configuration of PCROP_RDP o
1147:Drivers/STM32WLxx_HAL_Driver/Src/stm32wlxx_hal_flash_ex.c ****   * @param PCROP1AStartAddr [out] Specifies the address where to copied the start address
1148:Drivers/STM32WLxx_HAL_Driver/Src/stm32wlxx_hal_flash_ex.c ****   *                         of the Zone 1A Proprietary code readout protection
1149:Drivers/STM32WLxx_HAL_Driver/Src/stm32wlxx_hal_flash_ex.c ****   * @param PCROP1AEndAddr [out] Specifies the address where to copied the end address of
1150:Drivers/STM32WLxx_HAL_Driver/Src/stm32wlxx_hal_flash_ex.c ****   *                       the Zone 1A Proprietary code readout protection
1151:Drivers/STM32WLxx_HAL_Driver/Src/stm32wlxx_hal_flash_ex.c ****   * @param PCROP1BStartAddr [out] Specifies the address where to copied the start address
1152:Drivers/STM32WLxx_HAL_Driver/Src/stm32wlxx_hal_flash_ex.c ****   *                         of the Zone 1B Proprietary code readout protection
1153:Drivers/STM32WLxx_HAL_Driver/Src/stm32wlxx_hal_flash_ex.c ****   * @param PCROP1BEndAddr [out] Specifies the address where to copied the end address of
1154:Drivers/STM32WLxx_HAL_Driver/Src/stm32wlxx_hal_flash_ex.c ****   *                       the Zone 1B Proprietary code readout protection
1155:Drivers/STM32WLxx_HAL_Driver/Src/stm32wlxx_hal_flash_ex.c ****   * @retval None
1156:Drivers/STM32WLxx_HAL_Driver/Src/stm32wlxx_hal_flash_ex.c ****   */
1157:Drivers/STM32WLxx_HAL_Driver/Src/stm32wlxx_hal_flash_ex.c **** static void FLASH_OB_GetPCROP(uint32_t *PCROPConfig, uint32_t *PCROP1AStartAddr, uint32_t *PCROP1AE
1158:Drivers/STM32WLxx_HAL_Driver/Src/stm32wlxx_hal_flash_ex.c **** {
 572              		.loc 1 1158 1 is_stmt 1 view -0
 573              		.cfi_startproc
 574              		@ args = 4, pretend = 0, frame = 0
 575              		@ frame_needed = 0, uses_anonymous_args = 0
 576              		@ link register save eliminated.
 577              		.loc 1 1158 1 is_stmt 0 view .LVU145
 578 0000 30B4     		push	{r4, r5}
 579              	.LCFI6:
 580              		.cfi_def_cfa_offset 8
 581              		.cfi_offset 4, -8
 582              		.cfi_offset 5, -4
1159:Drivers/STM32WLxx_HAL_Driver/Src/stm32wlxx_hal_flash_ex.c ****   uint32_t pcrop;
 583              		.loc 1 1159 3 is_stmt 1 view .LVU146
1160:Drivers/STM32WLxx_HAL_Driver/Src/stm32wlxx_hal_flash_ex.c **** 
1161:Drivers/STM32WLxx_HAL_Driver/Src/stm32wlxx_hal_flash_ex.c ****   pcrop             = (READ_BIT(FLASH->PCROP1BSR, FLASH_PCROP1BSR_PCROP1B_STRT));
 584              		.loc 1 1161 3 view .LVU147
 585              		.loc 1 1161 24 is_stmt 0 view .LVU148
 586 0002 124C     		ldr	r4, .L54
 587 0004 656B     		ldr	r5, [r4, #52]
 588              	.LVL39:
1162:Drivers/STM32WLxx_HAL_Driver/Src/stm32wlxx_hal_flash_ex.c ****   *PCROP1BStartAddr = ((pcrop << FLASH_PCROP_GRANULARITY_OFFSET) + FLASH_BASE);
 589              		.loc 1 1162 3 is_stmt 1 view .LVU149
 590              		.loc 1 1162 31 is_stmt 0 view .LVU150
 591 0006 AD02     		lsls	r5, r5, #10
 592              	.LVL40:
 593              		.loc 1 1162 31 view .LVU151
 594 0008 05F47F35 		and	r5, r5, #261120
 595              		.loc 1 1162 66 view .LVU152
 596 000c 05F10065 		add	r5, r5, #134217728
 597              		.loc 1 1162 21 view .LVU153
 598 0010 1D60     		str	r5, [r3]
1163:Drivers/STM32WLxx_HAL_Driver/Src/stm32wlxx_hal_flash_ex.c **** 
1164:Drivers/STM32WLxx_HAL_Driver/Src/stm32wlxx_hal_flash_ex.c ****   pcrop             = (READ_BIT(FLASH->PCROP1BER, FLASH_PCROP1BER_PCROP1B_END));
 599              		.loc 1 1164 3 is_stmt 1 view .LVU154
 600              		.loc 1 1164 24 is_stmt 0 view .LVU155
 601 0012 A36B     		ldr	r3, [r4, #56]
ARM GAS  C:\Users\NATHAN~1\AppData\Local\Temp\cc8eZusg.s 			page 32


 602              	.LVL41:
1165:Drivers/STM32WLxx_HAL_Driver/Src/stm32wlxx_hal_flash_ex.c ****   *PCROP1BEndAddr   = ((pcrop << FLASH_PCROP_GRANULARITY_OFFSET) + FLASH_BASE);
 603              		.loc 1 1165 3 is_stmt 1 view .LVU156
 604              		.loc 1 1165 31 is_stmt 0 view .LVU157
 605 0014 9B02     		lsls	r3, r3, #10
 606              	.LVL42:
 607              		.loc 1 1165 31 view .LVU158
 608 0016 03F47F33 		and	r3, r3, #261120
 609              		.loc 1 1165 66 view .LVU159
 610 001a 03F10063 		add	r3, r3, #134217728
 611              		.loc 1 1165 21 view .LVU160
 612 001e 029D     		ldr	r5, [sp, #8]
 613 0020 2B60     		str	r3, [r5]
1166:Drivers/STM32WLxx_HAL_Driver/Src/stm32wlxx_hal_flash_ex.c **** 
1167:Drivers/STM32WLxx_HAL_Driver/Src/stm32wlxx_hal_flash_ex.c ****   pcrop             = (READ_BIT(FLASH->PCROP1ASR, FLASH_PCROP1ASR_PCROP1A_STRT));
 614              		.loc 1 1167 3 is_stmt 1 view .LVU161
 615              		.loc 1 1167 24 is_stmt 0 view .LVU162
 616 0022 636A     		ldr	r3, [r4, #36]
 617              	.LVL43:
1168:Drivers/STM32WLxx_HAL_Driver/Src/stm32wlxx_hal_flash_ex.c ****   *PCROP1AStartAddr = ((pcrop << FLASH_PCROP_GRANULARITY_OFFSET) + FLASH_BASE);
 618              		.loc 1 1168 3 is_stmt 1 view .LVU163
 619              		.loc 1 1168 31 is_stmt 0 view .LVU164
 620 0024 9B02     		lsls	r3, r3, #10
 621              	.LVL44:
 622              		.loc 1 1168 31 view .LVU165
 623 0026 03F47F33 		and	r3, r3, #261120
 624              		.loc 1 1168 66 view .LVU166
 625 002a 03F10063 		add	r3, r3, #134217728
 626              		.loc 1 1168 21 view .LVU167
 627 002e 0B60     		str	r3, [r1]
1169:Drivers/STM32WLxx_HAL_Driver/Src/stm32wlxx_hal_flash_ex.c **** 
1170:Drivers/STM32WLxx_HAL_Driver/Src/stm32wlxx_hal_flash_ex.c ****   pcrop             = (READ_BIT(FLASH->PCROP1AER, FLASH_PCROP1AER_PCROP1A_END));
 628              		.loc 1 1170 3 is_stmt 1 view .LVU168
 629              		.loc 1 1170 24 is_stmt 0 view .LVU169
 630 0030 A36A     		ldr	r3, [r4, #40]
 631              	.LVL45:
1171:Drivers/STM32WLxx_HAL_Driver/Src/stm32wlxx_hal_flash_ex.c ****   *PCROP1AEndAddr   = ((pcrop << FLASH_PCROP_GRANULARITY_OFFSET) + FLASH_BASE);
 632              		.loc 1 1171 3 is_stmt 1 view .LVU170
 633              		.loc 1 1171 31 is_stmt 0 view .LVU171
 634 0032 9B02     		lsls	r3, r3, #10
 635              	.LVL46:
 636              		.loc 1 1171 31 view .LVU172
 637 0034 03F47F33 		and	r3, r3, #261120
 638              		.loc 1 1171 66 view .LVU173
 639 0038 03F10063 		add	r3, r3, #134217728
 640              		.loc 1 1171 21 view .LVU174
 641 003c 1360     		str	r3, [r2]
1172:Drivers/STM32WLxx_HAL_Driver/Src/stm32wlxx_hal_flash_ex.c **** 
1173:Drivers/STM32WLxx_HAL_Driver/Src/stm32wlxx_hal_flash_ex.c ****   *PCROPConfig      = (READ_REG(FLASH->PCROP1AER) & FLASH_PCROP1AER_PCROP_RDP);
 642              		.loc 1 1173 3 is_stmt 1 view .LVU175
 643              		.loc 1 1173 24 is_stmt 0 view .LVU176
 644 003e A36A     		ldr	r3, [r4, #40]
 645              		.loc 1 1173 51 view .LVU177
 646 0040 03F00043 		and	r3, r3, #-2147483648
 647              		.loc 1 1173 21 view .LVU178
 648 0044 0360     		str	r3, [r0]
1174:Drivers/STM32WLxx_HAL_Driver/Src/stm32wlxx_hal_flash_ex.c **** }
ARM GAS  C:\Users\NATHAN~1\AppData\Local\Temp\cc8eZusg.s 			page 33


 649              		.loc 1 1174 1 view .LVU179
 650 0046 30BC     		pop	{r4, r5}
 651              	.LCFI7:
 652              		.cfi_restore 5
 653              		.cfi_restore 4
 654              		.cfi_def_cfa_offset 0
 655              	.LVL47:
 656              		.loc 1 1174 1 view .LVU180
 657 0048 7047     		bx	lr
 658              	.L55:
 659 004a 00BF     		.align	2
 660              	.L54:
 661 004c 00400058 		.word	1476411392
 662              		.cfi_endproc
 663              	.LFE988:
 665              		.section	.text.FLASH_OB_ProceedWriteOperation,"ax",%progbits
 666              		.align	1
 667              		.syntax unified
 668              		.thumb
 669              		.thumb_func
 671              	FLASH_OB_ProceedWriteOperation:
 672              	.LFB989:
1175:Drivers/STM32WLxx_HAL_Driver/Src/stm32wlxx_hal_flash_ex.c **** 
1176:Drivers/STM32WLxx_HAL_Driver/Src/stm32wlxx_hal_flash_ex.c **** #if defined(DUAL_CORE)
1177:Drivers/STM32WLxx_HAL_Driver/Src/stm32wlxx_hal_flash_ex.c **** /**
1178:Drivers/STM32WLxx_HAL_Driver/Src/stm32wlxx_hal_flash_ex.c ****   * @brief  Return the FLASH IPCC data buffer base address Option Byte value.
1179:Drivers/STM32WLxx_HAL_Driver/Src/stm32wlxx_hal_flash_ex.c ****   * @retval Returned value is the address where to copied the IPCC data buffer address.
1180:Drivers/STM32WLxx_HAL_Driver/Src/stm32wlxx_hal_flash_ex.c ****   *           Value return between Min_Data = 0x0 and Max_Data = 0x3FFF
1181:Drivers/STM32WLxx_HAL_Driver/Src/stm32wlxx_hal_flash_ex.c ****   *           This value correspond to the first double-word of the IPCC mailbox data buffer area
1182:Drivers/STM32WLxx_HAL_Driver/Src/stm32wlxx_hal_flash_ex.c ****   *           in SRAM starting from 0x20000000 (SRAM1 start address to SRAM2 end address).
1183:Drivers/STM32WLxx_HAL_Driver/Src/stm32wlxx_hal_flash_ex.c ****   */
1184:Drivers/STM32WLxx_HAL_Driver/Src/stm32wlxx_hal_flash_ex.c **** static uint32_t FLASH_OB_GetIPCCBufferAddr(void)
1185:Drivers/STM32WLxx_HAL_Driver/Src/stm32wlxx_hal_flash_ex.c **** {
1186:Drivers/STM32WLxx_HAL_Driver/Src/stm32wlxx_hal_flash_ex.c ****   return (uint32_t)((READ_BIT(FLASH->IPCCBR, FLASH_IPCCBR_IPCCDBA) << 4) + SRAM1_BASE);
1187:Drivers/STM32WLxx_HAL_Driver/Src/stm32wlxx_hal_flash_ex.c **** }
1188:Drivers/STM32WLxx_HAL_Driver/Src/stm32wlxx_hal_flash_ex.c **** 
1189:Drivers/STM32WLxx_HAL_Driver/Src/stm32wlxx_hal_flash_ex.c **** /**
1190:Drivers/STM32WLxx_HAL_Driver/Src/stm32wlxx_hal_flash_ex.c ****   * @brief  Return the Secure Flash start address, Secure Hide Protection Area start address, Secur
1191:Drivers/STM32WLxx_HAL_Driver/Src/stm32wlxx_hal_flash_ex.c ****   *                     Secure non-Backup SRAM1 start address and the SecureMode
1192:Drivers/STM32WLxx_HAL_Driver/Src/stm32wlxx_hal_flash_ex.c ****   * @param  SecureFlashStartAddr  Specifies the address where to copied the Secure Flash start addr
1193:Drivers/STM32WLxx_HAL_Driver/Src/stm32wlxx_hal_flash_ex.c ****   * @param  HideProtectionStartAddr Specifies the address where to copied the Secure Hide Protectio
1194:Drivers/STM32WLxx_HAL_Driver/Src/stm32wlxx_hal_flash_ex.c ****   * @param  SecureSRAM2StartAddr  Specifies the address where to copied the Secure Backup SRAM2 sta
1195:Drivers/STM32WLxx_HAL_Driver/Src/stm32wlxx_hal_flash_ex.c ****   * @param  SecureSRAM1StartAddr  Specifies the address where to copied the Secure non-Backup SRAM1
1196:Drivers/STM32WLxx_HAL_Driver/Src/stm32wlxx_hal_flash_ex.c ****   * @param  SecureMode            Specifies the Secure area enabled or disabled.
1197:Drivers/STM32WLxx_HAL_Driver/Src/stm32wlxx_hal_flash_ex.c ****   *                               This return value can be one of the following values:
1198:Drivers/STM32WLxx_HAL_Driver/Src/stm32wlxx_hal_flash_ex.c ****   *                               @arg @ref OB_SECURE_SYSTEM_AND_ALL_AREAS_DISABLE : All System Sec
1199:Drivers/STM32WLxx_HAL_Driver/Src/stm32wlxx_hal_flash_ex.c ****   *                               @arg @ref OB_SECURE_SYSTEM_AND_FLASH_ENABLE : Flash Security enab
1200:Drivers/STM32WLxx_HAL_Driver/Src/stm32wlxx_hal_flash_ex.c ****   *                               @arg @ref OB_SECURE_HIDE_PROTECTION_ENABLE : Hide Protection Secu
1201:Drivers/STM32WLxx_HAL_Driver/Src/stm32wlxx_hal_flash_ex.c ****   *                               @arg @ref OB_SECURE_SRAM1_ENABLE : SRAM1 Security enabled
1202:Drivers/STM32WLxx_HAL_Driver/Src/stm32wlxx_hal_flash_ex.c ****   *                               @arg @ref OB_SECURE_SRAM2_ENABLE : SRAM2 Security enabled
1203:Drivers/STM32WLxx_HAL_Driver/Src/stm32wlxx_hal_flash_ex.c ****   *                               @arg @ref OB_SECURE_SYSTEM_AND_FLASH_DISABLE : Flash Security dis
1204:Drivers/STM32WLxx_HAL_Driver/Src/stm32wlxx_hal_flash_ex.c ****   *                               @arg @ref OB_SECURE_HIDE_PROTECTION_DISABLE : Hide Protection Sec
1205:Drivers/STM32WLxx_HAL_Driver/Src/stm32wlxx_hal_flash_ex.c ****   *                               @arg @ref OB_SECURE_SRAM1_DISABLE : SRAM1 Security disabled
1206:Drivers/STM32WLxx_HAL_Driver/Src/stm32wlxx_hal_flash_ex.c ****   *                               @arg @ref OB_SECURE_SRAM2_DISABLE : SRAM2 Security disabled
1207:Drivers/STM32WLxx_HAL_Driver/Src/stm32wlxx_hal_flash_ex.c ****   *                               @arg @ref OB_SECURE_SYSTEM_AND_ALL_AREAS_ENABLE : All System Secu
1208:Drivers/STM32WLxx_HAL_Driver/Src/stm32wlxx_hal_flash_ex.c ****   * @retval None
1209:Drivers/STM32WLxx_HAL_Driver/Src/stm32wlxx_hal_flash_ex.c ****   */
ARM GAS  C:\Users\NATHAN~1\AppData\Local\Temp\cc8eZusg.s 			page 34


1210:Drivers/STM32WLxx_HAL_Driver/Src/stm32wlxx_hal_flash_ex.c **** static void FLASH_OB_GetSecureMemoryConfig(uint32_t *SecureFlashStartAddr, uint32_t *HideProtection
1211:Drivers/STM32WLxx_HAL_Driver/Src/stm32wlxx_hal_flash_ex.c **** {
1212:Drivers/STM32WLxx_HAL_Driver/Src/stm32wlxx_hal_flash_ex.c ****   uint32_t sfr_reg_val = READ_REG(FLASH->SFR);
1213:Drivers/STM32WLxx_HAL_Driver/Src/stm32wlxx_hal_flash_ex.c ****   uint32_t srrvr_reg_val = READ_REG(FLASH->SRRVR);
1214:Drivers/STM32WLxx_HAL_Driver/Src/stm32wlxx_hal_flash_ex.c **** 
1215:Drivers/STM32WLxx_HAL_Driver/Src/stm32wlxx_hal_flash_ex.c ****   /* Get Secure Flash start address */
1216:Drivers/STM32WLxx_HAL_Driver/Src/stm32wlxx_hal_flash_ex.c ****   uint32_t user_config = (READ_BIT(sfr_reg_val, FLASH_SFR_SFSA) >> FLASH_SFR_SFSA_Pos);
1217:Drivers/STM32WLxx_HAL_Driver/Src/stm32wlxx_hal_flash_ex.c **** 
1218:Drivers/STM32WLxx_HAL_Driver/Src/stm32wlxx_hal_flash_ex.c ****   *SecureFlashStartAddr = ((user_config * FLASH_PAGE_SIZE) + FLASH_BASE);
1219:Drivers/STM32WLxx_HAL_Driver/Src/stm32wlxx_hal_flash_ex.c **** 
1220:Drivers/STM32WLxx_HAL_Driver/Src/stm32wlxx_hal_flash_ex.c ****   /* Get Hide Protection Area start address */
1221:Drivers/STM32WLxx_HAL_Driver/Src/stm32wlxx_hal_flash_ex.c ****   user_config = (READ_BIT(sfr_reg_val, FLASH_SFR_HDPSA) >> FLASH_SFR_HDPSA_Pos);
1222:Drivers/STM32WLxx_HAL_Driver/Src/stm32wlxx_hal_flash_ex.c **** 
1223:Drivers/STM32WLxx_HAL_Driver/Src/stm32wlxx_hal_flash_ex.c ****   *HideProtectionStartAddr = ((user_config * FLASH_PAGE_SIZE) + FLASH_BASE);
1224:Drivers/STM32WLxx_HAL_Driver/Src/stm32wlxx_hal_flash_ex.c **** 
1225:Drivers/STM32WLxx_HAL_Driver/Src/stm32wlxx_hal_flash_ex.c ****   /* Get Secure SRAM2 start address */
1226:Drivers/STM32WLxx_HAL_Driver/Src/stm32wlxx_hal_flash_ex.c ****   user_config = (READ_BIT(srrvr_reg_val, FLASH_SRRVR_SBRSA) >> FLASH_SRRVR_SBRSA_Pos);
1227:Drivers/STM32WLxx_HAL_Driver/Src/stm32wlxx_hal_flash_ex.c **** 
1228:Drivers/STM32WLxx_HAL_Driver/Src/stm32wlxx_hal_flash_ex.c ****   *SecureSRAM2StartAddr = ((user_config << SRAM_SECURE_PAGE_GRANULARITY_OFFSET) + SRAM2_BASE);
1229:Drivers/STM32WLxx_HAL_Driver/Src/stm32wlxx_hal_flash_ex.c **** 
1230:Drivers/STM32WLxx_HAL_Driver/Src/stm32wlxx_hal_flash_ex.c ****   /* Get Secure SRAM1 start address */
1231:Drivers/STM32WLxx_HAL_Driver/Src/stm32wlxx_hal_flash_ex.c ****   user_config = (READ_BIT(srrvr_reg_val, FLASH_SRRVR_SNBRSA) >> FLASH_SRRVR_SNBRSA_Pos);
1232:Drivers/STM32WLxx_HAL_Driver/Src/stm32wlxx_hal_flash_ex.c **** 
1233:Drivers/STM32WLxx_HAL_Driver/Src/stm32wlxx_hal_flash_ex.c ****   *SecureSRAM1StartAddr = ((user_config << SRAM_SECURE_PAGE_GRANULARITY_OFFSET) + SRAM1_BASE);
1234:Drivers/STM32WLxx_HAL_Driver/Src/stm32wlxx_hal_flash_ex.c **** 
1235:Drivers/STM32WLxx_HAL_Driver/Src/stm32wlxx_hal_flash_ex.c ****   /* Get Secure Area mode */
1236:Drivers/STM32WLxx_HAL_Driver/Src/stm32wlxx_hal_flash_ex.c ****   *SecureMode = (FLASH_OB_GetSecureMode(sfr_reg_val, FLASH_SFR_FSD, OB_SECURE_SYSTEM_AND_FLASH_ENAB
1237:Drivers/STM32WLxx_HAL_Driver/Src/stm32wlxx_hal_flash_ex.c ****                  FLASH_OB_GetSecureMode(sfr_reg_val, FLASH_SFR_HDPAD, OB_SECURE_HIDE_PROTECTION_ENA
1238:Drivers/STM32WLxx_HAL_Driver/Src/stm32wlxx_hal_flash_ex.c ****                  FLASH_OB_GetSecureMode(srrvr_reg_val, FLASH_SRRVR_NBRSD, OB_SECURE_SRAM1_ENABLE, O
1239:Drivers/STM32WLxx_HAL_Driver/Src/stm32wlxx_hal_flash_ex.c ****                  FLASH_OB_GetSecureMode(srrvr_reg_val, FLASH_SRRVR_BRSD, OB_SECURE_SRAM2_ENABLE, OB
1240:Drivers/STM32WLxx_HAL_Driver/Src/stm32wlxx_hal_flash_ex.c **** }
1241:Drivers/STM32WLxx_HAL_Driver/Src/stm32wlxx_hal_flash_ex.c **** 
1242:Drivers/STM32WLxx_HAL_Driver/Src/stm32wlxx_hal_flash_ex.c **** /**
1243:Drivers/STM32WLxx_HAL_Driver/Src/stm32wlxx_hal_flash_ex.c ****   * @brief  Return the CPU2 Secure Boot reset vector address and the CPU2 Secure Boot Region
1244:Drivers/STM32WLxx_HAL_Driver/Src/stm32wlxx_hal_flash_ex.c ****   * @param  C2BootResetVectAddr Specifies the address where to copied the CPU2 Secure Boot reset ve
1245:Drivers/STM32WLxx_HAL_Driver/Src/stm32wlxx_hal_flash_ex.c ****   * @param  C2BootResetRegion   Specifies the Secure Boot reset memory region
1246:Drivers/STM32WLxx_HAL_Driver/Src/stm32wlxx_hal_flash_ex.c ****   * @retval None
1247:Drivers/STM32WLxx_HAL_Driver/Src/stm32wlxx_hal_flash_ex.c ****   */
1248:Drivers/STM32WLxx_HAL_Driver/Src/stm32wlxx_hal_flash_ex.c **** static void FLASH_OB_GetC2BootResetConfig(uint32_t *C2BootResetVectAddr, uint32_t *C2BootResetRegio
1249:Drivers/STM32WLxx_HAL_Driver/Src/stm32wlxx_hal_flash_ex.c **** {
1250:Drivers/STM32WLxx_HAL_Driver/Src/stm32wlxx_hal_flash_ex.c ****   *C2BootResetRegion = (READ_BIT(FLASH->SRRVR, FLASH_SRRVR_C2OPT));
1251:Drivers/STM32WLxx_HAL_Driver/Src/stm32wlxx_hal_flash_ex.c **** 
1252:Drivers/STM32WLxx_HAL_Driver/Src/stm32wlxx_hal_flash_ex.c ****   if (*C2BootResetRegion == OB_C2_BOOT_FROM_FLASH)
1253:Drivers/STM32WLxx_HAL_Driver/Src/stm32wlxx_hal_flash_ex.c ****   {
1254:Drivers/STM32WLxx_HAL_Driver/Src/stm32wlxx_hal_flash_ex.c ****     *C2BootResetVectAddr = (uint32_t)((READ_BIT(FLASH->SRRVR, FLASH_SRRVR_SBRV) << 2) + FLASH_BASE)
1255:Drivers/STM32WLxx_HAL_Driver/Src/stm32wlxx_hal_flash_ex.c ****   }
1256:Drivers/STM32WLxx_HAL_Driver/Src/stm32wlxx_hal_flash_ex.c ****   else
1257:Drivers/STM32WLxx_HAL_Driver/Src/stm32wlxx_hal_flash_ex.c ****   {
1258:Drivers/STM32WLxx_HAL_Driver/Src/stm32wlxx_hal_flash_ex.c ****     *C2BootResetVectAddr = (uint32_t)((READ_BIT(FLASH->SRRVR, FLASH_SRRVR_SBRV) << 2) + SRAM1_BASE)
1259:Drivers/STM32WLxx_HAL_Driver/Src/stm32wlxx_hal_flash_ex.c ****   }
1260:Drivers/STM32WLxx_HAL_Driver/Src/stm32wlxx_hal_flash_ex.c **** }
1261:Drivers/STM32WLxx_HAL_Driver/Src/stm32wlxx_hal_flash_ex.c **** 
1262:Drivers/STM32WLxx_HAL_Driver/Src/stm32wlxx_hal_flash_ex.c **** /**
1263:Drivers/STM32WLxx_HAL_Driver/Src/stm32wlxx_hal_flash_ex.c ****   * @brief  Return the Sub-GHz radio SPI Secure Access mode
1264:Drivers/STM32WLxx_HAL_Driver/Src/stm32wlxx_hal_flash_ex.c ****   * @retval Returned value can be one of the following values:
1265:Drivers/STM32WLxx_HAL_Driver/Src/stm32wlxx_hal_flash_ex.c ****   *           @arg @ref OB_SUBGHZSPI_SECURE_ACCESS_DISABLE : Sub-GHz radio SPI Secure access disabl
1266:Drivers/STM32WLxx_HAL_Driver/Src/stm32wlxx_hal_flash_ex.c ****   *           @arg @ref OB_SUBGHZSPI_SECURE_ACCESS_ENABLE : Sub-GHz radio SPI Secure access enabled
ARM GAS  C:\Users\NATHAN~1\AppData\Local\Temp\cc8eZusg.s 			page 35


1267:Drivers/STM32WLxx_HAL_Driver/Src/stm32wlxx_hal_flash_ex.c ****   */
1268:Drivers/STM32WLxx_HAL_Driver/Src/stm32wlxx_hal_flash_ex.c **** static uint32_t FLASH_OB_GetSUBGHZSPISecureAccess(void)
1269:Drivers/STM32WLxx_HAL_Driver/Src/stm32wlxx_hal_flash_ex.c **** {
1270:Drivers/STM32WLxx_HAL_Driver/Src/stm32wlxx_hal_flash_ex.c ****   return (READ_BIT(FLASH->SFR, FLASH_SFR_SUBGHZSPISD));
1271:Drivers/STM32WLxx_HAL_Driver/Src/stm32wlxx_hal_flash_ex.c **** }
1272:Drivers/STM32WLxx_HAL_Driver/Src/stm32wlxx_hal_flash_ex.c **** 
1273:Drivers/STM32WLxx_HAL_Driver/Src/stm32wlxx_hal_flash_ex.c **** /**
1274:Drivers/STM32WLxx_HAL_Driver/Src/stm32wlxx_hal_flash_ex.c ****   * @brief  Return the CPU2 Debug Access mode
1275:Drivers/STM32WLxx_HAL_Driver/Src/stm32wlxx_hal_flash_ex.c ****   * @retval Returned value can be one of the following values:
1276:Drivers/STM32WLxx_HAL_Driver/Src/stm32wlxx_hal_flash_ex.c ****   *           @arg @ref OB_C2_DEBUG_ACCESS_DISABLE : CPU2 debug access disabled
1277:Drivers/STM32WLxx_HAL_Driver/Src/stm32wlxx_hal_flash_ex.c ****   *           @arg @ref OB_C2_DEBUG_ACCESS_ENABLE : CPU2 debug access enabled
1278:Drivers/STM32WLxx_HAL_Driver/Src/stm32wlxx_hal_flash_ex.c ****   */
1279:Drivers/STM32WLxx_HAL_Driver/Src/stm32wlxx_hal_flash_ex.c **** static uint32_t FLASH_OB_GetC2DebugAccessMode(void)
1280:Drivers/STM32WLxx_HAL_Driver/Src/stm32wlxx_hal_flash_ex.c **** {
1281:Drivers/STM32WLxx_HAL_Driver/Src/stm32wlxx_hal_flash_ex.c ****   return (READ_BIT(FLASH->SFR, FLASH_SFR_DDS));
1282:Drivers/STM32WLxx_HAL_Driver/Src/stm32wlxx_hal_flash_ex.c **** }
1283:Drivers/STM32WLxx_HAL_Driver/Src/stm32wlxx_hal_flash_ex.c **** #endif /* DUAL_CORE */
1284:Drivers/STM32WLxx_HAL_Driver/Src/stm32wlxx_hal_flash_ex.c **** 
1285:Drivers/STM32WLxx_HAL_Driver/Src/stm32wlxx_hal_flash_ex.c **** /**
1286:Drivers/STM32WLxx_HAL_Driver/Src/stm32wlxx_hal_flash_ex.c ****   * @brief  Proceed the OB Write Operation.
1287:Drivers/STM32WLxx_HAL_Driver/Src/stm32wlxx_hal_flash_ex.c ****   * @retval HAL Status
1288:Drivers/STM32WLxx_HAL_Driver/Src/stm32wlxx_hal_flash_ex.c ****   */
1289:Drivers/STM32WLxx_HAL_Driver/Src/stm32wlxx_hal_flash_ex.c **** static HAL_StatusTypeDef FLASH_OB_ProceedWriteOperation(void)
1290:Drivers/STM32WLxx_HAL_Driver/Src/stm32wlxx_hal_flash_ex.c **** {
 673              		.loc 1 1290 1 is_stmt 1 view -0
 674              		.cfi_startproc
 675              		@ args = 0, pretend = 0, frame = 0
 676              		@ frame_needed = 0, uses_anonymous_args = 0
 677 0000 08B5     		push	{r3, lr}
 678              	.LCFI8:
 679              		.cfi_def_cfa_offset 8
 680              		.cfi_offset 3, -8
 681              		.cfi_offset 14, -4
1291:Drivers/STM32WLxx_HAL_Driver/Src/stm32wlxx_hal_flash_ex.c ****   HAL_StatusTypeDef status;
 682              		.loc 1 1291 3 view .LVU182
1292:Drivers/STM32WLxx_HAL_Driver/Src/stm32wlxx_hal_flash_ex.c **** 
1293:Drivers/STM32WLxx_HAL_Driver/Src/stm32wlxx_hal_flash_ex.c ****   /* Verify that next operation can be proceed */
1294:Drivers/STM32WLxx_HAL_Driver/Src/stm32wlxx_hal_flash_ex.c ****   status = FLASH_WaitForLastOperation(FLASH_TIMEOUT_VALUE);
 683              		.loc 1 1294 3 view .LVU183
 684              		.loc 1 1294 12 is_stmt 0 view .LVU184
 685 0002 4FF47A70 		mov	r0, #1000
 686 0006 FFF7FEFF 		bl	FLASH_WaitForLastOperation
 687              	.LVL48:
1295:Drivers/STM32WLxx_HAL_Driver/Src/stm32wlxx_hal_flash_ex.c **** 
1296:Drivers/STM32WLxx_HAL_Driver/Src/stm32wlxx_hal_flash_ex.c ****   if (status == HAL_OK)
 688              		.loc 1 1296 3 is_stmt 1 view .LVU185
 689              		.loc 1 1296 6 is_stmt 0 view .LVU186
 690 000a 00B1     		cbz	r0, .L59
 691              	.L57:
 692              	.LVL49:
1297:Drivers/STM32WLxx_HAL_Driver/Src/stm32wlxx_hal_flash_ex.c ****   {
1298:Drivers/STM32WLxx_HAL_Driver/Src/stm32wlxx_hal_flash_ex.c ****     /* Set OPTSTRT Bit */
1299:Drivers/STM32WLxx_HAL_Driver/Src/stm32wlxx_hal_flash_ex.c ****     SET_BIT(FLASH->CR, FLASH_CR_OPTSTRT);
1300:Drivers/STM32WLxx_HAL_Driver/Src/stm32wlxx_hal_flash_ex.c **** 
1301:Drivers/STM32WLxx_HAL_Driver/Src/stm32wlxx_hal_flash_ex.c ****     /* Wait for last operation to be completed */
1302:Drivers/STM32WLxx_HAL_Driver/Src/stm32wlxx_hal_flash_ex.c ****     status = FLASH_WaitForLastOperation(FLASH_TIMEOUT_VALUE);
1303:Drivers/STM32WLxx_HAL_Driver/Src/stm32wlxx_hal_flash_ex.c ****   }
ARM GAS  C:\Users\NATHAN~1\AppData\Local\Temp\cc8eZusg.s 			page 36


1304:Drivers/STM32WLxx_HAL_Driver/Src/stm32wlxx_hal_flash_ex.c **** 
1305:Drivers/STM32WLxx_HAL_Driver/Src/stm32wlxx_hal_flash_ex.c ****   return status;
 693              		.loc 1 1305 3 is_stmt 1 view .LVU187
1306:Drivers/STM32WLxx_HAL_Driver/Src/stm32wlxx_hal_flash_ex.c **** }
 694              		.loc 1 1306 1 is_stmt 0 view .LVU188
 695 000c 08BD     		pop	{r3, pc}
 696              	.LVL50:
 697              	.L59:
1299:Drivers/STM32WLxx_HAL_Driver/Src/stm32wlxx_hal_flash_ex.c **** 
 698              		.loc 1 1299 5 is_stmt 1 view .LVU189
 699 000e 054A     		ldr	r2, .L60
 700 0010 5369     		ldr	r3, [r2, #20]
 701 0012 43F40033 		orr	r3, r3, #131072
 702 0016 5361     		str	r3, [r2, #20]
1302:Drivers/STM32WLxx_HAL_Driver/Src/stm32wlxx_hal_flash_ex.c ****   }
 703              		.loc 1 1302 5 view .LVU190
1302:Drivers/STM32WLxx_HAL_Driver/Src/stm32wlxx_hal_flash_ex.c ****   }
 704              		.loc 1 1302 14 is_stmt 0 view .LVU191
 705 0018 4FF47A70 		mov	r0, #1000
 706 001c FFF7FEFF 		bl	FLASH_WaitForLastOperation
 707              	.LVL51:
1302:Drivers/STM32WLxx_HAL_Driver/Src/stm32wlxx_hal_flash_ex.c ****   }
 708              		.loc 1 1302 14 view .LVU192
 709 0020 F4E7     		b	.L57
 710              	.L61:
 711 0022 00BF     		.align	2
 712              	.L60:
 713 0024 00400058 		.word	1476411392
 714              		.cfi_endproc
 715              	.LFE989:
 717              		.section	.text.HAL_FLASHEx_OBProgram,"ax",%progbits
 718              		.align	1
 719              		.global	HAL_FLASHEx_OBProgram
 720              		.syntax unified
 721              		.thumb
 722              		.thumb_func
 724              	HAL_FLASHEx_OBProgram:
 725              	.LVL52:
 726              	.LFB970:
 311:Drivers/STM32WLxx_HAL_Driver/Src/stm32wlxx_hal_flash_ex.c ****   uint32_t optr;
 727              		.loc 1 311 1 is_stmt 1 view -0
 728              		.cfi_startproc
 729              		@ args = 0, pretend = 0, frame = 0
 730              		@ frame_needed = 0, uses_anonymous_args = 0
 312:Drivers/STM32WLxx_HAL_Driver/Src/stm32wlxx_hal_flash_ex.c ****   HAL_StatusTypeDef status;
 731              		.loc 1 312 3 view .LVU194
 313:Drivers/STM32WLxx_HAL_Driver/Src/stm32wlxx_hal_flash_ex.c **** 
 732              		.loc 1 313 3 view .LVU195
 316:Drivers/STM32WLxx_HAL_Driver/Src/stm32wlxx_hal_flash_ex.c **** 
 733              		.loc 1 316 3 view .LVU196
 319:Drivers/STM32WLxx_HAL_Driver/Src/stm32wlxx_hal_flash_ex.c **** 
 734              		.loc 1 319 3 view .LVU197
 319:Drivers/STM32WLxx_HAL_Driver/Src/stm32wlxx_hal_flash_ex.c **** 
 735              		.loc 1 319 3 view .LVU198
 736 0000 2A4B     		ldr	r3, .L81
 737 0002 1B78     		ldrb	r3, [r3]	@ zero_extendqisi2
 738 0004 012B     		cmp	r3, #1
ARM GAS  C:\Users\NATHAN~1\AppData\Local\Temp\cc8eZusg.s 			page 37


 739 0006 4ED0     		beq	.L70
 311:Drivers/STM32WLxx_HAL_Driver/Src/stm32wlxx_hal_flash_ex.c ****   uint32_t optr;
 740              		.loc 1 311 1 is_stmt 0 discriminator 2 view .LVU199
 741 0008 10B5     		push	{r4, lr}
 742              	.LCFI9:
 743              		.cfi_def_cfa_offset 8
 744              		.cfi_offset 4, -8
 745              		.cfi_offset 14, -4
 746 000a 0446     		mov	r4, r0
 319:Drivers/STM32WLxx_HAL_Driver/Src/stm32wlxx_hal_flash_ex.c **** 
 747              		.loc 1 319 3 is_stmt 1 discriminator 2 view .LVU200
 748 000c 274B     		ldr	r3, .L81
 749 000e 0122     		movs	r2, #1
 750 0010 1A70     		strb	r2, [r3]
 319:Drivers/STM32WLxx_HAL_Driver/Src/stm32wlxx_hal_flash_ex.c **** 
 751              		.loc 1 319 3 discriminator 2 view .LVU201
 321:Drivers/STM32WLxx_HAL_Driver/Src/stm32wlxx_hal_flash_ex.c **** 
 752              		.loc 1 321 3 discriminator 2 view .LVU202
 321:Drivers/STM32WLxx_HAL_Driver/Src/stm32wlxx_hal_flash_ex.c **** 
 753              		.loc 1 321 20 is_stmt 0 discriminator 2 view .LVU203
 754 0012 0022     		movs	r2, #0
 755 0014 5A60     		str	r2, [r3, #4]
 324:Drivers/STM32WLxx_HAL_Driver/Src/stm32wlxx_hal_flash_ex.c ****   {
 756              		.loc 1 324 3 is_stmt 1 discriminator 2 view .LVU204
 324:Drivers/STM32WLxx_HAL_Driver/Src/stm32wlxx_hal_flash_ex.c ****   {
 757              		.loc 1 324 15 is_stmt 0 discriminator 2 view .LVU205
 758 0016 0368     		ldr	r3, [r0]
 324:Drivers/STM32WLxx_HAL_Driver/Src/stm32wlxx_hal_flash_ex.c ****   {
 759              		.loc 1 324 6 discriminator 2 view .LVU206
 760 0018 13F0010F 		tst	r3, #1
 761 001c 1CD1     		bne	.L75
 762              	.LVL53:
 763              	.L64:
 331:Drivers/STM32WLxx_HAL_Driver/Src/stm32wlxx_hal_flash_ex.c ****   {
 764              		.loc 1 331 3 is_stmt 1 view .LVU207
 331:Drivers/STM32WLxx_HAL_Driver/Src/stm32wlxx_hal_flash_ex.c ****   {
 765              		.loc 1 331 15 is_stmt 0 view .LVU208
 766 001e 2368     		ldr	r3, [r4]
 331:Drivers/STM32WLxx_HAL_Driver/Src/stm32wlxx_hal_flash_ex.c ****   {
 767              		.loc 1 331 28 view .LVU209
 768 0020 03F00602 		and	r2, r3, #6
 331:Drivers/STM32WLxx_HAL_Driver/Src/stm32wlxx_hal_flash_ex.c ****   {
 769              		.loc 1 331 6 view .LVU210
 770 0024 062A     		cmp	r2, #6
 771 0026 1DD0     		beq	.L76
 336:Drivers/STM32WLxx_HAL_Driver/Src/stm32wlxx_hal_flash_ex.c ****   {
 772              		.loc 1 336 8 is_stmt 1 view .LVU211
 336:Drivers/STM32WLxx_HAL_Driver/Src/stm32wlxx_hal_flash_ex.c ****   {
 773              		.loc 1 336 11 is_stmt 0 view .LVU212
 774 0028 13F0020F 		tst	r3, #2
 775 002c 20D1     		bne	.L77
 346:Drivers/STM32WLxx_HAL_Driver/Src/stm32wlxx_hal_flash_ex.c ****   {
 776              		.loc 1 346 8 is_stmt 1 view .LVU213
 346:Drivers/STM32WLxx_HAL_Driver/Src/stm32wlxx_hal_flash_ex.c ****   {
 777              		.loc 1 346 11 is_stmt 0 view .LVU214
 778 002e 13F0040F 		tst	r3, #4
 779 0032 26D1     		bne	.L78
ARM GAS  C:\Users\NATHAN~1\AppData\Local\Temp\cc8eZusg.s 			page 38


 780              	.L66:
 355:Drivers/STM32WLxx_HAL_Driver/Src/stm32wlxx_hal_flash_ex.c **** 
 781              		.loc 1 355 3 is_stmt 1 view .LVU215
 358:Drivers/STM32WLxx_HAL_Driver/Src/stm32wlxx_hal_flash_ex.c ****   {
 782              		.loc 1 358 3 view .LVU216
 358:Drivers/STM32WLxx_HAL_Driver/Src/stm32wlxx_hal_flash_ex.c ****   {
 783              		.loc 1 358 15 is_stmt 0 view .LVU217
 784 0034 2368     		ldr	r3, [r4]
 358:Drivers/STM32WLxx_HAL_Driver/Src/stm32wlxx_hal_flash_ex.c ****   {
 785              		.loc 1 358 6 view .LVU218
 786 0036 13F0080F 		tst	r3, #8
 787 003a 07D0     		beq	.L68
 361:Drivers/STM32WLxx_HAL_Driver/Src/stm32wlxx_hal_flash_ex.c **** 
 788              		.loc 1 361 5 is_stmt 1 view .LVU219
 363:Drivers/STM32WLxx_HAL_Driver/Src/stm32wlxx_hal_flash_ex.c ****     {
 789              		.loc 1 363 5 view .LVU220
 363:Drivers/STM32WLxx_HAL_Driver/Src/stm32wlxx_hal_flash_ex.c ****     {
 790              		.loc 1 363 17 is_stmt 0 view .LVU221
 791 003c E069     		ldr	r0, [r4, #28]
 363:Drivers/STM32WLxx_HAL_Driver/Src/stm32wlxx_hal_flash_ex.c ****     {
 792              		.loc 1 363 8 view .LVU222
 793 003e 1C4B     		ldr	r3, .L81+4
 794 0040 1842     		tst	r0, r3
 795 0042 26D1     		bne	.L79
 796              	.L69:
 369:Drivers/STM32WLxx_HAL_Driver/Src/stm32wlxx_hal_flash_ex.c ****     {
 797              		.loc 1 369 5 is_stmt 1 view .LVU223
 369:Drivers/STM32WLxx_HAL_Driver/Src/stm32wlxx_hal_flash_ex.c ****     {
 798              		.loc 1 369 17 is_stmt 0 view .LVU224
 799 0044 E369     		ldr	r3, [r4, #28]
 369:Drivers/STM32WLxx_HAL_Driver/Src/stm32wlxx_hal_flash_ex.c ****     {
 800              		.loc 1 369 8 view .LVU225
 801 0046 13F0020F 		tst	r3, #2
 802 004a 27D1     		bne	.L80
 803              	.L68:
 393:Drivers/STM32WLxx_HAL_Driver/Src/stm32wlxx_hal_flash_ex.c **** 
 804              		.loc 1 393 3 is_stmt 1 view .LVU226
 393:Drivers/STM32WLxx_HAL_Driver/Src/stm32wlxx_hal_flash_ex.c **** 
 805              		.loc 1 393 12 is_stmt 0 view .LVU227
 806 004c FFF7FEFF 		bl	FLASH_OB_ProceedWriteOperation
 807              	.LVL54:
 396:Drivers/STM32WLxx_HAL_Driver/Src/stm32wlxx_hal_flash_ex.c **** 
 808              		.loc 1 396 3 is_stmt 1 view .LVU228
 396:Drivers/STM32WLxx_HAL_Driver/Src/stm32wlxx_hal_flash_ex.c **** 
 809              		.loc 1 396 3 view .LVU229
 810 0050 164B     		ldr	r3, .L81
 811 0052 0022     		movs	r2, #0
 812 0054 1A70     		strb	r2, [r3]
 396:Drivers/STM32WLxx_HAL_Driver/Src/stm32wlxx_hal_flash_ex.c **** 
 813              		.loc 1 396 3 view .LVU230
 399:Drivers/STM32WLxx_HAL_Driver/Src/stm32wlxx_hal_flash_ex.c **** }
 814              		.loc 1 399 3 view .LVU231
 400:Drivers/STM32WLxx_HAL_Driver/Src/stm32wlxx_hal_flash_ex.c **** 
 815              		.loc 1 400 1 is_stmt 0 view .LVU232
 816 0056 10BD     		pop	{r4, pc}
 817              	.LVL55:
 818              	.L75:
ARM GAS  C:\Users\NATHAN~1\AppData\Local\Temp\cc8eZusg.s 			page 39


 327:Drivers/STM32WLxx_HAL_Driver/Src/stm32wlxx_hal_flash_ex.c ****   }
 819              		.loc 1 327 5 is_stmt 1 view .LVU233
 820 0058 C268     		ldr	r2, [r0, #12]
 821 005a 8168     		ldr	r1, [r0, #8]
 822 005c 4068     		ldr	r0, [r0, #4]
 823              	.LVL56:
 327:Drivers/STM32WLxx_HAL_Driver/Src/stm32wlxx_hal_flash_ex.c ****   }
 824              		.loc 1 327 5 is_stmt 0 view .LVU234
 825 005e FFF7FEFF 		bl	FLASH_OB_WRPConfig
 826              	.LVL57:
 827 0062 DCE7     		b	.L64
 828              	.L76:
 334:Drivers/STM32WLxx_HAL_Driver/Src/stm32wlxx_hal_flash_ex.c ****   }
 829              		.loc 1 334 5 is_stmt 1 view .LVU235
 830 0064 2269     		ldr	r2, [r4, #16]
 831 0066 A169     		ldr	r1, [r4, #24]
 832 0068 6069     		ldr	r0, [r4, #20]
 833 006a FFF7FEFF 		bl	FLASH_OB_OptrConfig
 834              	.LVL58:
 835 006e E1E7     		b	.L66
 836              	.L77:
 339:Drivers/STM32WLxx_HAL_Driver/Src/stm32wlxx_hal_flash_ex.c **** 
 837              		.loc 1 339 5 view .LVU236
 339:Drivers/STM32WLxx_HAL_Driver/Src/stm32wlxx_hal_flash_ex.c **** 
 838              		.loc 1 339 12 is_stmt 0 view .LVU237
 839 0070 FFF7FEFF 		bl	FLASH_OB_GetUser
 840              	.LVL59:
 342:Drivers/STM32WLxx_HAL_Driver/Src/stm32wlxx_hal_flash_ex.c **** 
 841              		.loc 1 342 5 is_stmt 1 view .LVU238
 342:Drivers/STM32WLxx_HAL_Driver/Src/stm32wlxx_hal_flash_ex.c **** 
 842              		.loc 1 342 10 is_stmt 0 view .LVU239
 843 0074 20F46060 		bic	r0, r0, #3584
 844              	.LVL60:
 344:Drivers/STM32WLxx_HAL_Driver/Src/stm32wlxx_hal_flash_ex.c ****   }
 845              		.loc 1 344 5 is_stmt 1 view .LVU240
 846 0078 2269     		ldr	r2, [r4, #16]
 847 007a 0146     		mov	r1, r0
 848 007c FFF7FEFF 		bl	FLASH_OB_OptrConfig
 849              	.LVL61:
 344:Drivers/STM32WLxx_HAL_Driver/Src/stm32wlxx_hal_flash_ex.c ****   }
 850              		.loc 1 344 5 is_stmt 0 view .LVU241
 851 0080 D8E7     		b	.L66
 852              	.L78:
 349:Drivers/STM32WLxx_HAL_Driver/Src/stm32wlxx_hal_flash_ex.c ****     FLASH_OB_OptrConfig(pOBInit->UserType, pOBInit->UserConfig, optr);
 853              		.loc 1 349 5 is_stmt 1 view .LVU242
 349:Drivers/STM32WLxx_HAL_Driver/Src/stm32wlxx_hal_flash_ex.c ****     FLASH_OB_OptrConfig(pOBInit->UserType, pOBInit->UserConfig, optr);
 854              		.loc 1 349 12 is_stmt 0 view .LVU243
 855 0082 FFF7FEFF 		bl	FLASH_OB_GetRDP
 856              	.LVL62:
 857 0086 0246     		mov	r2, r0
 858              	.LVL63:
 350:Drivers/STM32WLxx_HAL_Driver/Src/stm32wlxx_hal_flash_ex.c ****   }
 859              		.loc 1 350 5 is_stmt 1 view .LVU244
 860 0088 A169     		ldr	r1, [r4, #24]
 861 008a 6069     		ldr	r0, [r4, #20]
 862              	.LVL64:
 350:Drivers/STM32WLxx_HAL_Driver/Src/stm32wlxx_hal_flash_ex.c ****   }
ARM GAS  C:\Users\NATHAN~1\AppData\Local\Temp\cc8eZusg.s 			page 40


 863              		.loc 1 350 5 is_stmt 0 view .LVU245
 864 008c FFF7FEFF 		bl	FLASH_OB_OptrConfig
 865              	.LVL65:
 350:Drivers/STM32WLxx_HAL_Driver/Src/stm32wlxx_hal_flash_ex.c ****   }
 866              		.loc 1 350 5 view .LVU246
 867 0090 D0E7     		b	.L66
 868              	.L79:
 366:Drivers/STM32WLxx_HAL_Driver/Src/stm32wlxx_hal_flash_ex.c ****     }
 869              		.loc 1 366 7 is_stmt 1 view .LVU247
 870 0092 626A     		ldr	r2, [r4, #36]
 871 0094 216A     		ldr	r1, [r4, #32]
 872 0096 FFF7FEFF 		bl	FLASH_OB_PCROP1AConfig
 873              	.LVL66:
 874 009a D3E7     		b	.L69
 875              	.L80:
 372:Drivers/STM32WLxx_HAL_Driver/Src/stm32wlxx_hal_flash_ex.c ****     }
 876              		.loc 1 372 7 view .LVU248
 877 009c E16A     		ldr	r1, [r4, #44]
 878 009e A06A     		ldr	r0, [r4, #40]
 879 00a0 FFF7FEFF 		bl	FLASH_OB_PCROP1BConfig
 880              	.LVL67:
 881 00a4 D2E7     		b	.L68
 882              	.LVL68:
 883              	.L70:
 884              	.LCFI10:
 885              		.cfi_def_cfa_offset 0
 886              		.cfi_restore 4
 887              		.cfi_restore 14
 319:Drivers/STM32WLxx_HAL_Driver/Src/stm32wlxx_hal_flash_ex.c **** 
 888              		.loc 1 319 3 is_stmt 0 view .LVU249
 889 00a6 0220     		movs	r0, #2
 890              	.LVL69:
 400:Drivers/STM32WLxx_HAL_Driver/Src/stm32wlxx_hal_flash_ex.c **** 
 891              		.loc 1 400 1 view .LVU250
 892 00a8 7047     		bx	lr
 893              	.L82:
 894 00aa 00BF     		.align	2
 895              	.L81:
 896 00ac 00000000 		.word	pFlash
 897 00b0 01000080 		.word	-2147483647
 898              		.cfi_endproc
 899              	.LFE970:
 901              		.section	.text.HAL_FLASHEx_OBGetConfig,"ax",%progbits
 902              		.align	1
 903              		.global	HAL_FLASHEx_OBGetConfig
 904              		.syntax unified
 905              		.thumb
 906              		.thumb_func
 908              	HAL_FLASHEx_OBGetConfig:
 909              	.LVL70:
 910              	.LFB971:
 414:Drivers/STM32WLxx_HAL_Driver/Src/stm32wlxx_hal_flash_ex.c ****   pOBInit->OptionType = OPTIONBYTE_ALL;
 911              		.loc 1 414 1 is_stmt 1 view -0
 912              		.cfi_startproc
 913              		@ args = 0, pretend = 0, frame = 0
 914              		@ frame_needed = 0, uses_anonymous_args = 0
 414:Drivers/STM32WLxx_HAL_Driver/Src/stm32wlxx_hal_flash_ex.c ****   pOBInit->OptionType = OPTIONBYTE_ALL;
ARM GAS  C:\Users\NATHAN~1\AppData\Local\Temp\cc8eZusg.s 			page 41


 915              		.loc 1 414 1 is_stmt 0 view .LVU252
 916 0000 10B5     		push	{r4, lr}
 917              	.LCFI11:
 918              		.cfi_def_cfa_offset 8
 919              		.cfi_offset 4, -8
 920              		.cfi_offset 14, -4
 921 0002 82B0     		sub	sp, sp, #8
 922              	.LCFI12:
 923              		.cfi_def_cfa_offset 16
 924 0004 0446     		mov	r4, r0
 415:Drivers/STM32WLxx_HAL_Driver/Src/stm32wlxx_hal_flash_ex.c **** 
 925              		.loc 1 415 3 is_stmt 1 view .LVU253
 415:Drivers/STM32WLxx_HAL_Driver/Src/stm32wlxx_hal_flash_ex.c **** 
 926              		.loc 1 415 23 is_stmt 0 view .LVU254
 927 0006 0F23     		movs	r3, #15
 928 0008 0360     		str	r3, [r0]
 417:Drivers/STM32WLxx_HAL_Driver/Src/stm32wlxx_hal_flash_ex.c ****   {
 929              		.loc 1 417 3 is_stmt 1 view .LVU255
 417:Drivers/STM32WLxx_HAL_Driver/Src/stm32wlxx_hal_flash_ex.c ****   {
 930              		.loc 1 417 15 is_stmt 0 view .LVU256
 931 000a 4068     		ldr	r0, [r0, #4]
 932              	.LVL71:
 417:Drivers/STM32WLxx_HAL_Driver/Src/stm32wlxx_hal_flash_ex.c ****   {
 933              		.loc 1 417 6 view .LVU257
 934 000c 0128     		cmp	r0, #1
 935 000e 1AD9     		bls	.L86
 936              	.L84:
 424:Drivers/STM32WLxx_HAL_Driver/Src/stm32wlxx_hal_flash_ex.c **** 
 937              		.loc 1 424 3 is_stmt 1 view .LVU258
 424:Drivers/STM32WLxx_HAL_Driver/Src/stm32wlxx_hal_flash_ex.c **** 
 938              		.loc 1 424 23 is_stmt 0 view .LVU259
 939 0010 FFF7FEFF 		bl	FLASH_OB_GetRDP
 940              	.LVL72:
 424:Drivers/STM32WLxx_HAL_Driver/Src/stm32wlxx_hal_flash_ex.c **** 
 941              		.loc 1 424 21 view .LVU260
 942 0014 2061     		str	r0, [r4, #16]
 427:Drivers/STM32WLxx_HAL_Driver/Src/stm32wlxx_hal_flash_ex.c ****   pOBInit->UserType = OB_USER_ALL;
 943              		.loc 1 427 3 is_stmt 1 view .LVU261
 427:Drivers/STM32WLxx_HAL_Driver/Src/stm32wlxx_hal_flash_ex.c ****   pOBInit->UserType = OB_USER_ALL;
 944              		.loc 1 427 25 is_stmt 0 view .LVU262
 945 0016 FFF7FEFF 		bl	FLASH_OB_GetUser
 946              	.LVL73:
 427:Drivers/STM32WLxx_HAL_Driver/Src/stm32wlxx_hal_flash_ex.c ****   pOBInit->UserType = OB_USER_ALL;
 947              		.loc 1 427 23 view .LVU263
 948 001a A061     		str	r0, [r4, #24]
 428:Drivers/STM32WLxx_HAL_Driver/Src/stm32wlxx_hal_flash_ex.c **** 
 949              		.loc 1 428 3 is_stmt 1 view .LVU264
 428:Drivers/STM32WLxx_HAL_Driver/Src/stm32wlxx_hal_flash_ex.c **** 
 950              		.loc 1 428 21 is_stmt 0 view .LVU265
 951 001c 0D4B     		ldr	r3, .L87
 952 001e 6361     		str	r3, [r4, #20]
 431:Drivers/STM32WLxx_HAL_Driver/Src/stm32wlxx_hal_flash_ex.c ****   pOBInit->PCROPConfig |= (OB_PCROP_ZONE_A | OB_PCROP_ZONE_B);
 953              		.loc 1 431 3 is_stmt 1 view .LVU266
 954 0020 04F12C03 		add	r3, r4, #44
 955 0024 0093     		str	r3, [sp]
 956 0026 04F12803 		add	r3, r4, #40
 957 002a 04F12402 		add	r2, r4, #36
ARM GAS  C:\Users\NATHAN~1\AppData\Local\Temp\cc8eZusg.s 			page 42


 958 002e 04F12001 		add	r1, r4, #32
 959 0032 04F11C00 		add	r0, r4, #28
 960 0036 FFF7FEFF 		bl	FLASH_OB_GetPCROP
 961              	.LVL74:
 432:Drivers/STM32WLxx_HAL_Driver/Src/stm32wlxx_hal_flash_ex.c **** 
 962              		.loc 1 432 3 view .LVU267
 432:Drivers/STM32WLxx_HAL_Driver/Src/stm32wlxx_hal_flash_ex.c **** 
 963              		.loc 1 432 24 is_stmt 0 view .LVU268
 964 003a E369     		ldr	r3, [r4, #28]
 965 003c 43F00303 		orr	r3, r3, #3
 966 0040 E361     		str	r3, [r4, #28]
 450:Drivers/STM32WLxx_HAL_Driver/Src/stm32wlxx_hal_flash_ex.c **** 
 967              		.loc 1 450 1 view .LVU269
 968 0042 02B0     		add	sp, sp, #8
 969              	.LCFI13:
 970              		.cfi_remember_state
 971              		.cfi_def_cfa_offset 8
 972              		@ sp needed
 973 0044 10BD     		pop	{r4, pc}
 974              	.LVL75:
 975              	.L86:
 976              	.LCFI14:
 977              		.cfi_restore_state
 420:Drivers/STM32WLxx_HAL_Driver/Src/stm32wlxx_hal_flash_ex.c ****   }
 978              		.loc 1 420 5 is_stmt 1 view .LVU270
 979 0046 04F10C02 		add	r2, r4, #12
 980 004a 04F10801 		add	r1, r4, #8
 981 004e FFF7FEFF 		bl	FLASH_OB_GetWRP
 982              	.LVL76:
 983 0052 DDE7     		b	.L84
 984              	.L88:
 985              		.align	2
 986              	.L87:
 987 0054 007E8F4F 		.word	1334803968
 988              		.cfi_endproc
 989              	.LFE971:
 991              		.section	.text.HAL_FLASHEx_FlashEmptyCheck,"ax",%progbits
 992              		.align	1
 993              		.global	HAL_FLASHEx_FlashEmptyCheck
 994              		.syntax unified
 995              		.thumb
 996              		.thumb_func
 998              	HAL_FLASHEx_FlashEmptyCheck:
 999              	.LFB972:
 461:Drivers/STM32WLxx_HAL_Driver/Src/stm32wlxx_hal_flash_ex.c ****   return (READ_BIT(FLASH->ACR, FLASH_ACR_EMPTY));
 1000              		.loc 1 461 1 view -0
 1001              		.cfi_startproc
 1002              		@ args = 0, pretend = 0, frame = 0
 1003              		@ frame_needed = 0, uses_anonymous_args = 0
 1004              		@ link register save eliminated.
 462:Drivers/STM32WLxx_HAL_Driver/Src/stm32wlxx_hal_flash_ex.c **** }
 1005              		.loc 1 462 3 view .LVU272
 462:Drivers/STM32WLxx_HAL_Driver/Src/stm32wlxx_hal_flash_ex.c **** }
 1006              		.loc 1 462 11 is_stmt 0 view .LVU273
 1007 0000 024B     		ldr	r3, .L90
 1008 0002 1868     		ldr	r0, [r3]
 463:Drivers/STM32WLxx_HAL_Driver/Src/stm32wlxx_hal_flash_ex.c **** 
ARM GAS  C:\Users\NATHAN~1\AppData\Local\Temp\cc8eZusg.s 			page 43


 1009              		.loc 1 463 1 view .LVU274
 1010 0004 00F48030 		and	r0, r0, #65536
 1011 0008 7047     		bx	lr
 1012              	.L91:
 1013 000a 00BF     		.align	2
 1014              	.L90:
 1015 000c 00400058 		.word	1476411392
 1016              		.cfi_endproc
 1017              	.LFE972:
 1019              		.section	.text.HAL_FLASHEx_ForceFlashEmpty,"ax",%progbits
 1020              		.align	1
 1021              		.global	HAL_FLASHEx_ForceFlashEmpty
 1022              		.syntax unified
 1023              		.thumb
 1024              		.thumb_func
 1026              	HAL_FLASHEx_ForceFlashEmpty:
 1027              	.LVL77:
 1028              	.LFB973:
 478:Drivers/STM32WLxx_HAL_Driver/Src/stm32wlxx_hal_flash_ex.c ****   assert_param(IS_FLASH_EMPTY_CHECK(FlashEmpty));
 1029              		.loc 1 478 1 is_stmt 1 view -0
 1030              		.cfi_startproc
 1031              		@ args = 0, pretend = 0, frame = 0
 1032              		@ frame_needed = 0, uses_anonymous_args = 0
 1033              		@ link register save eliminated.
 479:Drivers/STM32WLxx_HAL_Driver/Src/stm32wlxx_hal_flash_ex.c **** 
 1034              		.loc 1 479 3 view .LVU276
 481:Drivers/STM32WLxx_HAL_Driver/Src/stm32wlxx_hal_flash_ex.c **** }
 1035              		.loc 1 481 3 view .LVU277
 1036 0000 034A     		ldr	r2, .L93
 1037 0002 1368     		ldr	r3, [r2]
 1038 0004 23F48033 		bic	r3, r3, #65536
 1039 0008 0343     		orrs	r3, r3, r0
 1040 000a 1360     		str	r3, [r2]
 482:Drivers/STM32WLxx_HAL_Driver/Src/stm32wlxx_hal_flash_ex.c **** 
 1041              		.loc 1 482 1 is_stmt 0 view .LVU278
 1042 000c 7047     		bx	lr
 1043              	.L94:
 1044 000e 00BF     		.align	2
 1045              	.L93:
 1046 0010 00400058 		.word	1476411392
 1047              		.cfi_endproc
 1048              	.LFE973:
 1050              		.section	.text.HAL_FLASHEx_SuspendOperation,"ax",%progbits
 1051              		.align	1
 1052              		.global	HAL_FLASHEx_SuspendOperation
 1053              		.syntax unified
 1054              		.thumb
 1055              		.thumb_func
 1057              	HAL_FLASHEx_SuspendOperation:
 1058              	.LFB974:
 494:Drivers/STM32WLxx_HAL_Driver/Src/stm32wlxx_hal_flash_ex.c **** #if defined(CORE_CM0PLUS)
 1059              		.loc 1 494 1 is_stmt 1 view -0
 1060              		.cfi_startproc
 1061              		@ args = 0, pretend = 0, frame = 0
 1062              		@ frame_needed = 0, uses_anonymous_args = 0
 1063              		@ link register save eliminated.
 498:Drivers/STM32WLxx_HAL_Driver/Src/stm32wlxx_hal_flash_ex.c **** #endif
ARM GAS  C:\Users\NATHAN~1\AppData\Local\Temp\cc8eZusg.s 			page 44


 1064              		.loc 1 498 3 view .LVU280
 1065 0000 024A     		ldr	r2, .L96
 1066 0002 1368     		ldr	r3, [r2]
 1067 0004 43F40043 		orr	r3, r3, #32768
 1068 0008 1360     		str	r3, [r2]
 500:Drivers/STM32WLxx_HAL_Driver/Src/stm32wlxx_hal_flash_ex.c **** 
 1069              		.loc 1 500 1 is_stmt 0 view .LVU281
 1070 000a 7047     		bx	lr
 1071              	.L97:
 1072              		.align	2
 1073              	.L96:
 1074 000c 00400058 		.word	1476411392
 1075              		.cfi_endproc
 1076              	.LFE974:
 1078              		.section	.text.HAL_FLASHEx_AllowOperation,"ax",%progbits
 1079              		.align	1
 1080              		.global	HAL_FLASHEx_AllowOperation
 1081              		.syntax unified
 1082              		.thumb
 1083              		.thumb_func
 1085              	HAL_FLASHEx_AllowOperation:
 1086              	.LFB975:
 512:Drivers/STM32WLxx_HAL_Driver/Src/stm32wlxx_hal_flash_ex.c **** #if defined(CORE_CM0PLUS)
 1087              		.loc 1 512 1 is_stmt 1 view -0
 1088              		.cfi_startproc
 1089              		@ args = 0, pretend = 0, frame = 0
 1090              		@ frame_needed = 0, uses_anonymous_args = 0
 1091              		@ link register save eliminated.
 516:Drivers/STM32WLxx_HAL_Driver/Src/stm32wlxx_hal_flash_ex.c **** #endif
 1092              		.loc 1 516 3 view .LVU283
 1093 0000 024A     		ldr	r2, .L99
 1094 0002 1368     		ldr	r3, [r2]
 1095 0004 23F40043 		bic	r3, r3, #32768
 1096 0008 1360     		str	r3, [r2]
 518:Drivers/STM32WLxx_HAL_Driver/Src/stm32wlxx_hal_flash_ex.c **** 
 1097              		.loc 1 518 1 is_stmt 0 view .LVU284
 1098 000a 7047     		bx	lr
 1099              	.L100:
 1100              		.align	2
 1101              	.L99:
 1102 000c 00400058 		.word	1476411392
 1103              		.cfi_endproc
 1104              	.LFE975:
 1106              		.section	.text.HAL_FLASHEx_IsOperationSuspended,"ax",%progbits
 1107              		.align	1
 1108              		.global	HAL_FLASHEx_IsOperationSuspended
 1109              		.syntax unified
 1110              		.thumb
 1111              		.thumb_func
 1113              	HAL_FLASHEx_IsOperationSuspended:
 1114              	.LFB976:
 532:Drivers/STM32WLxx_HAL_Driver/Src/stm32wlxx_hal_flash_ex.c ****   uint32_t status = 0U;
 1115              		.loc 1 532 1 is_stmt 1 view -0
 1116              		.cfi_startproc
 1117              		@ args = 0, pretend = 0, frame = 0
 1118              		@ frame_needed = 0, uses_anonymous_args = 0
 1119              		@ link register save eliminated.
ARM GAS  C:\Users\NATHAN~1\AppData\Local\Temp\cc8eZusg.s 			page 45


 533:Drivers/STM32WLxx_HAL_Driver/Src/stm32wlxx_hal_flash_ex.c **** 
 1120              		.loc 1 533 3 view .LVU286
 1121              	.LVL78:
 538:Drivers/STM32WLxx_HAL_Driver/Src/stm32wlxx_hal_flash_ex.c **** #endif
 1122              		.loc 1 538 3 view .LVU287
 538:Drivers/STM32WLxx_HAL_Driver/Src/stm32wlxx_hal_flash_ex.c **** #endif
 1123              		.loc 1 538 7 is_stmt 0 view .LVU288
 1124 0000 034B     		ldr	r3, .L104
 1125 0002 1869     		ldr	r0, [r3, #16]
 538:Drivers/STM32WLxx_HAL_Driver/Src/stm32wlxx_hal_flash_ex.c **** #endif
 1126              		.loc 1 538 6 view .LVU289
 1127 0004 10F40020 		ands	r0, r0, #524288
 1128 0008 00D0     		beq	.L101
 541:Drivers/STM32WLxx_HAL_Driver/Src/stm32wlxx_hal_flash_ex.c ****   }
 1129              		.loc 1 541 12 view .LVU290
 1130 000a 0120     		movs	r0, #1
 1131              	.LVL79:
 544:Drivers/STM32WLxx_HAL_Driver/Src/stm32wlxx_hal_flash_ex.c **** }
 1132              		.loc 1 544 3 is_stmt 1 view .LVU291
 1133              	.L101:
 545:Drivers/STM32WLxx_HAL_Driver/Src/stm32wlxx_hal_flash_ex.c **** 
 1134              		.loc 1 545 1 is_stmt 0 view .LVU292
 1135 000c 7047     		bx	lr
 1136              	.L105:
 1137 000e 00BF     		.align	2
 1138              	.L104:
 1139 0010 00400058 		.word	1476411392
 1140              		.cfi_endproc
 1141              	.LFE976:
 1143              		.section	.text.FLASH_PageErase,"ax",%progbits
 1144              		.align	1
 1145              		.global	FLASH_PageErase
 1146              		.syntax unified
 1147              		.thumb
 1148              		.thumb_func
 1150              	FLASH_PageErase:
 1151              	.LVL80:
 1152              	.LFB978:
 648:Drivers/STM32WLxx_HAL_Driver/Src/stm32wlxx_hal_flash_ex.c ****   /* Check the parameters */
 1153              		.loc 1 648 1 is_stmt 1 view -0
 1154              		.cfi_startproc
 1155              		@ args = 0, pretend = 0, frame = 0
 1156              		@ frame_needed = 0, uses_anonymous_args = 0
 1157              		@ link register save eliminated.
 650:Drivers/STM32WLxx_HAL_Driver/Src/stm32wlxx_hal_flash_ex.c **** 
 1158              		.loc 1 650 3 view .LVU294
 656:Drivers/STM32WLxx_HAL_Driver/Src/stm32wlxx_hal_flash_ex.c **** #endif
 1159              		.loc 1 656 3 view .LVU295
 1160 0000 054A     		ldr	r2, .L107
 1161 0002 5369     		ldr	r3, [r2, #20]
 1162 0004 23F47E73 		bic	r3, r3, #1016
 1163 0008 43EAC000 		orr	r0, r3, r0, lsl #3
 1164              	.LVL81:
 656:Drivers/STM32WLxx_HAL_Driver/Src/stm32wlxx_hal_flash_ex.c **** #endif
 1165              		.loc 1 656 3 is_stmt 0 view .LVU296
 1166 000c 40F48030 		orr	r0, r0, #65536
 1167 0010 40F00200 		orr	r0, r0, #2
ARM GAS  C:\Users\NATHAN~1\AppData\Local\Temp\cc8eZusg.s 			page 46


 1168 0014 5061     		str	r0, [r2, #20]
 658:Drivers/STM32WLxx_HAL_Driver/Src/stm32wlxx_hal_flash_ex.c **** 
 1169              		.loc 1 658 1 view .LVU297
 1170 0016 7047     		bx	lr
 1171              	.L108:
 1172              		.align	2
 1173              	.L107:
 1174 0018 00400058 		.word	1476411392
 1175              		.cfi_endproc
 1176              	.LFE978:
 1178              		.section	.text.HAL_FLASHEx_Erase,"ax",%progbits
 1179              		.align	1
 1180              		.global	HAL_FLASHEx_Erase
 1181              		.syntax unified
 1182              		.thumb
 1183              		.thumb_func
 1185              	HAL_FLASHEx_Erase:
 1186              	.LVL82:
 1187              	.LFB968:
 175:Drivers/STM32WLxx_HAL_Driver/Src/stm32wlxx_hal_flash_ex.c ****   HAL_StatusTypeDef status;
 1188              		.loc 1 175 1 is_stmt 1 view -0
 1189              		.cfi_startproc
 1190              		@ args = 0, pretend = 0, frame = 0
 1191              		@ frame_needed = 0, uses_anonymous_args = 0
 175:Drivers/STM32WLxx_HAL_Driver/Src/stm32wlxx_hal_flash_ex.c ****   HAL_StatusTypeDef status;
 1192              		.loc 1 175 1 is_stmt 0 view .LVU299
 1193 0000 F8B5     		push	{r3, r4, r5, r6, r7, lr}
 1194              	.LCFI15:
 1195              		.cfi_def_cfa_offset 24
 1196              		.cfi_offset 3, -24
 1197              		.cfi_offset 4, -20
 1198              		.cfi_offset 5, -16
 1199              		.cfi_offset 6, -12
 1200              		.cfi_offset 7, -8
 1201              		.cfi_offset 14, -4
 176:Drivers/STM32WLxx_HAL_Driver/Src/stm32wlxx_hal_flash_ex.c ****   uint32_t index;
 1202              		.loc 1 176 3 is_stmt 1 view .LVU300
 177:Drivers/STM32WLxx_HAL_Driver/Src/stm32wlxx_hal_flash_ex.c **** 
 1203              		.loc 1 177 3 view .LVU301
 180:Drivers/STM32WLxx_HAL_Driver/Src/stm32wlxx_hal_flash_ex.c **** 
 1204              		.loc 1 180 3 view .LVU302
 183:Drivers/STM32WLxx_HAL_Driver/Src/stm32wlxx_hal_flash_ex.c **** 
 1205              		.loc 1 183 3 view .LVU303
 183:Drivers/STM32WLxx_HAL_Driver/Src/stm32wlxx_hal_flash_ex.c **** 
 1206              		.loc 1 183 3 view .LVU304
 1207 0002 1E4B     		ldr	r3, .L122
 1208 0004 1B78     		ldrb	r3, [r3]	@ zero_extendqisi2
 1209 0006 012B     		cmp	r3, #1
 1210 0008 35D0     		beq	.L118
 1211 000a 0546     		mov	r5, r0
 1212 000c 0F46     		mov	r7, r1
 183:Drivers/STM32WLxx_HAL_Driver/Src/stm32wlxx_hal_flash_ex.c **** 
 1213              		.loc 1 183 3 discriminator 2 view .LVU305
 1214 000e 1B4B     		ldr	r3, .L122
 1215 0010 0122     		movs	r2, #1
 1216 0012 1A70     		strb	r2, [r3]
 183:Drivers/STM32WLxx_HAL_Driver/Src/stm32wlxx_hal_flash_ex.c **** 
ARM GAS  C:\Users\NATHAN~1\AppData\Local\Temp\cc8eZusg.s 			page 47


 1217              		.loc 1 183 3 discriminator 2 view .LVU306
 186:Drivers/STM32WLxx_HAL_Driver/Src/stm32wlxx_hal_flash_ex.c **** 
 1218              		.loc 1 186 3 discriminator 2 view .LVU307
 186:Drivers/STM32WLxx_HAL_Driver/Src/stm32wlxx_hal_flash_ex.c **** 
 1219              		.loc 1 186 20 is_stmt 0 discriminator 2 view .LVU308
 1220 0014 0022     		movs	r2, #0
 1221 0016 5A60     		str	r2, [r3, #4]
 189:Drivers/STM32WLxx_HAL_Driver/Src/stm32wlxx_hal_flash_ex.c **** 
 1222              		.loc 1 189 3 is_stmt 1 discriminator 2 view .LVU309
 189:Drivers/STM32WLxx_HAL_Driver/Src/stm32wlxx_hal_flash_ex.c **** 
 1223              		.loc 1 189 12 is_stmt 0 discriminator 2 view .LVU310
 1224 0018 4FF47A70 		mov	r0, #1000
 1225              	.LVL83:
 189:Drivers/STM32WLxx_HAL_Driver/Src/stm32wlxx_hal_flash_ex.c **** 
 1226              		.loc 1 189 12 discriminator 2 view .LVU311
 1227 001c FFF7FEFF 		bl	FLASH_WaitForLastOperation
 1228              	.LVL84:
 191:Drivers/STM32WLxx_HAL_Driver/Src/stm32wlxx_hal_flash_ex.c ****   {
 1229              		.loc 1 191 3 is_stmt 1 discriminator 2 view .LVU312
 191:Drivers/STM32WLxx_HAL_Driver/Src/stm32wlxx_hal_flash_ex.c ****   {
 1230              		.loc 1 191 6 is_stmt 0 discriminator 2 view .LVU313
 1231 0020 0646     		mov	r6, r0
 1232 0022 18BB     		cbnz	r0, .L111
 193:Drivers/STM32WLxx_HAL_Driver/Src/stm32wlxx_hal_flash_ex.c ****     {
 1233              		.loc 1 193 5 is_stmt 1 view .LVU314
 193:Drivers/STM32WLxx_HAL_Driver/Src/stm32wlxx_hal_flash_ex.c ****     {
 1234              		.loc 1 193 19 is_stmt 0 view .LVU315
 1235 0024 2B68     		ldr	r3, [r5]
 193:Drivers/STM32WLxx_HAL_Driver/Src/stm32wlxx_hal_flash_ex.c ****     {
 1236              		.loc 1 193 8 view .LVU316
 1237 0026 042B     		cmp	r3, #4
 1238 0028 13D0     		beq	.L120
 206:Drivers/STM32WLxx_HAL_Driver/Src/stm32wlxx_hal_flash_ex.c **** 
 1239              		.loc 1 206 7 is_stmt 1 view .LVU317
 206:Drivers/STM32WLxx_HAL_Driver/Src/stm32wlxx_hal_flash_ex.c **** 
 1240              		.loc 1 206 18 is_stmt 0 view .LVU318
 1241 002a 4FF0FF33 		mov	r3, #-1
 1242 002e 3B60     		str	r3, [r7]
 208:Drivers/STM32WLxx_HAL_Driver/Src/stm32wlxx_hal_flash_ex.c ****       {
 1243              		.loc 1 208 7 is_stmt 1 view .LVU319
 208:Drivers/STM32WLxx_HAL_Driver/Src/stm32wlxx_hal_flash_ex.c ****       {
 1244              		.loc 1 208 18 is_stmt 0 view .LVU320
 1245 0030 6C68     		ldr	r4, [r5, #4]
 1246              	.LVL85:
 1247              	.L114:
 208:Drivers/STM32WLxx_HAL_Driver/Src/stm32wlxx_hal_flash_ex.c ****       {
 1248              		.loc 1 208 38 is_stmt 1 discriminator 1 view .LVU321
 208:Drivers/STM32WLxx_HAL_Driver/Src/stm32wlxx_hal_flash_ex.c ****       {
 1249              		.loc 1 208 57 is_stmt 0 discriminator 1 view .LVU322
 1250 0032 6B68     		ldr	r3, [r5, #4]
 208:Drivers/STM32WLxx_HAL_Driver/Src/stm32wlxx_hal_flash_ex.c ****       {
 1251              		.loc 1 208 76 discriminator 1 view .LVU323
 1252 0034 AA68     		ldr	r2, [r5, #8]
 208:Drivers/STM32WLxx_HAL_Driver/Src/stm32wlxx_hal_flash_ex.c ****       {
 1253              		.loc 1 208 64 discriminator 1 view .LVU324
 1254 0036 1344     		add	r3, r3, r2
 208:Drivers/STM32WLxx_HAL_Driver/Src/stm32wlxx_hal_flash_ex.c ****       {
ARM GAS  C:\Users\NATHAN~1\AppData\Local\Temp\cc8eZusg.s 			page 48


 1255              		.loc 1 208 7 discriminator 1 view .LVU325
 1256 0038 A342     		cmp	r3, r4
 1257 003a 13D9     		bls	.L116
 211:Drivers/STM32WLxx_HAL_Driver/Src/stm32wlxx_hal_flash_ex.c **** 
 1258              		.loc 1 211 9 is_stmt 1 view .LVU326
 1259 003c 2046     		mov	r0, r4
 1260 003e FFF7FEFF 		bl	FLASH_PageErase
 1261              	.LVL86:
 214:Drivers/STM32WLxx_HAL_Driver/Src/stm32wlxx_hal_flash_ex.c **** 
 1262              		.loc 1 214 9 view .LVU327
 214:Drivers/STM32WLxx_HAL_Driver/Src/stm32wlxx_hal_flash_ex.c **** 
 1263              		.loc 1 214 18 is_stmt 0 view .LVU328
 1264 0042 4FF47A70 		mov	r0, #1000
 1265 0046 FFF7FEFF 		bl	FLASH_WaitForLastOperation
 1266              	.LVL87:
 216:Drivers/STM32WLxx_HAL_Driver/Src/stm32wlxx_hal_flash_ex.c ****         {
 1267              		.loc 1 216 9 is_stmt 1 view .LVU329
 216:Drivers/STM32WLxx_HAL_Driver/Src/stm32wlxx_hal_flash_ex.c ****         {
 1268              		.loc 1 216 12 is_stmt 0 view .LVU330
 1269 004a 0646     		mov	r6, r0
 1270 004c 48B9     		cbnz	r0, .L121
 208:Drivers/STM32WLxx_HAL_Driver/Src/stm32wlxx_hal_flash_ex.c ****       {
 1271              		.loc 1 208 88 is_stmt 1 discriminator 2 view .LVU331
 208:Drivers/STM32WLxx_HAL_Driver/Src/stm32wlxx_hal_flash_ex.c ****       {
 1272              		.loc 1 208 93 is_stmt 0 discriminator 2 view .LVU332
 1273 004e 0134     		adds	r4, r4, #1
 1274              	.LVL88:
 208:Drivers/STM32WLxx_HAL_Driver/Src/stm32wlxx_hal_flash_ex.c ****       {
 1275              		.loc 1 208 93 discriminator 2 view .LVU333
 1276 0050 EFE7     		b	.L114
 1277              	.LVL89:
 1278              	.L120:
 196:Drivers/STM32WLxx_HAL_Driver/Src/stm32wlxx_hal_flash_ex.c **** 
 1279              		.loc 1 196 7 is_stmt 1 view .LVU334
 1280 0052 FFF7FEFF 		bl	FLASH_MassErase
 1281              	.LVL90:
 199:Drivers/STM32WLxx_HAL_Driver/Src/stm32wlxx_hal_flash_ex.c **** 
 1282              		.loc 1 199 7 view .LVU335
 199:Drivers/STM32WLxx_HAL_Driver/Src/stm32wlxx_hal_flash_ex.c **** 
 1283              		.loc 1 199 16 is_stmt 0 view .LVU336
 1284 0056 4FF47A70 		mov	r0, #1000
 1285 005a FFF7FEFF 		bl	FLASH_WaitForLastOperation
 1286              	.LVL91:
 1287 005e 0646     		mov	r6, r0
 1288              	.LVL92:
 199:Drivers/STM32WLxx_HAL_Driver/Src/stm32wlxx_hal_flash_ex.c **** 
 1289              		.loc 1 199 16 view .LVU337
 1290 0060 02E0     		b	.L113
 1291              	.LVL93:
 1292              	.L121:
 219:Drivers/STM32WLxx_HAL_Driver/Src/stm32wlxx_hal_flash_ex.c ****           break;
 1293              		.loc 1 219 11 is_stmt 1 view .LVU338
 219:Drivers/STM32WLxx_HAL_Driver/Src/stm32wlxx_hal_flash_ex.c ****           break;
 1294              		.loc 1 219 22 is_stmt 0 view .LVU339
 1295 0062 3C60     		str	r4, [r7]
 220:Drivers/STM32WLxx_HAL_Driver/Src/stm32wlxx_hal_flash_ex.c ****         }
 1296              		.loc 1 220 11 is_stmt 1 view .LVU340
ARM GAS  C:\Users\NATHAN~1\AppData\Local\Temp\cc8eZusg.s 			page 49


 1297              	.LVL94:
 1298              	.L116:
 225:Drivers/STM32WLxx_HAL_Driver/Src/stm32wlxx_hal_flash_ex.c ****     }
 1299              		.loc 1 225 7 view .LVU341
 1300 0064 FFF7FEFF 		bl	FLASH_AcknowledgePageErase
 1301              	.LVL95:
 1302              	.L113:
 229:Drivers/STM32WLxx_HAL_Driver/Src/stm32wlxx_hal_flash_ex.c ****   }
 1303              		.loc 1 229 5 view .LVU342
 1304 0068 FFF7FEFF 		bl	FLASH_FlushCaches
 1305              	.LVL96:
 1306              	.L111:
 233:Drivers/STM32WLxx_HAL_Driver/Src/stm32wlxx_hal_flash_ex.c **** 
 1307              		.loc 1 233 3 view .LVU343
 233:Drivers/STM32WLxx_HAL_Driver/Src/stm32wlxx_hal_flash_ex.c **** 
 1308              		.loc 1 233 3 view .LVU344
 1309 006c 034B     		ldr	r3, .L122
 1310 006e 0022     		movs	r2, #0
 1311 0070 1A70     		strb	r2, [r3]
 233:Drivers/STM32WLxx_HAL_Driver/Src/stm32wlxx_hal_flash_ex.c **** 
 1312              		.loc 1 233 3 view .LVU345
 235:Drivers/STM32WLxx_HAL_Driver/Src/stm32wlxx_hal_flash_ex.c **** }
 1313              		.loc 1 235 3 view .LVU346
 1314              	.LVL97:
 1315              	.L110:
 236:Drivers/STM32WLxx_HAL_Driver/Src/stm32wlxx_hal_flash_ex.c **** 
 1316              		.loc 1 236 1 is_stmt 0 view .LVU347
 1317 0072 3046     		mov	r0, r6
 1318 0074 F8BD     		pop	{r3, r4, r5, r6, r7, pc}
 1319              	.LVL98:
 1320              	.L118:
 183:Drivers/STM32WLxx_HAL_Driver/Src/stm32wlxx_hal_flash_ex.c **** 
 1321              		.loc 1 183 3 view .LVU348
 1322 0076 0226     		movs	r6, #2
 1323 0078 FBE7     		b	.L110
 1324              	.L123:
 1325 007a 00BF     		.align	2
 1326              	.L122:
 1327 007c 00000000 		.word	pFlash
 1328              		.cfi_endproc
 1329              	.LFE968:
 1331              		.section	.text.HAL_FLASHEx_Erase_IT,"ax",%progbits
 1332              		.align	1
 1333              		.global	HAL_FLASHEx_Erase_IT
 1334              		.syntax unified
 1335              		.thumb
 1336              		.thumb_func
 1338              	HAL_FLASHEx_Erase_IT:
 1339              	.LVL99:
 1340              	.LFB969:
 247:Drivers/STM32WLxx_HAL_Driver/Src/stm32wlxx_hal_flash_ex.c ****   HAL_StatusTypeDef status;
 1341              		.loc 1 247 1 is_stmt 1 view -0
 1342              		.cfi_startproc
 1343              		@ args = 0, pretend = 0, frame = 0
 1344              		@ frame_needed = 0, uses_anonymous_args = 0
 247:Drivers/STM32WLxx_HAL_Driver/Src/stm32wlxx_hal_flash_ex.c ****   HAL_StatusTypeDef status;
 1345              		.loc 1 247 1 is_stmt 0 view .LVU350
ARM GAS  C:\Users\NATHAN~1\AppData\Local\Temp\cc8eZusg.s 			page 50


 1346 0000 38B5     		push	{r3, r4, r5, lr}
 1347              	.LCFI16:
 1348              		.cfi_def_cfa_offset 16
 1349              		.cfi_offset 3, -16
 1350              		.cfi_offset 4, -12
 1351              		.cfi_offset 5, -8
 1352              		.cfi_offset 14, -4
 248:Drivers/STM32WLxx_HAL_Driver/Src/stm32wlxx_hal_flash_ex.c **** 
 1353              		.loc 1 248 3 is_stmt 1 view .LVU351
 251:Drivers/STM32WLxx_HAL_Driver/Src/stm32wlxx_hal_flash_ex.c **** 
 1354              		.loc 1 251 3 view .LVU352
 254:Drivers/STM32WLxx_HAL_Driver/Src/stm32wlxx_hal_flash_ex.c **** 
 1355              		.loc 1 254 3 view .LVU353
 254:Drivers/STM32WLxx_HAL_Driver/Src/stm32wlxx_hal_flash_ex.c **** 
 1356              		.loc 1 254 3 view .LVU354
 1357 0002 174B     		ldr	r3, .L131
 1358 0004 1B78     		ldrb	r3, [r3]	@ zero_extendqisi2
 1359 0006 012B     		cmp	r3, #1
 1360 0008 28D0     		beq	.L128
 1361 000a 0446     		mov	r4, r0
 254:Drivers/STM32WLxx_HAL_Driver/Src/stm32wlxx_hal_flash_ex.c **** 
 1362              		.loc 1 254 3 discriminator 2 view .LVU355
 1363 000c 144B     		ldr	r3, .L131
 1364 000e 0122     		movs	r2, #1
 1365 0010 1A70     		strb	r2, [r3]
 254:Drivers/STM32WLxx_HAL_Driver/Src/stm32wlxx_hal_flash_ex.c **** 
 1366              		.loc 1 254 3 discriminator 2 view .LVU356
 257:Drivers/STM32WLxx_HAL_Driver/Src/stm32wlxx_hal_flash_ex.c **** 
 1367              		.loc 1 257 3 discriminator 2 view .LVU357
 257:Drivers/STM32WLxx_HAL_Driver/Src/stm32wlxx_hal_flash_ex.c **** 
 1368              		.loc 1 257 20 is_stmt 0 discriminator 2 view .LVU358
 1369 0012 0022     		movs	r2, #0
 1370 0014 5A60     		str	r2, [r3, #4]
 260:Drivers/STM32WLxx_HAL_Driver/Src/stm32wlxx_hal_flash_ex.c **** 
 1371              		.loc 1 260 3 is_stmt 1 discriminator 2 view .LVU359
 260:Drivers/STM32WLxx_HAL_Driver/Src/stm32wlxx_hal_flash_ex.c **** 
 1372              		.loc 1 260 39 is_stmt 0 discriminator 2 view .LVU360
 1373 0016 0268     		ldr	r2, [r0]
 260:Drivers/STM32WLxx_HAL_Driver/Src/stm32wlxx_hal_flash_ex.c **** 
 1374              		.loc 1 260 27 discriminator 2 view .LVU361
 1375 0018 9A60     		str	r2, [r3, #8]
 263:Drivers/STM32WLxx_HAL_Driver/Src/stm32wlxx_hal_flash_ex.c **** 
 1376              		.loc 1 263 3 is_stmt 1 discriminator 2 view .LVU362
 263:Drivers/STM32WLxx_HAL_Driver/Src/stm32wlxx_hal_flash_ex.c **** 
 1377              		.loc 1 263 12 is_stmt 0 discriminator 2 view .LVU363
 1378 001a 4FF47A70 		mov	r0, #1000
 1379              	.LVL100:
 263:Drivers/STM32WLxx_HAL_Driver/Src/stm32wlxx_hal_flash_ex.c **** 
 1380              		.loc 1 263 12 discriminator 2 view .LVU364
 1381 001e FFF7FEFF 		bl	FLASH_WaitForLastOperation
 1382              	.LVL101:
 265:Drivers/STM32WLxx_HAL_Driver/Src/stm32wlxx_hal_flash_ex.c ****   {
 1383              		.loc 1 265 3 is_stmt 1 discriminator 2 view .LVU365
 265:Drivers/STM32WLxx_HAL_Driver/Src/stm32wlxx_hal_flash_ex.c ****   {
 1384              		.loc 1 265 6 is_stmt 0 discriminator 2 view .LVU366
 1385 0022 0546     		mov	r5, r0
 1386 0024 20B1     		cbz	r0, .L126
ARM GAS  C:\Users\NATHAN~1\AppData\Local\Temp\cc8eZusg.s 			page 51


 268:Drivers/STM32WLxx_HAL_Driver/Src/stm32wlxx_hal_flash_ex.c ****   }
 1387              		.loc 1 268 5 is_stmt 1 view .LVU367
 268:Drivers/STM32WLxx_HAL_Driver/Src/stm32wlxx_hal_flash_ex.c ****   }
 1388              		.loc 1 268 5 view .LVU368
 1389 0026 0E4B     		ldr	r3, .L131
 1390 0028 0022     		movs	r2, #0
 1391 002a 1A70     		strb	r2, [r3]
 268:Drivers/STM32WLxx_HAL_Driver/Src/stm32wlxx_hal_flash_ex.c ****   }
 1392              		.loc 1 268 5 view .LVU369
 1393              	.LVL102:
 1394              	.L125:
 296:Drivers/STM32WLxx_HAL_Driver/Src/stm32wlxx_hal_flash_ex.c **** 
 1395              		.loc 1 296 1 is_stmt 0 view .LVU370
 1396 002c 2846     		mov	r0, r5
 1397 002e 38BD     		pop	{r3, r4, r5, pc}
 1398              	.LVL103:
 1399              	.L126:
 273:Drivers/STM32WLxx_HAL_Driver/Src/stm32wlxx_hal_flash_ex.c **** 
 1400              		.loc 1 273 5 is_stmt 1 discriminator 4 view .LVU371
 273:Drivers/STM32WLxx_HAL_Driver/Src/stm32wlxx_hal_flash_ex.c **** 
 1401              		.loc 1 273 5 discriminator 4 view .LVU372
 273:Drivers/STM32WLxx_HAL_Driver/Src/stm32wlxx_hal_flash_ex.c **** 
 1402              		.loc 1 273 5 discriminator 4 view .LVU373
 273:Drivers/STM32WLxx_HAL_Driver/Src/stm32wlxx_hal_flash_ex.c **** 
 1403              		.loc 1 273 5 discriminator 4 view .LVU374
 1404 0030 0C4A     		ldr	r2, .L131+4
 1405 0032 5369     		ldr	r3, [r2, #20]
 1406 0034 43F04073 		orr	r3, r3, #50331648
 1407 0038 5361     		str	r3, [r2, #20]
 273:Drivers/STM32WLxx_HAL_Driver/Src/stm32wlxx_hal_flash_ex.c **** 
 1408              		.loc 1 273 5 discriminator 4 view .LVU375
 275:Drivers/STM32WLxx_HAL_Driver/Src/stm32wlxx_hal_flash_ex.c ****     {
 1409              		.loc 1 275 5 discriminator 4 view .LVU376
 275:Drivers/STM32WLxx_HAL_Driver/Src/stm32wlxx_hal_flash_ex.c ****     {
 1410              		.loc 1 275 19 is_stmt 0 discriminator 4 view .LVU377
 1411 003a 2368     		ldr	r3, [r4]
 275:Drivers/STM32WLxx_HAL_Driver/Src/stm32wlxx_hal_flash_ex.c ****     {
 1412              		.loc 1 275 8 discriminator 4 view .LVU378
 1413 003c 042B     		cmp	r3, #4
 1414 003e 07D0     		beq	.L130
 286:Drivers/STM32WLxx_HAL_Driver/Src/stm32wlxx_hal_flash_ex.c ****       pFlash.Page = pEraseInit->Page;
 1415              		.loc 1 286 7 is_stmt 1 view .LVU379
 286:Drivers/STM32WLxx_HAL_Driver/Src/stm32wlxx_hal_flash_ex.c ****       pFlash.Page = pEraseInit->Page;
 1416              		.loc 1 286 41 is_stmt 0 view .LVU380
 1417 0040 A268     		ldr	r2, [r4, #8]
 286:Drivers/STM32WLxx_HAL_Driver/Src/stm32wlxx_hal_flash_ex.c ****       pFlash.Page = pEraseInit->Page;
 1418              		.loc 1 286 29 view .LVU381
 1419 0042 074B     		ldr	r3, .L131
 1420 0044 5A61     		str	r2, [r3, #20]
 287:Drivers/STM32WLxx_HAL_Driver/Src/stm32wlxx_hal_flash_ex.c **** 
 1421              		.loc 1 287 7 is_stmt 1 view .LVU382
 287:Drivers/STM32WLxx_HAL_Driver/Src/stm32wlxx_hal_flash_ex.c **** 
 1422              		.loc 1 287 31 is_stmt 0 view .LVU383
 1423 0046 6068     		ldr	r0, [r4, #4]
 1424              	.LVL104:
 287:Drivers/STM32WLxx_HAL_Driver/Src/stm32wlxx_hal_flash_ex.c **** 
 1425              		.loc 1 287 19 view .LVU384
ARM GAS  C:\Users\NATHAN~1\AppData\Local\Temp\cc8eZusg.s 			page 52


 1426 0048 1861     		str	r0, [r3, #16]
 290:Drivers/STM32WLxx_HAL_Driver/Src/stm32wlxx_hal_flash_ex.c ****     }
 1427              		.loc 1 290 7 is_stmt 1 view .LVU385
 1428 004a FFF7FEFF 		bl	FLASH_PageErase
 1429              	.LVL105:
 1430 004e EDE7     		b	.L125
 1431              	.LVL106:
 1432              	.L130:
 278:Drivers/STM32WLxx_HAL_Driver/Src/stm32wlxx_hal_flash_ex.c **** 
 1433              		.loc 1 278 7 view .LVU386
 278:Drivers/STM32WLxx_HAL_Driver/Src/stm32wlxx_hal_flash_ex.c **** 
 1434              		.loc 1 278 19 is_stmt 0 view .LVU387
 1435 0050 034B     		ldr	r3, .L131
 1436 0052 0022     		movs	r2, #0
 1437 0054 1A61     		str	r2, [r3, #16]
 281:Drivers/STM32WLxx_HAL_Driver/Src/stm32wlxx_hal_flash_ex.c ****     }
 1438              		.loc 1 281 7 is_stmt 1 view .LVU388
 1439 0056 FFF7FEFF 		bl	FLASH_MassErase
 1440              	.LVL107:
 281:Drivers/STM32WLxx_HAL_Driver/Src/stm32wlxx_hal_flash_ex.c ****     }
 1441              		.loc 1 281 7 is_stmt 0 view .LVU389
 1442 005a E7E7     		b	.L125
 1443              	.LVL108:
 1444              	.L128:
 254:Drivers/STM32WLxx_HAL_Driver/Src/stm32wlxx_hal_flash_ex.c **** 
 1445              		.loc 1 254 3 view .LVU390
 1446 005c 0225     		movs	r5, #2
 1447 005e E5E7     		b	.L125
 1448              	.L132:
 1449              		.align	2
 1450              	.L131:
 1451 0060 00000000 		.word	pFlash
 1452 0064 00400058 		.word	1476411392
 1453              		.cfi_endproc
 1454              	.LFE969:
 1456              		.text
 1457              	.Letext0:
 1458              		.file 2 "c:\\program files (x86)\\gnu arm embedded toolchain\\10 2021.10\\arm-none-eabi\\include\\
 1459              		.file 3 "c:\\program files (x86)\\gnu arm embedded toolchain\\10 2021.10\\arm-none-eabi\\include\\
 1460              		.file 4 "Drivers/CMSIS/Device/ST/STM32WLxx/Include/stm32wle5xx.h"
 1461              		.file 5 "Drivers/STM32WLxx_HAL_Driver/Inc/stm32wlxx_hal_def.h"
 1462              		.file 6 "Drivers/STM32WLxx_HAL_Driver/Inc/stm32wlxx_hal_flash.h"
 1463              		.file 7 "Drivers/STM32WLxx_HAL_Driver/Inc/stm32wlxx_ll_dma.h"
ARM GAS  C:\Users\NATHAN~1\AppData\Local\Temp\cc8eZusg.s 			page 53

