ARM GAS  C:\Users\NATHAN~1\AppData\Local\Temp\ccu0I2kX.s 			page 1


   1              		.cpu cortex-m4
   2              		.arch armv7e-m
   3              		.fpu softvfp
   4              		.eabi_attribute 20, 1
   5              		.eabi_attribute 21, 1
   6              		.eabi_attribute 23, 3
   7              		.eabi_attribute 24, 1
   8              		.eabi_attribute 25, 1
   9              		.eabi_attribute 26, 1
  10              		.eabi_attribute 30, 1
  11              		.eabi_attribute 34, 1
  12              		.eabi_attribute 18, 4
  13              		.file	"stm32wlxx_hal_pwr.c"
  14              		.text
  15              	.Ltext0:
  16              		.cfi_sections	.debug_frame
  17              		.section	.text.HAL_PWR_DeInit,"ax",%progbits
  18              		.align	1
  19              		.global	HAL_PWR_DeInit
  20              		.syntax unified
  21              		.thumb
  22              		.thumb_func
  24              	HAL_PWR_DeInit:
  25              	.LFB968:
  26              		.file 1 "Drivers/STM32WLxx_HAL_Driver/Src/stm32wlxx_hal_pwr.c"
   1:Drivers/STM32WLxx_HAL_Driver/Src/stm32wlxx_hal_pwr.c **** /**
   2:Drivers/STM32WLxx_HAL_Driver/Src/stm32wlxx_hal_pwr.c ****   ******************************************************************************
   3:Drivers/STM32WLxx_HAL_Driver/Src/stm32wlxx_hal_pwr.c ****   * @file    stm32wlxx_hal_pwr.c
   4:Drivers/STM32WLxx_HAL_Driver/Src/stm32wlxx_hal_pwr.c ****   * @author  MCD Application Team
   5:Drivers/STM32WLxx_HAL_Driver/Src/stm32wlxx_hal_pwr.c ****   * @brief   PWR HAL module driver.
   6:Drivers/STM32WLxx_HAL_Driver/Src/stm32wlxx_hal_pwr.c ****   *          This file provides firmware functions to manage the following
   7:Drivers/STM32WLxx_HAL_Driver/Src/stm32wlxx_hal_pwr.c ****   *          functionalities of the Power Controller (PWR) peripheral:
   8:Drivers/STM32WLxx_HAL_Driver/Src/stm32wlxx_hal_pwr.c ****   *           + Initialization/de-initialization functions
   9:Drivers/STM32WLxx_HAL_Driver/Src/stm32wlxx_hal_pwr.c ****   *           + Peripheral Control functions
  10:Drivers/STM32WLxx_HAL_Driver/Src/stm32wlxx_hal_pwr.c ****   ******************************************************************************
  11:Drivers/STM32WLxx_HAL_Driver/Src/stm32wlxx_hal_pwr.c ****   * @attention
  12:Drivers/STM32WLxx_HAL_Driver/Src/stm32wlxx_hal_pwr.c ****   *
  13:Drivers/STM32WLxx_HAL_Driver/Src/stm32wlxx_hal_pwr.c ****   * <h2><center>&copy; Copyright (c) 2020 STMicroelectronics.
  14:Drivers/STM32WLxx_HAL_Driver/Src/stm32wlxx_hal_pwr.c ****   * All rights reserved.</center></h2>
  15:Drivers/STM32WLxx_HAL_Driver/Src/stm32wlxx_hal_pwr.c ****   *
  16:Drivers/STM32WLxx_HAL_Driver/Src/stm32wlxx_hal_pwr.c ****   * This software component is licensed by ST under BSD 3-Clause license,
  17:Drivers/STM32WLxx_HAL_Driver/Src/stm32wlxx_hal_pwr.c ****   * the "License"; You may not use this file except in compliance with the
  18:Drivers/STM32WLxx_HAL_Driver/Src/stm32wlxx_hal_pwr.c ****   * License. You may obtain a copy of the License at:
  19:Drivers/STM32WLxx_HAL_Driver/Src/stm32wlxx_hal_pwr.c ****   *                        opensource.org/licenses/BSD-3-Clause
  20:Drivers/STM32WLxx_HAL_Driver/Src/stm32wlxx_hal_pwr.c ****   *
  21:Drivers/STM32WLxx_HAL_Driver/Src/stm32wlxx_hal_pwr.c ****   ******************************************************************************
  22:Drivers/STM32WLxx_HAL_Driver/Src/stm32wlxx_hal_pwr.c ****   */
  23:Drivers/STM32WLxx_HAL_Driver/Src/stm32wlxx_hal_pwr.c **** 
  24:Drivers/STM32WLxx_HAL_Driver/Src/stm32wlxx_hal_pwr.c **** /* Includes ------------------------------------------------------------------*/
  25:Drivers/STM32WLxx_HAL_Driver/Src/stm32wlxx_hal_pwr.c **** #include "stm32wlxx_hal.h"
  26:Drivers/STM32WLxx_HAL_Driver/Src/stm32wlxx_hal_pwr.c **** 
  27:Drivers/STM32WLxx_HAL_Driver/Src/stm32wlxx_hal_pwr.c **** /** @addtogroup STM32WLxx_HAL_Driver
  28:Drivers/STM32WLxx_HAL_Driver/Src/stm32wlxx_hal_pwr.c ****   * @{
  29:Drivers/STM32WLxx_HAL_Driver/Src/stm32wlxx_hal_pwr.c ****   */
  30:Drivers/STM32WLxx_HAL_Driver/Src/stm32wlxx_hal_pwr.c **** 
  31:Drivers/STM32WLxx_HAL_Driver/Src/stm32wlxx_hal_pwr.c **** /** @addtogroup PWR
  32:Drivers/STM32WLxx_HAL_Driver/Src/stm32wlxx_hal_pwr.c ****   * @{
ARM GAS  C:\Users\NATHAN~1\AppData\Local\Temp\ccu0I2kX.s 			page 2


  33:Drivers/STM32WLxx_HAL_Driver/Src/stm32wlxx_hal_pwr.c ****   */
  34:Drivers/STM32WLxx_HAL_Driver/Src/stm32wlxx_hal_pwr.c **** 
  35:Drivers/STM32WLxx_HAL_Driver/Src/stm32wlxx_hal_pwr.c **** #ifdef HAL_PWR_MODULE_ENABLED
  36:Drivers/STM32WLxx_HAL_Driver/Src/stm32wlxx_hal_pwr.c **** 
  37:Drivers/STM32WLxx_HAL_Driver/Src/stm32wlxx_hal_pwr.c **** /* Private typedef -----------------------------------------------------------*/
  38:Drivers/STM32WLxx_HAL_Driver/Src/stm32wlxx_hal_pwr.c **** /* Private define ------------------------------------------------------------*/
  39:Drivers/STM32WLxx_HAL_Driver/Src/stm32wlxx_hal_pwr.c **** /* Private macro -------------------------------------------------------------*/
  40:Drivers/STM32WLxx_HAL_Driver/Src/stm32wlxx_hal_pwr.c **** /* Private variables ---------------------------------------------------------*/
  41:Drivers/STM32WLxx_HAL_Driver/Src/stm32wlxx_hal_pwr.c **** /* Private constants ---------------------------------------------------------*/
  42:Drivers/STM32WLxx_HAL_Driver/Src/stm32wlxx_hal_pwr.c **** 
  43:Drivers/STM32WLxx_HAL_Driver/Src/stm32wlxx_hal_pwr.c **** /** @addtogroup PWR_Private_Constants PWR Private Constants
  44:Drivers/STM32WLxx_HAL_Driver/Src/stm32wlxx_hal_pwr.c ****   * @{
  45:Drivers/STM32WLxx_HAL_Driver/Src/stm32wlxx_hal_pwr.c ****   */
  46:Drivers/STM32WLxx_HAL_Driver/Src/stm32wlxx_hal_pwr.c **** /* Definitions of PWR registers reset value */
  47:Drivers/STM32WLxx_HAL_Driver/Src/stm32wlxx_hal_pwr.c **** #define PWR_CR1_RESET_VALUE   (0x00000200)
  48:Drivers/STM32WLxx_HAL_Driver/Src/stm32wlxx_hal_pwr.c **** #define PWR_CR2_RESET_VALUE   (0x00000000)
  49:Drivers/STM32WLxx_HAL_Driver/Src/stm32wlxx_hal_pwr.c **** #define PWR_CR3_RESET_VALUE   (PWR_CR3_EIWUL)
  50:Drivers/STM32WLxx_HAL_Driver/Src/stm32wlxx_hal_pwr.c **** #define PWR_CR4_RESET_VALUE   (0x00000000)
  51:Drivers/STM32WLxx_HAL_Driver/Src/stm32wlxx_hal_pwr.c **** #define PWR_CR5_RESET_VALUE   (0x00000000)
  52:Drivers/STM32WLxx_HAL_Driver/Src/stm32wlxx_hal_pwr.c **** #define PWR_PUCRA_RESET_VALUE (0x00000000)
  53:Drivers/STM32WLxx_HAL_Driver/Src/stm32wlxx_hal_pwr.c **** #define PWR_PDCRA_RESET_VALUE (0x00000000)
  54:Drivers/STM32WLxx_HAL_Driver/Src/stm32wlxx_hal_pwr.c **** #define PWR_PUCRB_RESET_VALUE (0x00000000)
  55:Drivers/STM32WLxx_HAL_Driver/Src/stm32wlxx_hal_pwr.c **** #define PWR_PDCRB_RESET_VALUE (0x00000000)
  56:Drivers/STM32WLxx_HAL_Driver/Src/stm32wlxx_hal_pwr.c **** #define PWR_PUCRC_RESET_VALUE (0x00000000)
  57:Drivers/STM32WLxx_HAL_Driver/Src/stm32wlxx_hal_pwr.c **** #define PWR_PDCRC_RESET_VALUE (0x00000000)
  58:Drivers/STM32WLxx_HAL_Driver/Src/stm32wlxx_hal_pwr.c **** #define PWR_PUCRH_RESET_VALUE (0x00000000)
  59:Drivers/STM32WLxx_HAL_Driver/Src/stm32wlxx_hal_pwr.c **** #define PWR_PDCRH_RESET_VALUE (0x00000000)
  60:Drivers/STM32WLxx_HAL_Driver/Src/stm32wlxx_hal_pwr.c **** #if defined(DUAL_CORE)
  61:Drivers/STM32WLxx_HAL_Driver/Src/stm32wlxx_hal_pwr.c **** #define PWR_C2CR1_RESET_VALUE (PWR_C2CR1_LPMS_2 | PWR_C2CR1_LPMS_1 | PWR_C2CR1_LPMS_0)
  62:Drivers/STM32WLxx_HAL_Driver/Src/stm32wlxx_hal_pwr.c **** #define PWR_C2CR3_RESET_VALUE (0x00000000)
  63:Drivers/STM32WLxx_HAL_Driver/Src/stm32wlxx_hal_pwr.c **** #endif
  64:Drivers/STM32WLxx_HAL_Driver/Src/stm32wlxx_hal_pwr.c **** /**
  65:Drivers/STM32WLxx_HAL_Driver/Src/stm32wlxx_hal_pwr.c ****   * @}
  66:Drivers/STM32WLxx_HAL_Driver/Src/stm32wlxx_hal_pwr.c ****   */
  67:Drivers/STM32WLxx_HAL_Driver/Src/stm32wlxx_hal_pwr.c **** 
  68:Drivers/STM32WLxx_HAL_Driver/Src/stm32wlxx_hal_pwr.c **** /* Private function prototypes -----------------------------------------------*/
  69:Drivers/STM32WLxx_HAL_Driver/Src/stm32wlxx_hal_pwr.c **** /* Exported functions --------------------------------------------------------*/
  70:Drivers/STM32WLxx_HAL_Driver/Src/stm32wlxx_hal_pwr.c **** /** @addtogroup PWR_Exported_Functions  PWR Exported Functions
  71:Drivers/STM32WLxx_HAL_Driver/Src/stm32wlxx_hal_pwr.c ****   * @{
  72:Drivers/STM32WLxx_HAL_Driver/Src/stm32wlxx_hal_pwr.c ****   */
  73:Drivers/STM32WLxx_HAL_Driver/Src/stm32wlxx_hal_pwr.c **** 
  74:Drivers/STM32WLxx_HAL_Driver/Src/stm32wlxx_hal_pwr.c **** /** @addtogroup PWR_Exported_Functions_Group1  Initialization and de-initialization functions
  75:Drivers/STM32WLxx_HAL_Driver/Src/stm32wlxx_hal_pwr.c ****   * @brief  Initialization and de-initialization functions
  76:Drivers/STM32WLxx_HAL_Driver/Src/stm32wlxx_hal_pwr.c ****   *
  77:Drivers/STM32WLxx_HAL_Driver/Src/stm32wlxx_hal_pwr.c **** @verbatim
  78:Drivers/STM32WLxx_HAL_Driver/Src/stm32wlxx_hal_pwr.c ****  ===============================================================================
  79:Drivers/STM32WLxx_HAL_Driver/Src/stm32wlxx_hal_pwr.c ****               ##### Initialization and de-initialization functions #####
  80:Drivers/STM32WLxx_HAL_Driver/Src/stm32wlxx_hal_pwr.c ****  ===============================================================================
  81:Drivers/STM32WLxx_HAL_Driver/Src/stm32wlxx_hal_pwr.c ****     [..]
  82:Drivers/STM32WLxx_HAL_Driver/Src/stm32wlxx_hal_pwr.c **** 
  83:Drivers/STM32WLxx_HAL_Driver/Src/stm32wlxx_hal_pwr.c **** @endverbatim
  84:Drivers/STM32WLxx_HAL_Driver/Src/stm32wlxx_hal_pwr.c ****   * @{
  85:Drivers/STM32WLxx_HAL_Driver/Src/stm32wlxx_hal_pwr.c ****   */
  86:Drivers/STM32WLxx_HAL_Driver/Src/stm32wlxx_hal_pwr.c **** 
  87:Drivers/STM32WLxx_HAL_Driver/Src/stm32wlxx_hal_pwr.c **** /**
  88:Drivers/STM32WLxx_HAL_Driver/Src/stm32wlxx_hal_pwr.c ****   * @brief  Deinitialize the HAL PWR peripheral registers to their default reset values.
  89:Drivers/STM32WLxx_HAL_Driver/Src/stm32wlxx_hal_pwr.c ****   * @retval None
ARM GAS  C:\Users\NATHAN~1\AppData\Local\Temp\ccu0I2kX.s 			page 3


  90:Drivers/STM32WLxx_HAL_Driver/Src/stm32wlxx_hal_pwr.c ****   */
  91:Drivers/STM32WLxx_HAL_Driver/Src/stm32wlxx_hal_pwr.c **** void HAL_PWR_DeInit(void)
  92:Drivers/STM32WLxx_HAL_Driver/Src/stm32wlxx_hal_pwr.c **** {
  27              		.loc 1 92 1 view -0
  28              		.cfi_startproc
  29              		@ args = 0, pretend = 0, frame = 0
  30              		@ frame_needed = 0, uses_anonymous_args = 0
  31              		@ link register save eliminated.
  93:Drivers/STM32WLxx_HAL_Driver/Src/stm32wlxx_hal_pwr.c ****   /* Apply reset values to all PWR registers */
  94:Drivers/STM32WLxx_HAL_Driver/Src/stm32wlxx_hal_pwr.c ****   /* Note: Update of each register required since PWR global reset is not     */
  95:Drivers/STM32WLxx_HAL_Driver/Src/stm32wlxx_hal_pwr.c ****   /*       available at RCC level on this STM32 series.                        */
  96:Drivers/STM32WLxx_HAL_Driver/Src/stm32wlxx_hal_pwr.c ****   LL_PWR_WriteReg(CR1, PWR_CR1_RESET_VALUE);
  32              		.loc 1 96 3 view .LVU1
  33 0000 0C4B     		ldr	r3, .L2
  34 0002 4FF40072 		mov	r2, #512
  35 0006 1A60     		str	r2, [r3]
  97:Drivers/STM32WLxx_HAL_Driver/Src/stm32wlxx_hal_pwr.c ****   LL_PWR_WriteReg(CR2, PWR_CR2_RESET_VALUE);
  36              		.loc 1 97 3 view .LVU2
  37 0008 0022     		movs	r2, #0
  38 000a 5A60     		str	r2, [r3, #4]
  98:Drivers/STM32WLxx_HAL_Driver/Src/stm32wlxx_hal_pwr.c ****   LL_PWR_WriteReg(CR3, PWR_CR3_RESET_VALUE);
  39              		.loc 1 98 3 view .LVU3
  40 000c 4FF40041 		mov	r1, #32768
  41 0010 9960     		str	r1, [r3, #8]
  99:Drivers/STM32WLxx_HAL_Driver/Src/stm32wlxx_hal_pwr.c ****   LL_PWR_WriteReg(CR4, PWR_CR4_RESET_VALUE);
  42              		.loc 1 99 3 view .LVU4
  43 0012 DA60     		str	r2, [r3, #12]
 100:Drivers/STM32WLxx_HAL_Driver/Src/stm32wlxx_hal_pwr.c ****   LL_PWR_WriteReg(CR5, PWR_CR5_RESET_VALUE);
  44              		.loc 1 100 3 view .LVU5
  45 0014 DA61     		str	r2, [r3, #28]
 101:Drivers/STM32WLxx_HAL_Driver/Src/stm32wlxx_hal_pwr.c ****   LL_PWR_WriteReg(PUCRA, PWR_PUCRA_RESET_VALUE);
  46              		.loc 1 101 3 view .LVU6
  47 0016 1A62     		str	r2, [r3, #32]
 102:Drivers/STM32WLxx_HAL_Driver/Src/stm32wlxx_hal_pwr.c ****   LL_PWR_WriteReg(PDCRA, PWR_PDCRA_RESET_VALUE);
  48              		.loc 1 102 3 view .LVU7
  49 0018 5A62     		str	r2, [r3, #36]
 103:Drivers/STM32WLxx_HAL_Driver/Src/stm32wlxx_hal_pwr.c ****   LL_PWR_WriteReg(PUCRB, PWR_PUCRB_RESET_VALUE);
  50              		.loc 1 103 3 view .LVU8
  51 001a 9A62     		str	r2, [r3, #40]
 104:Drivers/STM32WLxx_HAL_Driver/Src/stm32wlxx_hal_pwr.c ****   LL_PWR_WriteReg(PDCRB, PWR_PDCRB_RESET_VALUE);
  52              		.loc 1 104 3 view .LVU9
  53 001c DA62     		str	r2, [r3, #44]
 105:Drivers/STM32WLxx_HAL_Driver/Src/stm32wlxx_hal_pwr.c ****   LL_PWR_WriteReg(PUCRC, PWR_PUCRC_RESET_VALUE);
  54              		.loc 1 105 3 view .LVU10
  55 001e 1A63     		str	r2, [r3, #48]
 106:Drivers/STM32WLxx_HAL_Driver/Src/stm32wlxx_hal_pwr.c ****   LL_PWR_WriteReg(PDCRC, PWR_PDCRC_RESET_VALUE);
  56              		.loc 1 106 3 view .LVU11
  57 0020 5A63     		str	r2, [r3, #52]
 107:Drivers/STM32WLxx_HAL_Driver/Src/stm32wlxx_hal_pwr.c ****   LL_PWR_WriteReg(PUCRH, PWR_PUCRH_RESET_VALUE);
  58              		.loc 1 107 3 view .LVU12
  59 0022 9A65     		str	r2, [r3, #88]
 108:Drivers/STM32WLxx_HAL_Driver/Src/stm32wlxx_hal_pwr.c ****   LL_PWR_WriteReg(PDCRH, PWR_PDCRH_RESET_VALUE);
  60              		.loc 1 108 3 view .LVU13
  61 0024 DA65     		str	r2, [r3, #92]
 109:Drivers/STM32WLxx_HAL_Driver/Src/stm32wlxx_hal_pwr.c **** #ifdef CORE_CM0PLUS
 110:Drivers/STM32WLxx_HAL_Driver/Src/stm32wlxx_hal_pwr.c ****   LL_PWR_WriteReg(C2CR1, PWR_C2CR1_RESET_VALUE);
 111:Drivers/STM32WLxx_HAL_Driver/Src/stm32wlxx_hal_pwr.c ****   LL_PWR_WriteReg(C2CR3, PWR_C2CR3_RESET_VALUE);
ARM GAS  C:\Users\NATHAN~1\AppData\Local\Temp\ccu0I2kX.s 			page 4


 112:Drivers/STM32WLxx_HAL_Driver/Src/stm32wlxx_hal_pwr.c **** #endif
 113:Drivers/STM32WLxx_HAL_Driver/Src/stm32wlxx_hal_pwr.c **** 
 114:Drivers/STM32WLxx_HAL_Driver/Src/stm32wlxx_hal_pwr.c ****   /* Clear all flags */
 115:Drivers/STM32WLxx_HAL_Driver/Src/stm32wlxx_hal_pwr.c ****   LL_PWR_WriteReg(SCR,
  62              		.loc 1 115 3 view .LVU14
  63 0026 40F60712 		movw	r2, #2311
  64 002a 9A61     		str	r2, [r3, #24]
 116:Drivers/STM32WLxx_HAL_Driver/Src/stm32wlxx_hal_pwr.c ****                   LL_PWR_SCR_CWUF
 117:Drivers/STM32WLxx_HAL_Driver/Src/stm32wlxx_hal_pwr.c ****                   | LL_PWR_SCR_CWRFBUSYF
 118:Drivers/STM32WLxx_HAL_Driver/Src/stm32wlxx_hal_pwr.c ****                   | LL_PWR_SCR_CWPVDF
 119:Drivers/STM32WLxx_HAL_Driver/Src/stm32wlxx_hal_pwr.c **** #if defined(DUAL_CORE)
 120:Drivers/STM32WLxx_HAL_Driver/Src/stm32wlxx_hal_pwr.c ****                   | LL_PWR_SCR_CC2HF
 121:Drivers/STM32WLxx_HAL_Driver/Src/stm32wlxx_hal_pwr.c **** #endif
 122:Drivers/STM32WLxx_HAL_Driver/Src/stm32wlxx_hal_pwr.c ****                  );
 123:Drivers/STM32WLxx_HAL_Driver/Src/stm32wlxx_hal_pwr.c **** 
 124:Drivers/STM32WLxx_HAL_Driver/Src/stm32wlxx_hal_pwr.c ****   LL_PWR_WriteReg(EXTSCR,
  65              		.loc 1 124 3 view .LVU15
  66 002c 0122     		movs	r2, #1
  67 002e C3F88820 		str	r2, [r3, #136]
 125:Drivers/STM32WLxx_HAL_Driver/Src/stm32wlxx_hal_pwr.c **** #ifdef CORE_CM0PLUS
 126:Drivers/STM32WLxx_HAL_Driver/Src/stm32wlxx_hal_pwr.c ****                   LL_PWR_EXTSCR_C2CSSF
 127:Drivers/STM32WLxx_HAL_Driver/Src/stm32wlxx_hal_pwr.c **** #else
 128:Drivers/STM32WLxx_HAL_Driver/Src/stm32wlxx_hal_pwr.c ****                   LL_PWR_EXTSCR_C1CSSF
 129:Drivers/STM32WLxx_HAL_Driver/Src/stm32wlxx_hal_pwr.c **** #endif
 130:Drivers/STM32WLxx_HAL_Driver/Src/stm32wlxx_hal_pwr.c ****                  );
 131:Drivers/STM32WLxx_HAL_Driver/Src/stm32wlxx_hal_pwr.c **** }
  68              		.loc 1 131 1 is_stmt 0 view .LVU16
  69 0032 7047     		bx	lr
  70              	.L3:
  71              		.align	2
  72              	.L2:
  73 0034 00040058 		.word	1476396032
  74              		.cfi_endproc
  75              	.LFE968:
  77              		.section	.text.HAL_PWR_EnableBkUpAccess,"ax",%progbits
  78              		.align	1
  79              		.global	HAL_PWR_EnableBkUpAccess
  80              		.syntax unified
  81              		.thumb
  82              		.thumb_func
  84              	HAL_PWR_EnableBkUpAccess:
  85              	.LFB969:
 132:Drivers/STM32WLxx_HAL_Driver/Src/stm32wlxx_hal_pwr.c **** 
 133:Drivers/STM32WLxx_HAL_Driver/Src/stm32wlxx_hal_pwr.c **** 
 134:Drivers/STM32WLxx_HAL_Driver/Src/stm32wlxx_hal_pwr.c **** /**
 135:Drivers/STM32WLxx_HAL_Driver/Src/stm32wlxx_hal_pwr.c ****   * @brief  Enable access to the backup domain
 136:Drivers/STM32WLxx_HAL_Driver/Src/stm32wlxx_hal_pwr.c ****   *         (RTC registers, RTC backup data registers).
 137:Drivers/STM32WLxx_HAL_Driver/Src/stm32wlxx_hal_pwr.c ****   * @note   After reset, the backup domain is protected against
 138:Drivers/STM32WLxx_HAL_Driver/Src/stm32wlxx_hal_pwr.c ****   *         possible unwanted write accesses.
 139:Drivers/STM32WLxx_HAL_Driver/Src/stm32wlxx_hal_pwr.c ****   * @note   RTCSEL that sets the RTC clock source selection is in the RTC backup domain.
 140:Drivers/STM32WLxx_HAL_Driver/Src/stm32wlxx_hal_pwr.c ****   *         In order to set or modify the RTC clock, the backup domain access must be
 141:Drivers/STM32WLxx_HAL_Driver/Src/stm32wlxx_hal_pwr.c ****   *         disabled.
 142:Drivers/STM32WLxx_HAL_Driver/Src/stm32wlxx_hal_pwr.c ****   * @note   LSEON bit that switches on and off the LSE crystal belongs as well to the
 143:Drivers/STM32WLxx_HAL_Driver/Src/stm32wlxx_hal_pwr.c ****   *         backup domain.
 144:Drivers/STM32WLxx_HAL_Driver/Src/stm32wlxx_hal_pwr.c ****   * @retval None
 145:Drivers/STM32WLxx_HAL_Driver/Src/stm32wlxx_hal_pwr.c ****   */
 146:Drivers/STM32WLxx_HAL_Driver/Src/stm32wlxx_hal_pwr.c **** void HAL_PWR_EnableBkUpAccess(void)
ARM GAS  C:\Users\NATHAN~1\AppData\Local\Temp\ccu0I2kX.s 			page 5


 147:Drivers/STM32WLxx_HAL_Driver/Src/stm32wlxx_hal_pwr.c **** {
  86              		.loc 1 147 1 is_stmt 1 view -0
  87              		.cfi_startproc
  88              		@ args = 0, pretend = 0, frame = 0
  89              		@ frame_needed = 0, uses_anonymous_args = 0
  90              		@ link register save eliminated.
 148:Drivers/STM32WLxx_HAL_Driver/Src/stm32wlxx_hal_pwr.c ****   SET_BIT(PWR->CR1, PWR_CR1_DBP);
  91              		.loc 1 148 3 view .LVU18
  92 0000 024A     		ldr	r2, .L5
  93 0002 1368     		ldr	r3, [r2]
  94 0004 43F48073 		orr	r3, r3, #256
  95 0008 1360     		str	r3, [r2]
 149:Drivers/STM32WLxx_HAL_Driver/Src/stm32wlxx_hal_pwr.c **** }
  96              		.loc 1 149 1 is_stmt 0 view .LVU19
  97 000a 7047     		bx	lr
  98              	.L6:
  99              		.align	2
 100              	.L5:
 101 000c 00040058 		.word	1476396032
 102              		.cfi_endproc
 103              	.LFE969:
 105              		.section	.text.HAL_PWR_DisableBkUpAccess,"ax",%progbits
 106              		.align	1
 107              		.global	HAL_PWR_DisableBkUpAccess
 108              		.syntax unified
 109              		.thumb
 110              		.thumb_func
 112              	HAL_PWR_DisableBkUpAccess:
 113              	.LFB970:
 150:Drivers/STM32WLxx_HAL_Driver/Src/stm32wlxx_hal_pwr.c **** 
 151:Drivers/STM32WLxx_HAL_Driver/Src/stm32wlxx_hal_pwr.c **** /**
 152:Drivers/STM32WLxx_HAL_Driver/Src/stm32wlxx_hal_pwr.c ****   * @brief  Disable access to the backup domain
 153:Drivers/STM32WLxx_HAL_Driver/Src/stm32wlxx_hal_pwr.c ****   *         (RTC registers, RTC backup data registers).
 154:Drivers/STM32WLxx_HAL_Driver/Src/stm32wlxx_hal_pwr.c ****   * @retval None
 155:Drivers/STM32WLxx_HAL_Driver/Src/stm32wlxx_hal_pwr.c ****   */
 156:Drivers/STM32WLxx_HAL_Driver/Src/stm32wlxx_hal_pwr.c **** void HAL_PWR_DisableBkUpAccess(void)
 157:Drivers/STM32WLxx_HAL_Driver/Src/stm32wlxx_hal_pwr.c **** {
 114              		.loc 1 157 1 is_stmt 1 view -0
 115              		.cfi_startproc
 116              		@ args = 0, pretend = 0, frame = 0
 117              		@ frame_needed = 0, uses_anonymous_args = 0
 118              		@ link register save eliminated.
 158:Drivers/STM32WLxx_HAL_Driver/Src/stm32wlxx_hal_pwr.c ****   CLEAR_BIT(PWR->CR1, PWR_CR1_DBP);
 119              		.loc 1 158 3 view .LVU21
 120 0000 024A     		ldr	r2, .L8
 121 0002 1368     		ldr	r3, [r2]
 122 0004 23F48073 		bic	r3, r3, #256
 123 0008 1360     		str	r3, [r2]
 159:Drivers/STM32WLxx_HAL_Driver/Src/stm32wlxx_hal_pwr.c **** }
 124              		.loc 1 159 1 is_stmt 0 view .LVU22
 125 000a 7047     		bx	lr
 126              	.L9:
 127              		.align	2
 128              	.L8:
 129 000c 00040058 		.word	1476396032
 130              		.cfi_endproc
 131              	.LFE970:
ARM GAS  C:\Users\NATHAN~1\AppData\Local\Temp\ccu0I2kX.s 			page 6


 133              		.section	.text.HAL_PWR_ConfigPVD,"ax",%progbits
 134              		.align	1
 135              		.global	HAL_PWR_ConfigPVD
 136              		.syntax unified
 137              		.thumb
 138              		.thumb_func
 140              	HAL_PWR_ConfigPVD:
 141              	.LVL0:
 142              	.LFB971:
 160:Drivers/STM32WLxx_HAL_Driver/Src/stm32wlxx_hal_pwr.c **** 
 161:Drivers/STM32WLxx_HAL_Driver/Src/stm32wlxx_hal_pwr.c **** /**
 162:Drivers/STM32WLxx_HAL_Driver/Src/stm32wlxx_hal_pwr.c ****   * @}
 163:Drivers/STM32WLxx_HAL_Driver/Src/stm32wlxx_hal_pwr.c ****   */
 164:Drivers/STM32WLxx_HAL_Driver/Src/stm32wlxx_hal_pwr.c **** 
 165:Drivers/STM32WLxx_HAL_Driver/Src/stm32wlxx_hal_pwr.c **** 
 166:Drivers/STM32WLxx_HAL_Driver/Src/stm32wlxx_hal_pwr.c **** /** @addtogroup PWR_Exported_Functions_Group2  Peripheral Control functions
 167:Drivers/STM32WLxx_HAL_Driver/Src/stm32wlxx_hal_pwr.c ****   *  @brief Low Power modes configuration functions
 168:Drivers/STM32WLxx_HAL_Driver/Src/stm32wlxx_hal_pwr.c ****   *
 169:Drivers/STM32WLxx_HAL_Driver/Src/stm32wlxx_hal_pwr.c **** @verbatim
 170:Drivers/STM32WLxx_HAL_Driver/Src/stm32wlxx_hal_pwr.c **** 
 171:Drivers/STM32WLxx_HAL_Driver/Src/stm32wlxx_hal_pwr.c ****  ===============================================================================
 172:Drivers/STM32WLxx_HAL_Driver/Src/stm32wlxx_hal_pwr.c ****                  ##### Peripheral Control functions #####
 173:Drivers/STM32WLxx_HAL_Driver/Src/stm32wlxx_hal_pwr.c ****  ===============================================================================
 174:Drivers/STM32WLxx_HAL_Driver/Src/stm32wlxx_hal_pwr.c **** 
 175:Drivers/STM32WLxx_HAL_Driver/Src/stm32wlxx_hal_pwr.c ****     [..]
 176:Drivers/STM32WLxx_HAL_Driver/Src/stm32wlxx_hal_pwr.c ****      *** PVD configuration ***
 177:Drivers/STM32WLxx_HAL_Driver/Src/stm32wlxx_hal_pwr.c ****     =========================
 178:Drivers/STM32WLxx_HAL_Driver/Src/stm32wlxx_hal_pwr.c ****     [..]
 179:Drivers/STM32WLxx_HAL_Driver/Src/stm32wlxx_hal_pwr.c ****       (+) The PVD is used to monitor the VDD power supply by comparing it to a
 180:Drivers/STM32WLxx_HAL_Driver/Src/stm32wlxx_hal_pwr.c ****           threshold selected by the PVD Level (PLS[2:0] bits in PWR_CR2 register).
 181:Drivers/STM32WLxx_HAL_Driver/Src/stm32wlxx_hal_pwr.c ****       (+) PVDO flag is available to indicate if VDD/VDDA is higher or lower
 182:Drivers/STM32WLxx_HAL_Driver/Src/stm32wlxx_hal_pwr.c ****           than the PVD threshold. This event is internally connected to the EXTI
 183:Drivers/STM32WLxx_HAL_Driver/Src/stm32wlxx_hal_pwr.c ****           line16 and can generate an interrupt if enabled. This is done through
 184:Drivers/STM32WLxx_HAL_Driver/Src/stm32wlxx_hal_pwr.c ****           __HAL_PVD_EXTI_ENABLE_IT() macro.
 185:Drivers/STM32WLxx_HAL_Driver/Src/stm32wlxx_hal_pwr.c ****       (+) The PVD is stopped in Standby mode.
 186:Drivers/STM32WLxx_HAL_Driver/Src/stm32wlxx_hal_pwr.c **** 
 187:Drivers/STM32WLxx_HAL_Driver/Src/stm32wlxx_hal_pwr.c ****     *** WakeUp pin configuration ***
 188:Drivers/STM32WLxx_HAL_Driver/Src/stm32wlxx_hal_pwr.c ****     ================================
 189:Drivers/STM32WLxx_HAL_Driver/Src/stm32wlxx_hal_pwr.c ****     [..]
 190:Drivers/STM32WLxx_HAL_Driver/Src/stm32wlxx_hal_pwr.c ****       (+) WakeUp pins are used to wakeup the system from Standby mode or Shutdown mode.
 191:Drivers/STM32WLxx_HAL_Driver/Src/stm32wlxx_hal_pwr.c ****           The polarity of these pins can be set to configure event detection on high
 192:Drivers/STM32WLxx_HAL_Driver/Src/stm32wlxx_hal_pwr.c ****           level (rising edge) or low level (falling edge).
 193:Drivers/STM32WLxx_HAL_Driver/Src/stm32wlxx_hal_pwr.c **** 
 194:Drivers/STM32WLxx_HAL_Driver/Src/stm32wlxx_hal_pwr.c ****     *** Low Power modes configuration ***
 195:Drivers/STM32WLxx_HAL_Driver/Src/stm32wlxx_hal_pwr.c ****     =====================================
 196:Drivers/STM32WLxx_HAL_Driver/Src/stm32wlxx_hal_pwr.c ****     [..]
 197:Drivers/STM32WLxx_HAL_Driver/Src/stm32wlxx_hal_pwr.c ****       The devices feature 8 low-power modes:
 198:Drivers/STM32WLxx_HAL_Driver/Src/stm32wlxx_hal_pwr.c **** 
 199:Drivers/STM32WLxx_HAL_Driver/Src/stm32wlxx_hal_pwr.c ****       (+) Low-power Run mode: core and peripherals are running, main regulator off, low power regul
 200:Drivers/STM32WLxx_HAL_Driver/Src/stm32wlxx_hal_pwr.c **** 
 201:Drivers/STM32WLxx_HAL_Driver/Src/stm32wlxx_hal_pwr.c ****       (+) Sleep mode: Cortex-M4 core stopped, peripherals kept running, main and low power regulato
 202:Drivers/STM32WLxx_HAL_Driver/Src/stm32wlxx_hal_pwr.c ****       (+) Low-power Sleep mode: Cortex-M4 core stopped, peripherals kept running, main regulator of
 203:Drivers/STM32WLxx_HAL_Driver/Src/stm32wlxx_hal_pwr.c **** 
 204:Drivers/STM32WLxx_HAL_Driver/Src/stm32wlxx_hal_pwr.c ****       (+) Stop 0 mode: all clocks are stopped except LSI and LSE, main and low power regulators on.
 205:Drivers/STM32WLxx_HAL_Driver/Src/stm32wlxx_hal_pwr.c ****       (+) Stop 1 mode: all clocks are stopped except LSI and LSE, main regulator off, low power reg
 206:Drivers/STM32WLxx_HAL_Driver/Src/stm32wlxx_hal_pwr.c ****       (+) Stop 2 mode: all clocks are stopped except LSI and LSE, main regulator off, low power reg
 207:Drivers/STM32WLxx_HAL_Driver/Src/stm32wlxx_hal_pwr.c **** 
ARM GAS  C:\Users\NATHAN~1\AppData\Local\Temp\ccu0I2kX.s 			page 7


 208:Drivers/STM32WLxx_HAL_Driver/Src/stm32wlxx_hal_pwr.c ****       (+) Standby mode with SRAM2: all clocks are stopped except LSI and LSE, SRAM2 content preserv
 209:Drivers/STM32WLxx_HAL_Driver/Src/stm32wlxx_hal_pwr.c ****       (+) Standby mode without SRAM2: all clocks are stopped except LSI and LSE, main and low power
 210:Drivers/STM32WLxx_HAL_Driver/Src/stm32wlxx_hal_pwr.c **** 
 211:Drivers/STM32WLxx_HAL_Driver/Src/stm32wlxx_hal_pwr.c ****       (+) Shutdown mode: all clocks are stopped except LSE, main and low power regulators off.
 212:Drivers/STM32WLxx_HAL_Driver/Src/stm32wlxx_hal_pwr.c **** 
 213:Drivers/STM32WLxx_HAL_Driver/Src/stm32wlxx_hal_pwr.c ****       (+) Note: system power mode depends on each sub-system (CPU1, CPU2, radio) power modes.
 214:Drivers/STM32WLxx_HAL_Driver/Src/stm32wlxx_hal_pwr.c ****                 Each CPU request to enter in a low-power mode will make system enter in the equival
 215:Drivers/STM32WLxx_HAL_Driver/Src/stm32wlxx_hal_pwr.c ****                 if all other sub-systems are aligned.
 216:Drivers/STM32WLxx_HAL_Driver/Src/stm32wlxx_hal_pwr.c **** 
 217:Drivers/STM32WLxx_HAL_Driver/Src/stm32wlxx_hal_pwr.c ****    *** Low-power run mode ***
 218:Drivers/STM32WLxx_HAL_Driver/Src/stm32wlxx_hal_pwr.c ****    ==========================
 219:Drivers/STM32WLxx_HAL_Driver/Src/stm32wlxx_hal_pwr.c ****     [..]
 220:Drivers/STM32WLxx_HAL_Driver/Src/stm32wlxx_hal_pwr.c ****       (+) Entry: (from main run mode)
 221:Drivers/STM32WLxx_HAL_Driver/Src/stm32wlxx_hal_pwr.c ****           (++) set LPR bit with HAL_PWREx_EnableLowPowerRunMode() API after having decreased the sy
 222:Drivers/STM32WLxx_HAL_Driver/Src/stm32wlxx_hal_pwr.c ****       (+) Exit:
 223:Drivers/STM32WLxx_HAL_Driver/Src/stm32wlxx_hal_pwr.c ****           (++) clear LPR bit then wait for REGLP bit to be reset with HAL_PWREx_DisableLowPowerRunM
 224:Drivers/STM32WLxx_HAL_Driver/Src/stm32wlxx_hal_pwr.c ****                then can the system clock frequency be increased above 2 MHz.
 225:Drivers/STM32WLxx_HAL_Driver/Src/stm32wlxx_hal_pwr.c **** 
 226:Drivers/STM32WLxx_HAL_Driver/Src/stm32wlxx_hal_pwr.c ****    *** Sleep mode / Low-power sleep mode ***
 227:Drivers/STM32WLxx_HAL_Driver/Src/stm32wlxx_hal_pwr.c ****    =========================================
 228:Drivers/STM32WLxx_HAL_Driver/Src/stm32wlxx_hal_pwr.c ****     [..]
 229:Drivers/STM32WLxx_HAL_Driver/Src/stm32wlxx_hal_pwr.c ****       (+) Entry:
 230:Drivers/STM32WLxx_HAL_Driver/Src/stm32wlxx_hal_pwr.c ****           The Sleep mode / Low-power Sleep mode is entered through HAL_PWR_EnterSLEEPMode() API
 231:Drivers/STM32WLxx_HAL_Driver/Src/stm32wlxx_hal_pwr.c ****           in specifying whether or not the regulator is forced to low-power mode and if exit is int
 232:Drivers/STM32WLxx_HAL_Driver/Src/stm32wlxx_hal_pwr.c ****           (++) PWR_MAINREGULATOR_ON: Sleep mode (regulator in main mode).
 233:Drivers/STM32WLxx_HAL_Driver/Src/stm32wlxx_hal_pwr.c ****           (++) PWR_LOWPOWERREGULATOR_ON: Low-power sleep (regulator in low power mode).
 234:Drivers/STM32WLxx_HAL_Driver/Src/stm32wlxx_hal_pwr.c ****           In the latter case, the system clock frequency must have been decreased below 2 MHz befor
 235:Drivers/STM32WLxx_HAL_Driver/Src/stm32wlxx_hal_pwr.c ****           (++) PWR_SLEEPENTRY_WFI: enter SLEEP mode with WFI instruction
 236:Drivers/STM32WLxx_HAL_Driver/Src/stm32wlxx_hal_pwr.c ****           (++) PWR_SLEEPENTRY_WFE: enter SLEEP mode with WFE instruction
 237:Drivers/STM32WLxx_HAL_Driver/Src/stm32wlxx_hal_pwr.c **** 
 238:Drivers/STM32WLxx_HAL_Driver/Src/stm32wlxx_hal_pwr.c ****       (+) WFI Exit:
 239:Drivers/STM32WLxx_HAL_Driver/Src/stm32wlxx_hal_pwr.c ****         (++) Any peripheral interrupt acknowledged by the nested vectored interrupt
 240:Drivers/STM32WLxx_HAL_Driver/Src/stm32wlxx_hal_pwr.c ****              controller (NVIC) or any wake-up event.
 241:Drivers/STM32WLxx_HAL_Driver/Src/stm32wlxx_hal_pwr.c **** 
 242:Drivers/STM32WLxx_HAL_Driver/Src/stm32wlxx_hal_pwr.c ****       (+) WFE Exit:
 243:Drivers/STM32WLxx_HAL_Driver/Src/stm32wlxx_hal_pwr.c ****         (++) Any wake-up event such as an EXTI line configured in event mode.
 244:Drivers/STM32WLxx_HAL_Driver/Src/stm32wlxx_hal_pwr.c **** 
 245:Drivers/STM32WLxx_HAL_Driver/Src/stm32wlxx_hal_pwr.c ****     [..]  When exiting the Low-power sleep mode by issuing an interrupt or a wakeup event,
 246:Drivers/STM32WLxx_HAL_Driver/Src/stm32wlxx_hal_pwr.c ****           the MCU is in Low-power Run mode.
 247:Drivers/STM32WLxx_HAL_Driver/Src/stm32wlxx_hal_pwr.c **** 
 248:Drivers/STM32WLxx_HAL_Driver/Src/stm32wlxx_hal_pwr.c ****    *** Stop 0, Stop 1 and Stop 2 modes ***
 249:Drivers/STM32WLxx_HAL_Driver/Src/stm32wlxx_hal_pwr.c ****    ===============================
 250:Drivers/STM32WLxx_HAL_Driver/Src/stm32wlxx_hal_pwr.c ****     [..]
 251:Drivers/STM32WLxx_HAL_Driver/Src/stm32wlxx_hal_pwr.c ****       (+) Entry:
 252:Drivers/STM32WLxx_HAL_Driver/Src/stm32wlxx_hal_pwr.c ****           The Stop 0, Stop 1 or Stop 2 modes are entered through the following API's:
 253:Drivers/STM32WLxx_HAL_Driver/Src/stm32wlxx_hal_pwr.c ****           (++) HAL_PWREx_EnterSTOP0Mode() for mode 0, HAL_PWREx_EnterSTOP1Mode() for mode 1, HAL_PW
 254:Drivers/STM32WLxx_HAL_Driver/Src/stm32wlxx_hal_pwr.c ****                or for porting reasons HAL_PWR_EnterSTOPMode().
 255:Drivers/STM32WLxx_HAL_Driver/Src/stm32wlxx_hal_pwr.c **** 
 256:Drivers/STM32WLxx_HAL_Driver/Src/stm32wlxx_hal_pwr.c ****       (+) Regulator setting (applicable to HAL_PWR_EnterSTOPMode() only):
 257:Drivers/STM32WLxx_HAL_Driver/Src/stm32wlxx_hal_pwr.c ****           (++) PWR_MAINREGULATOR_ON: Regulator in main mode (STOP0 mode)
 258:Drivers/STM32WLxx_HAL_Driver/Src/stm32wlxx_hal_pwr.c ****           (++) PWR_LOWPOWERREGULATOR_ON: Regulator in low-power mode (STOP1 mode)
 259:Drivers/STM32WLxx_HAL_Driver/Src/stm32wlxx_hal_pwr.c ****       (+) Exit (interrupt or event-triggered, specified when entering STOP mode):
 260:Drivers/STM32WLxx_HAL_Driver/Src/stm32wlxx_hal_pwr.c ****           (++) PWR_STOPENTRY_WFI: enter Stop mode with WFI instruction
 261:Drivers/STM32WLxx_HAL_Driver/Src/stm32wlxx_hal_pwr.c ****           (++) PWR_STOPENTRY_WFE: enter Stop mode with WFE instruction
 262:Drivers/STM32WLxx_HAL_Driver/Src/stm32wlxx_hal_pwr.c ****       (+) WFI Exit:
 263:Drivers/STM32WLxx_HAL_Driver/Src/stm32wlxx_hal_pwr.c ****           (++) Any EXTI Line (Internal or External) configured in Interrupt mode.
 264:Drivers/STM32WLxx_HAL_Driver/Src/stm32wlxx_hal_pwr.c ****           (++) Some specific communication peripherals (USART, LPUART, I2C) interrupts
ARM GAS  C:\Users\NATHAN~1\AppData\Local\Temp\ccu0I2kX.s 			page 8


 265:Drivers/STM32WLxx_HAL_Driver/Src/stm32wlxx_hal_pwr.c ****                when programmed in wakeup mode.
 266:Drivers/STM32WLxx_HAL_Driver/Src/stm32wlxx_hal_pwr.c ****       (+) WFE Exit:
 267:Drivers/STM32WLxx_HAL_Driver/Src/stm32wlxx_hal_pwr.c ****           (++) Any EXTI Line (Internal or External) configured in Event mode.
 268:Drivers/STM32WLxx_HAL_Driver/Src/stm32wlxx_hal_pwr.c **** 
 269:Drivers/STM32WLxx_HAL_Driver/Src/stm32wlxx_hal_pwr.c ****        [..]
 270:Drivers/STM32WLxx_HAL_Driver/Src/stm32wlxx_hal_pwr.c ****           When exiting Stop 0 and Stop 1 modes, the MCU is either in Run mode or in Low-power Run m
 271:Drivers/STM32WLxx_HAL_Driver/Src/stm32wlxx_hal_pwr.c ****           depending on the LPR bit setting.
 272:Drivers/STM32WLxx_HAL_Driver/Src/stm32wlxx_hal_pwr.c ****           When exiting Stop 2 mode, the MCU is in Run mode.
 273:Drivers/STM32WLxx_HAL_Driver/Src/stm32wlxx_hal_pwr.c **** 
 274:Drivers/STM32WLxx_HAL_Driver/Src/stm32wlxx_hal_pwr.c ****    *** Standby mode ***
 275:Drivers/STM32WLxx_HAL_Driver/Src/stm32wlxx_hal_pwr.c ****    ====================
 276:Drivers/STM32WLxx_HAL_Driver/Src/stm32wlxx_hal_pwr.c ****     [..] The Standby mode offers two options:
 277:Drivers/STM32WLxx_HAL_Driver/Src/stm32wlxx_hal_pwr.c ****       (+) option a) all clocks off except LSI and LSE, RRS bit set (keeps voltage regulator in low 
 278:Drivers/STM32WLxx_HAL_Driver/Src/stm32wlxx_hal_pwr.c ****           SRAM and registers contents are lost except for the SRAM2 content, the RTC registers, RTC
 279:Drivers/STM32WLxx_HAL_Driver/Src/stm32wlxx_hal_pwr.c ****           and Standby circuitry.
 280:Drivers/STM32WLxx_HAL_Driver/Src/stm32wlxx_hal_pwr.c ****       (+) option b) all clocks off except LSI and LSE, RRS bit cleared (voltage regulator then disa
 281:Drivers/STM32WLxx_HAL_Driver/Src/stm32wlxx_hal_pwr.c ****           SRAM and register contents are lost except for the RTC registers, RTC backup registers
 282:Drivers/STM32WLxx_HAL_Driver/Src/stm32wlxx_hal_pwr.c ****           and Standby circuitry.
 283:Drivers/STM32WLxx_HAL_Driver/Src/stm32wlxx_hal_pwr.c **** 
 284:Drivers/STM32WLxx_HAL_Driver/Src/stm32wlxx_hal_pwr.c ****       (++) Entry:
 285:Drivers/STM32WLxx_HAL_Driver/Src/stm32wlxx_hal_pwr.c ****           (+++) The Standby mode is entered through HAL_PWR_EnterSTANDBYMode() API.
 286:Drivers/STM32WLxx_HAL_Driver/Src/stm32wlxx_hal_pwr.c ****                 SRAM1 and register contents are lost except for registers in the Backup domain and
 287:Drivers/STM32WLxx_HAL_Driver/Src/stm32wlxx_hal_pwr.c ****                 Standby circuitry. SRAM2 content can be preserved if the bit RRS is set in PWR_CR3 
 288:Drivers/STM32WLxx_HAL_Driver/Src/stm32wlxx_hal_pwr.c ****                 To enable this feature, the user can resort to HAL_PWREx_EnableSRAMRetention() API
 289:Drivers/STM32WLxx_HAL_Driver/Src/stm32wlxx_hal_pwr.c ****                 to set RRS bit.
 290:Drivers/STM32WLxx_HAL_Driver/Src/stm32wlxx_hal_pwr.c ****       (++) Exit:
 291:Drivers/STM32WLxx_HAL_Driver/Src/stm32wlxx_hal_pwr.c ****           (+++) WKUP pin rising edge, RTC alarm or wakeup, tamper event, time-stamp event,
 292:Drivers/STM32WLxx_HAL_Driver/Src/stm32wlxx_hal_pwr.c ****                 external reset in NRST pin, IWDG reset.
 293:Drivers/STM32WLxx_HAL_Driver/Src/stm32wlxx_hal_pwr.c ****     [..] After waking up from Standby mode, program execution restarts in the same way as after a R
 294:Drivers/STM32WLxx_HAL_Driver/Src/stm32wlxx_hal_pwr.c **** 
 295:Drivers/STM32WLxx_HAL_Driver/Src/stm32wlxx_hal_pwr.c **** 
 296:Drivers/STM32WLxx_HAL_Driver/Src/stm32wlxx_hal_pwr.c ****     *** Shutdown mode ***
 297:Drivers/STM32WLxx_HAL_Driver/Src/stm32wlxx_hal_pwr.c ****    ======================
 298:Drivers/STM32WLxx_HAL_Driver/Src/stm32wlxx_hal_pwr.c ****     [..]
 299:Drivers/STM32WLxx_HAL_Driver/Src/stm32wlxx_hal_pwr.c ****       In Shutdown mode,
 300:Drivers/STM32WLxx_HAL_Driver/Src/stm32wlxx_hal_pwr.c ****         voltage regulator is disabled, all clocks are off except LSE, RRS bit is cleared.
 301:Drivers/STM32WLxx_HAL_Driver/Src/stm32wlxx_hal_pwr.c ****         SRAM and registers contents are lost except for backup domain registers.
 302:Drivers/STM32WLxx_HAL_Driver/Src/stm32wlxx_hal_pwr.c ****       (+) Entry:
 303:Drivers/STM32WLxx_HAL_Driver/Src/stm32wlxx_hal_pwr.c ****           The Shutdown mode is entered through HAL_PWREx_EnterSHUTDOWNMode() API.
 304:Drivers/STM32WLxx_HAL_Driver/Src/stm32wlxx_hal_pwr.c ****       (+) Exit:
 305:Drivers/STM32WLxx_HAL_Driver/Src/stm32wlxx_hal_pwr.c ****           (++) WKUP pin rising edge, RTC alarm or wakeup, tamper event, time-stamp event,
 306:Drivers/STM32WLxx_HAL_Driver/Src/stm32wlxx_hal_pwr.c ****                external reset in NRST pin.
 307:Drivers/STM32WLxx_HAL_Driver/Src/stm32wlxx_hal_pwr.c ****     [..] After waking up from Shutdown mode, program execution restarts in the same way as after a 
 308:Drivers/STM32WLxx_HAL_Driver/Src/stm32wlxx_hal_pwr.c **** 
 309:Drivers/STM32WLxx_HAL_Driver/Src/stm32wlxx_hal_pwr.c **** 
 310:Drivers/STM32WLxx_HAL_Driver/Src/stm32wlxx_hal_pwr.c ****    *** Auto-wakeup (AWU) from low-power mode ***
 311:Drivers/STM32WLxx_HAL_Driver/Src/stm32wlxx_hal_pwr.c ****    =============================================
 312:Drivers/STM32WLxx_HAL_Driver/Src/stm32wlxx_hal_pwr.c ****     [..]
 313:Drivers/STM32WLxx_HAL_Driver/Src/stm32wlxx_hal_pwr.c ****       The MCU can be woken up from low-power mode by an RTC Alarm event, an RTC
 314:Drivers/STM32WLxx_HAL_Driver/Src/stm32wlxx_hal_pwr.c ****       Wakeup event, a tamper event or a time-stamp event, without depending on
 315:Drivers/STM32WLxx_HAL_Driver/Src/stm32wlxx_hal_pwr.c ****       an external interrupt (Auto-wakeup mode).
 316:Drivers/STM32WLxx_HAL_Driver/Src/stm32wlxx_hal_pwr.c **** 
 317:Drivers/STM32WLxx_HAL_Driver/Src/stm32wlxx_hal_pwr.c ****       (+) RTC auto-wakeup (AWU) from the Stop, Standby and Shutdown modes
 318:Drivers/STM32WLxx_HAL_Driver/Src/stm32wlxx_hal_pwr.c **** 
 319:Drivers/STM32WLxx_HAL_Driver/Src/stm32wlxx_hal_pwr.c **** 
 320:Drivers/STM32WLxx_HAL_Driver/Src/stm32wlxx_hal_pwr.c ****         (++) To wake up from the Stop mode with an RTC alarm event, it is necessary to
 321:Drivers/STM32WLxx_HAL_Driver/Src/stm32wlxx_hal_pwr.c ****              configure the RTC to generate the RTC alarm using the HAL_RTC_SetAlarm_IT() function.
ARM GAS  C:\Users\NATHAN~1\AppData\Local\Temp\ccu0I2kX.s 			page 9


 322:Drivers/STM32WLxx_HAL_Driver/Src/stm32wlxx_hal_pwr.c **** 
 323:Drivers/STM32WLxx_HAL_Driver/Src/stm32wlxx_hal_pwr.c ****         (++) To wake up from the Stop mode with an RTC Tamper or time stamp event, it
 324:Drivers/STM32WLxx_HAL_Driver/Src/stm32wlxx_hal_pwr.c ****              is necessary to configure the RTC to detect the tamper or time stamp event using the
 325:Drivers/STM32WLxx_HAL_Driver/Src/stm32wlxx_hal_pwr.c ****              HAL_RTCEx_SetTimeStamp_IT() or HAL_RTCEx_SetTamper_IT() functions.
 326:Drivers/STM32WLxx_HAL_Driver/Src/stm32wlxx_hal_pwr.c **** 
 327:Drivers/STM32WLxx_HAL_Driver/Src/stm32wlxx_hal_pwr.c ****         (++) To wake up from the Stop mode with an RTC WakeUp event, it is necessary to
 328:Drivers/STM32WLxx_HAL_Driver/Src/stm32wlxx_hal_pwr.c ****               configure the RTC to generate the RTC WakeUp event using the HAL_RTCEx_SetWakeUpTimer
 329:Drivers/STM32WLxx_HAL_Driver/Src/stm32wlxx_hal_pwr.c **** 
 330:Drivers/STM32WLxx_HAL_Driver/Src/stm32wlxx_hal_pwr.c **** @endverbatim
 331:Drivers/STM32WLxx_HAL_Driver/Src/stm32wlxx_hal_pwr.c ****   * @{
 332:Drivers/STM32WLxx_HAL_Driver/Src/stm32wlxx_hal_pwr.c ****   */
 333:Drivers/STM32WLxx_HAL_Driver/Src/stm32wlxx_hal_pwr.c **** 
 334:Drivers/STM32WLxx_HAL_Driver/Src/stm32wlxx_hal_pwr.c **** /**
 335:Drivers/STM32WLxx_HAL_Driver/Src/stm32wlxx_hal_pwr.c ****   * @brief  Configure the voltage threshold detected by the Power Voltage Detector (PVD).
 336:Drivers/STM32WLxx_HAL_Driver/Src/stm32wlxx_hal_pwr.c ****   * @param sConfigPVD pointer to a PWR_PVDTypeDef structure that contains the PVD
 337:Drivers/STM32WLxx_HAL_Driver/Src/stm32wlxx_hal_pwr.c ****   *         configuration information.
 338:Drivers/STM32WLxx_HAL_Driver/Src/stm32wlxx_hal_pwr.c ****   * @note   Refer to the electrical characteristics of your device datasheet for
 339:Drivers/STM32WLxx_HAL_Driver/Src/stm32wlxx_hal_pwr.c ****   *         more details about the voltage thresholds corresponding to each
 340:Drivers/STM32WLxx_HAL_Driver/Src/stm32wlxx_hal_pwr.c ****   *         detection level.
 341:Drivers/STM32WLxx_HAL_Driver/Src/stm32wlxx_hal_pwr.c ****   * @note   For devices dual core: if "sConfigPVD->Mode" is set to PVD_MODE_IT,
 342:Drivers/STM32WLxx_HAL_Driver/Src/stm32wlxx_hal_pwr.c ****   *         wake-up target is set to wake-up the selected CPU.
 343:Drivers/STM32WLxx_HAL_Driver/Src/stm32wlxx_hal_pwr.c ****   * @retval HAL Status
 344:Drivers/STM32WLxx_HAL_Driver/Src/stm32wlxx_hal_pwr.c ****   */
 345:Drivers/STM32WLxx_HAL_Driver/Src/stm32wlxx_hal_pwr.c **** HAL_StatusTypeDef HAL_PWR_ConfigPVD(PWR_PVDTypeDef *sConfigPVD)
 346:Drivers/STM32WLxx_HAL_Driver/Src/stm32wlxx_hal_pwr.c **** {
 143              		.loc 1 346 1 is_stmt 1 view -0
 144              		.cfi_startproc
 145              		@ args = 0, pretend = 0, frame = 0
 146              		@ frame_needed = 0, uses_anonymous_args = 0
 147              		@ link register save eliminated.
 347:Drivers/STM32WLxx_HAL_Driver/Src/stm32wlxx_hal_pwr.c ****   /* Check the parameters */
 348:Drivers/STM32WLxx_HAL_Driver/Src/stm32wlxx_hal_pwr.c ****   assert_param(IS_PWR_PVD_LEVEL(sConfigPVD->PVDLevel));
 148              		.loc 1 348 3 view .LVU24
 349:Drivers/STM32WLxx_HAL_Driver/Src/stm32wlxx_hal_pwr.c ****   assert_param(IS_PWR_PVD_MODE(sConfigPVD->Mode));
 149              		.loc 1 349 3 view .LVU25
 350:Drivers/STM32WLxx_HAL_Driver/Src/stm32wlxx_hal_pwr.c **** 
 351:Drivers/STM32WLxx_HAL_Driver/Src/stm32wlxx_hal_pwr.c ****   /* Set PLS bits according to PVDLevel value */
 352:Drivers/STM32WLxx_HAL_Driver/Src/stm32wlxx_hal_pwr.c ****   MODIFY_REG(PWR->CR2, PWR_CR2_PLS, sConfigPVD->PVDLevel);
 150              		.loc 1 352 3 view .LVU26
 151 0000 1A4A     		ldr	r2, .L14
 152 0002 5368     		ldr	r3, [r2, #4]
 153 0004 23F00E03 		bic	r3, r3, #14
 154 0008 0168     		ldr	r1, [r0]
 155 000a 0B43     		orrs	r3, r3, r1
 156 000c 5360     		str	r3, [r2, #4]
 353:Drivers/STM32WLxx_HAL_Driver/Src/stm32wlxx_hal_pwr.c **** 
 354:Drivers/STM32WLxx_HAL_Driver/Src/stm32wlxx_hal_pwr.c ****   /* Clear any previous config. Keep it clear if no event or IT mode is selected */
 355:Drivers/STM32WLxx_HAL_Driver/Src/stm32wlxx_hal_pwr.c **** 
 356:Drivers/STM32WLxx_HAL_Driver/Src/stm32wlxx_hal_pwr.c ****   /* Note: On STM32WL series, power PVD event is not available on EXTI lines   */
 357:Drivers/STM32WLxx_HAL_Driver/Src/stm32wlxx_hal_pwr.c ****   /*       (only interruption is available through EXTI line 16).             */
 358:Drivers/STM32WLxx_HAL_Driver/Src/stm32wlxx_hal_pwr.c ****   __HAL_PWR_PVD_EXTI_DISABLE_IT();
 157              		.loc 1 358 3 view .LVU27
 158              	.LVL1:
 159              	.LBB14:
 160              	.LBI14:
 161              		.file 2 "Drivers/STM32WLxx_HAL_Driver/Inc/stm32wlxx_ll_exti.h"
   1:Drivers/STM32WLxx_HAL_Driver/Inc/stm32wlxx_ll_exti.h **** /**
ARM GAS  C:\Users\NATHAN~1\AppData\Local\Temp\ccu0I2kX.s 			page 10


   2:Drivers/STM32WLxx_HAL_Driver/Inc/stm32wlxx_ll_exti.h ****   ******************************************************************************
   3:Drivers/STM32WLxx_HAL_Driver/Inc/stm32wlxx_ll_exti.h ****   * @file    stm32wlxx_ll_exti.h
   4:Drivers/STM32WLxx_HAL_Driver/Inc/stm32wlxx_ll_exti.h ****   * @author  MCD Application Team
   5:Drivers/STM32WLxx_HAL_Driver/Inc/stm32wlxx_ll_exti.h ****   * @brief   Header file of EXTI LL module.
   6:Drivers/STM32WLxx_HAL_Driver/Inc/stm32wlxx_ll_exti.h ****   ******************************************************************************
   7:Drivers/STM32WLxx_HAL_Driver/Inc/stm32wlxx_ll_exti.h ****   * @attention
   8:Drivers/STM32WLxx_HAL_Driver/Inc/stm32wlxx_ll_exti.h ****   *
   9:Drivers/STM32WLxx_HAL_Driver/Inc/stm32wlxx_ll_exti.h ****   * <h2><center>&copy; Copyright (c) 2020 STMicroelectronics. 
  10:Drivers/STM32WLxx_HAL_Driver/Inc/stm32wlxx_ll_exti.h ****   * All rights reserved.</center></h2>
  11:Drivers/STM32WLxx_HAL_Driver/Inc/stm32wlxx_ll_exti.h ****   *
  12:Drivers/STM32WLxx_HAL_Driver/Inc/stm32wlxx_ll_exti.h ****   * This software component is licensed by ST under BSD 3-Clause license,
  13:Drivers/STM32WLxx_HAL_Driver/Inc/stm32wlxx_ll_exti.h ****   * the "License"; You may not use this file except in compliance with the 
  14:Drivers/STM32WLxx_HAL_Driver/Inc/stm32wlxx_ll_exti.h ****   * License. You may obtain a copy of the License at:
  15:Drivers/STM32WLxx_HAL_Driver/Inc/stm32wlxx_ll_exti.h ****   *                        opensource.org/licenses/BSD-3-Clause
  16:Drivers/STM32WLxx_HAL_Driver/Inc/stm32wlxx_ll_exti.h ****   *
  17:Drivers/STM32WLxx_HAL_Driver/Inc/stm32wlxx_ll_exti.h ****   ******************************************************************************
  18:Drivers/STM32WLxx_HAL_Driver/Inc/stm32wlxx_ll_exti.h ****   */
  19:Drivers/STM32WLxx_HAL_Driver/Inc/stm32wlxx_ll_exti.h **** 
  20:Drivers/STM32WLxx_HAL_Driver/Inc/stm32wlxx_ll_exti.h **** /* Define to prevent recursive inclusion -------------------------------------*/
  21:Drivers/STM32WLxx_HAL_Driver/Inc/stm32wlxx_ll_exti.h **** #ifndef __STM32WLxx_LL_EXTI_H
  22:Drivers/STM32WLxx_HAL_Driver/Inc/stm32wlxx_ll_exti.h **** #define __STM32WLxx_LL_EXTI_H
  23:Drivers/STM32WLxx_HAL_Driver/Inc/stm32wlxx_ll_exti.h **** 
  24:Drivers/STM32WLxx_HAL_Driver/Inc/stm32wlxx_ll_exti.h **** #ifdef __cplusplus
  25:Drivers/STM32WLxx_HAL_Driver/Inc/stm32wlxx_ll_exti.h **** extern "C" {
  26:Drivers/STM32WLxx_HAL_Driver/Inc/stm32wlxx_ll_exti.h **** #endif
  27:Drivers/STM32WLxx_HAL_Driver/Inc/stm32wlxx_ll_exti.h **** 
  28:Drivers/STM32WLxx_HAL_Driver/Inc/stm32wlxx_ll_exti.h **** /* Includes ------------------------------------------------------------------*/
  29:Drivers/STM32WLxx_HAL_Driver/Inc/stm32wlxx_ll_exti.h **** #include "stm32wlxx.h"
  30:Drivers/STM32WLxx_HAL_Driver/Inc/stm32wlxx_ll_exti.h **** 
  31:Drivers/STM32WLxx_HAL_Driver/Inc/stm32wlxx_ll_exti.h **** /** @addtogroup STM32WLxx_LL_Driver
  32:Drivers/STM32WLxx_HAL_Driver/Inc/stm32wlxx_ll_exti.h ****   * @{
  33:Drivers/STM32WLxx_HAL_Driver/Inc/stm32wlxx_ll_exti.h ****   */
  34:Drivers/STM32WLxx_HAL_Driver/Inc/stm32wlxx_ll_exti.h **** 
  35:Drivers/STM32WLxx_HAL_Driver/Inc/stm32wlxx_ll_exti.h **** #if defined (EXTI)
  36:Drivers/STM32WLxx_HAL_Driver/Inc/stm32wlxx_ll_exti.h **** 
  37:Drivers/STM32WLxx_HAL_Driver/Inc/stm32wlxx_ll_exti.h **** /** @defgroup EXTI_LL EXTI
  38:Drivers/STM32WLxx_HAL_Driver/Inc/stm32wlxx_ll_exti.h ****   * @{
  39:Drivers/STM32WLxx_HAL_Driver/Inc/stm32wlxx_ll_exti.h ****   */
  40:Drivers/STM32WLxx_HAL_Driver/Inc/stm32wlxx_ll_exti.h **** 
  41:Drivers/STM32WLxx_HAL_Driver/Inc/stm32wlxx_ll_exti.h **** /* Private types -------------------------------------------------------------*/
  42:Drivers/STM32WLxx_HAL_Driver/Inc/stm32wlxx_ll_exti.h **** /* Private variables ---------------------------------------------------------*/
  43:Drivers/STM32WLxx_HAL_Driver/Inc/stm32wlxx_ll_exti.h **** /* Private constants ---------------------------------------------------------*/
  44:Drivers/STM32WLxx_HAL_Driver/Inc/stm32wlxx_ll_exti.h **** /* Private Macros ------------------------------------------------------------*/
  45:Drivers/STM32WLxx_HAL_Driver/Inc/stm32wlxx_ll_exti.h **** #if defined(USE_FULL_LL_DRIVER)
  46:Drivers/STM32WLxx_HAL_Driver/Inc/stm32wlxx_ll_exti.h **** /** @defgroup EXTI_LL_Private_Macros EXTI Private Macros
  47:Drivers/STM32WLxx_HAL_Driver/Inc/stm32wlxx_ll_exti.h ****   * @{
  48:Drivers/STM32WLxx_HAL_Driver/Inc/stm32wlxx_ll_exti.h ****   */
  49:Drivers/STM32WLxx_HAL_Driver/Inc/stm32wlxx_ll_exti.h **** /**
  50:Drivers/STM32WLxx_HAL_Driver/Inc/stm32wlxx_ll_exti.h ****   * @}
  51:Drivers/STM32WLxx_HAL_Driver/Inc/stm32wlxx_ll_exti.h ****   */
  52:Drivers/STM32WLxx_HAL_Driver/Inc/stm32wlxx_ll_exti.h **** #endif /*USE_FULL_LL_DRIVER*/
  53:Drivers/STM32WLxx_HAL_Driver/Inc/stm32wlxx_ll_exti.h **** /* Exported types ------------------------------------------------------------*/
  54:Drivers/STM32WLxx_HAL_Driver/Inc/stm32wlxx_ll_exti.h **** #if defined(USE_FULL_LL_DRIVER)
  55:Drivers/STM32WLxx_HAL_Driver/Inc/stm32wlxx_ll_exti.h **** /** @defgroup EXTI_LL_ES_INIT EXTI Exported Init structure
  56:Drivers/STM32WLxx_HAL_Driver/Inc/stm32wlxx_ll_exti.h ****   * @{
  57:Drivers/STM32WLxx_HAL_Driver/Inc/stm32wlxx_ll_exti.h ****   */
  58:Drivers/STM32WLxx_HAL_Driver/Inc/stm32wlxx_ll_exti.h **** typedef struct
ARM GAS  C:\Users\NATHAN~1\AppData\Local\Temp\ccu0I2kX.s 			page 11


  59:Drivers/STM32WLxx_HAL_Driver/Inc/stm32wlxx_ll_exti.h **** {
  60:Drivers/STM32WLxx_HAL_Driver/Inc/stm32wlxx_ll_exti.h **** 
  61:Drivers/STM32WLxx_HAL_Driver/Inc/stm32wlxx_ll_exti.h ****   uint32_t Line_0_31;           /*!< Specifies the EXTI lines to be enabled or disabled for Lines i
  62:Drivers/STM32WLxx_HAL_Driver/Inc/stm32wlxx_ll_exti.h ****                                      This parameter can be any combination of @ref EXTI_LL_EC_LINE 
  63:Drivers/STM32WLxx_HAL_Driver/Inc/stm32wlxx_ll_exti.h **** 
  64:Drivers/STM32WLxx_HAL_Driver/Inc/stm32wlxx_ll_exti.h ****   uint32_t Line_32_63;          /*!< Specifies the EXTI lines to be enabled or disabled for Lines i
  65:Drivers/STM32WLxx_HAL_Driver/Inc/stm32wlxx_ll_exti.h ****                                      This parameter can be any combination of @ref EXTI_LL_EC_LINE 
  66:Drivers/STM32WLxx_HAL_Driver/Inc/stm32wlxx_ll_exti.h **** 
  67:Drivers/STM32WLxx_HAL_Driver/Inc/stm32wlxx_ll_exti.h ****   FunctionalState LineCommand;  /*!< Specifies the new state of the selected EXTI lines.
  68:Drivers/STM32WLxx_HAL_Driver/Inc/stm32wlxx_ll_exti.h ****                                      This parameter can be set either to ENABLE or DISABLE */
  69:Drivers/STM32WLxx_HAL_Driver/Inc/stm32wlxx_ll_exti.h **** 
  70:Drivers/STM32WLxx_HAL_Driver/Inc/stm32wlxx_ll_exti.h ****   uint8_t Mode;                 /*!< Specifies the mode for the EXTI lines.
  71:Drivers/STM32WLxx_HAL_Driver/Inc/stm32wlxx_ll_exti.h ****                                      This parameter can be a value of @ref EXTI_LL_EC_MODE. */
  72:Drivers/STM32WLxx_HAL_Driver/Inc/stm32wlxx_ll_exti.h **** 
  73:Drivers/STM32WLxx_HAL_Driver/Inc/stm32wlxx_ll_exti.h ****   uint8_t Trigger;              /*!< Specifies the trigger signal active edge for the EXTI lines.
  74:Drivers/STM32WLxx_HAL_Driver/Inc/stm32wlxx_ll_exti.h ****                                      This parameter can be a value of @ref EXTI_LL_EC_TRIGGER. */
  75:Drivers/STM32WLxx_HAL_Driver/Inc/stm32wlxx_ll_exti.h **** } LL_EXTI_InitTypeDef;
  76:Drivers/STM32WLxx_HAL_Driver/Inc/stm32wlxx_ll_exti.h **** 
  77:Drivers/STM32WLxx_HAL_Driver/Inc/stm32wlxx_ll_exti.h **** /**
  78:Drivers/STM32WLxx_HAL_Driver/Inc/stm32wlxx_ll_exti.h ****   * @}
  79:Drivers/STM32WLxx_HAL_Driver/Inc/stm32wlxx_ll_exti.h ****   */
  80:Drivers/STM32WLxx_HAL_Driver/Inc/stm32wlxx_ll_exti.h **** #endif /*USE_FULL_LL_DRIVER*/
  81:Drivers/STM32WLxx_HAL_Driver/Inc/stm32wlxx_ll_exti.h **** 
  82:Drivers/STM32WLxx_HAL_Driver/Inc/stm32wlxx_ll_exti.h **** /* Exported constants --------------------------------------------------------*/
  83:Drivers/STM32WLxx_HAL_Driver/Inc/stm32wlxx_ll_exti.h **** /** @defgroup EXTI_LL_Exported_Constants EXTI Exported Constants
  84:Drivers/STM32WLxx_HAL_Driver/Inc/stm32wlxx_ll_exti.h ****   * @{
  85:Drivers/STM32WLxx_HAL_Driver/Inc/stm32wlxx_ll_exti.h ****   */
  86:Drivers/STM32WLxx_HAL_Driver/Inc/stm32wlxx_ll_exti.h **** 
  87:Drivers/STM32WLxx_HAL_Driver/Inc/stm32wlxx_ll_exti.h **** /** @defgroup EXTI_LL_EC_LINE LINE
  88:Drivers/STM32WLxx_HAL_Driver/Inc/stm32wlxx_ll_exti.h ****   * @{
  89:Drivers/STM32WLxx_HAL_Driver/Inc/stm32wlxx_ll_exti.h ****   */
  90:Drivers/STM32WLxx_HAL_Driver/Inc/stm32wlxx_ll_exti.h **** #define LL_EXTI_LINE_0                  EXTI_IMR1_IM0    /*!< Extended line 0 */
  91:Drivers/STM32WLxx_HAL_Driver/Inc/stm32wlxx_ll_exti.h **** #define LL_EXTI_LINE_1                  EXTI_IMR1_IM1    /*!< Extended line 1 */
  92:Drivers/STM32WLxx_HAL_Driver/Inc/stm32wlxx_ll_exti.h **** #define LL_EXTI_LINE_2                  EXTI_IMR1_IM2    /*!< Extended line 2 */
  93:Drivers/STM32WLxx_HAL_Driver/Inc/stm32wlxx_ll_exti.h **** #define LL_EXTI_LINE_3                  EXTI_IMR1_IM3    /*!< Extended line 3 */
  94:Drivers/STM32WLxx_HAL_Driver/Inc/stm32wlxx_ll_exti.h **** #define LL_EXTI_LINE_4                  EXTI_IMR1_IM4    /*!< Extended line 4 */
  95:Drivers/STM32WLxx_HAL_Driver/Inc/stm32wlxx_ll_exti.h **** #define LL_EXTI_LINE_5                  EXTI_IMR1_IM5    /*!< Extended line 5 */
  96:Drivers/STM32WLxx_HAL_Driver/Inc/stm32wlxx_ll_exti.h **** #define LL_EXTI_LINE_6                  EXTI_IMR1_IM6    /*!< Extended line 6 */
  97:Drivers/STM32WLxx_HAL_Driver/Inc/stm32wlxx_ll_exti.h **** #define LL_EXTI_LINE_7                  EXTI_IMR1_IM7    /*!< Extended line 7 */
  98:Drivers/STM32WLxx_HAL_Driver/Inc/stm32wlxx_ll_exti.h **** #define LL_EXTI_LINE_8                  EXTI_IMR1_IM8    /*!< Extended line 8 */
  99:Drivers/STM32WLxx_HAL_Driver/Inc/stm32wlxx_ll_exti.h **** #define LL_EXTI_LINE_9                  EXTI_IMR1_IM9    /*!< Extended line 9 */
 100:Drivers/STM32WLxx_HAL_Driver/Inc/stm32wlxx_ll_exti.h **** #define LL_EXTI_LINE_10                 EXTI_IMR1_IM10   /*!< Extended line 10 */
 101:Drivers/STM32WLxx_HAL_Driver/Inc/stm32wlxx_ll_exti.h **** #define LL_EXTI_LINE_11                 EXTI_IMR1_IM11   /*!< Extended line 11 */
 102:Drivers/STM32WLxx_HAL_Driver/Inc/stm32wlxx_ll_exti.h **** #define LL_EXTI_LINE_12                 EXTI_IMR1_IM12   /*!< Extended line 12 */
 103:Drivers/STM32WLxx_HAL_Driver/Inc/stm32wlxx_ll_exti.h **** #define LL_EXTI_LINE_13                 EXTI_IMR1_IM13   /*!< Extended line 13 */
 104:Drivers/STM32WLxx_HAL_Driver/Inc/stm32wlxx_ll_exti.h **** #define LL_EXTI_LINE_14                 EXTI_IMR1_IM14   /*!< Extended line 14 */
 105:Drivers/STM32WLxx_HAL_Driver/Inc/stm32wlxx_ll_exti.h **** #define LL_EXTI_LINE_15                 EXTI_IMR1_IM15   /*!< Extended line 15 */
 106:Drivers/STM32WLxx_HAL_Driver/Inc/stm32wlxx_ll_exti.h **** #define LL_EXTI_LINE_16                 EXTI_IMR1_IM16   /*!< Extended line 16 */
 107:Drivers/STM32WLxx_HAL_Driver/Inc/stm32wlxx_ll_exti.h **** #define LL_EXTI_LINE_17                 EXTI_IMR1_IM17   /*!< Extended line 17 */
 108:Drivers/STM32WLxx_HAL_Driver/Inc/stm32wlxx_ll_exti.h **** #define LL_EXTI_LINE_18                 EXTI_IMR1_IM18   /*!< Extended line 18 */
 109:Drivers/STM32WLxx_HAL_Driver/Inc/stm32wlxx_ll_exti.h **** #define LL_EXTI_LINE_19                 EXTI_IMR1_IM19   /*!< Extended line 19 */
 110:Drivers/STM32WLxx_HAL_Driver/Inc/stm32wlxx_ll_exti.h **** #define LL_EXTI_LINE_20                 EXTI_IMR1_IM20   /*!< Extended line 20 */
 111:Drivers/STM32WLxx_HAL_Driver/Inc/stm32wlxx_ll_exti.h **** #define LL_EXTI_LINE_21                 EXTI_IMR1_IM21   /*!< Extended line 21 */
 112:Drivers/STM32WLxx_HAL_Driver/Inc/stm32wlxx_ll_exti.h **** #define LL_EXTI_LINE_22                 EXTI_IMR1_IM22   /*!< Extended line 22 */
 113:Drivers/STM32WLxx_HAL_Driver/Inc/stm32wlxx_ll_exti.h **** #define LL_EXTI_LINE_23                 EXTI_IMR1_IM23   /*!< Extended line 23 */
 114:Drivers/STM32WLxx_HAL_Driver/Inc/stm32wlxx_ll_exti.h **** #define LL_EXTI_LINE_24                 EXTI_IMR1_IM24   /*!< Extended line 24 */
 115:Drivers/STM32WLxx_HAL_Driver/Inc/stm32wlxx_ll_exti.h **** #define LL_EXTI_LINE_25                 EXTI_IMR1_IM25   /*!< Extended line 25 */
ARM GAS  C:\Users\NATHAN~1\AppData\Local\Temp\ccu0I2kX.s 			page 12


 116:Drivers/STM32WLxx_HAL_Driver/Inc/stm32wlxx_ll_exti.h **** #define LL_EXTI_LINE_26                 EXTI_IMR1_IM26   /*!< Extended line 26 */
 117:Drivers/STM32WLxx_HAL_Driver/Inc/stm32wlxx_ll_exti.h **** #define LL_EXTI_LINE_27                 EXTI_IMR1_IM27   /*!< Extended line 27 */
 118:Drivers/STM32WLxx_HAL_Driver/Inc/stm32wlxx_ll_exti.h **** #define LL_EXTI_LINE_28                 EXTI_IMR1_IM28   /*!< Extended line 28 */
 119:Drivers/STM32WLxx_HAL_Driver/Inc/stm32wlxx_ll_exti.h **** #define LL_EXTI_LINE_29                 EXTI_IMR1_IM29   /*!< Extended line 29 */
 120:Drivers/STM32WLxx_HAL_Driver/Inc/stm32wlxx_ll_exti.h **** #define LL_EXTI_LINE_30                 EXTI_IMR1_IM30   /*!< Extended line 30 */
 121:Drivers/STM32WLxx_HAL_Driver/Inc/stm32wlxx_ll_exti.h **** #define LL_EXTI_LINE_31                 EXTI_IMR1_IM31   /*!< Extended line 31 */
 122:Drivers/STM32WLxx_HAL_Driver/Inc/stm32wlxx_ll_exti.h **** #define LL_EXTI_LINE_ALL_0_31           0xFFFFFFFFU      /*!< All Extended line not reserved*/
 123:Drivers/STM32WLxx_HAL_Driver/Inc/stm32wlxx_ll_exti.h **** 
 124:Drivers/STM32WLxx_HAL_Driver/Inc/stm32wlxx_ll_exti.h **** #define LL_EXTI_LINE_34                 EXTI_IMR2_IM34   /*!< Extended line 34 */
 125:Drivers/STM32WLxx_HAL_Driver/Inc/stm32wlxx_ll_exti.h **** #if defined(DUAL_CORE)
 126:Drivers/STM32WLxx_HAL_Driver/Inc/stm32wlxx_ll_exti.h **** #define LL_EXTI_LINE_36                 EXTI_IMR2_IM36   /*!< Extended line 36 */
 127:Drivers/STM32WLxx_HAL_Driver/Inc/stm32wlxx_ll_exti.h **** #define LL_EXTI_LINE_37                 EXTI_IMR2_IM37   /*!< Extended line 37 */
 128:Drivers/STM32WLxx_HAL_Driver/Inc/stm32wlxx_ll_exti.h **** #endif
 129:Drivers/STM32WLxx_HAL_Driver/Inc/stm32wlxx_ll_exti.h **** #define LL_EXTI_LINE_38                 EXTI_IMR2_IM38   /*!< Extended line 38 */
 130:Drivers/STM32WLxx_HAL_Driver/Inc/stm32wlxx_ll_exti.h **** #if defined(DUAL_CORE)
 131:Drivers/STM32WLxx_HAL_Driver/Inc/stm32wlxx_ll_exti.h **** #define LL_EXTI_LINE_39                 EXTI_IMR2_IM39   /*!< Extended line 39 */
 132:Drivers/STM32WLxx_HAL_Driver/Inc/stm32wlxx_ll_exti.h **** #define LL_EXTI_LINE_40                 EXTI_IMR2_IM40   /*!< Extended line 40 */
 133:Drivers/STM32WLxx_HAL_Driver/Inc/stm32wlxx_ll_exti.h **** #define LL_EXTI_LINE_41                 EXTI_IMR2_IM41   /*!< Extended line 41 */
 134:Drivers/STM32WLxx_HAL_Driver/Inc/stm32wlxx_ll_exti.h **** #endif
 135:Drivers/STM32WLxx_HAL_Driver/Inc/stm32wlxx_ll_exti.h **** #define LL_EXTI_LINE_42                 EXTI_IMR2_IM42   /*!< Extended line 42 */
 136:Drivers/STM32WLxx_HAL_Driver/Inc/stm32wlxx_ll_exti.h **** #define LL_EXTI_LINE_43                 EXTI_IMR2_IM43   /*!< Extended line 43 */
 137:Drivers/STM32WLxx_HAL_Driver/Inc/stm32wlxx_ll_exti.h **** #define LL_EXTI_LINE_44                 EXTI_IMR2_IM44   /*!< Extended line 44 */
 138:Drivers/STM32WLxx_HAL_Driver/Inc/stm32wlxx_ll_exti.h **** #define LL_EXTI_LINE_45                 EXTI_IMR2_IM45   /*!< Extended line 45 */
 139:Drivers/STM32WLxx_HAL_Driver/Inc/stm32wlxx_ll_exti.h **** #define LL_EXTI_LINE_46                 EXTI_IMR2_IM46   /*!< Extended line 46 */
 140:Drivers/STM32WLxx_HAL_Driver/Inc/stm32wlxx_ll_exti.h **** #if defined(DUAL_CORE)
 141:Drivers/STM32WLxx_HAL_Driver/Inc/stm32wlxx_ll_exti.h **** #define LL_EXTI_LINE_ALL_32_63          (EXTI_IMR2_IM34 | EXTI_IMR2_IM36 | EXTI_IMR2_IM37 | \
 142:Drivers/STM32WLxx_HAL_Driver/Inc/stm32wlxx_ll_exti.h ****                                         EXTI_IMR2_IM38 | EXTI_IMR2_IM39 | EXTI_IMR2_IM40 |  \
 143:Drivers/STM32WLxx_HAL_Driver/Inc/stm32wlxx_ll_exti.h ****                                         EXTI_IMR2_IM41 | EXTI_IMR2_IM42 | EXTI_IMR2_IM43 |  \
 144:Drivers/STM32WLxx_HAL_Driver/Inc/stm32wlxx_ll_exti.h ****                                         EXTI_IMR2_IM44 | EXTI_IMR2_IM45 | EXTI_IMR2_IM46) /*!< All 
 145:Drivers/STM32WLxx_HAL_Driver/Inc/stm32wlxx_ll_exti.h **** #else
 146:Drivers/STM32WLxx_HAL_Driver/Inc/stm32wlxx_ll_exti.h **** #define LL_EXTI_LINE_ALL_32_63          (EXTI_IMR2_IM34 | EXTI_IMR2_IM38 | EXTI_IMR2_IM42 | \
 147:Drivers/STM32WLxx_HAL_Driver/Inc/stm32wlxx_ll_exti.h ****                                         EXTI_IMR2_IM43 | EXTI_IMR2_IM44 | EXTI_IMR2_IM45 |  \
 148:Drivers/STM32WLxx_HAL_Driver/Inc/stm32wlxx_ll_exti.h ****                                         EXTI_IMR2_IM46) /*!< All Extended line not reserved*/
 149:Drivers/STM32WLxx_HAL_Driver/Inc/stm32wlxx_ll_exti.h **** #endif
 150:Drivers/STM32WLxx_HAL_Driver/Inc/stm32wlxx_ll_exti.h **** 
 151:Drivers/STM32WLxx_HAL_Driver/Inc/stm32wlxx_ll_exti.h **** #if defined(USE_FULL_LL_DRIVER)
 152:Drivers/STM32WLxx_HAL_Driver/Inc/stm32wlxx_ll_exti.h **** #define LL_EXTI_LINE_NONE              (0x00000000U)  /*!< None Extended line */
 153:Drivers/STM32WLxx_HAL_Driver/Inc/stm32wlxx_ll_exti.h **** #endif /*USE_FULL_LL_DRIVER*/
 154:Drivers/STM32WLxx_HAL_Driver/Inc/stm32wlxx_ll_exti.h **** 
 155:Drivers/STM32WLxx_HAL_Driver/Inc/stm32wlxx_ll_exti.h **** /**
 156:Drivers/STM32WLxx_HAL_Driver/Inc/stm32wlxx_ll_exti.h ****   * @}
 157:Drivers/STM32WLxx_HAL_Driver/Inc/stm32wlxx_ll_exti.h ****   */
 158:Drivers/STM32WLxx_HAL_Driver/Inc/stm32wlxx_ll_exti.h **** #if defined(USE_FULL_LL_DRIVER)
 159:Drivers/STM32WLxx_HAL_Driver/Inc/stm32wlxx_ll_exti.h **** /** @defgroup EXTI_LL_EC_MODE Mode
 160:Drivers/STM32WLxx_HAL_Driver/Inc/stm32wlxx_ll_exti.h ****   * @{
 161:Drivers/STM32WLxx_HAL_Driver/Inc/stm32wlxx_ll_exti.h ****   */
 162:Drivers/STM32WLxx_HAL_Driver/Inc/stm32wlxx_ll_exti.h **** #define LL_EXTI_MODE_IT                 ((uint8_t)0x00U) /*!< Interrupt Mode */
 163:Drivers/STM32WLxx_HAL_Driver/Inc/stm32wlxx_ll_exti.h **** #define LL_EXTI_MODE_EVENT              ((uint8_t)0x01U) /*!< Event Mode */
 164:Drivers/STM32WLxx_HAL_Driver/Inc/stm32wlxx_ll_exti.h **** #define LL_EXTI_MODE_IT_EVENT           ((uint8_t)0x02U) /*!< Interrupt & Event Mode */
 165:Drivers/STM32WLxx_HAL_Driver/Inc/stm32wlxx_ll_exti.h **** /**
 166:Drivers/STM32WLxx_HAL_Driver/Inc/stm32wlxx_ll_exti.h ****   * @}
 167:Drivers/STM32WLxx_HAL_Driver/Inc/stm32wlxx_ll_exti.h ****   */
 168:Drivers/STM32WLxx_HAL_Driver/Inc/stm32wlxx_ll_exti.h **** 
 169:Drivers/STM32WLxx_HAL_Driver/Inc/stm32wlxx_ll_exti.h **** /** @defgroup EXTI_LL_EC_TRIGGER Edge Trigger
 170:Drivers/STM32WLxx_HAL_Driver/Inc/stm32wlxx_ll_exti.h ****   * @{
 171:Drivers/STM32WLxx_HAL_Driver/Inc/stm32wlxx_ll_exti.h ****   */
 172:Drivers/STM32WLxx_HAL_Driver/Inc/stm32wlxx_ll_exti.h **** #define LL_EXTI_TRIGGER_NONE            ((uint8_t)0x00U) /*!< No Trigger Mode */
ARM GAS  C:\Users\NATHAN~1\AppData\Local\Temp\ccu0I2kX.s 			page 13


 173:Drivers/STM32WLxx_HAL_Driver/Inc/stm32wlxx_ll_exti.h **** #define LL_EXTI_TRIGGER_RISING          ((uint8_t)0x01U) /*!< Trigger Rising Mode */
 174:Drivers/STM32WLxx_HAL_Driver/Inc/stm32wlxx_ll_exti.h **** #define LL_EXTI_TRIGGER_FALLING         ((uint8_t)0x02U) /*!< Trigger Falling Mode */
 175:Drivers/STM32WLxx_HAL_Driver/Inc/stm32wlxx_ll_exti.h **** #define LL_EXTI_TRIGGER_RISING_FALLING  ((uint8_t)0x03U) /*!< Trigger Rising & Falling Mode */
 176:Drivers/STM32WLxx_HAL_Driver/Inc/stm32wlxx_ll_exti.h **** /**
 177:Drivers/STM32WLxx_HAL_Driver/Inc/stm32wlxx_ll_exti.h ****   * @}
 178:Drivers/STM32WLxx_HAL_Driver/Inc/stm32wlxx_ll_exti.h ****   */
 179:Drivers/STM32WLxx_HAL_Driver/Inc/stm32wlxx_ll_exti.h **** #endif /*USE_FULL_LL_DRIVER*/
 180:Drivers/STM32WLxx_HAL_Driver/Inc/stm32wlxx_ll_exti.h **** 
 181:Drivers/STM32WLxx_HAL_Driver/Inc/stm32wlxx_ll_exti.h **** /**
 182:Drivers/STM32WLxx_HAL_Driver/Inc/stm32wlxx_ll_exti.h ****   * @}
 183:Drivers/STM32WLxx_HAL_Driver/Inc/stm32wlxx_ll_exti.h ****   */
 184:Drivers/STM32WLxx_HAL_Driver/Inc/stm32wlxx_ll_exti.h **** 
 185:Drivers/STM32WLxx_HAL_Driver/Inc/stm32wlxx_ll_exti.h **** /* Exported macro ------------------------------------------------------------*/
 186:Drivers/STM32WLxx_HAL_Driver/Inc/stm32wlxx_ll_exti.h **** /** @defgroup EXTI_LL_Exported_Macros EXTI Exported Macros
 187:Drivers/STM32WLxx_HAL_Driver/Inc/stm32wlxx_ll_exti.h ****   * @{
 188:Drivers/STM32WLxx_HAL_Driver/Inc/stm32wlxx_ll_exti.h ****   */
 189:Drivers/STM32WLxx_HAL_Driver/Inc/stm32wlxx_ll_exti.h **** 
 190:Drivers/STM32WLxx_HAL_Driver/Inc/stm32wlxx_ll_exti.h **** /** @defgroup EXTI_LL_EM_WRITE_READ Common Write and read registers Macros
 191:Drivers/STM32WLxx_HAL_Driver/Inc/stm32wlxx_ll_exti.h ****   * @{
 192:Drivers/STM32WLxx_HAL_Driver/Inc/stm32wlxx_ll_exti.h ****   */
 193:Drivers/STM32WLxx_HAL_Driver/Inc/stm32wlxx_ll_exti.h **** 
 194:Drivers/STM32WLxx_HAL_Driver/Inc/stm32wlxx_ll_exti.h **** /**
 195:Drivers/STM32WLxx_HAL_Driver/Inc/stm32wlxx_ll_exti.h ****   * @brief  Write a value in EXTI register
 196:Drivers/STM32WLxx_HAL_Driver/Inc/stm32wlxx_ll_exti.h ****   * @param  __REG__ Register to be written
 197:Drivers/STM32WLxx_HAL_Driver/Inc/stm32wlxx_ll_exti.h ****   * @param  __VALUE__ Value to be written in the register
 198:Drivers/STM32WLxx_HAL_Driver/Inc/stm32wlxx_ll_exti.h ****   * @retval None
 199:Drivers/STM32WLxx_HAL_Driver/Inc/stm32wlxx_ll_exti.h ****   */
 200:Drivers/STM32WLxx_HAL_Driver/Inc/stm32wlxx_ll_exti.h **** #define LL_EXTI_WriteReg(__REG__, __VALUE__) WRITE_REG(EXTI->__REG__, (__VALUE__))
 201:Drivers/STM32WLxx_HAL_Driver/Inc/stm32wlxx_ll_exti.h **** 
 202:Drivers/STM32WLxx_HAL_Driver/Inc/stm32wlxx_ll_exti.h **** /**
 203:Drivers/STM32WLxx_HAL_Driver/Inc/stm32wlxx_ll_exti.h ****   * @brief  Read a value in EXTI register
 204:Drivers/STM32WLxx_HAL_Driver/Inc/stm32wlxx_ll_exti.h ****   * @param  __REG__ Register to be read
 205:Drivers/STM32WLxx_HAL_Driver/Inc/stm32wlxx_ll_exti.h ****   * @retval Register value
 206:Drivers/STM32WLxx_HAL_Driver/Inc/stm32wlxx_ll_exti.h ****   */
 207:Drivers/STM32WLxx_HAL_Driver/Inc/stm32wlxx_ll_exti.h **** #define LL_EXTI_ReadReg(__REG__) READ_REG(EXTI->__REG__)
 208:Drivers/STM32WLxx_HAL_Driver/Inc/stm32wlxx_ll_exti.h **** /**
 209:Drivers/STM32WLxx_HAL_Driver/Inc/stm32wlxx_ll_exti.h ****   * @}
 210:Drivers/STM32WLxx_HAL_Driver/Inc/stm32wlxx_ll_exti.h ****   */
 211:Drivers/STM32WLxx_HAL_Driver/Inc/stm32wlxx_ll_exti.h **** 
 212:Drivers/STM32WLxx_HAL_Driver/Inc/stm32wlxx_ll_exti.h **** 
 213:Drivers/STM32WLxx_HAL_Driver/Inc/stm32wlxx_ll_exti.h **** /**
 214:Drivers/STM32WLxx_HAL_Driver/Inc/stm32wlxx_ll_exti.h ****   * @}
 215:Drivers/STM32WLxx_HAL_Driver/Inc/stm32wlxx_ll_exti.h ****   */
 216:Drivers/STM32WLxx_HAL_Driver/Inc/stm32wlxx_ll_exti.h **** 
 217:Drivers/STM32WLxx_HAL_Driver/Inc/stm32wlxx_ll_exti.h **** 
 218:Drivers/STM32WLxx_HAL_Driver/Inc/stm32wlxx_ll_exti.h **** 
 219:Drivers/STM32WLxx_HAL_Driver/Inc/stm32wlxx_ll_exti.h **** /* Exported functions --------------------------------------------------------*/
 220:Drivers/STM32WLxx_HAL_Driver/Inc/stm32wlxx_ll_exti.h **** /** @defgroup EXTI_LL_Exported_Functions EXTI Exported Functions
 221:Drivers/STM32WLxx_HAL_Driver/Inc/stm32wlxx_ll_exti.h ****  * @{
 222:Drivers/STM32WLxx_HAL_Driver/Inc/stm32wlxx_ll_exti.h ****  */
 223:Drivers/STM32WLxx_HAL_Driver/Inc/stm32wlxx_ll_exti.h **** /** @defgroup EXTI_LL_EF_IT_Management IT_Management
 224:Drivers/STM32WLxx_HAL_Driver/Inc/stm32wlxx_ll_exti.h ****   * @{
 225:Drivers/STM32WLxx_HAL_Driver/Inc/stm32wlxx_ll_exti.h ****   */
 226:Drivers/STM32WLxx_HAL_Driver/Inc/stm32wlxx_ll_exti.h **** 
 227:Drivers/STM32WLxx_HAL_Driver/Inc/stm32wlxx_ll_exti.h **** /**
 228:Drivers/STM32WLxx_HAL_Driver/Inc/stm32wlxx_ll_exti.h ****   * @brief  Enable ExtiLine Interrupt request for Lines in range 0 to 31
 229:Drivers/STM32WLxx_HAL_Driver/Inc/stm32wlxx_ll_exti.h ****   * @rmtoll IMR1         IMx           LL_EXTI_EnableIT_0_31
ARM GAS  C:\Users\NATHAN~1\AppData\Local\Temp\ccu0I2kX.s 			page 14


 230:Drivers/STM32WLxx_HAL_Driver/Inc/stm32wlxx_ll_exti.h ****   * @param  ExtiLine This parameter can be one of the following values:
 231:Drivers/STM32WLxx_HAL_Driver/Inc/stm32wlxx_ll_exti.h ****   *         @arg @ref LL_EXTI_LINE_0
 232:Drivers/STM32WLxx_HAL_Driver/Inc/stm32wlxx_ll_exti.h ****   *         @arg @ref LL_EXTI_LINE_1
 233:Drivers/STM32WLxx_HAL_Driver/Inc/stm32wlxx_ll_exti.h ****   *         @arg @ref LL_EXTI_LINE_2
 234:Drivers/STM32WLxx_HAL_Driver/Inc/stm32wlxx_ll_exti.h ****   *         @arg @ref LL_EXTI_LINE_3
 235:Drivers/STM32WLxx_HAL_Driver/Inc/stm32wlxx_ll_exti.h ****   *         @arg @ref LL_EXTI_LINE_4
 236:Drivers/STM32WLxx_HAL_Driver/Inc/stm32wlxx_ll_exti.h ****   *         @arg @ref LL_EXTI_LINE_5
 237:Drivers/STM32WLxx_HAL_Driver/Inc/stm32wlxx_ll_exti.h ****   *         @arg @ref LL_EXTI_LINE_6
 238:Drivers/STM32WLxx_HAL_Driver/Inc/stm32wlxx_ll_exti.h ****   *         @arg @ref LL_EXTI_LINE_7
 239:Drivers/STM32WLxx_HAL_Driver/Inc/stm32wlxx_ll_exti.h ****   *         @arg @ref LL_EXTI_LINE_8
 240:Drivers/STM32WLxx_HAL_Driver/Inc/stm32wlxx_ll_exti.h ****   *         @arg @ref LL_EXTI_LINE_9
 241:Drivers/STM32WLxx_HAL_Driver/Inc/stm32wlxx_ll_exti.h ****   *         @arg @ref LL_EXTI_LINE_10
 242:Drivers/STM32WLxx_HAL_Driver/Inc/stm32wlxx_ll_exti.h ****   *         @arg @ref LL_EXTI_LINE_11
 243:Drivers/STM32WLxx_HAL_Driver/Inc/stm32wlxx_ll_exti.h ****   *         @arg @ref LL_EXTI_LINE_12
 244:Drivers/STM32WLxx_HAL_Driver/Inc/stm32wlxx_ll_exti.h ****   *         @arg @ref LL_EXTI_LINE_13
 245:Drivers/STM32WLxx_HAL_Driver/Inc/stm32wlxx_ll_exti.h ****   *         @arg @ref LL_EXTI_LINE_14
 246:Drivers/STM32WLxx_HAL_Driver/Inc/stm32wlxx_ll_exti.h ****   *         @arg @ref LL_EXTI_LINE_15
 247:Drivers/STM32WLxx_HAL_Driver/Inc/stm32wlxx_ll_exti.h ****   *         @arg @ref LL_EXTI_LINE_16
 248:Drivers/STM32WLxx_HAL_Driver/Inc/stm32wlxx_ll_exti.h ****   *         @arg @ref LL_EXTI_LINE_17
 249:Drivers/STM32WLxx_HAL_Driver/Inc/stm32wlxx_ll_exti.h ****   *         @arg @ref LL_EXTI_LINE_18
 250:Drivers/STM32WLxx_HAL_Driver/Inc/stm32wlxx_ll_exti.h ****   *         @arg @ref LL_EXTI_LINE_19
 251:Drivers/STM32WLxx_HAL_Driver/Inc/stm32wlxx_ll_exti.h ****   *         @arg @ref LL_EXTI_LINE_20
 252:Drivers/STM32WLxx_HAL_Driver/Inc/stm32wlxx_ll_exti.h ****   *         @arg @ref LL_EXTI_LINE_21
 253:Drivers/STM32WLxx_HAL_Driver/Inc/stm32wlxx_ll_exti.h ****   *         @arg @ref LL_EXTI_LINE_22
 254:Drivers/STM32WLxx_HAL_Driver/Inc/stm32wlxx_ll_exti.h ****   *         @arg @ref LL_EXTI_LINE_23
 255:Drivers/STM32WLxx_HAL_Driver/Inc/stm32wlxx_ll_exti.h ****   *         @arg @ref LL_EXTI_LINE_24
 256:Drivers/STM32WLxx_HAL_Driver/Inc/stm32wlxx_ll_exti.h ****   *         @arg @ref LL_EXTI_LINE_25
 257:Drivers/STM32WLxx_HAL_Driver/Inc/stm32wlxx_ll_exti.h ****   *         @arg @ref LL_EXTI_LINE_26
 258:Drivers/STM32WLxx_HAL_Driver/Inc/stm32wlxx_ll_exti.h ****   *         @arg @ref LL_EXTI_LINE_27
 259:Drivers/STM32WLxx_HAL_Driver/Inc/stm32wlxx_ll_exti.h ****   *         @arg @ref LL_EXTI_LINE_28
 260:Drivers/STM32WLxx_HAL_Driver/Inc/stm32wlxx_ll_exti.h ****   *         @arg @ref LL_EXTI_LINE_29
 261:Drivers/STM32WLxx_HAL_Driver/Inc/stm32wlxx_ll_exti.h ****   *         @arg @ref LL_EXTI_LINE_30
 262:Drivers/STM32WLxx_HAL_Driver/Inc/stm32wlxx_ll_exti.h ****   *         @arg @ref LL_EXTI_LINE_31
 263:Drivers/STM32WLxx_HAL_Driver/Inc/stm32wlxx_ll_exti.h ****   *         @arg @ref LL_EXTI_LINE_ALL_0_31
 264:Drivers/STM32WLxx_HAL_Driver/Inc/stm32wlxx_ll_exti.h ****   * @retval None
 265:Drivers/STM32WLxx_HAL_Driver/Inc/stm32wlxx_ll_exti.h ****   */
 266:Drivers/STM32WLxx_HAL_Driver/Inc/stm32wlxx_ll_exti.h **** __STATIC_INLINE void LL_EXTI_EnableIT_0_31(uint32_t ExtiLine)
 267:Drivers/STM32WLxx_HAL_Driver/Inc/stm32wlxx_ll_exti.h **** {
 268:Drivers/STM32WLxx_HAL_Driver/Inc/stm32wlxx_ll_exti.h ****   SET_BIT(EXTI->IMR1, ExtiLine);
 269:Drivers/STM32WLxx_HAL_Driver/Inc/stm32wlxx_ll_exti.h **** }
 270:Drivers/STM32WLxx_HAL_Driver/Inc/stm32wlxx_ll_exti.h **** 
 271:Drivers/STM32WLxx_HAL_Driver/Inc/stm32wlxx_ll_exti.h **** #if defined(DUAL_CORE)
 272:Drivers/STM32WLxx_HAL_Driver/Inc/stm32wlxx_ll_exti.h **** /**
 273:Drivers/STM32WLxx_HAL_Driver/Inc/stm32wlxx_ll_exti.h ****   * @brief  Enable ExtiLine Interrupt request for Lines in range 0 to 31 for cpu2
 274:Drivers/STM32WLxx_HAL_Driver/Inc/stm32wlxx_ll_exti.h ****   * @rmtoll C2IMR1         IMx           LL_C2_EXTI_EnableIT_0_31
 275:Drivers/STM32WLxx_HAL_Driver/Inc/stm32wlxx_ll_exti.h ****   * @param  ExtiLine This parameter can be one of the following values:
 276:Drivers/STM32WLxx_HAL_Driver/Inc/stm32wlxx_ll_exti.h ****   *         @arg @ref LL_EXTI_LINE_0
 277:Drivers/STM32WLxx_HAL_Driver/Inc/stm32wlxx_ll_exti.h ****   *         @arg @ref LL_EXTI_LINE_1
 278:Drivers/STM32WLxx_HAL_Driver/Inc/stm32wlxx_ll_exti.h ****   *         @arg @ref LL_EXTI_LINE_2
 279:Drivers/STM32WLxx_HAL_Driver/Inc/stm32wlxx_ll_exti.h ****   *         @arg @ref LL_EXTI_LINE_3
 280:Drivers/STM32WLxx_HAL_Driver/Inc/stm32wlxx_ll_exti.h ****   *         @arg @ref LL_EXTI_LINE_4
 281:Drivers/STM32WLxx_HAL_Driver/Inc/stm32wlxx_ll_exti.h ****   *         @arg @ref LL_EXTI_LINE_5
 282:Drivers/STM32WLxx_HAL_Driver/Inc/stm32wlxx_ll_exti.h ****   *         @arg @ref LL_EXTI_LINE_6
 283:Drivers/STM32WLxx_HAL_Driver/Inc/stm32wlxx_ll_exti.h ****   *         @arg @ref LL_EXTI_LINE_7
 284:Drivers/STM32WLxx_HAL_Driver/Inc/stm32wlxx_ll_exti.h ****   *         @arg @ref LL_EXTI_LINE_8
 285:Drivers/STM32WLxx_HAL_Driver/Inc/stm32wlxx_ll_exti.h ****   *         @arg @ref LL_EXTI_LINE_9
 286:Drivers/STM32WLxx_HAL_Driver/Inc/stm32wlxx_ll_exti.h ****   *         @arg @ref LL_EXTI_LINE_10
ARM GAS  C:\Users\NATHAN~1\AppData\Local\Temp\ccu0I2kX.s 			page 15


 287:Drivers/STM32WLxx_HAL_Driver/Inc/stm32wlxx_ll_exti.h ****   *         @arg @ref LL_EXTI_LINE_11
 288:Drivers/STM32WLxx_HAL_Driver/Inc/stm32wlxx_ll_exti.h ****   *         @arg @ref LL_EXTI_LINE_12
 289:Drivers/STM32WLxx_HAL_Driver/Inc/stm32wlxx_ll_exti.h ****   *         @arg @ref LL_EXTI_LINE_13
 290:Drivers/STM32WLxx_HAL_Driver/Inc/stm32wlxx_ll_exti.h ****   *         @arg @ref LL_EXTI_LINE_14
 291:Drivers/STM32WLxx_HAL_Driver/Inc/stm32wlxx_ll_exti.h ****   *         @arg @ref LL_EXTI_LINE_15
 292:Drivers/STM32WLxx_HAL_Driver/Inc/stm32wlxx_ll_exti.h ****   *         @arg @ref LL_EXTI_LINE_16
 293:Drivers/STM32WLxx_HAL_Driver/Inc/stm32wlxx_ll_exti.h ****   *         @arg @ref LL_EXTI_LINE_17
 294:Drivers/STM32WLxx_HAL_Driver/Inc/stm32wlxx_ll_exti.h ****   *         @arg @ref LL_EXTI_LINE_18
 295:Drivers/STM32WLxx_HAL_Driver/Inc/stm32wlxx_ll_exti.h ****   *         @arg @ref LL_EXTI_LINE_19
 296:Drivers/STM32WLxx_HAL_Driver/Inc/stm32wlxx_ll_exti.h ****   *         @arg @ref LL_EXTI_LINE_20
 297:Drivers/STM32WLxx_HAL_Driver/Inc/stm32wlxx_ll_exti.h ****   *         @arg @ref LL_EXTI_LINE_21
 298:Drivers/STM32WLxx_HAL_Driver/Inc/stm32wlxx_ll_exti.h ****   *         @arg @ref LL_EXTI_LINE_22
 299:Drivers/STM32WLxx_HAL_Driver/Inc/stm32wlxx_ll_exti.h ****   *         @arg @ref LL_EXTI_LINE_23
 300:Drivers/STM32WLxx_HAL_Driver/Inc/stm32wlxx_ll_exti.h ****   *         @arg @ref LL_EXTI_LINE_24
 301:Drivers/STM32WLxx_HAL_Driver/Inc/stm32wlxx_ll_exti.h ****   *         @arg @ref LL_EXTI_LINE_25
 302:Drivers/STM32WLxx_HAL_Driver/Inc/stm32wlxx_ll_exti.h ****   *         @arg @ref LL_EXTI_LINE_26
 303:Drivers/STM32WLxx_HAL_Driver/Inc/stm32wlxx_ll_exti.h ****   *         @arg @ref LL_EXTI_LINE_27
 304:Drivers/STM32WLxx_HAL_Driver/Inc/stm32wlxx_ll_exti.h ****   *         @arg @ref LL_EXTI_LINE_28
 305:Drivers/STM32WLxx_HAL_Driver/Inc/stm32wlxx_ll_exti.h ****   *         @arg @ref LL_EXTI_LINE_29
 306:Drivers/STM32WLxx_HAL_Driver/Inc/stm32wlxx_ll_exti.h ****   *         @arg @ref LL_EXTI_LINE_30
 307:Drivers/STM32WLxx_HAL_Driver/Inc/stm32wlxx_ll_exti.h ****   *         @arg @ref LL_EXTI_LINE_31
 308:Drivers/STM32WLxx_HAL_Driver/Inc/stm32wlxx_ll_exti.h ****   *         @arg @ref LL_EXTI_LINE_ALL_0_31
 309:Drivers/STM32WLxx_HAL_Driver/Inc/stm32wlxx_ll_exti.h ****   * @retval None
 310:Drivers/STM32WLxx_HAL_Driver/Inc/stm32wlxx_ll_exti.h ****   */
 311:Drivers/STM32WLxx_HAL_Driver/Inc/stm32wlxx_ll_exti.h **** __STATIC_INLINE void LL_C2_EXTI_EnableIT_0_31(uint32_t ExtiLine)
 312:Drivers/STM32WLxx_HAL_Driver/Inc/stm32wlxx_ll_exti.h **** {
 313:Drivers/STM32WLxx_HAL_Driver/Inc/stm32wlxx_ll_exti.h ****   SET_BIT(EXTI->C2IMR1, ExtiLine);
 314:Drivers/STM32WLxx_HAL_Driver/Inc/stm32wlxx_ll_exti.h **** }
 315:Drivers/STM32WLxx_HAL_Driver/Inc/stm32wlxx_ll_exti.h **** #endif
 316:Drivers/STM32WLxx_HAL_Driver/Inc/stm32wlxx_ll_exti.h **** 
 317:Drivers/STM32WLxx_HAL_Driver/Inc/stm32wlxx_ll_exti.h **** /**
 318:Drivers/STM32WLxx_HAL_Driver/Inc/stm32wlxx_ll_exti.h ****   * @brief  Enable ExtiLine Interrupt request for Lines in range 32 to 63
 319:Drivers/STM32WLxx_HAL_Driver/Inc/stm32wlxx_ll_exti.h ****   * @rmtoll IMR2         IMx           LL_EXTI_EnableIT_32_63
 320:Drivers/STM32WLxx_HAL_Driver/Inc/stm32wlxx_ll_exti.h ****   * @param  ExtiLine This parameter can be one of the following values:
 321:Drivers/STM32WLxx_HAL_Driver/Inc/stm32wlxx_ll_exti.h ****   *         @arg @ref LL_EXTI_LINE_34
 322:Drivers/STM32WLxx_HAL_Driver/Inc/stm32wlxx_ll_exti.h ****   *         @arg @ref LL_EXTI_LINE_36 (*)
 323:Drivers/STM32WLxx_HAL_Driver/Inc/stm32wlxx_ll_exti.h ****   *         @arg @ref LL_EXTI_LINE_37 (*)
 324:Drivers/STM32WLxx_HAL_Driver/Inc/stm32wlxx_ll_exti.h ****   *         @arg @ref LL_EXTI_LINE_38
 325:Drivers/STM32WLxx_HAL_Driver/Inc/stm32wlxx_ll_exti.h ****   *         @arg @ref LL_EXTI_LINE_39 (*)
 326:Drivers/STM32WLxx_HAL_Driver/Inc/stm32wlxx_ll_exti.h ****   *         @arg @ref LL_EXTI_LINE_40 (*)
 327:Drivers/STM32WLxx_HAL_Driver/Inc/stm32wlxx_ll_exti.h ****   *         @arg @ref LL_EXTI_LINE_41 (*)
 328:Drivers/STM32WLxx_HAL_Driver/Inc/stm32wlxx_ll_exti.h ****   *         @arg @ref LL_EXTI_LINE_42
 329:Drivers/STM32WLxx_HAL_Driver/Inc/stm32wlxx_ll_exti.h ****   *         @arg @ref LL_EXTI_LINE_43
 330:Drivers/STM32WLxx_HAL_Driver/Inc/stm32wlxx_ll_exti.h ****   *         @arg @ref LL_EXTI_LINE_44
 331:Drivers/STM32WLxx_HAL_Driver/Inc/stm32wlxx_ll_exti.h ****   *         @arg @ref LL_EXTI_LINE_45
 332:Drivers/STM32WLxx_HAL_Driver/Inc/stm32wlxx_ll_exti.h ****   *         @arg @ref LL_EXTI_LINE_46
 333:Drivers/STM32WLxx_HAL_Driver/Inc/stm32wlxx_ll_exti.h ****   *         @arg @ref LL_EXTI_LINE_ALL_32_63
 334:Drivers/STM32WLxx_HAL_Driver/Inc/stm32wlxx_ll_exti.h ****   *         (*) value not defined in all devices
 335:Drivers/STM32WLxx_HAL_Driver/Inc/stm32wlxx_ll_exti.h ****   * @retval None
 336:Drivers/STM32WLxx_HAL_Driver/Inc/stm32wlxx_ll_exti.h ****   */
 337:Drivers/STM32WLxx_HAL_Driver/Inc/stm32wlxx_ll_exti.h **** __STATIC_INLINE void LL_EXTI_EnableIT_32_63(uint32_t ExtiLine)
 338:Drivers/STM32WLxx_HAL_Driver/Inc/stm32wlxx_ll_exti.h **** {
 339:Drivers/STM32WLxx_HAL_Driver/Inc/stm32wlxx_ll_exti.h ****   SET_BIT(EXTI->IMR2, ExtiLine);
 340:Drivers/STM32WLxx_HAL_Driver/Inc/stm32wlxx_ll_exti.h **** }
 341:Drivers/STM32WLxx_HAL_Driver/Inc/stm32wlxx_ll_exti.h **** 
 342:Drivers/STM32WLxx_HAL_Driver/Inc/stm32wlxx_ll_exti.h **** #if defined(DUAL_CORE)
 343:Drivers/STM32WLxx_HAL_Driver/Inc/stm32wlxx_ll_exti.h **** /**
ARM GAS  C:\Users\NATHAN~1\AppData\Local\Temp\ccu0I2kX.s 			page 16


 344:Drivers/STM32WLxx_HAL_Driver/Inc/stm32wlxx_ll_exti.h ****   * @brief  Enable ExtiLine Interrupt request for Lines in range 32 to 63 for cpu2
 345:Drivers/STM32WLxx_HAL_Driver/Inc/stm32wlxx_ll_exti.h ****   * @rmtoll C2IMR2         IMx           LL_C2_EXTI_EnableIT_32_63
 346:Drivers/STM32WLxx_HAL_Driver/Inc/stm32wlxx_ll_exti.h ****   * @param  ExtiLine This parameter can be one of the following values:
 347:Drivers/STM32WLxx_HAL_Driver/Inc/stm32wlxx_ll_exti.h ****   *         @arg @ref LL_EXTI_LINE_34
 348:Drivers/STM32WLxx_HAL_Driver/Inc/stm32wlxx_ll_exti.h ****   *         @arg @ref LL_EXTI_LINE_36 (*)
 349:Drivers/STM32WLxx_HAL_Driver/Inc/stm32wlxx_ll_exti.h ****   *         @arg @ref LL_EXTI_LINE_37 (*)
 350:Drivers/STM32WLxx_HAL_Driver/Inc/stm32wlxx_ll_exti.h ****   *         @arg @ref LL_EXTI_LINE_38
 351:Drivers/STM32WLxx_HAL_Driver/Inc/stm32wlxx_ll_exti.h ****   *         @arg @ref LL_EXTI_LINE_39 (*)
 352:Drivers/STM32WLxx_HAL_Driver/Inc/stm32wlxx_ll_exti.h ****   *         @arg @ref LL_EXTI_LINE_40 (*)
 353:Drivers/STM32WLxx_HAL_Driver/Inc/stm32wlxx_ll_exti.h ****   *         @arg @ref LL_EXTI_LINE_41 (*)
 354:Drivers/STM32WLxx_HAL_Driver/Inc/stm32wlxx_ll_exti.h ****   *         @arg @ref LL_EXTI_LINE_42
 355:Drivers/STM32WLxx_HAL_Driver/Inc/stm32wlxx_ll_exti.h ****   *         @arg @ref LL_EXTI_LINE_43
 356:Drivers/STM32WLxx_HAL_Driver/Inc/stm32wlxx_ll_exti.h ****   *         @arg @ref LL_EXTI_LINE_44
 357:Drivers/STM32WLxx_HAL_Driver/Inc/stm32wlxx_ll_exti.h ****   *         @arg @ref LL_EXTI_LINE_45
 358:Drivers/STM32WLxx_HAL_Driver/Inc/stm32wlxx_ll_exti.h ****   *         @arg @ref LL_EXTI_LINE_46
 359:Drivers/STM32WLxx_HAL_Driver/Inc/stm32wlxx_ll_exti.h ****   *         @arg @ref LL_EXTI_LINE_ALL_32_63
 360:Drivers/STM32WLxx_HAL_Driver/Inc/stm32wlxx_ll_exti.h ****   *         (*) value not defined in all devices
 361:Drivers/STM32WLxx_HAL_Driver/Inc/stm32wlxx_ll_exti.h ****   * @retval None
 362:Drivers/STM32WLxx_HAL_Driver/Inc/stm32wlxx_ll_exti.h ****   */
 363:Drivers/STM32WLxx_HAL_Driver/Inc/stm32wlxx_ll_exti.h **** __STATIC_INLINE void LL_C2_EXTI_EnableIT_32_63(uint32_t ExtiLine)
 364:Drivers/STM32WLxx_HAL_Driver/Inc/stm32wlxx_ll_exti.h **** {
 365:Drivers/STM32WLxx_HAL_Driver/Inc/stm32wlxx_ll_exti.h ****   SET_BIT(EXTI->C2IMR2, ExtiLine);
 366:Drivers/STM32WLxx_HAL_Driver/Inc/stm32wlxx_ll_exti.h **** }
 367:Drivers/STM32WLxx_HAL_Driver/Inc/stm32wlxx_ll_exti.h **** #endif
 368:Drivers/STM32WLxx_HAL_Driver/Inc/stm32wlxx_ll_exti.h **** 
 369:Drivers/STM32WLxx_HAL_Driver/Inc/stm32wlxx_ll_exti.h **** /**
 370:Drivers/STM32WLxx_HAL_Driver/Inc/stm32wlxx_ll_exti.h ****   * @brief  Disable ExtiLine Interrupt request for Lines in range 0 to 31
 371:Drivers/STM32WLxx_HAL_Driver/Inc/stm32wlxx_ll_exti.h ****   * @rmtoll IMR1         IMx           LL_EXTI_DisableIT_0_31
 372:Drivers/STM32WLxx_HAL_Driver/Inc/stm32wlxx_ll_exti.h ****   * @param  ExtiLine This parameter can be one of the following values:
 373:Drivers/STM32WLxx_HAL_Driver/Inc/stm32wlxx_ll_exti.h ****   *         @arg @ref LL_EXTI_LINE_0
 374:Drivers/STM32WLxx_HAL_Driver/Inc/stm32wlxx_ll_exti.h ****   *         @arg @ref LL_EXTI_LINE_1
 375:Drivers/STM32WLxx_HAL_Driver/Inc/stm32wlxx_ll_exti.h ****   *         @arg @ref LL_EXTI_LINE_2
 376:Drivers/STM32WLxx_HAL_Driver/Inc/stm32wlxx_ll_exti.h ****   *         @arg @ref LL_EXTI_LINE_3
 377:Drivers/STM32WLxx_HAL_Driver/Inc/stm32wlxx_ll_exti.h ****   *         @arg @ref LL_EXTI_LINE_4
 378:Drivers/STM32WLxx_HAL_Driver/Inc/stm32wlxx_ll_exti.h ****   *         @arg @ref LL_EXTI_LINE_5
 379:Drivers/STM32WLxx_HAL_Driver/Inc/stm32wlxx_ll_exti.h ****   *         @arg @ref LL_EXTI_LINE_6
 380:Drivers/STM32WLxx_HAL_Driver/Inc/stm32wlxx_ll_exti.h ****   *         @arg @ref LL_EXTI_LINE_7
 381:Drivers/STM32WLxx_HAL_Driver/Inc/stm32wlxx_ll_exti.h ****   *         @arg @ref LL_EXTI_LINE_8
 382:Drivers/STM32WLxx_HAL_Driver/Inc/stm32wlxx_ll_exti.h ****   *         @arg @ref LL_EXTI_LINE_9
 383:Drivers/STM32WLxx_HAL_Driver/Inc/stm32wlxx_ll_exti.h ****   *         @arg @ref LL_EXTI_LINE_10
 384:Drivers/STM32WLxx_HAL_Driver/Inc/stm32wlxx_ll_exti.h ****   *         @arg @ref LL_EXTI_LINE_11
 385:Drivers/STM32WLxx_HAL_Driver/Inc/stm32wlxx_ll_exti.h ****   *         @arg @ref LL_EXTI_LINE_12
 386:Drivers/STM32WLxx_HAL_Driver/Inc/stm32wlxx_ll_exti.h ****   *         @arg @ref LL_EXTI_LINE_13
 387:Drivers/STM32WLxx_HAL_Driver/Inc/stm32wlxx_ll_exti.h ****   *         @arg @ref LL_EXTI_LINE_14
 388:Drivers/STM32WLxx_HAL_Driver/Inc/stm32wlxx_ll_exti.h ****   *         @arg @ref LL_EXTI_LINE_15
 389:Drivers/STM32WLxx_HAL_Driver/Inc/stm32wlxx_ll_exti.h ****   *         @arg @ref LL_EXTI_LINE_16
 390:Drivers/STM32WLxx_HAL_Driver/Inc/stm32wlxx_ll_exti.h ****   *         @arg @ref LL_EXTI_LINE_17
 391:Drivers/STM32WLxx_HAL_Driver/Inc/stm32wlxx_ll_exti.h ****   *         @arg @ref LL_EXTI_LINE_18
 392:Drivers/STM32WLxx_HAL_Driver/Inc/stm32wlxx_ll_exti.h ****   *         @arg @ref LL_EXTI_LINE_19
 393:Drivers/STM32WLxx_HAL_Driver/Inc/stm32wlxx_ll_exti.h ****   *         @arg @ref LL_EXTI_LINE_20
 394:Drivers/STM32WLxx_HAL_Driver/Inc/stm32wlxx_ll_exti.h ****   *         @arg @ref LL_EXTI_LINE_21
 395:Drivers/STM32WLxx_HAL_Driver/Inc/stm32wlxx_ll_exti.h ****   *         @arg @ref LL_EXTI_LINE_22
 396:Drivers/STM32WLxx_HAL_Driver/Inc/stm32wlxx_ll_exti.h ****   *         @arg @ref LL_EXTI_LINE_23
 397:Drivers/STM32WLxx_HAL_Driver/Inc/stm32wlxx_ll_exti.h ****   *         @arg @ref LL_EXTI_LINE_24
 398:Drivers/STM32WLxx_HAL_Driver/Inc/stm32wlxx_ll_exti.h ****   *         @arg @ref LL_EXTI_LINE_25
 399:Drivers/STM32WLxx_HAL_Driver/Inc/stm32wlxx_ll_exti.h ****   *         @arg @ref LL_EXTI_LINE_26
 400:Drivers/STM32WLxx_HAL_Driver/Inc/stm32wlxx_ll_exti.h ****   *         @arg @ref LL_EXTI_LINE_27
ARM GAS  C:\Users\NATHAN~1\AppData\Local\Temp\ccu0I2kX.s 			page 17


 401:Drivers/STM32WLxx_HAL_Driver/Inc/stm32wlxx_ll_exti.h ****   *         @arg @ref LL_EXTI_LINE_28
 402:Drivers/STM32WLxx_HAL_Driver/Inc/stm32wlxx_ll_exti.h ****   *         @arg @ref LL_EXTI_LINE_29
 403:Drivers/STM32WLxx_HAL_Driver/Inc/stm32wlxx_ll_exti.h ****   *         @arg @ref LL_EXTI_LINE_30
 404:Drivers/STM32WLxx_HAL_Driver/Inc/stm32wlxx_ll_exti.h ****   *         @arg @ref LL_EXTI_LINE_31
 405:Drivers/STM32WLxx_HAL_Driver/Inc/stm32wlxx_ll_exti.h ****   *         @arg @ref LL_EXTI_LINE_ALL_0_31
 406:Drivers/STM32WLxx_HAL_Driver/Inc/stm32wlxx_ll_exti.h ****   * @retval None
 407:Drivers/STM32WLxx_HAL_Driver/Inc/stm32wlxx_ll_exti.h ****   */
 408:Drivers/STM32WLxx_HAL_Driver/Inc/stm32wlxx_ll_exti.h **** __STATIC_INLINE void LL_EXTI_DisableIT_0_31(uint32_t ExtiLine)
 162              		.loc 2 408 22 view .LVU28
 163              	.LBB15:
 409:Drivers/STM32WLxx_HAL_Driver/Inc/stm32wlxx_ll_exti.h **** {
 410:Drivers/STM32WLxx_HAL_Driver/Inc/stm32wlxx_ll_exti.h ****   CLEAR_BIT(EXTI->IMR1, ExtiLine);
 164              		.loc 2 410 3 view .LVU29
 165 000e 184B     		ldr	r3, .L14+4
 166 0010 D3F88020 		ldr	r2, [r3, #128]
 167 0014 22F48032 		bic	r2, r2, #65536
 168 0018 C3F88020 		str	r2, [r3, #128]
 169              	.LVL2:
 170              		.loc 2 410 3 is_stmt 0 view .LVU30
 171              	.LBE15:
 172              	.LBE14:
 359:Drivers/STM32WLxx_HAL_Driver/Src/stm32wlxx_hal_pwr.c ****   __HAL_PWR_PVD_EXTI_DISABLE_RISING_EDGE();
 173              		.loc 1 359 3 is_stmt 1 view .LVU31
 174              	.LBB16:
 175              	.LBI16:
 411:Drivers/STM32WLxx_HAL_Driver/Inc/stm32wlxx_ll_exti.h **** }
 412:Drivers/STM32WLxx_HAL_Driver/Inc/stm32wlxx_ll_exti.h **** 
 413:Drivers/STM32WLxx_HAL_Driver/Inc/stm32wlxx_ll_exti.h **** #if defined(DUAL_CORE)
 414:Drivers/STM32WLxx_HAL_Driver/Inc/stm32wlxx_ll_exti.h **** /**
 415:Drivers/STM32WLxx_HAL_Driver/Inc/stm32wlxx_ll_exti.h ****   * @brief  Disable ExtiLine Interrupt request for Lines in range 0 to 31 for cpu2
 416:Drivers/STM32WLxx_HAL_Driver/Inc/stm32wlxx_ll_exti.h ****   * @rmtoll C2IMR1         IMx           LL_C2_EXTI_DisableIT_0_31
 417:Drivers/STM32WLxx_HAL_Driver/Inc/stm32wlxx_ll_exti.h ****   * @param  ExtiLine This parameter can be one of the following values:
 418:Drivers/STM32WLxx_HAL_Driver/Inc/stm32wlxx_ll_exti.h ****   *         @arg @ref LL_EXTI_LINE_0
 419:Drivers/STM32WLxx_HAL_Driver/Inc/stm32wlxx_ll_exti.h ****   *         @arg @ref LL_EXTI_LINE_1
 420:Drivers/STM32WLxx_HAL_Driver/Inc/stm32wlxx_ll_exti.h ****   *         @arg @ref LL_EXTI_LINE_2
 421:Drivers/STM32WLxx_HAL_Driver/Inc/stm32wlxx_ll_exti.h ****   *         @arg @ref LL_EXTI_LINE_3
 422:Drivers/STM32WLxx_HAL_Driver/Inc/stm32wlxx_ll_exti.h ****   *         @arg @ref LL_EXTI_LINE_4
 423:Drivers/STM32WLxx_HAL_Driver/Inc/stm32wlxx_ll_exti.h ****   *         @arg @ref LL_EXTI_LINE_5
 424:Drivers/STM32WLxx_HAL_Driver/Inc/stm32wlxx_ll_exti.h ****   *         @arg @ref LL_EXTI_LINE_6
 425:Drivers/STM32WLxx_HAL_Driver/Inc/stm32wlxx_ll_exti.h ****   *         @arg @ref LL_EXTI_LINE_7
 426:Drivers/STM32WLxx_HAL_Driver/Inc/stm32wlxx_ll_exti.h ****   *         @arg @ref LL_EXTI_LINE_8
 427:Drivers/STM32WLxx_HAL_Driver/Inc/stm32wlxx_ll_exti.h ****   *         @arg @ref LL_EXTI_LINE_9
 428:Drivers/STM32WLxx_HAL_Driver/Inc/stm32wlxx_ll_exti.h ****   *         @arg @ref LL_EXTI_LINE_10
 429:Drivers/STM32WLxx_HAL_Driver/Inc/stm32wlxx_ll_exti.h ****   *         @arg @ref LL_EXTI_LINE_11
 430:Drivers/STM32WLxx_HAL_Driver/Inc/stm32wlxx_ll_exti.h ****   *         @arg @ref LL_EXTI_LINE_12
 431:Drivers/STM32WLxx_HAL_Driver/Inc/stm32wlxx_ll_exti.h ****   *         @arg @ref LL_EXTI_LINE_13
 432:Drivers/STM32WLxx_HAL_Driver/Inc/stm32wlxx_ll_exti.h ****   *         @arg @ref LL_EXTI_LINE_14
 433:Drivers/STM32WLxx_HAL_Driver/Inc/stm32wlxx_ll_exti.h ****   *         @arg @ref LL_EXTI_LINE_15
 434:Drivers/STM32WLxx_HAL_Driver/Inc/stm32wlxx_ll_exti.h ****   *         @arg @ref LL_EXTI_LINE_16
 435:Drivers/STM32WLxx_HAL_Driver/Inc/stm32wlxx_ll_exti.h ****   *         @arg @ref LL_EXTI_LINE_17
 436:Drivers/STM32WLxx_HAL_Driver/Inc/stm32wlxx_ll_exti.h ****   *         @arg @ref LL_EXTI_LINE_18
 437:Drivers/STM32WLxx_HAL_Driver/Inc/stm32wlxx_ll_exti.h ****   *         @arg @ref LL_EXTI_LINE_19
 438:Drivers/STM32WLxx_HAL_Driver/Inc/stm32wlxx_ll_exti.h ****   *         @arg @ref LL_EXTI_LINE_20
 439:Drivers/STM32WLxx_HAL_Driver/Inc/stm32wlxx_ll_exti.h ****   *         @arg @ref LL_EXTI_LINE_21
 440:Drivers/STM32WLxx_HAL_Driver/Inc/stm32wlxx_ll_exti.h ****   *         @arg @ref LL_EXTI_LINE_22
 441:Drivers/STM32WLxx_HAL_Driver/Inc/stm32wlxx_ll_exti.h ****   *         @arg @ref LL_EXTI_LINE_23
 442:Drivers/STM32WLxx_HAL_Driver/Inc/stm32wlxx_ll_exti.h ****   *         @arg @ref LL_EXTI_LINE_24
ARM GAS  C:\Users\NATHAN~1\AppData\Local\Temp\ccu0I2kX.s 			page 18


 443:Drivers/STM32WLxx_HAL_Driver/Inc/stm32wlxx_ll_exti.h ****   *         @arg @ref LL_EXTI_LINE_25
 444:Drivers/STM32WLxx_HAL_Driver/Inc/stm32wlxx_ll_exti.h ****   *         @arg @ref LL_EXTI_LINE_26
 445:Drivers/STM32WLxx_HAL_Driver/Inc/stm32wlxx_ll_exti.h ****   *         @arg @ref LL_EXTI_LINE_27
 446:Drivers/STM32WLxx_HAL_Driver/Inc/stm32wlxx_ll_exti.h ****   *         @arg @ref LL_EXTI_LINE_28
 447:Drivers/STM32WLxx_HAL_Driver/Inc/stm32wlxx_ll_exti.h ****   *         @arg @ref LL_EXTI_LINE_29
 448:Drivers/STM32WLxx_HAL_Driver/Inc/stm32wlxx_ll_exti.h ****   *         @arg @ref LL_EXTI_LINE_30
 449:Drivers/STM32WLxx_HAL_Driver/Inc/stm32wlxx_ll_exti.h ****   *         @arg @ref LL_EXTI_LINE_31
 450:Drivers/STM32WLxx_HAL_Driver/Inc/stm32wlxx_ll_exti.h ****   *         @arg @ref LL_EXTI_LINE_ALL_0_31
 451:Drivers/STM32WLxx_HAL_Driver/Inc/stm32wlxx_ll_exti.h ****   * @retval None
 452:Drivers/STM32WLxx_HAL_Driver/Inc/stm32wlxx_ll_exti.h ****   */
 453:Drivers/STM32WLxx_HAL_Driver/Inc/stm32wlxx_ll_exti.h **** __STATIC_INLINE void LL_C2_EXTI_DisableIT_0_31(uint32_t ExtiLine)
 454:Drivers/STM32WLxx_HAL_Driver/Inc/stm32wlxx_ll_exti.h **** {
 455:Drivers/STM32WLxx_HAL_Driver/Inc/stm32wlxx_ll_exti.h ****   CLEAR_BIT(EXTI->C2IMR1, ExtiLine);
 456:Drivers/STM32WLxx_HAL_Driver/Inc/stm32wlxx_ll_exti.h **** }
 457:Drivers/STM32WLxx_HAL_Driver/Inc/stm32wlxx_ll_exti.h **** #endif
 458:Drivers/STM32WLxx_HAL_Driver/Inc/stm32wlxx_ll_exti.h **** 
 459:Drivers/STM32WLxx_HAL_Driver/Inc/stm32wlxx_ll_exti.h **** /**
 460:Drivers/STM32WLxx_HAL_Driver/Inc/stm32wlxx_ll_exti.h ****   * @brief  Disable ExtiLine Interrupt request for Lines in range 32 to 63
 461:Drivers/STM32WLxx_HAL_Driver/Inc/stm32wlxx_ll_exti.h ****   * @rmtoll IMR2         IMx           LL_EXTI_DisableIT_32_63
 462:Drivers/STM32WLxx_HAL_Driver/Inc/stm32wlxx_ll_exti.h ****   * @param  ExtiLine This parameter can be one of the following values:
 463:Drivers/STM32WLxx_HAL_Driver/Inc/stm32wlxx_ll_exti.h ****   *         @arg @ref LL_EXTI_LINE_34
 464:Drivers/STM32WLxx_HAL_Driver/Inc/stm32wlxx_ll_exti.h ****   *         @arg @ref LL_EXTI_LINE_36 (*)
 465:Drivers/STM32WLxx_HAL_Driver/Inc/stm32wlxx_ll_exti.h ****   *         @arg @ref LL_EXTI_LINE_37 (*)
 466:Drivers/STM32WLxx_HAL_Driver/Inc/stm32wlxx_ll_exti.h ****   *         @arg @ref LL_EXTI_LINE_38
 467:Drivers/STM32WLxx_HAL_Driver/Inc/stm32wlxx_ll_exti.h ****   *         @arg @ref LL_EXTI_LINE_39 (*)
 468:Drivers/STM32WLxx_HAL_Driver/Inc/stm32wlxx_ll_exti.h ****   *         @arg @ref LL_EXTI_LINE_40 (*)
 469:Drivers/STM32WLxx_HAL_Driver/Inc/stm32wlxx_ll_exti.h ****   *         @arg @ref LL_EXTI_LINE_41 (*)
 470:Drivers/STM32WLxx_HAL_Driver/Inc/stm32wlxx_ll_exti.h ****   *         @arg @ref LL_EXTI_LINE_42
 471:Drivers/STM32WLxx_HAL_Driver/Inc/stm32wlxx_ll_exti.h ****   *         @arg @ref LL_EXTI_LINE_43
 472:Drivers/STM32WLxx_HAL_Driver/Inc/stm32wlxx_ll_exti.h ****   *         @arg @ref LL_EXTI_LINE_44
 473:Drivers/STM32WLxx_HAL_Driver/Inc/stm32wlxx_ll_exti.h ****   *         @arg @ref LL_EXTI_LINE_45
 474:Drivers/STM32WLxx_HAL_Driver/Inc/stm32wlxx_ll_exti.h ****   *         @arg @ref LL_EXTI_LINE_46
 475:Drivers/STM32WLxx_HAL_Driver/Inc/stm32wlxx_ll_exti.h ****   *         @arg @ref LL_EXTI_LINE_ALL_32_63
 476:Drivers/STM32WLxx_HAL_Driver/Inc/stm32wlxx_ll_exti.h ****   *         (*) value not defined in all devices
 477:Drivers/STM32WLxx_HAL_Driver/Inc/stm32wlxx_ll_exti.h ****   * @retval None
 478:Drivers/STM32WLxx_HAL_Driver/Inc/stm32wlxx_ll_exti.h ****   */
 479:Drivers/STM32WLxx_HAL_Driver/Inc/stm32wlxx_ll_exti.h **** __STATIC_INLINE void LL_EXTI_DisableIT_32_63(uint32_t ExtiLine)
 480:Drivers/STM32WLxx_HAL_Driver/Inc/stm32wlxx_ll_exti.h **** {
 481:Drivers/STM32WLxx_HAL_Driver/Inc/stm32wlxx_ll_exti.h ****   CLEAR_BIT(EXTI->IMR2, ExtiLine);
 482:Drivers/STM32WLxx_HAL_Driver/Inc/stm32wlxx_ll_exti.h **** }
 483:Drivers/STM32WLxx_HAL_Driver/Inc/stm32wlxx_ll_exti.h **** 
 484:Drivers/STM32WLxx_HAL_Driver/Inc/stm32wlxx_ll_exti.h **** #if defined(DUAL_CORE)
 485:Drivers/STM32WLxx_HAL_Driver/Inc/stm32wlxx_ll_exti.h **** /**
 486:Drivers/STM32WLxx_HAL_Driver/Inc/stm32wlxx_ll_exti.h ****   * @brief  Disable ExtiLine Interrupt request for Lines in range 32 to 63 for cpu2
 487:Drivers/STM32WLxx_HAL_Driver/Inc/stm32wlxx_ll_exti.h ****   * @rmtoll C2IMR2         IMx           LL_C2_EXTI_DisableIT_32_63
 488:Drivers/STM32WLxx_HAL_Driver/Inc/stm32wlxx_ll_exti.h ****   * @param  ExtiLine This parameter can be one of the following values:
 489:Drivers/STM32WLxx_HAL_Driver/Inc/stm32wlxx_ll_exti.h ****   *         @arg @ref LL_EXTI_LINE_34
 490:Drivers/STM32WLxx_HAL_Driver/Inc/stm32wlxx_ll_exti.h ****   *         @arg @ref LL_EXTI_LINE_36 (*)
 491:Drivers/STM32WLxx_HAL_Driver/Inc/stm32wlxx_ll_exti.h ****   *         @arg @ref LL_EXTI_LINE_37 (*)
 492:Drivers/STM32WLxx_HAL_Driver/Inc/stm32wlxx_ll_exti.h ****   *         @arg @ref LL_EXTI_LINE_38
 493:Drivers/STM32WLxx_HAL_Driver/Inc/stm32wlxx_ll_exti.h ****   *         @arg @ref LL_EXTI_LINE_39 (*)
 494:Drivers/STM32WLxx_HAL_Driver/Inc/stm32wlxx_ll_exti.h ****   *         @arg @ref LL_EXTI_LINE_40 (*)
 495:Drivers/STM32WLxx_HAL_Driver/Inc/stm32wlxx_ll_exti.h ****   *         @arg @ref LL_EXTI_LINE_41 (*)
 496:Drivers/STM32WLxx_HAL_Driver/Inc/stm32wlxx_ll_exti.h ****   *         @arg @ref LL_EXTI_LINE_42
 497:Drivers/STM32WLxx_HAL_Driver/Inc/stm32wlxx_ll_exti.h ****   *         @arg @ref LL_EXTI_LINE_43
 498:Drivers/STM32WLxx_HAL_Driver/Inc/stm32wlxx_ll_exti.h ****   *         @arg @ref LL_EXTI_LINE_44
 499:Drivers/STM32WLxx_HAL_Driver/Inc/stm32wlxx_ll_exti.h ****   *         @arg @ref LL_EXTI_LINE_45
ARM GAS  C:\Users\NATHAN~1\AppData\Local\Temp\ccu0I2kX.s 			page 19


 500:Drivers/STM32WLxx_HAL_Driver/Inc/stm32wlxx_ll_exti.h ****   *         @arg @ref LL_EXTI_LINE_46
 501:Drivers/STM32WLxx_HAL_Driver/Inc/stm32wlxx_ll_exti.h ****   *         @arg @ref LL_EXTI_LINE_ALL_32_63
 502:Drivers/STM32WLxx_HAL_Driver/Inc/stm32wlxx_ll_exti.h ****   *         (*) value not defined in all devices
 503:Drivers/STM32WLxx_HAL_Driver/Inc/stm32wlxx_ll_exti.h ****   * @retval None
 504:Drivers/STM32WLxx_HAL_Driver/Inc/stm32wlxx_ll_exti.h ****   */
 505:Drivers/STM32WLxx_HAL_Driver/Inc/stm32wlxx_ll_exti.h **** __STATIC_INLINE void LL_C2_EXTI_DisableIT_32_63(uint32_t ExtiLine)
 506:Drivers/STM32WLxx_HAL_Driver/Inc/stm32wlxx_ll_exti.h **** {
 507:Drivers/STM32WLxx_HAL_Driver/Inc/stm32wlxx_ll_exti.h ****   CLEAR_BIT(EXTI->C2IMR2, ExtiLine);
 508:Drivers/STM32WLxx_HAL_Driver/Inc/stm32wlxx_ll_exti.h **** }
 509:Drivers/STM32WLxx_HAL_Driver/Inc/stm32wlxx_ll_exti.h **** #endif
 510:Drivers/STM32WLxx_HAL_Driver/Inc/stm32wlxx_ll_exti.h **** 
 511:Drivers/STM32WLxx_HAL_Driver/Inc/stm32wlxx_ll_exti.h **** /**
 512:Drivers/STM32WLxx_HAL_Driver/Inc/stm32wlxx_ll_exti.h ****   * @brief  Indicate if ExtiLine Interrupt request is enabled for Lines in range 0 to 31
 513:Drivers/STM32WLxx_HAL_Driver/Inc/stm32wlxx_ll_exti.h ****   * @rmtoll IMR1         IMx           LL_EXTI_IsEnabledIT_0_31
 514:Drivers/STM32WLxx_HAL_Driver/Inc/stm32wlxx_ll_exti.h ****   * @param  ExtiLine This parameter can be one of the following values:
 515:Drivers/STM32WLxx_HAL_Driver/Inc/stm32wlxx_ll_exti.h ****   *         @arg @ref LL_EXTI_LINE_0
 516:Drivers/STM32WLxx_HAL_Driver/Inc/stm32wlxx_ll_exti.h ****   *         @arg @ref LL_EXTI_LINE_1
 517:Drivers/STM32WLxx_HAL_Driver/Inc/stm32wlxx_ll_exti.h ****   *         @arg @ref LL_EXTI_LINE_2
 518:Drivers/STM32WLxx_HAL_Driver/Inc/stm32wlxx_ll_exti.h ****   *         @arg @ref LL_EXTI_LINE_3
 519:Drivers/STM32WLxx_HAL_Driver/Inc/stm32wlxx_ll_exti.h ****   *         @arg @ref LL_EXTI_LINE_4
 520:Drivers/STM32WLxx_HAL_Driver/Inc/stm32wlxx_ll_exti.h ****   *         @arg @ref LL_EXTI_LINE_5
 521:Drivers/STM32WLxx_HAL_Driver/Inc/stm32wlxx_ll_exti.h ****   *         @arg @ref LL_EXTI_LINE_6
 522:Drivers/STM32WLxx_HAL_Driver/Inc/stm32wlxx_ll_exti.h ****   *         @arg @ref LL_EXTI_LINE_7
 523:Drivers/STM32WLxx_HAL_Driver/Inc/stm32wlxx_ll_exti.h ****   *         @arg @ref LL_EXTI_LINE_8
 524:Drivers/STM32WLxx_HAL_Driver/Inc/stm32wlxx_ll_exti.h ****   *         @arg @ref LL_EXTI_LINE_9
 525:Drivers/STM32WLxx_HAL_Driver/Inc/stm32wlxx_ll_exti.h ****   *         @arg @ref LL_EXTI_LINE_10
 526:Drivers/STM32WLxx_HAL_Driver/Inc/stm32wlxx_ll_exti.h ****   *         @arg @ref LL_EXTI_LINE_11
 527:Drivers/STM32WLxx_HAL_Driver/Inc/stm32wlxx_ll_exti.h ****   *         @arg @ref LL_EXTI_LINE_12
 528:Drivers/STM32WLxx_HAL_Driver/Inc/stm32wlxx_ll_exti.h ****   *         @arg @ref LL_EXTI_LINE_13
 529:Drivers/STM32WLxx_HAL_Driver/Inc/stm32wlxx_ll_exti.h ****   *         @arg @ref LL_EXTI_LINE_14
 530:Drivers/STM32WLxx_HAL_Driver/Inc/stm32wlxx_ll_exti.h ****   *         @arg @ref LL_EXTI_LINE_15
 531:Drivers/STM32WLxx_HAL_Driver/Inc/stm32wlxx_ll_exti.h ****   *         @arg @ref LL_EXTI_LINE_16
 532:Drivers/STM32WLxx_HAL_Driver/Inc/stm32wlxx_ll_exti.h ****   *         @arg @ref LL_EXTI_LINE_17
 533:Drivers/STM32WLxx_HAL_Driver/Inc/stm32wlxx_ll_exti.h ****   *         @arg @ref LL_EXTI_LINE_18
 534:Drivers/STM32WLxx_HAL_Driver/Inc/stm32wlxx_ll_exti.h ****   *         @arg @ref LL_EXTI_LINE_19
 535:Drivers/STM32WLxx_HAL_Driver/Inc/stm32wlxx_ll_exti.h ****   *         @arg @ref LL_EXTI_LINE_20
 536:Drivers/STM32WLxx_HAL_Driver/Inc/stm32wlxx_ll_exti.h ****   *         @arg @ref LL_EXTI_LINE_21
 537:Drivers/STM32WLxx_HAL_Driver/Inc/stm32wlxx_ll_exti.h ****   *         @arg @ref LL_EXTI_LINE_22
 538:Drivers/STM32WLxx_HAL_Driver/Inc/stm32wlxx_ll_exti.h ****   *         @arg @ref LL_EXTI_LINE_23
 539:Drivers/STM32WLxx_HAL_Driver/Inc/stm32wlxx_ll_exti.h ****   *         @arg @ref LL_EXTI_LINE_24
 540:Drivers/STM32WLxx_HAL_Driver/Inc/stm32wlxx_ll_exti.h ****   *         @arg @ref LL_EXTI_LINE_25
 541:Drivers/STM32WLxx_HAL_Driver/Inc/stm32wlxx_ll_exti.h ****   *         @arg @ref LL_EXTI_LINE_26
 542:Drivers/STM32WLxx_HAL_Driver/Inc/stm32wlxx_ll_exti.h ****   *         @arg @ref LL_EXTI_LINE_27
 543:Drivers/STM32WLxx_HAL_Driver/Inc/stm32wlxx_ll_exti.h ****   *         @arg @ref LL_EXTI_LINE_28
 544:Drivers/STM32WLxx_HAL_Driver/Inc/stm32wlxx_ll_exti.h ****   *         @arg @ref LL_EXTI_LINE_29
 545:Drivers/STM32WLxx_HAL_Driver/Inc/stm32wlxx_ll_exti.h ****   *         @arg @ref LL_EXTI_LINE_30
 546:Drivers/STM32WLxx_HAL_Driver/Inc/stm32wlxx_ll_exti.h ****   *         @arg @ref LL_EXTI_LINE_31
 547:Drivers/STM32WLxx_HAL_Driver/Inc/stm32wlxx_ll_exti.h ****   *         @arg @ref LL_EXTI_LINE_ALL_0_31
 548:Drivers/STM32WLxx_HAL_Driver/Inc/stm32wlxx_ll_exti.h ****   * @retval State of bit (1 or 0).
 549:Drivers/STM32WLxx_HAL_Driver/Inc/stm32wlxx_ll_exti.h ****   */
 550:Drivers/STM32WLxx_HAL_Driver/Inc/stm32wlxx_ll_exti.h **** __STATIC_INLINE uint32_t LL_EXTI_IsEnabledIT_0_31(uint32_t ExtiLine)
 551:Drivers/STM32WLxx_HAL_Driver/Inc/stm32wlxx_ll_exti.h **** {
 552:Drivers/STM32WLxx_HAL_Driver/Inc/stm32wlxx_ll_exti.h ****   return ((READ_BIT(EXTI->IMR1, ExtiLine) == (ExtiLine)) ? 1UL : 0UL);
 553:Drivers/STM32WLxx_HAL_Driver/Inc/stm32wlxx_ll_exti.h **** }
 554:Drivers/STM32WLxx_HAL_Driver/Inc/stm32wlxx_ll_exti.h **** 
 555:Drivers/STM32WLxx_HAL_Driver/Inc/stm32wlxx_ll_exti.h **** #if defined(DUAL_CORE)
 556:Drivers/STM32WLxx_HAL_Driver/Inc/stm32wlxx_ll_exti.h **** /**
ARM GAS  C:\Users\NATHAN~1\AppData\Local\Temp\ccu0I2kX.s 			page 20


 557:Drivers/STM32WLxx_HAL_Driver/Inc/stm32wlxx_ll_exti.h ****   * @brief  Indicate if ExtiLine Interrupt request is enabled for Lines in range 0 to 31 for cpu2
 558:Drivers/STM32WLxx_HAL_Driver/Inc/stm32wlxx_ll_exti.h ****   * @rmtoll C2IMR1         IMx           LL_C2_EXTI_IsEnabledIT_0_31
 559:Drivers/STM32WLxx_HAL_Driver/Inc/stm32wlxx_ll_exti.h ****   * @param  ExtiLine This parameter can be one of the following values:
 560:Drivers/STM32WLxx_HAL_Driver/Inc/stm32wlxx_ll_exti.h ****   *         @arg @ref LL_EXTI_LINE_0
 561:Drivers/STM32WLxx_HAL_Driver/Inc/stm32wlxx_ll_exti.h ****   *         @arg @ref LL_EXTI_LINE_1
 562:Drivers/STM32WLxx_HAL_Driver/Inc/stm32wlxx_ll_exti.h ****   *         @arg @ref LL_EXTI_LINE_2
 563:Drivers/STM32WLxx_HAL_Driver/Inc/stm32wlxx_ll_exti.h ****   *         @arg @ref LL_EXTI_LINE_3
 564:Drivers/STM32WLxx_HAL_Driver/Inc/stm32wlxx_ll_exti.h ****   *         @arg @ref LL_EXTI_LINE_4
 565:Drivers/STM32WLxx_HAL_Driver/Inc/stm32wlxx_ll_exti.h ****   *         @arg @ref LL_EXTI_LINE_5
 566:Drivers/STM32WLxx_HAL_Driver/Inc/stm32wlxx_ll_exti.h ****   *         @arg @ref LL_EXTI_LINE_6
 567:Drivers/STM32WLxx_HAL_Driver/Inc/stm32wlxx_ll_exti.h ****   *         @arg @ref LL_EXTI_LINE_7
 568:Drivers/STM32WLxx_HAL_Driver/Inc/stm32wlxx_ll_exti.h ****   *         @arg @ref LL_EXTI_LINE_8
 569:Drivers/STM32WLxx_HAL_Driver/Inc/stm32wlxx_ll_exti.h ****   *         @arg @ref LL_EXTI_LINE_9
 570:Drivers/STM32WLxx_HAL_Driver/Inc/stm32wlxx_ll_exti.h ****   *         @arg @ref LL_EXTI_LINE_10
 571:Drivers/STM32WLxx_HAL_Driver/Inc/stm32wlxx_ll_exti.h ****   *         @arg @ref LL_EXTI_LINE_11
 572:Drivers/STM32WLxx_HAL_Driver/Inc/stm32wlxx_ll_exti.h ****   *         @arg @ref LL_EXTI_LINE_12
 573:Drivers/STM32WLxx_HAL_Driver/Inc/stm32wlxx_ll_exti.h ****   *         @arg @ref LL_EXTI_LINE_13
 574:Drivers/STM32WLxx_HAL_Driver/Inc/stm32wlxx_ll_exti.h ****   *         @arg @ref LL_EXTI_LINE_14
 575:Drivers/STM32WLxx_HAL_Driver/Inc/stm32wlxx_ll_exti.h ****   *         @arg @ref LL_EXTI_LINE_15
 576:Drivers/STM32WLxx_HAL_Driver/Inc/stm32wlxx_ll_exti.h ****   *         @arg @ref LL_EXTI_LINE_16
 577:Drivers/STM32WLxx_HAL_Driver/Inc/stm32wlxx_ll_exti.h ****   *         @arg @ref LL_EXTI_LINE_17
 578:Drivers/STM32WLxx_HAL_Driver/Inc/stm32wlxx_ll_exti.h ****   *         @arg @ref LL_EXTI_LINE_18
 579:Drivers/STM32WLxx_HAL_Driver/Inc/stm32wlxx_ll_exti.h ****   *         @arg @ref LL_EXTI_LINE_19
 580:Drivers/STM32WLxx_HAL_Driver/Inc/stm32wlxx_ll_exti.h ****   *         @arg @ref LL_EXTI_LINE_20
 581:Drivers/STM32WLxx_HAL_Driver/Inc/stm32wlxx_ll_exti.h ****   *         @arg @ref LL_EXTI_LINE_21
 582:Drivers/STM32WLxx_HAL_Driver/Inc/stm32wlxx_ll_exti.h ****   *         @arg @ref LL_EXTI_LINE_22
 583:Drivers/STM32WLxx_HAL_Driver/Inc/stm32wlxx_ll_exti.h ****   *         @arg @ref LL_EXTI_LINE_23
 584:Drivers/STM32WLxx_HAL_Driver/Inc/stm32wlxx_ll_exti.h ****   *         @arg @ref LL_EXTI_LINE_24
 585:Drivers/STM32WLxx_HAL_Driver/Inc/stm32wlxx_ll_exti.h ****   *         @arg @ref LL_EXTI_LINE_25
 586:Drivers/STM32WLxx_HAL_Driver/Inc/stm32wlxx_ll_exti.h ****   *         @arg @ref LL_EXTI_LINE_26
 587:Drivers/STM32WLxx_HAL_Driver/Inc/stm32wlxx_ll_exti.h ****   *         @arg @ref LL_EXTI_LINE_27
 588:Drivers/STM32WLxx_HAL_Driver/Inc/stm32wlxx_ll_exti.h ****   *         @arg @ref LL_EXTI_LINE_28
 589:Drivers/STM32WLxx_HAL_Driver/Inc/stm32wlxx_ll_exti.h ****   *         @arg @ref LL_EXTI_LINE_29
 590:Drivers/STM32WLxx_HAL_Driver/Inc/stm32wlxx_ll_exti.h ****   *         @arg @ref LL_EXTI_LINE_30
 591:Drivers/STM32WLxx_HAL_Driver/Inc/stm32wlxx_ll_exti.h ****   *         @arg @ref LL_EXTI_LINE_31
 592:Drivers/STM32WLxx_HAL_Driver/Inc/stm32wlxx_ll_exti.h ****   *         @arg @ref LL_EXTI_LINE_ALL_0_31
 593:Drivers/STM32WLxx_HAL_Driver/Inc/stm32wlxx_ll_exti.h ****   * @retval State of bit (1 or 0).
 594:Drivers/STM32WLxx_HAL_Driver/Inc/stm32wlxx_ll_exti.h ****   */
 595:Drivers/STM32WLxx_HAL_Driver/Inc/stm32wlxx_ll_exti.h **** __STATIC_INLINE uint32_t LL_C2_EXTI_IsEnabledIT_0_31(uint32_t ExtiLine)
 596:Drivers/STM32WLxx_HAL_Driver/Inc/stm32wlxx_ll_exti.h **** {
 597:Drivers/STM32WLxx_HAL_Driver/Inc/stm32wlxx_ll_exti.h ****   return ((READ_BIT(EXTI->C2IMR1, ExtiLine) == (ExtiLine)) ? 1UL : 0UL);
 598:Drivers/STM32WLxx_HAL_Driver/Inc/stm32wlxx_ll_exti.h **** }
 599:Drivers/STM32WLxx_HAL_Driver/Inc/stm32wlxx_ll_exti.h **** #endif
 600:Drivers/STM32WLxx_HAL_Driver/Inc/stm32wlxx_ll_exti.h **** 
 601:Drivers/STM32WLxx_HAL_Driver/Inc/stm32wlxx_ll_exti.h **** /**
 602:Drivers/STM32WLxx_HAL_Driver/Inc/stm32wlxx_ll_exti.h ****   * @brief  Indicate if ExtiLine Interrupt request is enabled for Lines in range 32 to 63
 603:Drivers/STM32WLxx_HAL_Driver/Inc/stm32wlxx_ll_exti.h ****   * @rmtoll IMR2         IMx           LL_EXTI_IsEnabledIT_32_63
 604:Drivers/STM32WLxx_HAL_Driver/Inc/stm32wlxx_ll_exti.h ****   * @param  ExtiLine This parameter can be one of the following values:
 605:Drivers/STM32WLxx_HAL_Driver/Inc/stm32wlxx_ll_exti.h ****   *         @arg @ref LL_EXTI_LINE_34
 606:Drivers/STM32WLxx_HAL_Driver/Inc/stm32wlxx_ll_exti.h ****   *         @arg @ref LL_EXTI_LINE_36 (*)
 607:Drivers/STM32WLxx_HAL_Driver/Inc/stm32wlxx_ll_exti.h ****   *         @arg @ref LL_EXTI_LINE_37 (*)
 608:Drivers/STM32WLxx_HAL_Driver/Inc/stm32wlxx_ll_exti.h ****   *         @arg @ref LL_EXTI_LINE_38
 609:Drivers/STM32WLxx_HAL_Driver/Inc/stm32wlxx_ll_exti.h ****   *         @arg @ref LL_EXTI_LINE_39 (*)
 610:Drivers/STM32WLxx_HAL_Driver/Inc/stm32wlxx_ll_exti.h ****   *         @arg @ref LL_EXTI_LINE_40 (*)
 611:Drivers/STM32WLxx_HAL_Driver/Inc/stm32wlxx_ll_exti.h ****   *         @arg @ref LL_EXTI_LINE_41 (*)
 612:Drivers/STM32WLxx_HAL_Driver/Inc/stm32wlxx_ll_exti.h ****   *         @arg @ref LL_EXTI_LINE_42
 613:Drivers/STM32WLxx_HAL_Driver/Inc/stm32wlxx_ll_exti.h ****   *         @arg @ref LL_EXTI_LINE_43
ARM GAS  C:\Users\NATHAN~1\AppData\Local\Temp\ccu0I2kX.s 			page 21


 614:Drivers/STM32WLxx_HAL_Driver/Inc/stm32wlxx_ll_exti.h ****   *         @arg @ref LL_EXTI_LINE_44
 615:Drivers/STM32WLxx_HAL_Driver/Inc/stm32wlxx_ll_exti.h ****   *         @arg @ref LL_EXTI_LINE_45
 616:Drivers/STM32WLxx_HAL_Driver/Inc/stm32wlxx_ll_exti.h ****   *         @arg @ref LL_EXTI_LINE_46
 617:Drivers/STM32WLxx_HAL_Driver/Inc/stm32wlxx_ll_exti.h ****   *         @arg @ref LL_EXTI_LINE_ALL_32_63
 618:Drivers/STM32WLxx_HAL_Driver/Inc/stm32wlxx_ll_exti.h ****   *         (*) value not defined in all devices
 619:Drivers/STM32WLxx_HAL_Driver/Inc/stm32wlxx_ll_exti.h ****   * @retval State of bit (1 or 0).
 620:Drivers/STM32WLxx_HAL_Driver/Inc/stm32wlxx_ll_exti.h ****   */
 621:Drivers/STM32WLxx_HAL_Driver/Inc/stm32wlxx_ll_exti.h **** __STATIC_INLINE uint32_t LL_EXTI_IsEnabledIT_32_63(uint32_t ExtiLine)
 622:Drivers/STM32WLxx_HAL_Driver/Inc/stm32wlxx_ll_exti.h **** {
 623:Drivers/STM32WLxx_HAL_Driver/Inc/stm32wlxx_ll_exti.h ****   return ((READ_BIT(EXTI->IMR2, ExtiLine) == (ExtiLine)) ? 1UL : 0UL);
 624:Drivers/STM32WLxx_HAL_Driver/Inc/stm32wlxx_ll_exti.h **** }
 625:Drivers/STM32WLxx_HAL_Driver/Inc/stm32wlxx_ll_exti.h **** 
 626:Drivers/STM32WLxx_HAL_Driver/Inc/stm32wlxx_ll_exti.h **** #if defined(DUAL_CORE)
 627:Drivers/STM32WLxx_HAL_Driver/Inc/stm32wlxx_ll_exti.h **** /**
 628:Drivers/STM32WLxx_HAL_Driver/Inc/stm32wlxx_ll_exti.h ****   * @brief  Indicate if ExtiLine Interrupt request is enabled for Lines in range 32 to 63 for cpu2
 629:Drivers/STM32WLxx_HAL_Driver/Inc/stm32wlxx_ll_exti.h ****   * @rmtoll C2IMR2         IMx           LL_C2_EXTI_IsEnabledIT_32_63
 630:Drivers/STM32WLxx_HAL_Driver/Inc/stm32wlxx_ll_exti.h ****   * @param  ExtiLine This parameter can be one of the following values:
 631:Drivers/STM32WLxx_HAL_Driver/Inc/stm32wlxx_ll_exti.h ****   *         @arg @ref LL_EXTI_LINE_34
 632:Drivers/STM32WLxx_HAL_Driver/Inc/stm32wlxx_ll_exti.h ****   *         @arg @ref LL_EXTI_LINE_36 (*)
 633:Drivers/STM32WLxx_HAL_Driver/Inc/stm32wlxx_ll_exti.h ****   *         @arg @ref LL_EXTI_LINE_37 (*)
 634:Drivers/STM32WLxx_HAL_Driver/Inc/stm32wlxx_ll_exti.h ****   *         @arg @ref LL_EXTI_LINE_38
 635:Drivers/STM32WLxx_HAL_Driver/Inc/stm32wlxx_ll_exti.h ****   *         @arg @ref LL_EXTI_LINE_39 (*)
 636:Drivers/STM32WLxx_HAL_Driver/Inc/stm32wlxx_ll_exti.h ****   *         @arg @ref LL_EXTI_LINE_40 (*)
 637:Drivers/STM32WLxx_HAL_Driver/Inc/stm32wlxx_ll_exti.h ****   *         @arg @ref LL_EXTI_LINE_41 (*)
 638:Drivers/STM32WLxx_HAL_Driver/Inc/stm32wlxx_ll_exti.h ****   *         @arg @ref LL_EXTI_LINE_42
 639:Drivers/STM32WLxx_HAL_Driver/Inc/stm32wlxx_ll_exti.h ****   *         @arg @ref LL_EXTI_LINE_43
 640:Drivers/STM32WLxx_HAL_Driver/Inc/stm32wlxx_ll_exti.h ****   *         @arg @ref LL_EXTI_LINE_44
 641:Drivers/STM32WLxx_HAL_Driver/Inc/stm32wlxx_ll_exti.h ****   *         @arg @ref LL_EXTI_LINE_45
 642:Drivers/STM32WLxx_HAL_Driver/Inc/stm32wlxx_ll_exti.h ****   *         @arg @ref LL_EXTI_LINE_46
 643:Drivers/STM32WLxx_HAL_Driver/Inc/stm32wlxx_ll_exti.h ****   *         @arg @ref LL_EXTI_LINE_ALL_32_63
 644:Drivers/STM32WLxx_HAL_Driver/Inc/stm32wlxx_ll_exti.h ****   *         (*) value not defined in all devices
 645:Drivers/STM32WLxx_HAL_Driver/Inc/stm32wlxx_ll_exti.h ****   * @retval State of bit (1 or 0).
 646:Drivers/STM32WLxx_HAL_Driver/Inc/stm32wlxx_ll_exti.h ****   */
 647:Drivers/STM32WLxx_HAL_Driver/Inc/stm32wlxx_ll_exti.h **** __STATIC_INLINE uint32_t LL_C2_EXTI_IsEnabledIT_32_63(uint32_t ExtiLine)
 648:Drivers/STM32WLxx_HAL_Driver/Inc/stm32wlxx_ll_exti.h **** {
 649:Drivers/STM32WLxx_HAL_Driver/Inc/stm32wlxx_ll_exti.h ****   return ((READ_BIT(EXTI->C2IMR2, ExtiLine) == (ExtiLine)) ? 1UL : 0UL);
 650:Drivers/STM32WLxx_HAL_Driver/Inc/stm32wlxx_ll_exti.h **** }
 651:Drivers/STM32WLxx_HAL_Driver/Inc/stm32wlxx_ll_exti.h **** #endif
 652:Drivers/STM32WLxx_HAL_Driver/Inc/stm32wlxx_ll_exti.h **** 
 653:Drivers/STM32WLxx_HAL_Driver/Inc/stm32wlxx_ll_exti.h **** /**
 654:Drivers/STM32WLxx_HAL_Driver/Inc/stm32wlxx_ll_exti.h ****   * @}
 655:Drivers/STM32WLxx_HAL_Driver/Inc/stm32wlxx_ll_exti.h ****   */
 656:Drivers/STM32WLxx_HAL_Driver/Inc/stm32wlxx_ll_exti.h **** 
 657:Drivers/STM32WLxx_HAL_Driver/Inc/stm32wlxx_ll_exti.h **** /** @defgroup EXTI_LL_EF_Event_Management Event_Management
 658:Drivers/STM32WLxx_HAL_Driver/Inc/stm32wlxx_ll_exti.h ****   * @{
 659:Drivers/STM32WLxx_HAL_Driver/Inc/stm32wlxx_ll_exti.h ****   */
 660:Drivers/STM32WLxx_HAL_Driver/Inc/stm32wlxx_ll_exti.h **** 
 661:Drivers/STM32WLxx_HAL_Driver/Inc/stm32wlxx_ll_exti.h **** /**
 662:Drivers/STM32WLxx_HAL_Driver/Inc/stm32wlxx_ll_exti.h ****   * @brief  Enable ExtiLine Event request for Lines in range 0 to 31
 663:Drivers/STM32WLxx_HAL_Driver/Inc/stm32wlxx_ll_exti.h ****   * @rmtoll EMR1         EMx           LL_EXTI_EnableEvent_0_31
 664:Drivers/STM32WLxx_HAL_Driver/Inc/stm32wlxx_ll_exti.h ****   * @param  ExtiLine This parameter can be one of the following values:
 665:Drivers/STM32WLxx_HAL_Driver/Inc/stm32wlxx_ll_exti.h ****   *         @arg @ref LL_EXTI_LINE_0
 666:Drivers/STM32WLxx_HAL_Driver/Inc/stm32wlxx_ll_exti.h ****   *         @arg @ref LL_EXTI_LINE_1
 667:Drivers/STM32WLxx_HAL_Driver/Inc/stm32wlxx_ll_exti.h ****   *         @arg @ref LL_EXTI_LINE_2
 668:Drivers/STM32WLxx_HAL_Driver/Inc/stm32wlxx_ll_exti.h ****   *         @arg @ref LL_EXTI_LINE_3
 669:Drivers/STM32WLxx_HAL_Driver/Inc/stm32wlxx_ll_exti.h ****   *         @arg @ref LL_EXTI_LINE_4
 670:Drivers/STM32WLxx_HAL_Driver/Inc/stm32wlxx_ll_exti.h ****   *         @arg @ref LL_EXTI_LINE_5
ARM GAS  C:\Users\NATHAN~1\AppData\Local\Temp\ccu0I2kX.s 			page 22


 671:Drivers/STM32WLxx_HAL_Driver/Inc/stm32wlxx_ll_exti.h ****   *         @arg @ref LL_EXTI_LINE_6
 672:Drivers/STM32WLxx_HAL_Driver/Inc/stm32wlxx_ll_exti.h ****   *         @arg @ref LL_EXTI_LINE_7
 673:Drivers/STM32WLxx_HAL_Driver/Inc/stm32wlxx_ll_exti.h ****   *         @arg @ref LL_EXTI_LINE_8
 674:Drivers/STM32WLxx_HAL_Driver/Inc/stm32wlxx_ll_exti.h ****   *         @arg @ref LL_EXTI_LINE_9
 675:Drivers/STM32WLxx_HAL_Driver/Inc/stm32wlxx_ll_exti.h ****   *         @arg @ref LL_EXTI_LINE_10
 676:Drivers/STM32WLxx_HAL_Driver/Inc/stm32wlxx_ll_exti.h ****   *         @arg @ref LL_EXTI_LINE_11
 677:Drivers/STM32WLxx_HAL_Driver/Inc/stm32wlxx_ll_exti.h ****   *         @arg @ref LL_EXTI_LINE_12
 678:Drivers/STM32WLxx_HAL_Driver/Inc/stm32wlxx_ll_exti.h ****   *         @arg @ref LL_EXTI_LINE_13
 679:Drivers/STM32WLxx_HAL_Driver/Inc/stm32wlxx_ll_exti.h ****   *         @arg @ref LL_EXTI_LINE_14
 680:Drivers/STM32WLxx_HAL_Driver/Inc/stm32wlxx_ll_exti.h ****   *         @arg @ref LL_EXTI_LINE_15
 681:Drivers/STM32WLxx_HAL_Driver/Inc/stm32wlxx_ll_exti.h ****   *         @arg @ref LL_EXTI_LINE_17
 682:Drivers/STM32WLxx_HAL_Driver/Inc/stm32wlxx_ll_exti.h ****   *         @arg @ref LL_EXTI_LINE_19
 683:Drivers/STM32WLxx_HAL_Driver/Inc/stm32wlxx_ll_exti.h ****   *         @arg @ref LL_EXTI_LINE_20
 684:Drivers/STM32WLxx_HAL_Driver/Inc/stm32wlxx_ll_exti.h ****   *         @arg @ref LL_EXTI_LINE_21
 685:Drivers/STM32WLxx_HAL_Driver/Inc/stm32wlxx_ll_exti.h ****   *         @arg @ref LL_EXTI_LINE_22
 686:Drivers/STM32WLxx_HAL_Driver/Inc/stm32wlxx_ll_exti.h ****   * @retval None
 687:Drivers/STM32WLxx_HAL_Driver/Inc/stm32wlxx_ll_exti.h ****   */
 688:Drivers/STM32WLxx_HAL_Driver/Inc/stm32wlxx_ll_exti.h **** __STATIC_INLINE void LL_EXTI_EnableEvent_0_31(uint32_t ExtiLine)
 689:Drivers/STM32WLxx_HAL_Driver/Inc/stm32wlxx_ll_exti.h **** {
 690:Drivers/STM32WLxx_HAL_Driver/Inc/stm32wlxx_ll_exti.h ****   SET_BIT(EXTI->EMR1, ExtiLine);
 691:Drivers/STM32WLxx_HAL_Driver/Inc/stm32wlxx_ll_exti.h **** }
 692:Drivers/STM32WLxx_HAL_Driver/Inc/stm32wlxx_ll_exti.h **** 
 693:Drivers/STM32WLxx_HAL_Driver/Inc/stm32wlxx_ll_exti.h **** #if defined(DUAL_CORE)
 694:Drivers/STM32WLxx_HAL_Driver/Inc/stm32wlxx_ll_exti.h **** /**
 695:Drivers/STM32WLxx_HAL_Driver/Inc/stm32wlxx_ll_exti.h ****   * @brief  Enable ExtiLine Event request for Lines in range 0 to 31 for cpu2
 696:Drivers/STM32WLxx_HAL_Driver/Inc/stm32wlxx_ll_exti.h ****   * @rmtoll C2EMR1         EMx           LL_C2_EXTI_EnableEvent_0_31
 697:Drivers/STM32WLxx_HAL_Driver/Inc/stm32wlxx_ll_exti.h ****   * @param  ExtiLine This parameter can be one of the following values:
 698:Drivers/STM32WLxx_HAL_Driver/Inc/stm32wlxx_ll_exti.h ****   *         @arg @ref LL_EXTI_LINE_0
 699:Drivers/STM32WLxx_HAL_Driver/Inc/stm32wlxx_ll_exti.h ****   *         @arg @ref LL_EXTI_LINE_1
 700:Drivers/STM32WLxx_HAL_Driver/Inc/stm32wlxx_ll_exti.h ****   *         @arg @ref LL_EXTI_LINE_2
 701:Drivers/STM32WLxx_HAL_Driver/Inc/stm32wlxx_ll_exti.h ****   *         @arg @ref LL_EXTI_LINE_3
 702:Drivers/STM32WLxx_HAL_Driver/Inc/stm32wlxx_ll_exti.h ****   *         @arg @ref LL_EXTI_LINE_4
 703:Drivers/STM32WLxx_HAL_Driver/Inc/stm32wlxx_ll_exti.h ****   *         @arg @ref LL_EXTI_LINE_5
 704:Drivers/STM32WLxx_HAL_Driver/Inc/stm32wlxx_ll_exti.h ****   *         @arg @ref LL_EXTI_LINE_6
 705:Drivers/STM32WLxx_HAL_Driver/Inc/stm32wlxx_ll_exti.h ****   *         @arg @ref LL_EXTI_LINE_7
 706:Drivers/STM32WLxx_HAL_Driver/Inc/stm32wlxx_ll_exti.h ****   *         @arg @ref LL_EXTI_LINE_8
 707:Drivers/STM32WLxx_HAL_Driver/Inc/stm32wlxx_ll_exti.h ****   *         @arg @ref LL_EXTI_LINE_9
 708:Drivers/STM32WLxx_HAL_Driver/Inc/stm32wlxx_ll_exti.h ****   *         @arg @ref LL_EXTI_LINE_10
 709:Drivers/STM32WLxx_HAL_Driver/Inc/stm32wlxx_ll_exti.h ****   *         @arg @ref LL_EXTI_LINE_11
 710:Drivers/STM32WLxx_HAL_Driver/Inc/stm32wlxx_ll_exti.h ****   *         @arg @ref LL_EXTI_LINE_12
 711:Drivers/STM32WLxx_HAL_Driver/Inc/stm32wlxx_ll_exti.h ****   *         @arg @ref LL_EXTI_LINE_13
 712:Drivers/STM32WLxx_HAL_Driver/Inc/stm32wlxx_ll_exti.h ****   *         @arg @ref LL_EXTI_LINE_14
 713:Drivers/STM32WLxx_HAL_Driver/Inc/stm32wlxx_ll_exti.h ****   *         @arg @ref LL_EXTI_LINE_15
 714:Drivers/STM32WLxx_HAL_Driver/Inc/stm32wlxx_ll_exti.h ****   *         @arg @ref LL_EXTI_LINE_17
 715:Drivers/STM32WLxx_HAL_Driver/Inc/stm32wlxx_ll_exti.h ****   *         @arg @ref LL_EXTI_LINE_19
 716:Drivers/STM32WLxx_HAL_Driver/Inc/stm32wlxx_ll_exti.h ****   *         @arg @ref LL_EXTI_LINE_20
 717:Drivers/STM32WLxx_HAL_Driver/Inc/stm32wlxx_ll_exti.h ****   *         @arg @ref LL_EXTI_LINE_21
 718:Drivers/STM32WLxx_HAL_Driver/Inc/stm32wlxx_ll_exti.h ****   *         @arg @ref LL_EXTI_LINE_22
 719:Drivers/STM32WLxx_HAL_Driver/Inc/stm32wlxx_ll_exti.h ****   * @retval None
 720:Drivers/STM32WLxx_HAL_Driver/Inc/stm32wlxx_ll_exti.h ****   */
 721:Drivers/STM32WLxx_HAL_Driver/Inc/stm32wlxx_ll_exti.h **** __STATIC_INLINE void LL_C2_EXTI_EnableEvent_0_31(uint32_t ExtiLine)
 722:Drivers/STM32WLxx_HAL_Driver/Inc/stm32wlxx_ll_exti.h **** {
 723:Drivers/STM32WLxx_HAL_Driver/Inc/stm32wlxx_ll_exti.h ****   SET_BIT(EXTI->C2EMR1, ExtiLine);
 724:Drivers/STM32WLxx_HAL_Driver/Inc/stm32wlxx_ll_exti.h **** }
 725:Drivers/STM32WLxx_HAL_Driver/Inc/stm32wlxx_ll_exti.h **** #endif
 726:Drivers/STM32WLxx_HAL_Driver/Inc/stm32wlxx_ll_exti.h **** 
 727:Drivers/STM32WLxx_HAL_Driver/Inc/stm32wlxx_ll_exti.h **** /**
ARM GAS  C:\Users\NATHAN~1\AppData\Local\Temp\ccu0I2kX.s 			page 23


 728:Drivers/STM32WLxx_HAL_Driver/Inc/stm32wlxx_ll_exti.h ****   * @brief  Enable ExtiLine Event request for Lines in range 32 to 63
 729:Drivers/STM32WLxx_HAL_Driver/Inc/stm32wlxx_ll_exti.h ****   * @rmtoll EMR2         EMx           LL_EXTI_EnableEvent_32_63
 730:Drivers/STM32WLxx_HAL_Driver/Inc/stm32wlxx_ll_exti.h ****   * @param  ExtiLine This parameter can be a combination of the following values:
 731:Drivers/STM32WLxx_HAL_Driver/Inc/stm32wlxx_ll_exti.h ****   *         @arg @ref LL_EXTI_LINE_40 (*)
 732:Drivers/STM32WLxx_HAL_Driver/Inc/stm32wlxx_ll_exti.h ****   *         @arg @ref LL_EXTI_LINE_41 (*)
 733:Drivers/STM32WLxx_HAL_Driver/Inc/stm32wlxx_ll_exti.h ****   *         (*) value not defined in all devices
 734:Drivers/STM32WLxx_HAL_Driver/Inc/stm32wlxx_ll_exti.h ****   * @retval None
 735:Drivers/STM32WLxx_HAL_Driver/Inc/stm32wlxx_ll_exti.h ****   */
 736:Drivers/STM32WLxx_HAL_Driver/Inc/stm32wlxx_ll_exti.h **** __STATIC_INLINE void LL_EXTI_EnableEvent_32_63(uint32_t ExtiLine)
 737:Drivers/STM32WLxx_HAL_Driver/Inc/stm32wlxx_ll_exti.h **** {
 738:Drivers/STM32WLxx_HAL_Driver/Inc/stm32wlxx_ll_exti.h ****   SET_BIT(EXTI->EMR2, ExtiLine);
 739:Drivers/STM32WLxx_HAL_Driver/Inc/stm32wlxx_ll_exti.h **** }
 740:Drivers/STM32WLxx_HAL_Driver/Inc/stm32wlxx_ll_exti.h **** 
 741:Drivers/STM32WLxx_HAL_Driver/Inc/stm32wlxx_ll_exti.h **** #if defined(DUAL_CORE)
 742:Drivers/STM32WLxx_HAL_Driver/Inc/stm32wlxx_ll_exti.h **** /**
 743:Drivers/STM32WLxx_HAL_Driver/Inc/stm32wlxx_ll_exti.h ****   * @brief  Enable ExtiLine Event request for Lines in range 32 to 63 for cpu2
 744:Drivers/STM32WLxx_HAL_Driver/Inc/stm32wlxx_ll_exti.h ****   * @rmtoll C2EMR2         EMx           LL_C2_EXTI_EnableEvent_32_63
 745:Drivers/STM32WLxx_HAL_Driver/Inc/stm32wlxx_ll_exti.h ****   * @param  ExtiLine This parameter can be a combination of the following values:
 746:Drivers/STM32WLxx_HAL_Driver/Inc/stm32wlxx_ll_exti.h ****   *         @arg @ref LL_EXTI_LINE_40 (*)
 747:Drivers/STM32WLxx_HAL_Driver/Inc/stm32wlxx_ll_exti.h ****   *         @arg @ref LL_EXTI_LINE_41 (*)
 748:Drivers/STM32WLxx_HAL_Driver/Inc/stm32wlxx_ll_exti.h ****   *         (*) value not defined in all devices
 749:Drivers/STM32WLxx_HAL_Driver/Inc/stm32wlxx_ll_exti.h ****   * @retval None
 750:Drivers/STM32WLxx_HAL_Driver/Inc/stm32wlxx_ll_exti.h ****   */
 751:Drivers/STM32WLxx_HAL_Driver/Inc/stm32wlxx_ll_exti.h **** __STATIC_INLINE void LL_C2_EXTI_EnableEvent_32_63(uint32_t ExtiLine)
 752:Drivers/STM32WLxx_HAL_Driver/Inc/stm32wlxx_ll_exti.h **** {
 753:Drivers/STM32WLxx_HAL_Driver/Inc/stm32wlxx_ll_exti.h ****   SET_BIT(EXTI->C2EMR2, ExtiLine);
 754:Drivers/STM32WLxx_HAL_Driver/Inc/stm32wlxx_ll_exti.h **** }
 755:Drivers/STM32WLxx_HAL_Driver/Inc/stm32wlxx_ll_exti.h **** #endif
 756:Drivers/STM32WLxx_HAL_Driver/Inc/stm32wlxx_ll_exti.h **** 
 757:Drivers/STM32WLxx_HAL_Driver/Inc/stm32wlxx_ll_exti.h **** /**
 758:Drivers/STM32WLxx_HAL_Driver/Inc/stm32wlxx_ll_exti.h ****   * @brief  Disable ExtiLine Event request for Lines in range 0 to 31
 759:Drivers/STM32WLxx_HAL_Driver/Inc/stm32wlxx_ll_exti.h ****   * @rmtoll EMR1         EMx           LL_EXTI_DisableEvent_0_31
 760:Drivers/STM32WLxx_HAL_Driver/Inc/stm32wlxx_ll_exti.h ****   * @param  ExtiLine This parameter can be one of the following values:
 761:Drivers/STM32WLxx_HAL_Driver/Inc/stm32wlxx_ll_exti.h ****   *         @arg @ref LL_EXTI_LINE_0
 762:Drivers/STM32WLxx_HAL_Driver/Inc/stm32wlxx_ll_exti.h ****   *         @arg @ref LL_EXTI_LINE_1
 763:Drivers/STM32WLxx_HAL_Driver/Inc/stm32wlxx_ll_exti.h ****   *         @arg @ref LL_EXTI_LINE_2
 764:Drivers/STM32WLxx_HAL_Driver/Inc/stm32wlxx_ll_exti.h ****   *         @arg @ref LL_EXTI_LINE_3
 765:Drivers/STM32WLxx_HAL_Driver/Inc/stm32wlxx_ll_exti.h ****   *         @arg @ref LL_EXTI_LINE_4
 766:Drivers/STM32WLxx_HAL_Driver/Inc/stm32wlxx_ll_exti.h ****   *         @arg @ref LL_EXTI_LINE_5
 767:Drivers/STM32WLxx_HAL_Driver/Inc/stm32wlxx_ll_exti.h ****   *         @arg @ref LL_EXTI_LINE_6
 768:Drivers/STM32WLxx_HAL_Driver/Inc/stm32wlxx_ll_exti.h ****   *         @arg @ref LL_EXTI_LINE_7
 769:Drivers/STM32WLxx_HAL_Driver/Inc/stm32wlxx_ll_exti.h ****   *         @arg @ref LL_EXTI_LINE_8
 770:Drivers/STM32WLxx_HAL_Driver/Inc/stm32wlxx_ll_exti.h ****   *         @arg @ref LL_EXTI_LINE_9
 771:Drivers/STM32WLxx_HAL_Driver/Inc/stm32wlxx_ll_exti.h ****   *         @arg @ref LL_EXTI_LINE_10
 772:Drivers/STM32WLxx_HAL_Driver/Inc/stm32wlxx_ll_exti.h ****   *         @arg @ref LL_EXTI_LINE_11
 773:Drivers/STM32WLxx_HAL_Driver/Inc/stm32wlxx_ll_exti.h ****   *         @arg @ref LL_EXTI_LINE_12
 774:Drivers/STM32WLxx_HAL_Driver/Inc/stm32wlxx_ll_exti.h ****   *         @arg @ref LL_EXTI_LINE_13
 775:Drivers/STM32WLxx_HAL_Driver/Inc/stm32wlxx_ll_exti.h ****   *         @arg @ref LL_EXTI_LINE_14
 776:Drivers/STM32WLxx_HAL_Driver/Inc/stm32wlxx_ll_exti.h ****   *         @arg @ref LL_EXTI_LINE_15
 777:Drivers/STM32WLxx_HAL_Driver/Inc/stm32wlxx_ll_exti.h ****   *         @arg @ref LL_EXTI_LINE_17
 778:Drivers/STM32WLxx_HAL_Driver/Inc/stm32wlxx_ll_exti.h ****   *         @arg @ref LL_EXTI_LINE_19
 779:Drivers/STM32WLxx_HAL_Driver/Inc/stm32wlxx_ll_exti.h ****   *         @arg @ref LL_EXTI_LINE_20
 780:Drivers/STM32WLxx_HAL_Driver/Inc/stm32wlxx_ll_exti.h ****   *         @arg @ref LL_EXTI_LINE_21
 781:Drivers/STM32WLxx_HAL_Driver/Inc/stm32wlxx_ll_exti.h ****   *         @arg @ref LL_EXTI_LINE_22
 782:Drivers/STM32WLxx_HAL_Driver/Inc/stm32wlxx_ll_exti.h ****   * @retval None
 783:Drivers/STM32WLxx_HAL_Driver/Inc/stm32wlxx_ll_exti.h ****   */
 784:Drivers/STM32WLxx_HAL_Driver/Inc/stm32wlxx_ll_exti.h **** __STATIC_INLINE void LL_EXTI_DisableEvent_0_31(uint32_t ExtiLine)
ARM GAS  C:\Users\NATHAN~1\AppData\Local\Temp\ccu0I2kX.s 			page 24


 785:Drivers/STM32WLxx_HAL_Driver/Inc/stm32wlxx_ll_exti.h **** {
 786:Drivers/STM32WLxx_HAL_Driver/Inc/stm32wlxx_ll_exti.h ****   CLEAR_BIT(EXTI->EMR1, ExtiLine);
 787:Drivers/STM32WLxx_HAL_Driver/Inc/stm32wlxx_ll_exti.h **** }
 788:Drivers/STM32WLxx_HAL_Driver/Inc/stm32wlxx_ll_exti.h **** 
 789:Drivers/STM32WLxx_HAL_Driver/Inc/stm32wlxx_ll_exti.h **** #if defined(DUAL_CORE)
 790:Drivers/STM32WLxx_HAL_Driver/Inc/stm32wlxx_ll_exti.h **** /**
 791:Drivers/STM32WLxx_HAL_Driver/Inc/stm32wlxx_ll_exti.h ****   * @brief  Disable ExtiLine Event request for Lines in range 0 to 31 for cpu2
 792:Drivers/STM32WLxx_HAL_Driver/Inc/stm32wlxx_ll_exti.h ****   * @rmtoll C2EMR1         EMx           LL_C2_EXTI_DisableEvent_0_31
 793:Drivers/STM32WLxx_HAL_Driver/Inc/stm32wlxx_ll_exti.h ****   * @param  ExtiLine This parameter can be one of the following values:
 794:Drivers/STM32WLxx_HAL_Driver/Inc/stm32wlxx_ll_exti.h ****   *         @arg @ref LL_EXTI_LINE_0
 795:Drivers/STM32WLxx_HAL_Driver/Inc/stm32wlxx_ll_exti.h ****   *         @arg @ref LL_EXTI_LINE_1
 796:Drivers/STM32WLxx_HAL_Driver/Inc/stm32wlxx_ll_exti.h ****   *         @arg @ref LL_EXTI_LINE_2
 797:Drivers/STM32WLxx_HAL_Driver/Inc/stm32wlxx_ll_exti.h ****   *         @arg @ref LL_EXTI_LINE_3
 798:Drivers/STM32WLxx_HAL_Driver/Inc/stm32wlxx_ll_exti.h ****   *         @arg @ref LL_EXTI_LINE_4
 799:Drivers/STM32WLxx_HAL_Driver/Inc/stm32wlxx_ll_exti.h ****   *         @arg @ref LL_EXTI_LINE_5
 800:Drivers/STM32WLxx_HAL_Driver/Inc/stm32wlxx_ll_exti.h ****   *         @arg @ref LL_EXTI_LINE_6
 801:Drivers/STM32WLxx_HAL_Driver/Inc/stm32wlxx_ll_exti.h ****   *         @arg @ref LL_EXTI_LINE_7
 802:Drivers/STM32WLxx_HAL_Driver/Inc/stm32wlxx_ll_exti.h ****   *         @arg @ref LL_EXTI_LINE_8
 803:Drivers/STM32WLxx_HAL_Driver/Inc/stm32wlxx_ll_exti.h ****   *         @arg @ref LL_EXTI_LINE_9
 804:Drivers/STM32WLxx_HAL_Driver/Inc/stm32wlxx_ll_exti.h ****   *         @arg @ref LL_EXTI_LINE_10
 805:Drivers/STM32WLxx_HAL_Driver/Inc/stm32wlxx_ll_exti.h ****   *         @arg @ref LL_EXTI_LINE_11
 806:Drivers/STM32WLxx_HAL_Driver/Inc/stm32wlxx_ll_exti.h ****   *         @arg @ref LL_EXTI_LINE_12
 807:Drivers/STM32WLxx_HAL_Driver/Inc/stm32wlxx_ll_exti.h ****   *         @arg @ref LL_EXTI_LINE_13
 808:Drivers/STM32WLxx_HAL_Driver/Inc/stm32wlxx_ll_exti.h ****   *         @arg @ref LL_EXTI_LINE_14
 809:Drivers/STM32WLxx_HAL_Driver/Inc/stm32wlxx_ll_exti.h ****   *         @arg @ref LL_EXTI_LINE_15
 810:Drivers/STM32WLxx_HAL_Driver/Inc/stm32wlxx_ll_exti.h ****   *         @arg @ref LL_EXTI_LINE_17
 811:Drivers/STM32WLxx_HAL_Driver/Inc/stm32wlxx_ll_exti.h ****   *         @arg @ref LL_EXTI_LINE_19
 812:Drivers/STM32WLxx_HAL_Driver/Inc/stm32wlxx_ll_exti.h ****   *         @arg @ref LL_EXTI_LINE_20
 813:Drivers/STM32WLxx_HAL_Driver/Inc/stm32wlxx_ll_exti.h ****   *         @arg @ref LL_EXTI_LINE_21
 814:Drivers/STM32WLxx_HAL_Driver/Inc/stm32wlxx_ll_exti.h ****   *         @arg @ref LL_EXTI_LINE_22
 815:Drivers/STM32WLxx_HAL_Driver/Inc/stm32wlxx_ll_exti.h ****   * @retval None
 816:Drivers/STM32WLxx_HAL_Driver/Inc/stm32wlxx_ll_exti.h ****   */
 817:Drivers/STM32WLxx_HAL_Driver/Inc/stm32wlxx_ll_exti.h **** __STATIC_INLINE void LL_C2_EXTI_DisableEvent_0_31(uint32_t ExtiLine)
 818:Drivers/STM32WLxx_HAL_Driver/Inc/stm32wlxx_ll_exti.h **** {
 819:Drivers/STM32WLxx_HAL_Driver/Inc/stm32wlxx_ll_exti.h ****   CLEAR_BIT(EXTI->C2EMR1, ExtiLine);
 820:Drivers/STM32WLxx_HAL_Driver/Inc/stm32wlxx_ll_exti.h **** }
 821:Drivers/STM32WLxx_HAL_Driver/Inc/stm32wlxx_ll_exti.h **** #endif
 822:Drivers/STM32WLxx_HAL_Driver/Inc/stm32wlxx_ll_exti.h **** 
 823:Drivers/STM32WLxx_HAL_Driver/Inc/stm32wlxx_ll_exti.h **** /**
 824:Drivers/STM32WLxx_HAL_Driver/Inc/stm32wlxx_ll_exti.h ****   * @brief  Disable ExtiLine Event request for Lines in range 32 to 63
 825:Drivers/STM32WLxx_HAL_Driver/Inc/stm32wlxx_ll_exti.h ****   * @rmtoll EMR2         EMx           LL_EXTI_DisableEvent_32_63
 826:Drivers/STM32WLxx_HAL_Driver/Inc/stm32wlxx_ll_exti.h ****   * @param  ExtiLine This parameter can be a combination of the following values:
 827:Drivers/STM32WLxx_HAL_Driver/Inc/stm32wlxx_ll_exti.h ****   *         @arg @ref LL_EXTI_LINE_40 (*)
 828:Drivers/STM32WLxx_HAL_Driver/Inc/stm32wlxx_ll_exti.h ****   *         @arg @ref LL_EXTI_LINE_41 (*)
 829:Drivers/STM32WLxx_HAL_Driver/Inc/stm32wlxx_ll_exti.h ****   *         (*) value not defined in all devices
 830:Drivers/STM32WLxx_HAL_Driver/Inc/stm32wlxx_ll_exti.h ****   * @retval None
 831:Drivers/STM32WLxx_HAL_Driver/Inc/stm32wlxx_ll_exti.h ****   */
 832:Drivers/STM32WLxx_HAL_Driver/Inc/stm32wlxx_ll_exti.h **** __STATIC_INLINE void LL_EXTI_DisableEvent_32_63(uint32_t ExtiLine)
 833:Drivers/STM32WLxx_HAL_Driver/Inc/stm32wlxx_ll_exti.h **** {
 834:Drivers/STM32WLxx_HAL_Driver/Inc/stm32wlxx_ll_exti.h ****   CLEAR_BIT(EXTI->EMR2, ExtiLine);
 835:Drivers/STM32WLxx_HAL_Driver/Inc/stm32wlxx_ll_exti.h **** }
 836:Drivers/STM32WLxx_HAL_Driver/Inc/stm32wlxx_ll_exti.h **** 
 837:Drivers/STM32WLxx_HAL_Driver/Inc/stm32wlxx_ll_exti.h **** #if defined(DUAL_CORE)
 838:Drivers/STM32WLxx_HAL_Driver/Inc/stm32wlxx_ll_exti.h **** /**
 839:Drivers/STM32WLxx_HAL_Driver/Inc/stm32wlxx_ll_exti.h ****   * @brief  Disable ExtiLine Event request for Lines in range 32 to 63 for cpu2
 840:Drivers/STM32WLxx_HAL_Driver/Inc/stm32wlxx_ll_exti.h ****   * @rmtoll C2EMR2         EMx           LL_C2_EXTI_DisableEvent_32_63
 841:Drivers/STM32WLxx_HAL_Driver/Inc/stm32wlxx_ll_exti.h ****   * @param  ExtiLine This parameter can be a combination of the following values:
ARM GAS  C:\Users\NATHAN~1\AppData\Local\Temp\ccu0I2kX.s 			page 25


 842:Drivers/STM32WLxx_HAL_Driver/Inc/stm32wlxx_ll_exti.h ****   *         @arg @ref LL_EXTI_LINE_40 (*)
 843:Drivers/STM32WLxx_HAL_Driver/Inc/stm32wlxx_ll_exti.h ****   *         @arg @ref LL_EXTI_LINE_41 (*)
 844:Drivers/STM32WLxx_HAL_Driver/Inc/stm32wlxx_ll_exti.h ****   *         (*) value not defined in all devices
 845:Drivers/STM32WLxx_HAL_Driver/Inc/stm32wlxx_ll_exti.h ****   * @retval None
 846:Drivers/STM32WLxx_HAL_Driver/Inc/stm32wlxx_ll_exti.h ****   */
 847:Drivers/STM32WLxx_HAL_Driver/Inc/stm32wlxx_ll_exti.h **** __STATIC_INLINE void LL_C2_EXTI_DisableEvent_32_63(uint32_t ExtiLine)
 848:Drivers/STM32WLxx_HAL_Driver/Inc/stm32wlxx_ll_exti.h **** {
 849:Drivers/STM32WLxx_HAL_Driver/Inc/stm32wlxx_ll_exti.h ****   CLEAR_BIT(EXTI->C2EMR2, ExtiLine);
 850:Drivers/STM32WLxx_HAL_Driver/Inc/stm32wlxx_ll_exti.h **** }
 851:Drivers/STM32WLxx_HAL_Driver/Inc/stm32wlxx_ll_exti.h **** #endif
 852:Drivers/STM32WLxx_HAL_Driver/Inc/stm32wlxx_ll_exti.h **** 
 853:Drivers/STM32WLxx_HAL_Driver/Inc/stm32wlxx_ll_exti.h **** /**
 854:Drivers/STM32WLxx_HAL_Driver/Inc/stm32wlxx_ll_exti.h ****   * @brief  Indicate if ExtiLine Event request is enabled for Lines in range 0 to 31
 855:Drivers/STM32WLxx_HAL_Driver/Inc/stm32wlxx_ll_exti.h ****   * @rmtoll EMR1         EMx           LL_EXTI_IsEnabledEvent_0_31
 856:Drivers/STM32WLxx_HAL_Driver/Inc/stm32wlxx_ll_exti.h ****   * @param  ExtiLine This parameter can be one of the following values:
 857:Drivers/STM32WLxx_HAL_Driver/Inc/stm32wlxx_ll_exti.h ****   *         @arg @ref LL_EXTI_LINE_0
 858:Drivers/STM32WLxx_HAL_Driver/Inc/stm32wlxx_ll_exti.h ****   *         @arg @ref LL_EXTI_LINE_1
 859:Drivers/STM32WLxx_HAL_Driver/Inc/stm32wlxx_ll_exti.h ****   *         @arg @ref LL_EXTI_LINE_2
 860:Drivers/STM32WLxx_HAL_Driver/Inc/stm32wlxx_ll_exti.h ****   *         @arg @ref LL_EXTI_LINE_3
 861:Drivers/STM32WLxx_HAL_Driver/Inc/stm32wlxx_ll_exti.h ****   *         @arg @ref LL_EXTI_LINE_4
 862:Drivers/STM32WLxx_HAL_Driver/Inc/stm32wlxx_ll_exti.h ****   *         @arg @ref LL_EXTI_LINE_5
 863:Drivers/STM32WLxx_HAL_Driver/Inc/stm32wlxx_ll_exti.h ****   *         @arg @ref LL_EXTI_LINE_6
 864:Drivers/STM32WLxx_HAL_Driver/Inc/stm32wlxx_ll_exti.h ****   *         @arg @ref LL_EXTI_LINE_7
 865:Drivers/STM32WLxx_HAL_Driver/Inc/stm32wlxx_ll_exti.h ****   *         @arg @ref LL_EXTI_LINE_8
 866:Drivers/STM32WLxx_HAL_Driver/Inc/stm32wlxx_ll_exti.h ****   *         @arg @ref LL_EXTI_LINE_9
 867:Drivers/STM32WLxx_HAL_Driver/Inc/stm32wlxx_ll_exti.h ****   *         @arg @ref LL_EXTI_LINE_10
 868:Drivers/STM32WLxx_HAL_Driver/Inc/stm32wlxx_ll_exti.h ****   *         @arg @ref LL_EXTI_LINE_11
 869:Drivers/STM32WLxx_HAL_Driver/Inc/stm32wlxx_ll_exti.h ****   *         @arg @ref LL_EXTI_LINE_12
 870:Drivers/STM32WLxx_HAL_Driver/Inc/stm32wlxx_ll_exti.h ****   *         @arg @ref LL_EXTI_LINE_13
 871:Drivers/STM32WLxx_HAL_Driver/Inc/stm32wlxx_ll_exti.h ****   *         @arg @ref LL_EXTI_LINE_14
 872:Drivers/STM32WLxx_HAL_Driver/Inc/stm32wlxx_ll_exti.h ****   *         @arg @ref LL_EXTI_LINE_15
 873:Drivers/STM32WLxx_HAL_Driver/Inc/stm32wlxx_ll_exti.h ****   *         @arg @ref LL_EXTI_LINE_17
 874:Drivers/STM32WLxx_HAL_Driver/Inc/stm32wlxx_ll_exti.h ****   *         @arg @ref LL_EXTI_LINE_19
 875:Drivers/STM32WLxx_HAL_Driver/Inc/stm32wlxx_ll_exti.h ****   *         @arg @ref LL_EXTI_LINE_20
 876:Drivers/STM32WLxx_HAL_Driver/Inc/stm32wlxx_ll_exti.h ****   *         @arg @ref LL_EXTI_LINE_21
 877:Drivers/STM32WLxx_HAL_Driver/Inc/stm32wlxx_ll_exti.h ****   *         @arg @ref LL_EXTI_LINE_22
 878:Drivers/STM32WLxx_HAL_Driver/Inc/stm32wlxx_ll_exti.h ****   * @retval State of bit (1 or 0).
 879:Drivers/STM32WLxx_HAL_Driver/Inc/stm32wlxx_ll_exti.h ****   */
 880:Drivers/STM32WLxx_HAL_Driver/Inc/stm32wlxx_ll_exti.h **** __STATIC_INLINE uint32_t LL_EXTI_IsEnabledEvent_0_31(uint32_t ExtiLine)
 881:Drivers/STM32WLxx_HAL_Driver/Inc/stm32wlxx_ll_exti.h **** {
 882:Drivers/STM32WLxx_HAL_Driver/Inc/stm32wlxx_ll_exti.h ****   return ((READ_BIT(EXTI->EMR1, ExtiLine) == (ExtiLine)) ? 1UL : 0UL);
 883:Drivers/STM32WLxx_HAL_Driver/Inc/stm32wlxx_ll_exti.h **** }
 884:Drivers/STM32WLxx_HAL_Driver/Inc/stm32wlxx_ll_exti.h **** 
 885:Drivers/STM32WLxx_HAL_Driver/Inc/stm32wlxx_ll_exti.h **** #if defined(DUAL_CORE)
 886:Drivers/STM32WLxx_HAL_Driver/Inc/stm32wlxx_ll_exti.h **** /**
 887:Drivers/STM32WLxx_HAL_Driver/Inc/stm32wlxx_ll_exti.h ****   * @brief  Indicate if ExtiLine Event request is enabled for Lines in range 0 to 31 for cpu2
 888:Drivers/STM32WLxx_HAL_Driver/Inc/stm32wlxx_ll_exti.h ****   * @rmtoll C2EMR1         EMx           LL_C2_EXTI_IsEnabledEvent_0_31
 889:Drivers/STM32WLxx_HAL_Driver/Inc/stm32wlxx_ll_exti.h ****   * @param  ExtiLine This parameter can be one of the following values:
 890:Drivers/STM32WLxx_HAL_Driver/Inc/stm32wlxx_ll_exti.h ****   *         @arg @ref LL_EXTI_LINE_0
 891:Drivers/STM32WLxx_HAL_Driver/Inc/stm32wlxx_ll_exti.h ****   *         @arg @ref LL_EXTI_LINE_1
 892:Drivers/STM32WLxx_HAL_Driver/Inc/stm32wlxx_ll_exti.h ****   *         @arg @ref LL_EXTI_LINE_2
 893:Drivers/STM32WLxx_HAL_Driver/Inc/stm32wlxx_ll_exti.h ****   *         @arg @ref LL_EXTI_LINE_3
 894:Drivers/STM32WLxx_HAL_Driver/Inc/stm32wlxx_ll_exti.h ****   *         @arg @ref LL_EXTI_LINE_4
 895:Drivers/STM32WLxx_HAL_Driver/Inc/stm32wlxx_ll_exti.h ****   *         @arg @ref LL_EXTI_LINE_5
 896:Drivers/STM32WLxx_HAL_Driver/Inc/stm32wlxx_ll_exti.h ****   *         @arg @ref LL_EXTI_LINE_6
 897:Drivers/STM32WLxx_HAL_Driver/Inc/stm32wlxx_ll_exti.h ****   *         @arg @ref LL_EXTI_LINE_7
 898:Drivers/STM32WLxx_HAL_Driver/Inc/stm32wlxx_ll_exti.h ****   *         @arg @ref LL_EXTI_LINE_8
ARM GAS  C:\Users\NATHAN~1\AppData\Local\Temp\ccu0I2kX.s 			page 26


 899:Drivers/STM32WLxx_HAL_Driver/Inc/stm32wlxx_ll_exti.h ****   *         @arg @ref LL_EXTI_LINE_9
 900:Drivers/STM32WLxx_HAL_Driver/Inc/stm32wlxx_ll_exti.h ****   *         @arg @ref LL_EXTI_LINE_10
 901:Drivers/STM32WLxx_HAL_Driver/Inc/stm32wlxx_ll_exti.h ****   *         @arg @ref LL_EXTI_LINE_11
 902:Drivers/STM32WLxx_HAL_Driver/Inc/stm32wlxx_ll_exti.h ****   *         @arg @ref LL_EXTI_LINE_12
 903:Drivers/STM32WLxx_HAL_Driver/Inc/stm32wlxx_ll_exti.h ****   *         @arg @ref LL_EXTI_LINE_13
 904:Drivers/STM32WLxx_HAL_Driver/Inc/stm32wlxx_ll_exti.h ****   *         @arg @ref LL_EXTI_LINE_14
 905:Drivers/STM32WLxx_HAL_Driver/Inc/stm32wlxx_ll_exti.h ****   *         @arg @ref LL_EXTI_LINE_15
 906:Drivers/STM32WLxx_HAL_Driver/Inc/stm32wlxx_ll_exti.h ****   *         @arg @ref LL_EXTI_LINE_17
 907:Drivers/STM32WLxx_HAL_Driver/Inc/stm32wlxx_ll_exti.h ****   *         @arg @ref LL_EXTI_LINE_19
 908:Drivers/STM32WLxx_HAL_Driver/Inc/stm32wlxx_ll_exti.h ****   *         @arg @ref LL_EXTI_LINE_20
 909:Drivers/STM32WLxx_HAL_Driver/Inc/stm32wlxx_ll_exti.h ****   *         @arg @ref LL_EXTI_LINE_21
 910:Drivers/STM32WLxx_HAL_Driver/Inc/stm32wlxx_ll_exti.h ****   *         @arg @ref LL_EXTI_LINE_22
 911:Drivers/STM32WLxx_HAL_Driver/Inc/stm32wlxx_ll_exti.h ****   * @retval State of bit (1 or 0).
 912:Drivers/STM32WLxx_HAL_Driver/Inc/stm32wlxx_ll_exti.h ****   */
 913:Drivers/STM32WLxx_HAL_Driver/Inc/stm32wlxx_ll_exti.h **** __STATIC_INLINE uint32_t LL_C2_EXTI_IsEnabledEvent_0_31(uint32_t ExtiLine)
 914:Drivers/STM32WLxx_HAL_Driver/Inc/stm32wlxx_ll_exti.h **** {
 915:Drivers/STM32WLxx_HAL_Driver/Inc/stm32wlxx_ll_exti.h ****   return ((READ_BIT(EXTI->C2EMR1, ExtiLine) == (ExtiLine)) ? 1UL : 0UL);
 916:Drivers/STM32WLxx_HAL_Driver/Inc/stm32wlxx_ll_exti.h **** }
 917:Drivers/STM32WLxx_HAL_Driver/Inc/stm32wlxx_ll_exti.h **** #endif
 918:Drivers/STM32WLxx_HAL_Driver/Inc/stm32wlxx_ll_exti.h **** 
 919:Drivers/STM32WLxx_HAL_Driver/Inc/stm32wlxx_ll_exti.h **** /**
 920:Drivers/STM32WLxx_HAL_Driver/Inc/stm32wlxx_ll_exti.h ****   * @brief  Indicate if ExtiLine Event request is enabled for Lines in range 32 to 63
 921:Drivers/STM32WLxx_HAL_Driver/Inc/stm32wlxx_ll_exti.h ****   * @rmtoll EMR2         EMx           LL_EXTI_IsEnabledEvent_32_63
 922:Drivers/STM32WLxx_HAL_Driver/Inc/stm32wlxx_ll_exti.h ****   * @param  ExtiLine This parameter can be a combination of the following values:
 923:Drivers/STM32WLxx_HAL_Driver/Inc/stm32wlxx_ll_exti.h ****   *         @arg @ref LL_EXTI_LINE_40 (*)
 924:Drivers/STM32WLxx_HAL_Driver/Inc/stm32wlxx_ll_exti.h ****   *         @arg @ref LL_EXTI_LINE_41 (*)
 925:Drivers/STM32WLxx_HAL_Driver/Inc/stm32wlxx_ll_exti.h ****   *         (*) value not defined in all devices
 926:Drivers/STM32WLxx_HAL_Driver/Inc/stm32wlxx_ll_exti.h ****   * @retval State of bit (1 or 0).
 927:Drivers/STM32WLxx_HAL_Driver/Inc/stm32wlxx_ll_exti.h ****   */
 928:Drivers/STM32WLxx_HAL_Driver/Inc/stm32wlxx_ll_exti.h **** __STATIC_INLINE uint32_t LL_EXTI_IsEnabledEvent_32_63(uint32_t ExtiLine)
 929:Drivers/STM32WLxx_HAL_Driver/Inc/stm32wlxx_ll_exti.h **** {
 930:Drivers/STM32WLxx_HAL_Driver/Inc/stm32wlxx_ll_exti.h ****   return ((READ_BIT(EXTI->EMR2, ExtiLine) == (ExtiLine)) ? 1UL : 0UL);
 931:Drivers/STM32WLxx_HAL_Driver/Inc/stm32wlxx_ll_exti.h **** }
 932:Drivers/STM32WLxx_HAL_Driver/Inc/stm32wlxx_ll_exti.h **** 
 933:Drivers/STM32WLxx_HAL_Driver/Inc/stm32wlxx_ll_exti.h **** #if defined(DUAL_CORE)
 934:Drivers/STM32WLxx_HAL_Driver/Inc/stm32wlxx_ll_exti.h **** /**
 935:Drivers/STM32WLxx_HAL_Driver/Inc/stm32wlxx_ll_exti.h ****   * @brief  Indicate if ExtiLine Event request is enabled for Lines in range 32 to 63 for cpu2
 936:Drivers/STM32WLxx_HAL_Driver/Inc/stm32wlxx_ll_exti.h ****   * @rmtoll EMR2         EMx           LL_C2_EXTI_IsEnabledEvent_32_63
 937:Drivers/STM32WLxx_HAL_Driver/Inc/stm32wlxx_ll_exti.h ****   * @param  ExtiLine This parameter can be a combination of the following values:
 938:Drivers/STM32WLxx_HAL_Driver/Inc/stm32wlxx_ll_exti.h ****   *         @arg @ref LL_EXTI_LINE_40 (*)
 939:Drivers/STM32WLxx_HAL_Driver/Inc/stm32wlxx_ll_exti.h ****   *         @arg @ref LL_EXTI_LINE_41 (*)
 940:Drivers/STM32WLxx_HAL_Driver/Inc/stm32wlxx_ll_exti.h ****   *         (*) value not defined in all devices
 941:Drivers/STM32WLxx_HAL_Driver/Inc/stm32wlxx_ll_exti.h ****   * @retval State of bit (1 or 0).
 942:Drivers/STM32WLxx_HAL_Driver/Inc/stm32wlxx_ll_exti.h ****   */
 943:Drivers/STM32WLxx_HAL_Driver/Inc/stm32wlxx_ll_exti.h **** __STATIC_INLINE uint32_t LL_C2_EXTI_IsEnabledEvent_32_63(uint32_t ExtiLine)
 944:Drivers/STM32WLxx_HAL_Driver/Inc/stm32wlxx_ll_exti.h **** {
 945:Drivers/STM32WLxx_HAL_Driver/Inc/stm32wlxx_ll_exti.h ****   return ((READ_BIT(EXTI->C2EMR2, ExtiLine) == (ExtiLine)) ? 1UL : 0UL);
 946:Drivers/STM32WLxx_HAL_Driver/Inc/stm32wlxx_ll_exti.h **** }
 947:Drivers/STM32WLxx_HAL_Driver/Inc/stm32wlxx_ll_exti.h **** #endif
 948:Drivers/STM32WLxx_HAL_Driver/Inc/stm32wlxx_ll_exti.h **** 
 949:Drivers/STM32WLxx_HAL_Driver/Inc/stm32wlxx_ll_exti.h **** /**
 950:Drivers/STM32WLxx_HAL_Driver/Inc/stm32wlxx_ll_exti.h ****   * @}
 951:Drivers/STM32WLxx_HAL_Driver/Inc/stm32wlxx_ll_exti.h ****   */
 952:Drivers/STM32WLxx_HAL_Driver/Inc/stm32wlxx_ll_exti.h **** 
 953:Drivers/STM32WLxx_HAL_Driver/Inc/stm32wlxx_ll_exti.h **** /** @defgroup EXTI_LL_EF_Rising_Trigger_Management Rising_Trigger_Management
 954:Drivers/STM32WLxx_HAL_Driver/Inc/stm32wlxx_ll_exti.h ****   * @{
 955:Drivers/STM32WLxx_HAL_Driver/Inc/stm32wlxx_ll_exti.h ****   */
ARM GAS  C:\Users\NATHAN~1\AppData\Local\Temp\ccu0I2kX.s 			page 27


 956:Drivers/STM32WLxx_HAL_Driver/Inc/stm32wlxx_ll_exti.h **** 
 957:Drivers/STM32WLxx_HAL_Driver/Inc/stm32wlxx_ll_exti.h **** /**
 958:Drivers/STM32WLxx_HAL_Driver/Inc/stm32wlxx_ll_exti.h ****   * @brief  Enable ExtiLine Rising Edge Trigger for Lines in range 0 to 31
 959:Drivers/STM32WLxx_HAL_Driver/Inc/stm32wlxx_ll_exti.h ****   * @note   The configurable wakeup lines are edge-triggered. No glitch must be
 960:Drivers/STM32WLxx_HAL_Driver/Inc/stm32wlxx_ll_exti.h ****   *         generated on these lines. If a rising edge on a configurable interrupt
 961:Drivers/STM32WLxx_HAL_Driver/Inc/stm32wlxx_ll_exti.h ****   *         line occurs during a write operation in the EXTI_RTSR register, the
 962:Drivers/STM32WLxx_HAL_Driver/Inc/stm32wlxx_ll_exti.h ****   *         pending bit is not set.
 963:Drivers/STM32WLxx_HAL_Driver/Inc/stm32wlxx_ll_exti.h ****   *         Rising and falling edge triggers can be set for
 964:Drivers/STM32WLxx_HAL_Driver/Inc/stm32wlxx_ll_exti.h ****   *         the same interrupt line. In this case, both generate a trigger
 965:Drivers/STM32WLxx_HAL_Driver/Inc/stm32wlxx_ll_exti.h ****   *         condition.
 966:Drivers/STM32WLxx_HAL_Driver/Inc/stm32wlxx_ll_exti.h ****   * @rmtoll RTSR1        RTx           LL_EXTI_EnableRisingTrig_0_31
 967:Drivers/STM32WLxx_HAL_Driver/Inc/stm32wlxx_ll_exti.h ****   * @param  ExtiLine This parameter can be a combination of the following values:
 968:Drivers/STM32WLxx_HAL_Driver/Inc/stm32wlxx_ll_exti.h ****   *         @arg @ref LL_EXTI_LINE_0
 969:Drivers/STM32WLxx_HAL_Driver/Inc/stm32wlxx_ll_exti.h ****   *         @arg @ref LL_EXTI_LINE_1
 970:Drivers/STM32WLxx_HAL_Driver/Inc/stm32wlxx_ll_exti.h ****   *         @arg @ref LL_EXTI_LINE_2
 971:Drivers/STM32WLxx_HAL_Driver/Inc/stm32wlxx_ll_exti.h ****   *         @arg @ref LL_EXTI_LINE_3
 972:Drivers/STM32WLxx_HAL_Driver/Inc/stm32wlxx_ll_exti.h ****   *         @arg @ref LL_EXTI_LINE_4
 973:Drivers/STM32WLxx_HAL_Driver/Inc/stm32wlxx_ll_exti.h ****   *         @arg @ref LL_EXTI_LINE_5
 974:Drivers/STM32WLxx_HAL_Driver/Inc/stm32wlxx_ll_exti.h ****   *         @arg @ref LL_EXTI_LINE_6
 975:Drivers/STM32WLxx_HAL_Driver/Inc/stm32wlxx_ll_exti.h ****   *         @arg @ref LL_EXTI_LINE_7
 976:Drivers/STM32WLxx_HAL_Driver/Inc/stm32wlxx_ll_exti.h ****   *         @arg @ref LL_EXTI_LINE_8
 977:Drivers/STM32WLxx_HAL_Driver/Inc/stm32wlxx_ll_exti.h ****   *         @arg @ref LL_EXTI_LINE_9
 978:Drivers/STM32WLxx_HAL_Driver/Inc/stm32wlxx_ll_exti.h ****   *         @arg @ref LL_EXTI_LINE_10
 979:Drivers/STM32WLxx_HAL_Driver/Inc/stm32wlxx_ll_exti.h ****   *         @arg @ref LL_EXTI_LINE_11
 980:Drivers/STM32WLxx_HAL_Driver/Inc/stm32wlxx_ll_exti.h ****   *         @arg @ref LL_EXTI_LINE_12
 981:Drivers/STM32WLxx_HAL_Driver/Inc/stm32wlxx_ll_exti.h ****   *         @arg @ref LL_EXTI_LINE_13
 982:Drivers/STM32WLxx_HAL_Driver/Inc/stm32wlxx_ll_exti.h ****   *         @arg @ref LL_EXTI_LINE_14
 983:Drivers/STM32WLxx_HAL_Driver/Inc/stm32wlxx_ll_exti.h ****   *         @arg @ref LL_EXTI_LINE_15
 984:Drivers/STM32WLxx_HAL_Driver/Inc/stm32wlxx_ll_exti.h ****   *         @arg @ref LL_EXTI_LINE_16
 985:Drivers/STM32WLxx_HAL_Driver/Inc/stm32wlxx_ll_exti.h ****   *         @arg @ref LL_EXTI_LINE_17
 986:Drivers/STM32WLxx_HAL_Driver/Inc/stm32wlxx_ll_exti.h ****   *         @arg @ref LL_EXTI_LINE_21
 987:Drivers/STM32WLxx_HAL_Driver/Inc/stm32wlxx_ll_exti.h ****   *         @arg @ref LL_EXTI_LINE_22
 988:Drivers/STM32WLxx_HAL_Driver/Inc/stm32wlxx_ll_exti.h ****   * @retval None
 989:Drivers/STM32WLxx_HAL_Driver/Inc/stm32wlxx_ll_exti.h ****   */
 990:Drivers/STM32WLxx_HAL_Driver/Inc/stm32wlxx_ll_exti.h **** __STATIC_INLINE void LL_EXTI_EnableRisingTrig_0_31(uint32_t ExtiLine)
 991:Drivers/STM32WLxx_HAL_Driver/Inc/stm32wlxx_ll_exti.h **** {
 992:Drivers/STM32WLxx_HAL_Driver/Inc/stm32wlxx_ll_exti.h ****   SET_BIT(EXTI->RTSR1, ExtiLine);
 993:Drivers/STM32WLxx_HAL_Driver/Inc/stm32wlxx_ll_exti.h **** 
 994:Drivers/STM32WLxx_HAL_Driver/Inc/stm32wlxx_ll_exti.h **** }
 995:Drivers/STM32WLxx_HAL_Driver/Inc/stm32wlxx_ll_exti.h **** 
 996:Drivers/STM32WLxx_HAL_Driver/Inc/stm32wlxx_ll_exti.h **** /**
 997:Drivers/STM32WLxx_HAL_Driver/Inc/stm32wlxx_ll_exti.h ****   * @brief  Enable ExtiLine Rising Edge Trigger for Lines in range 32 to 63
 998:Drivers/STM32WLxx_HAL_Driver/Inc/stm32wlxx_ll_exti.h ****   * @note The configurable wakeup lines are edge-triggered. No glitch must be
 999:Drivers/STM32WLxx_HAL_Driver/Inc/stm32wlxx_ll_exti.h ****   *       generated on these lines. If a rising edge on a configurable interrupt
1000:Drivers/STM32WLxx_HAL_Driver/Inc/stm32wlxx_ll_exti.h ****   *       line occurs during a write operation in the EXTI_RTSR register, the
1001:Drivers/STM32WLxx_HAL_Driver/Inc/stm32wlxx_ll_exti.h ****   *       pending bit is not set.Rising and falling edge triggers can be set for
1002:Drivers/STM32WLxx_HAL_Driver/Inc/stm32wlxx_ll_exti.h ****   *       the same interrupt line. In this case, both generate a trigger
1003:Drivers/STM32WLxx_HAL_Driver/Inc/stm32wlxx_ll_exti.h ****   *       condition.
1004:Drivers/STM32WLxx_HAL_Driver/Inc/stm32wlxx_ll_exti.h ****   * @rmtoll RTSR2        RTx           LL_EXTI_EnableRisingTrig_32_63
1005:Drivers/STM32WLxx_HAL_Driver/Inc/stm32wlxx_ll_exti.h ****   * @param  ExtiLine This parameter can be a combination of the following values:
1006:Drivers/STM32WLxx_HAL_Driver/Inc/stm32wlxx_ll_exti.h ****   *         @arg @ref LL_EXTI_LINE_34
1007:Drivers/STM32WLxx_HAL_Driver/Inc/stm32wlxx_ll_exti.h ****   *         @arg @ref LL_EXTI_LINE_40
1008:Drivers/STM32WLxx_HAL_Driver/Inc/stm32wlxx_ll_exti.h ****   *         @arg @ref LL_EXTI_LINE_41
1009:Drivers/STM32WLxx_HAL_Driver/Inc/stm32wlxx_ll_exti.h ****   *         @arg @ref LL_EXTI_LINE_45
1010:Drivers/STM32WLxx_HAL_Driver/Inc/stm32wlxx_ll_exti.h ****   * @retval None
1011:Drivers/STM32WLxx_HAL_Driver/Inc/stm32wlxx_ll_exti.h ****   */
1012:Drivers/STM32WLxx_HAL_Driver/Inc/stm32wlxx_ll_exti.h **** __STATIC_INLINE void LL_EXTI_EnableRisingTrig_32_63(uint32_t ExtiLine)
ARM GAS  C:\Users\NATHAN~1\AppData\Local\Temp\ccu0I2kX.s 			page 28


1013:Drivers/STM32WLxx_HAL_Driver/Inc/stm32wlxx_ll_exti.h **** {
1014:Drivers/STM32WLxx_HAL_Driver/Inc/stm32wlxx_ll_exti.h ****   SET_BIT(EXTI->RTSR2, ExtiLine);
1015:Drivers/STM32WLxx_HAL_Driver/Inc/stm32wlxx_ll_exti.h **** }
1016:Drivers/STM32WLxx_HAL_Driver/Inc/stm32wlxx_ll_exti.h **** 
1017:Drivers/STM32WLxx_HAL_Driver/Inc/stm32wlxx_ll_exti.h **** /**
1018:Drivers/STM32WLxx_HAL_Driver/Inc/stm32wlxx_ll_exti.h ****   * @brief  Disable ExtiLine Rising Edge Trigger for Lines in range 0 to 31
1019:Drivers/STM32WLxx_HAL_Driver/Inc/stm32wlxx_ll_exti.h ****   * @note The configurable wakeup lines are edge-triggered. No glitch must be
1020:Drivers/STM32WLxx_HAL_Driver/Inc/stm32wlxx_ll_exti.h ****   *       generated on these lines. If a rising edge on a configurable interrupt
1021:Drivers/STM32WLxx_HAL_Driver/Inc/stm32wlxx_ll_exti.h ****   *       line occurs during a write operation in the EXTI_RTSR register, the
1022:Drivers/STM32WLxx_HAL_Driver/Inc/stm32wlxx_ll_exti.h ****   *       pending bit is not set.
1023:Drivers/STM32WLxx_HAL_Driver/Inc/stm32wlxx_ll_exti.h ****   *       Rising and falling edge triggers can be set for
1024:Drivers/STM32WLxx_HAL_Driver/Inc/stm32wlxx_ll_exti.h ****   *       the same interrupt line. In this case, both generate a trigger
1025:Drivers/STM32WLxx_HAL_Driver/Inc/stm32wlxx_ll_exti.h ****   *       condition.
1026:Drivers/STM32WLxx_HAL_Driver/Inc/stm32wlxx_ll_exti.h ****   * @rmtoll RTSR1        RTx           LL_EXTI_DisableRisingTrig_0_31
1027:Drivers/STM32WLxx_HAL_Driver/Inc/stm32wlxx_ll_exti.h ****   * @param  ExtiLine This parameter can be a combination of the following values:
1028:Drivers/STM32WLxx_HAL_Driver/Inc/stm32wlxx_ll_exti.h ****   *         @arg @ref LL_EXTI_LINE_0
1029:Drivers/STM32WLxx_HAL_Driver/Inc/stm32wlxx_ll_exti.h ****   *         @arg @ref LL_EXTI_LINE_1
1030:Drivers/STM32WLxx_HAL_Driver/Inc/stm32wlxx_ll_exti.h ****   *         @arg @ref LL_EXTI_LINE_2
1031:Drivers/STM32WLxx_HAL_Driver/Inc/stm32wlxx_ll_exti.h ****   *         @arg @ref LL_EXTI_LINE_3
1032:Drivers/STM32WLxx_HAL_Driver/Inc/stm32wlxx_ll_exti.h ****   *         @arg @ref LL_EXTI_LINE_4
1033:Drivers/STM32WLxx_HAL_Driver/Inc/stm32wlxx_ll_exti.h ****   *         @arg @ref LL_EXTI_LINE_5
1034:Drivers/STM32WLxx_HAL_Driver/Inc/stm32wlxx_ll_exti.h ****   *         @arg @ref LL_EXTI_LINE_6
1035:Drivers/STM32WLxx_HAL_Driver/Inc/stm32wlxx_ll_exti.h ****   *         @arg @ref LL_EXTI_LINE_7
1036:Drivers/STM32WLxx_HAL_Driver/Inc/stm32wlxx_ll_exti.h ****   *         @arg @ref LL_EXTI_LINE_8
1037:Drivers/STM32WLxx_HAL_Driver/Inc/stm32wlxx_ll_exti.h ****   *         @arg @ref LL_EXTI_LINE_9
1038:Drivers/STM32WLxx_HAL_Driver/Inc/stm32wlxx_ll_exti.h ****   *         @arg @ref LL_EXTI_LINE_10
1039:Drivers/STM32WLxx_HAL_Driver/Inc/stm32wlxx_ll_exti.h ****   *         @arg @ref LL_EXTI_LINE_11
1040:Drivers/STM32WLxx_HAL_Driver/Inc/stm32wlxx_ll_exti.h ****   *         @arg @ref LL_EXTI_LINE_12
1041:Drivers/STM32WLxx_HAL_Driver/Inc/stm32wlxx_ll_exti.h ****   *         @arg @ref LL_EXTI_LINE_13
1042:Drivers/STM32WLxx_HAL_Driver/Inc/stm32wlxx_ll_exti.h ****   *         @arg @ref LL_EXTI_LINE_14
1043:Drivers/STM32WLxx_HAL_Driver/Inc/stm32wlxx_ll_exti.h ****   *         @arg @ref LL_EXTI_LINE_15
1044:Drivers/STM32WLxx_HAL_Driver/Inc/stm32wlxx_ll_exti.h ****   *         @arg @ref LL_EXTI_LINE_16
1045:Drivers/STM32WLxx_HAL_Driver/Inc/stm32wlxx_ll_exti.h ****   *         @arg @ref LL_EXTI_LINE_17
1046:Drivers/STM32WLxx_HAL_Driver/Inc/stm32wlxx_ll_exti.h ****   *         @arg @ref LL_EXTI_LINE_21
1047:Drivers/STM32WLxx_HAL_Driver/Inc/stm32wlxx_ll_exti.h ****   *         @arg @ref LL_EXTI_LINE_22
1048:Drivers/STM32WLxx_HAL_Driver/Inc/stm32wlxx_ll_exti.h ****   * @retval None
1049:Drivers/STM32WLxx_HAL_Driver/Inc/stm32wlxx_ll_exti.h ****   */
1050:Drivers/STM32WLxx_HAL_Driver/Inc/stm32wlxx_ll_exti.h **** __STATIC_INLINE void LL_EXTI_DisableRisingTrig_0_31(uint32_t ExtiLine)
1051:Drivers/STM32WLxx_HAL_Driver/Inc/stm32wlxx_ll_exti.h **** {
1052:Drivers/STM32WLxx_HAL_Driver/Inc/stm32wlxx_ll_exti.h ****   CLEAR_BIT(EXTI->RTSR1, ExtiLine);
1053:Drivers/STM32WLxx_HAL_Driver/Inc/stm32wlxx_ll_exti.h **** 
1054:Drivers/STM32WLxx_HAL_Driver/Inc/stm32wlxx_ll_exti.h **** }
1055:Drivers/STM32WLxx_HAL_Driver/Inc/stm32wlxx_ll_exti.h **** 
1056:Drivers/STM32WLxx_HAL_Driver/Inc/stm32wlxx_ll_exti.h **** /**
1057:Drivers/STM32WLxx_HAL_Driver/Inc/stm32wlxx_ll_exti.h ****   * @brief  Disable ExtiLine Rising Edge Trigger for Lines in range 32 to 63
1058:Drivers/STM32WLxx_HAL_Driver/Inc/stm32wlxx_ll_exti.h ****   * @note The configurable wakeup lines are edge-triggered. No glitch must be
1059:Drivers/STM32WLxx_HAL_Driver/Inc/stm32wlxx_ll_exti.h ****   *       generated on these lines. If a rising edge on a configurable interrupt
1060:Drivers/STM32WLxx_HAL_Driver/Inc/stm32wlxx_ll_exti.h ****   *       line occurs during a write operation in the EXTI_RTSR register, the
1061:Drivers/STM32WLxx_HAL_Driver/Inc/stm32wlxx_ll_exti.h ****   *       pending bit is not set.
1062:Drivers/STM32WLxx_HAL_Driver/Inc/stm32wlxx_ll_exti.h ****   *       Rising and falling edge triggers can be set for
1063:Drivers/STM32WLxx_HAL_Driver/Inc/stm32wlxx_ll_exti.h ****   *       the same interrupt line. In this case, both generate a trigger
1064:Drivers/STM32WLxx_HAL_Driver/Inc/stm32wlxx_ll_exti.h ****   *       condition.
1065:Drivers/STM32WLxx_HAL_Driver/Inc/stm32wlxx_ll_exti.h ****   * @rmtoll RTSR2        RTx           LL_EXTI_DisableRisingTrig_32_63
1066:Drivers/STM32WLxx_HAL_Driver/Inc/stm32wlxx_ll_exti.h ****   * @param  ExtiLine This parameter can be a combination of the following values:
1067:Drivers/STM32WLxx_HAL_Driver/Inc/stm32wlxx_ll_exti.h ****   *         @arg @ref LL_EXTI_LINE_34
1068:Drivers/STM32WLxx_HAL_Driver/Inc/stm32wlxx_ll_exti.h ****   *         @arg @ref LL_EXTI_LINE_40
1069:Drivers/STM32WLxx_HAL_Driver/Inc/stm32wlxx_ll_exti.h ****   *         @arg @ref LL_EXTI_LINE_41
ARM GAS  C:\Users\NATHAN~1\AppData\Local\Temp\ccu0I2kX.s 			page 29


1070:Drivers/STM32WLxx_HAL_Driver/Inc/stm32wlxx_ll_exti.h ****   *         @arg @ref LL_EXTI_LINE_45
1071:Drivers/STM32WLxx_HAL_Driver/Inc/stm32wlxx_ll_exti.h ****   * @retval None
1072:Drivers/STM32WLxx_HAL_Driver/Inc/stm32wlxx_ll_exti.h ****   */
1073:Drivers/STM32WLxx_HAL_Driver/Inc/stm32wlxx_ll_exti.h **** __STATIC_INLINE void LL_EXTI_DisableRisingTrig_32_63(uint32_t ExtiLine)
1074:Drivers/STM32WLxx_HAL_Driver/Inc/stm32wlxx_ll_exti.h **** {
1075:Drivers/STM32WLxx_HAL_Driver/Inc/stm32wlxx_ll_exti.h ****   CLEAR_BIT(EXTI->RTSR2, ExtiLine);
1076:Drivers/STM32WLxx_HAL_Driver/Inc/stm32wlxx_ll_exti.h **** }
1077:Drivers/STM32WLxx_HAL_Driver/Inc/stm32wlxx_ll_exti.h **** 
1078:Drivers/STM32WLxx_HAL_Driver/Inc/stm32wlxx_ll_exti.h **** /**
1079:Drivers/STM32WLxx_HAL_Driver/Inc/stm32wlxx_ll_exti.h ****   * @brief  Check if rising edge trigger is enabled for Lines in range 0 to 31
1080:Drivers/STM32WLxx_HAL_Driver/Inc/stm32wlxx_ll_exti.h ****   * @rmtoll RTSR1        RTx           LL_EXTI_IsEnabledRisingTrig_0_31
1081:Drivers/STM32WLxx_HAL_Driver/Inc/stm32wlxx_ll_exti.h ****   * @param  ExtiLine This parameter can be a combination of the following values:
1082:Drivers/STM32WLxx_HAL_Driver/Inc/stm32wlxx_ll_exti.h ****   *         @arg @ref LL_EXTI_LINE_0
1083:Drivers/STM32WLxx_HAL_Driver/Inc/stm32wlxx_ll_exti.h ****   *         @arg @ref LL_EXTI_LINE_1
1084:Drivers/STM32WLxx_HAL_Driver/Inc/stm32wlxx_ll_exti.h ****   *         @arg @ref LL_EXTI_LINE_2
1085:Drivers/STM32WLxx_HAL_Driver/Inc/stm32wlxx_ll_exti.h ****   *         @arg @ref LL_EXTI_LINE_3
1086:Drivers/STM32WLxx_HAL_Driver/Inc/stm32wlxx_ll_exti.h ****   *         @arg @ref LL_EXTI_LINE_4
1087:Drivers/STM32WLxx_HAL_Driver/Inc/stm32wlxx_ll_exti.h ****   *         @arg @ref LL_EXTI_LINE_5
1088:Drivers/STM32WLxx_HAL_Driver/Inc/stm32wlxx_ll_exti.h ****   *         @arg @ref LL_EXTI_LINE_6
1089:Drivers/STM32WLxx_HAL_Driver/Inc/stm32wlxx_ll_exti.h ****   *         @arg @ref LL_EXTI_LINE_7
1090:Drivers/STM32WLxx_HAL_Driver/Inc/stm32wlxx_ll_exti.h ****   *         @arg @ref LL_EXTI_LINE_8
1091:Drivers/STM32WLxx_HAL_Driver/Inc/stm32wlxx_ll_exti.h ****   *         @arg @ref LL_EXTI_LINE_9
1092:Drivers/STM32WLxx_HAL_Driver/Inc/stm32wlxx_ll_exti.h ****   *         @arg @ref LL_EXTI_LINE_10
1093:Drivers/STM32WLxx_HAL_Driver/Inc/stm32wlxx_ll_exti.h ****   *         @arg @ref LL_EXTI_LINE_11
1094:Drivers/STM32WLxx_HAL_Driver/Inc/stm32wlxx_ll_exti.h ****   *         @arg @ref LL_EXTI_LINE_12
1095:Drivers/STM32WLxx_HAL_Driver/Inc/stm32wlxx_ll_exti.h ****   *         @arg @ref LL_EXTI_LINE_13
1096:Drivers/STM32WLxx_HAL_Driver/Inc/stm32wlxx_ll_exti.h ****   *         @arg @ref LL_EXTI_LINE_14
1097:Drivers/STM32WLxx_HAL_Driver/Inc/stm32wlxx_ll_exti.h ****   *         @arg @ref LL_EXTI_LINE_15
1098:Drivers/STM32WLxx_HAL_Driver/Inc/stm32wlxx_ll_exti.h ****   *         @arg @ref LL_EXTI_LINE_16
1099:Drivers/STM32WLxx_HAL_Driver/Inc/stm32wlxx_ll_exti.h ****   *         @arg @ref LL_EXTI_LINE_17
1100:Drivers/STM32WLxx_HAL_Driver/Inc/stm32wlxx_ll_exti.h ****   *         @arg @ref LL_EXTI_LINE_21
1101:Drivers/STM32WLxx_HAL_Driver/Inc/stm32wlxx_ll_exti.h ****   *         @arg @ref LL_EXTI_LINE_22
1102:Drivers/STM32WLxx_HAL_Driver/Inc/stm32wlxx_ll_exti.h ****   * @retval State of bit (1 or 0).
1103:Drivers/STM32WLxx_HAL_Driver/Inc/stm32wlxx_ll_exti.h ****   */
1104:Drivers/STM32WLxx_HAL_Driver/Inc/stm32wlxx_ll_exti.h **** __STATIC_INLINE uint32_t LL_EXTI_IsEnabledRisingTrig_0_31(uint32_t ExtiLine)
1105:Drivers/STM32WLxx_HAL_Driver/Inc/stm32wlxx_ll_exti.h **** {
1106:Drivers/STM32WLxx_HAL_Driver/Inc/stm32wlxx_ll_exti.h ****   return ((READ_BIT(EXTI->RTSR1, ExtiLine) == (ExtiLine)) ? 1UL : 0UL);
1107:Drivers/STM32WLxx_HAL_Driver/Inc/stm32wlxx_ll_exti.h **** }
1108:Drivers/STM32WLxx_HAL_Driver/Inc/stm32wlxx_ll_exti.h **** 
1109:Drivers/STM32WLxx_HAL_Driver/Inc/stm32wlxx_ll_exti.h **** /**
1110:Drivers/STM32WLxx_HAL_Driver/Inc/stm32wlxx_ll_exti.h ****   * @brief  Check if rising edge trigger is enabled for Lines in range 32 to 63
1111:Drivers/STM32WLxx_HAL_Driver/Inc/stm32wlxx_ll_exti.h ****   * @rmtoll RTSR2        RTx           LL_EXTI_IsEnabledRisingTrig_32_63
1112:Drivers/STM32WLxx_HAL_Driver/Inc/stm32wlxx_ll_exti.h ****   * @param  ExtiLine This parameter can be a combination of the following values:
1113:Drivers/STM32WLxx_HAL_Driver/Inc/stm32wlxx_ll_exti.h ****   *         @arg @ref LL_EXTI_LINE_34
1114:Drivers/STM32WLxx_HAL_Driver/Inc/stm32wlxx_ll_exti.h ****   *         @arg @ref LL_EXTI_LINE_40
1115:Drivers/STM32WLxx_HAL_Driver/Inc/stm32wlxx_ll_exti.h ****   *         @arg @ref LL_EXTI_LINE_41
1116:Drivers/STM32WLxx_HAL_Driver/Inc/stm32wlxx_ll_exti.h ****   *         @arg @ref LL_EXTI_LINE_45
1117:Drivers/STM32WLxx_HAL_Driver/Inc/stm32wlxx_ll_exti.h ****   * @retval State of bit (1 or 0).
1118:Drivers/STM32WLxx_HAL_Driver/Inc/stm32wlxx_ll_exti.h ****   */
1119:Drivers/STM32WLxx_HAL_Driver/Inc/stm32wlxx_ll_exti.h **** __STATIC_INLINE uint32_t LL_EXTI_IsEnabledRisingTrig_32_63(uint32_t ExtiLine)
1120:Drivers/STM32WLxx_HAL_Driver/Inc/stm32wlxx_ll_exti.h **** {
1121:Drivers/STM32WLxx_HAL_Driver/Inc/stm32wlxx_ll_exti.h ****   return ((READ_BIT(EXTI->RTSR2, ExtiLine) == (ExtiLine)) ? 1UL : 0UL);
1122:Drivers/STM32WLxx_HAL_Driver/Inc/stm32wlxx_ll_exti.h **** }
1123:Drivers/STM32WLxx_HAL_Driver/Inc/stm32wlxx_ll_exti.h **** 
1124:Drivers/STM32WLxx_HAL_Driver/Inc/stm32wlxx_ll_exti.h **** /**
1125:Drivers/STM32WLxx_HAL_Driver/Inc/stm32wlxx_ll_exti.h ****   * @}
1126:Drivers/STM32WLxx_HAL_Driver/Inc/stm32wlxx_ll_exti.h ****   */
ARM GAS  C:\Users\NATHAN~1\AppData\Local\Temp\ccu0I2kX.s 			page 30


1127:Drivers/STM32WLxx_HAL_Driver/Inc/stm32wlxx_ll_exti.h **** 
1128:Drivers/STM32WLxx_HAL_Driver/Inc/stm32wlxx_ll_exti.h **** /** @defgroup EXTI_LL_EF_Falling_Trigger_Management Falling_Trigger_Management
1129:Drivers/STM32WLxx_HAL_Driver/Inc/stm32wlxx_ll_exti.h ****   * @{
1130:Drivers/STM32WLxx_HAL_Driver/Inc/stm32wlxx_ll_exti.h ****   */
1131:Drivers/STM32WLxx_HAL_Driver/Inc/stm32wlxx_ll_exti.h **** 
1132:Drivers/STM32WLxx_HAL_Driver/Inc/stm32wlxx_ll_exti.h **** /**
1133:Drivers/STM32WLxx_HAL_Driver/Inc/stm32wlxx_ll_exti.h ****   * @brief  Enable ExtiLine Falling Edge Trigger for Lines in range 0 to 31
1134:Drivers/STM32WLxx_HAL_Driver/Inc/stm32wlxx_ll_exti.h ****   * @note The configurable wakeup lines are edge-triggered. No glitch must be
1135:Drivers/STM32WLxx_HAL_Driver/Inc/stm32wlxx_ll_exti.h ****   *       generated on these lines. If a falling edge on a configurable interrupt
1136:Drivers/STM32WLxx_HAL_Driver/Inc/stm32wlxx_ll_exti.h ****   *       line occurs during a write operation in the EXTI_FTSR register, the
1137:Drivers/STM32WLxx_HAL_Driver/Inc/stm32wlxx_ll_exti.h ****   *       pending bit is not set.
1138:Drivers/STM32WLxx_HAL_Driver/Inc/stm32wlxx_ll_exti.h ****   *       Rising and falling edge triggers can be set for
1139:Drivers/STM32WLxx_HAL_Driver/Inc/stm32wlxx_ll_exti.h ****   *       the same interrupt line. In this case, both generate a trigger
1140:Drivers/STM32WLxx_HAL_Driver/Inc/stm32wlxx_ll_exti.h ****   *       condition.
1141:Drivers/STM32WLxx_HAL_Driver/Inc/stm32wlxx_ll_exti.h ****   * @rmtoll FTSR1        FTx           LL_EXTI_EnableFallingTrig_0_31
1142:Drivers/STM32WLxx_HAL_Driver/Inc/stm32wlxx_ll_exti.h ****   * @param  ExtiLine This parameter can be a combination of the following values:
1143:Drivers/STM32WLxx_HAL_Driver/Inc/stm32wlxx_ll_exti.h ****   *         @arg @ref LL_EXTI_LINE_0
1144:Drivers/STM32WLxx_HAL_Driver/Inc/stm32wlxx_ll_exti.h ****   *         @arg @ref LL_EXTI_LINE_1
1145:Drivers/STM32WLxx_HAL_Driver/Inc/stm32wlxx_ll_exti.h ****   *         @arg @ref LL_EXTI_LINE_2
1146:Drivers/STM32WLxx_HAL_Driver/Inc/stm32wlxx_ll_exti.h ****   *         @arg @ref LL_EXTI_LINE_3
1147:Drivers/STM32WLxx_HAL_Driver/Inc/stm32wlxx_ll_exti.h ****   *         @arg @ref LL_EXTI_LINE_4
1148:Drivers/STM32WLxx_HAL_Driver/Inc/stm32wlxx_ll_exti.h ****   *         @arg @ref LL_EXTI_LINE_5
1149:Drivers/STM32WLxx_HAL_Driver/Inc/stm32wlxx_ll_exti.h ****   *         @arg @ref LL_EXTI_LINE_6
1150:Drivers/STM32WLxx_HAL_Driver/Inc/stm32wlxx_ll_exti.h ****   *         @arg @ref LL_EXTI_LINE_7
1151:Drivers/STM32WLxx_HAL_Driver/Inc/stm32wlxx_ll_exti.h ****   *         @arg @ref LL_EXTI_LINE_8
1152:Drivers/STM32WLxx_HAL_Driver/Inc/stm32wlxx_ll_exti.h ****   *         @arg @ref LL_EXTI_LINE_9
1153:Drivers/STM32WLxx_HAL_Driver/Inc/stm32wlxx_ll_exti.h ****   *         @arg @ref LL_EXTI_LINE_10
1154:Drivers/STM32WLxx_HAL_Driver/Inc/stm32wlxx_ll_exti.h ****   *         @arg @ref LL_EXTI_LINE_11
1155:Drivers/STM32WLxx_HAL_Driver/Inc/stm32wlxx_ll_exti.h ****   *         @arg @ref LL_EXTI_LINE_12
1156:Drivers/STM32WLxx_HAL_Driver/Inc/stm32wlxx_ll_exti.h ****   *         @arg @ref LL_EXTI_LINE_13
1157:Drivers/STM32WLxx_HAL_Driver/Inc/stm32wlxx_ll_exti.h ****   *         @arg @ref LL_EXTI_LINE_14
1158:Drivers/STM32WLxx_HAL_Driver/Inc/stm32wlxx_ll_exti.h ****   *         @arg @ref LL_EXTI_LINE_15
1159:Drivers/STM32WLxx_HAL_Driver/Inc/stm32wlxx_ll_exti.h ****   *         @arg @ref LL_EXTI_LINE_16
1160:Drivers/STM32WLxx_HAL_Driver/Inc/stm32wlxx_ll_exti.h ****   *         @arg @ref LL_EXTI_LINE_17
1161:Drivers/STM32WLxx_HAL_Driver/Inc/stm32wlxx_ll_exti.h ****   *         @arg @ref LL_EXTI_LINE_21
1162:Drivers/STM32WLxx_HAL_Driver/Inc/stm32wlxx_ll_exti.h ****   *         @arg @ref LL_EXTI_LINE_22
1163:Drivers/STM32WLxx_HAL_Driver/Inc/stm32wlxx_ll_exti.h ****   * @retval None
1164:Drivers/STM32WLxx_HAL_Driver/Inc/stm32wlxx_ll_exti.h ****   */
1165:Drivers/STM32WLxx_HAL_Driver/Inc/stm32wlxx_ll_exti.h **** __STATIC_INLINE void LL_EXTI_EnableFallingTrig_0_31(uint32_t ExtiLine)
1166:Drivers/STM32WLxx_HAL_Driver/Inc/stm32wlxx_ll_exti.h **** {
1167:Drivers/STM32WLxx_HAL_Driver/Inc/stm32wlxx_ll_exti.h ****   SET_BIT(EXTI->FTSR1, ExtiLine);
1168:Drivers/STM32WLxx_HAL_Driver/Inc/stm32wlxx_ll_exti.h **** }
1169:Drivers/STM32WLxx_HAL_Driver/Inc/stm32wlxx_ll_exti.h **** 
1170:Drivers/STM32WLxx_HAL_Driver/Inc/stm32wlxx_ll_exti.h **** /**
1171:Drivers/STM32WLxx_HAL_Driver/Inc/stm32wlxx_ll_exti.h ****   * @brief  Enable ExtiLine Falling Edge Trigger for Lines in range 32 to 63
1172:Drivers/STM32WLxx_HAL_Driver/Inc/stm32wlxx_ll_exti.h ****   * @note The configurable wakeup lines are edge-triggered. No glitch must be
1173:Drivers/STM32WLxx_HAL_Driver/Inc/stm32wlxx_ll_exti.h ****   *       generated on these lines. If a Falling edge on a configurable interrupt
1174:Drivers/STM32WLxx_HAL_Driver/Inc/stm32wlxx_ll_exti.h ****   *       line occurs during a write operation in the EXTI_FTSR register, the
1175:Drivers/STM32WLxx_HAL_Driver/Inc/stm32wlxx_ll_exti.h ****   *       pending bit is not set.
1176:Drivers/STM32WLxx_HAL_Driver/Inc/stm32wlxx_ll_exti.h ****   *       Rising and falling edge triggers can be set for
1177:Drivers/STM32WLxx_HAL_Driver/Inc/stm32wlxx_ll_exti.h ****   *       the same interrupt line. In this case, both generate a trigger
1178:Drivers/STM32WLxx_HAL_Driver/Inc/stm32wlxx_ll_exti.h ****   *       condition.
1179:Drivers/STM32WLxx_HAL_Driver/Inc/stm32wlxx_ll_exti.h ****   * @rmtoll FTSR2        FTx           LL_EXTI_EnableFallingTrig_32_63
1180:Drivers/STM32WLxx_HAL_Driver/Inc/stm32wlxx_ll_exti.h ****   * @param  ExtiLine This parameter can be a combination of the following values:
1181:Drivers/STM32WLxx_HAL_Driver/Inc/stm32wlxx_ll_exti.h ****   *         @arg @ref LL_EXTI_LINE_34
1182:Drivers/STM32WLxx_HAL_Driver/Inc/stm32wlxx_ll_exti.h ****   *         @arg @ref LL_EXTI_LINE_40
1183:Drivers/STM32WLxx_HAL_Driver/Inc/stm32wlxx_ll_exti.h ****   *         @arg @ref LL_EXTI_LINE_41
ARM GAS  C:\Users\NATHAN~1\AppData\Local\Temp\ccu0I2kX.s 			page 31


1184:Drivers/STM32WLxx_HAL_Driver/Inc/stm32wlxx_ll_exti.h ****   *         @arg @ref LL_EXTI_LINE_45
1185:Drivers/STM32WLxx_HAL_Driver/Inc/stm32wlxx_ll_exti.h ****   * @retval None
1186:Drivers/STM32WLxx_HAL_Driver/Inc/stm32wlxx_ll_exti.h ****   */
1187:Drivers/STM32WLxx_HAL_Driver/Inc/stm32wlxx_ll_exti.h **** __STATIC_INLINE void LL_EXTI_EnableFallingTrig_32_63(uint32_t ExtiLine)
1188:Drivers/STM32WLxx_HAL_Driver/Inc/stm32wlxx_ll_exti.h **** {
1189:Drivers/STM32WLxx_HAL_Driver/Inc/stm32wlxx_ll_exti.h ****   SET_BIT(EXTI->FTSR2, ExtiLine);
1190:Drivers/STM32WLxx_HAL_Driver/Inc/stm32wlxx_ll_exti.h **** }
1191:Drivers/STM32WLxx_HAL_Driver/Inc/stm32wlxx_ll_exti.h **** 
1192:Drivers/STM32WLxx_HAL_Driver/Inc/stm32wlxx_ll_exti.h **** /**
1193:Drivers/STM32WLxx_HAL_Driver/Inc/stm32wlxx_ll_exti.h ****   * @brief  Disable ExtiLine Falling Edge Trigger for Lines in range 0 to 31
1194:Drivers/STM32WLxx_HAL_Driver/Inc/stm32wlxx_ll_exti.h ****   * @note The configurable wakeup lines are edge-triggered. No glitch must be
1195:Drivers/STM32WLxx_HAL_Driver/Inc/stm32wlxx_ll_exti.h ****   *       generated on these lines. If a Falling edge on a configurable interrupt
1196:Drivers/STM32WLxx_HAL_Driver/Inc/stm32wlxx_ll_exti.h ****   *       line occurs during a write operation in the EXTI_FTSR register, the
1197:Drivers/STM32WLxx_HAL_Driver/Inc/stm32wlxx_ll_exti.h ****   *       pending bit is not set.
1198:Drivers/STM32WLxx_HAL_Driver/Inc/stm32wlxx_ll_exti.h ****   *       Rising and falling edge triggers can be set for the same interrupt line.
1199:Drivers/STM32WLxx_HAL_Driver/Inc/stm32wlxx_ll_exti.h ****   *       In this case, both generate a trigger condition.
1200:Drivers/STM32WLxx_HAL_Driver/Inc/stm32wlxx_ll_exti.h ****   * @rmtoll FTSR1        FTx           LL_EXTI_DisableFallingTrig_0_31
1201:Drivers/STM32WLxx_HAL_Driver/Inc/stm32wlxx_ll_exti.h ****   * @param  ExtiLine This parameter can be a combination of the following values:
1202:Drivers/STM32WLxx_HAL_Driver/Inc/stm32wlxx_ll_exti.h ****   *         @arg @ref LL_EXTI_LINE_0
1203:Drivers/STM32WLxx_HAL_Driver/Inc/stm32wlxx_ll_exti.h ****   *         @arg @ref LL_EXTI_LINE_1
1204:Drivers/STM32WLxx_HAL_Driver/Inc/stm32wlxx_ll_exti.h ****   *         @arg @ref LL_EXTI_LINE_2
1205:Drivers/STM32WLxx_HAL_Driver/Inc/stm32wlxx_ll_exti.h ****   *         @arg @ref LL_EXTI_LINE_3
1206:Drivers/STM32WLxx_HAL_Driver/Inc/stm32wlxx_ll_exti.h ****   *         @arg @ref LL_EXTI_LINE_4
1207:Drivers/STM32WLxx_HAL_Driver/Inc/stm32wlxx_ll_exti.h ****   *         @arg @ref LL_EXTI_LINE_5
1208:Drivers/STM32WLxx_HAL_Driver/Inc/stm32wlxx_ll_exti.h ****   *         @arg @ref LL_EXTI_LINE_6
1209:Drivers/STM32WLxx_HAL_Driver/Inc/stm32wlxx_ll_exti.h ****   *         @arg @ref LL_EXTI_LINE_7
1210:Drivers/STM32WLxx_HAL_Driver/Inc/stm32wlxx_ll_exti.h ****   *         @arg @ref LL_EXTI_LINE_8
1211:Drivers/STM32WLxx_HAL_Driver/Inc/stm32wlxx_ll_exti.h ****   *         @arg @ref LL_EXTI_LINE_9
1212:Drivers/STM32WLxx_HAL_Driver/Inc/stm32wlxx_ll_exti.h ****   *         @arg @ref LL_EXTI_LINE_10
1213:Drivers/STM32WLxx_HAL_Driver/Inc/stm32wlxx_ll_exti.h ****   *         @arg @ref LL_EXTI_LINE_11
1214:Drivers/STM32WLxx_HAL_Driver/Inc/stm32wlxx_ll_exti.h ****   *         @arg @ref LL_EXTI_LINE_12
1215:Drivers/STM32WLxx_HAL_Driver/Inc/stm32wlxx_ll_exti.h ****   *         @arg @ref LL_EXTI_LINE_13
1216:Drivers/STM32WLxx_HAL_Driver/Inc/stm32wlxx_ll_exti.h ****   *         @arg @ref LL_EXTI_LINE_14
1217:Drivers/STM32WLxx_HAL_Driver/Inc/stm32wlxx_ll_exti.h ****   *         @arg @ref LL_EXTI_LINE_15
1218:Drivers/STM32WLxx_HAL_Driver/Inc/stm32wlxx_ll_exti.h ****   *         @arg @ref LL_EXTI_LINE_16
1219:Drivers/STM32WLxx_HAL_Driver/Inc/stm32wlxx_ll_exti.h ****   *         @arg @ref LL_EXTI_LINE_17
1220:Drivers/STM32WLxx_HAL_Driver/Inc/stm32wlxx_ll_exti.h ****   *         @arg @ref LL_EXTI_LINE_21
1221:Drivers/STM32WLxx_HAL_Driver/Inc/stm32wlxx_ll_exti.h ****   *         @arg @ref LL_EXTI_LINE_22
1222:Drivers/STM32WLxx_HAL_Driver/Inc/stm32wlxx_ll_exti.h ****   * @retval None
1223:Drivers/STM32WLxx_HAL_Driver/Inc/stm32wlxx_ll_exti.h ****   */
1224:Drivers/STM32WLxx_HAL_Driver/Inc/stm32wlxx_ll_exti.h **** __STATIC_INLINE void LL_EXTI_DisableFallingTrig_0_31(uint32_t ExtiLine)
 176              		.loc 2 1224 22 view .LVU32
 177              	.LBB17:
1225:Drivers/STM32WLxx_HAL_Driver/Inc/stm32wlxx_ll_exti.h **** {
1226:Drivers/STM32WLxx_HAL_Driver/Inc/stm32wlxx_ll_exti.h ****   CLEAR_BIT(EXTI->FTSR1, ExtiLine);
 178              		.loc 2 1226 3 view .LVU33
 179 001c 5A68     		ldr	r2, [r3, #4]
 180 001e 22F48032 		bic	r2, r2, #65536
 181 0022 5A60     		str	r2, [r3, #4]
 182              	.LVL3:
 183              		.loc 2 1226 3 is_stmt 0 view .LVU34
 184              	.LBE17:
 185              	.LBE16:
 360:Drivers/STM32WLxx_HAL_Driver/Src/stm32wlxx_hal_pwr.c ****   __HAL_PWR_PVD_EXTI_DISABLE_FALLING_EDGE();
 186              		.loc 1 360 3 is_stmt 1 view .LVU35
 187              	.LBB18:
 188              	.LBI18:
ARM GAS  C:\Users\NATHAN~1\AppData\Local\Temp\ccu0I2kX.s 			page 32


1050:Drivers/STM32WLxx_HAL_Driver/Inc/stm32wlxx_ll_exti.h **** {
 189              		.loc 2 1050 22 view .LVU36
 190              	.LBB19:
1052:Drivers/STM32WLxx_HAL_Driver/Inc/stm32wlxx_ll_exti.h **** 
 191              		.loc 2 1052 3 view .LVU37
 192 0024 1A68     		ldr	r2, [r3]
 193 0026 22F48032 		bic	r2, r2, #65536
 194 002a 1A60     		str	r2, [r3]
 195              	.LVL4:
1052:Drivers/STM32WLxx_HAL_Driver/Inc/stm32wlxx_ll_exti.h **** 
 196              		.loc 2 1052 3 is_stmt 0 view .LVU38
 197              	.LBE19:
 198              	.LBE18:
 361:Drivers/STM32WLxx_HAL_Driver/Src/stm32wlxx_hal_pwr.c **** 
 362:Drivers/STM32WLxx_HAL_Driver/Src/stm32wlxx_hal_pwr.c ****   /* Configure interrupt mode */
 363:Drivers/STM32WLxx_HAL_Driver/Src/stm32wlxx_hal_pwr.c ****   if ((sConfigPVD->Mode & PVD_MODE_IT) == PVD_MODE_IT)
 199              		.loc 1 363 3 is_stmt 1 view .LVU39
 200              		.loc 1 363 18 is_stmt 0 view .LVU40
 201 002c 4368     		ldr	r3, [r0, #4]
 202              		.loc 1 363 6 view .LVU41
 203 002e 13F4803F 		tst	r3, #65536
 204 0032 06D0     		beq	.L11
 364:Drivers/STM32WLxx_HAL_Driver/Src/stm32wlxx_hal_pwr.c ****   {
 365:Drivers/STM32WLxx_HAL_Driver/Src/stm32wlxx_hal_pwr.c ****     __HAL_PWR_PVD_EXTI_ENABLE_IT();
 205              		.loc 1 365 5 is_stmt 1 view .LVU42
 206              	.LVL5:
 207              	.LBB20:
 208              	.LBI20:
 266:Drivers/STM32WLxx_HAL_Driver/Inc/stm32wlxx_ll_exti.h **** {
 209              		.loc 2 266 22 view .LVU43
 210              	.LBB21:
 268:Drivers/STM32WLxx_HAL_Driver/Inc/stm32wlxx_ll_exti.h **** }
 211              		.loc 2 268 3 view .LVU44
 212 0034 0E4A     		ldr	r2, .L14+4
 213 0036 D2F88030 		ldr	r3, [r2, #128]
 214 003a 43F48033 		orr	r3, r3, #65536
 215 003e C2F88030 		str	r3, [r2, #128]
 216              	.LVL6:
 217              	.L11:
 268:Drivers/STM32WLxx_HAL_Driver/Inc/stm32wlxx_ll_exti.h **** }
 218              		.loc 2 268 3 is_stmt 0 view .LVU45
 219              	.LBE21:
 220              	.LBE20:
 366:Drivers/STM32WLxx_HAL_Driver/Src/stm32wlxx_hal_pwr.c ****   }
 367:Drivers/STM32WLxx_HAL_Driver/Src/stm32wlxx_hal_pwr.c **** 
 368:Drivers/STM32WLxx_HAL_Driver/Src/stm32wlxx_hal_pwr.c ****   /* Configure the edge */
 369:Drivers/STM32WLxx_HAL_Driver/Src/stm32wlxx_hal_pwr.c ****   if ((sConfigPVD->Mode & PVD_RISING_EDGE) == PVD_RISING_EDGE)
 221              		.loc 1 369 3 is_stmt 1 view .LVU46
 222              		.loc 1 369 18 is_stmt 0 view .LVU47
 223 0042 4368     		ldr	r3, [r0, #4]
 224              		.loc 1 369 6 view .LVU48
 225 0044 13F0010F 		tst	r3, #1
 226 0048 04D0     		beq	.L12
 370:Drivers/STM32WLxx_HAL_Driver/Src/stm32wlxx_hal_pwr.c ****   {
 371:Drivers/STM32WLxx_HAL_Driver/Src/stm32wlxx_hal_pwr.c ****     __HAL_PWR_PVD_EXTI_ENABLE_RISING_EDGE();
 227              		.loc 1 371 5 is_stmt 1 view .LVU49
 228              	.LVL7:
ARM GAS  C:\Users\NATHAN~1\AppData\Local\Temp\ccu0I2kX.s 			page 33


 229              	.LBB22:
 230              	.LBI22:
1165:Drivers/STM32WLxx_HAL_Driver/Inc/stm32wlxx_ll_exti.h **** {
 231              		.loc 2 1165 22 view .LVU50
 232              	.LBB23:
1167:Drivers/STM32WLxx_HAL_Driver/Inc/stm32wlxx_ll_exti.h **** }
 233              		.loc 2 1167 3 view .LVU51
 234 004a 094A     		ldr	r2, .L14+4
 235 004c 5368     		ldr	r3, [r2, #4]
 236 004e 43F48033 		orr	r3, r3, #65536
 237 0052 5360     		str	r3, [r2, #4]
 238              	.LVL8:
 239              	.L12:
1167:Drivers/STM32WLxx_HAL_Driver/Inc/stm32wlxx_ll_exti.h **** }
 240              		.loc 2 1167 3 is_stmt 0 view .LVU52
 241              	.LBE23:
 242              	.LBE22:
 372:Drivers/STM32WLxx_HAL_Driver/Src/stm32wlxx_hal_pwr.c ****   }
 373:Drivers/STM32WLxx_HAL_Driver/Src/stm32wlxx_hal_pwr.c **** 
 374:Drivers/STM32WLxx_HAL_Driver/Src/stm32wlxx_hal_pwr.c ****   if ((sConfigPVD->Mode & PVD_FALLING_EDGE) == PVD_FALLING_EDGE)
 243              		.loc 1 374 3 is_stmt 1 view .LVU53
 244              		.loc 1 374 18 is_stmt 0 view .LVU54
 245 0054 4368     		ldr	r3, [r0, #4]
 246              		.loc 1 374 6 view .LVU55
 247 0056 13F0020F 		tst	r3, #2
 248 005a 04D0     		beq	.L13
 375:Drivers/STM32WLxx_HAL_Driver/Src/stm32wlxx_hal_pwr.c ****   {
 376:Drivers/STM32WLxx_HAL_Driver/Src/stm32wlxx_hal_pwr.c ****     __HAL_PWR_PVD_EXTI_ENABLE_FALLING_EDGE();
 249              		.loc 1 376 5 is_stmt 1 view .LVU56
 250              	.LVL9:
 251              	.LBB24:
 252              	.LBI24:
 990:Drivers/STM32WLxx_HAL_Driver/Inc/stm32wlxx_ll_exti.h **** {
 253              		.loc 2 990 22 view .LVU57
 254              	.LBB25:
 992:Drivers/STM32WLxx_HAL_Driver/Inc/stm32wlxx_ll_exti.h **** 
 255              		.loc 2 992 3 view .LVU58
 256 005c 044A     		ldr	r2, .L14+4
 257 005e 1368     		ldr	r3, [r2]
 258 0060 43F48033 		orr	r3, r3, #65536
 259 0064 1360     		str	r3, [r2]
 260              	.LVL10:
 261              	.L13:
 992:Drivers/STM32WLxx_HAL_Driver/Inc/stm32wlxx_ll_exti.h **** 
 262              		.loc 2 992 3 is_stmt 0 view .LVU59
 263              	.LBE25:
 264              	.LBE24:
 377:Drivers/STM32WLxx_HAL_Driver/Src/stm32wlxx_hal_pwr.c ****   }
 378:Drivers/STM32WLxx_HAL_Driver/Src/stm32wlxx_hal_pwr.c **** 
 379:Drivers/STM32WLxx_HAL_Driver/Src/stm32wlxx_hal_pwr.c ****   return HAL_OK;
 265              		.loc 1 379 3 is_stmt 1 view .LVU60
 380:Drivers/STM32WLxx_HAL_Driver/Src/stm32wlxx_hal_pwr.c **** }
 266              		.loc 1 380 1 is_stmt 0 view .LVU61
 267 0066 0020     		movs	r0, #0
 268              	.LVL11:
 269              		.loc 1 380 1 view .LVU62
 270 0068 7047     		bx	lr
ARM GAS  C:\Users\NATHAN~1\AppData\Local\Temp\ccu0I2kX.s 			page 34


 271              	.L15:
 272 006a 00BF     		.align	2
 273              	.L14:
 274 006c 00040058 		.word	1476396032
 275 0070 00080058 		.word	1476397056
 276              		.cfi_endproc
 277              	.LFE971:
 279              		.section	.text.HAL_PWR_EnablePVD,"ax",%progbits
 280              		.align	1
 281              		.global	HAL_PWR_EnablePVD
 282              		.syntax unified
 283              		.thumb
 284              		.thumb_func
 286              	HAL_PWR_EnablePVD:
 287              	.LFB972:
 381:Drivers/STM32WLxx_HAL_Driver/Src/stm32wlxx_hal_pwr.c **** 
 382:Drivers/STM32WLxx_HAL_Driver/Src/stm32wlxx_hal_pwr.c **** /**
 383:Drivers/STM32WLxx_HAL_Driver/Src/stm32wlxx_hal_pwr.c ****   * @brief Enable the Power Voltage Detector(PVD).
 384:Drivers/STM32WLxx_HAL_Driver/Src/stm32wlxx_hal_pwr.c ****   * @retval None
 385:Drivers/STM32WLxx_HAL_Driver/Src/stm32wlxx_hal_pwr.c ****   */
 386:Drivers/STM32WLxx_HAL_Driver/Src/stm32wlxx_hal_pwr.c **** void HAL_PWR_EnablePVD(void)
 387:Drivers/STM32WLxx_HAL_Driver/Src/stm32wlxx_hal_pwr.c **** {
 288              		.loc 1 387 1 is_stmt 1 view -0
 289              		.cfi_startproc
 290              		@ args = 0, pretend = 0, frame = 0
 291              		@ frame_needed = 0, uses_anonymous_args = 0
 292              		@ link register save eliminated.
 388:Drivers/STM32WLxx_HAL_Driver/Src/stm32wlxx_hal_pwr.c ****   /* Enable the power voltage detector */
 389:Drivers/STM32WLxx_HAL_Driver/Src/stm32wlxx_hal_pwr.c ****   SET_BIT(PWR->CR2, PWR_CR2_PVDE);
 293              		.loc 1 389 3 view .LVU64
 294 0000 024A     		ldr	r2, .L17
 295 0002 5368     		ldr	r3, [r2, #4]
 296 0004 43F00103 		orr	r3, r3, #1
 297 0008 5360     		str	r3, [r2, #4]
 390:Drivers/STM32WLxx_HAL_Driver/Src/stm32wlxx_hal_pwr.c **** }
 298              		.loc 1 390 1 is_stmt 0 view .LVU65
 299 000a 7047     		bx	lr
 300              	.L18:
 301              		.align	2
 302              	.L17:
 303 000c 00040058 		.word	1476396032
 304              		.cfi_endproc
 305              	.LFE972:
 307              		.section	.text.HAL_PWR_DisablePVD,"ax",%progbits
 308              		.align	1
 309              		.global	HAL_PWR_DisablePVD
 310              		.syntax unified
 311              		.thumb
 312              		.thumb_func
 314              	HAL_PWR_DisablePVD:
 315              	.LFB973:
 391:Drivers/STM32WLxx_HAL_Driver/Src/stm32wlxx_hal_pwr.c **** 
 392:Drivers/STM32WLxx_HAL_Driver/Src/stm32wlxx_hal_pwr.c **** /**
 393:Drivers/STM32WLxx_HAL_Driver/Src/stm32wlxx_hal_pwr.c ****   * @brief Disable the Power Voltage Detector(PVD).
 394:Drivers/STM32WLxx_HAL_Driver/Src/stm32wlxx_hal_pwr.c ****   * @retval None
 395:Drivers/STM32WLxx_HAL_Driver/Src/stm32wlxx_hal_pwr.c ****   */
 396:Drivers/STM32WLxx_HAL_Driver/Src/stm32wlxx_hal_pwr.c **** void HAL_PWR_DisablePVD(void)
ARM GAS  C:\Users\NATHAN~1\AppData\Local\Temp\ccu0I2kX.s 			page 35


 397:Drivers/STM32WLxx_HAL_Driver/Src/stm32wlxx_hal_pwr.c **** {
 316              		.loc 1 397 1 is_stmt 1 view -0
 317              		.cfi_startproc
 318              		@ args = 0, pretend = 0, frame = 0
 319              		@ frame_needed = 0, uses_anonymous_args = 0
 320              		@ link register save eliminated.
 398:Drivers/STM32WLxx_HAL_Driver/Src/stm32wlxx_hal_pwr.c ****   /* Disable the power voltage detector */
 399:Drivers/STM32WLxx_HAL_Driver/Src/stm32wlxx_hal_pwr.c ****   CLEAR_BIT(PWR->CR2, PWR_CR2_PVDE);
 321              		.loc 1 399 3 view .LVU67
 322 0000 024A     		ldr	r2, .L20
 323 0002 5368     		ldr	r3, [r2, #4]
 324 0004 23F00103 		bic	r3, r3, #1
 325 0008 5360     		str	r3, [r2, #4]
 400:Drivers/STM32WLxx_HAL_Driver/Src/stm32wlxx_hal_pwr.c **** }
 326              		.loc 1 400 1 is_stmt 0 view .LVU68
 327 000a 7047     		bx	lr
 328              	.L21:
 329              		.align	2
 330              	.L20:
 331 000c 00040058 		.word	1476396032
 332              		.cfi_endproc
 333              	.LFE973:
 335              		.section	.text.HAL_PWR_EnableWakeUpPin,"ax",%progbits
 336              		.align	1
 337              		.global	HAL_PWR_EnableWakeUpPin
 338              		.syntax unified
 339              		.thumb
 340              		.thumb_func
 342              	HAL_PWR_EnableWakeUpPin:
 343              	.LVL12:
 344              	.LFB974:
 401:Drivers/STM32WLxx_HAL_Driver/Src/stm32wlxx_hal_pwr.c **** 
 402:Drivers/STM32WLxx_HAL_Driver/Src/stm32wlxx_hal_pwr.c **** /**
 403:Drivers/STM32WLxx_HAL_Driver/Src/stm32wlxx_hal_pwr.c ****   * @brief Enable the WakeUp PINx functionality.
 404:Drivers/STM32WLxx_HAL_Driver/Src/stm32wlxx_hal_pwr.c ****   * @param WakeUpPinPolarity Specifies which Wake-Up pin to enable.
 405:Drivers/STM32WLxx_HAL_Driver/Src/stm32wlxx_hal_pwr.c ****   *         This parameter can be one of the following legacy values which set the default polarity
 406:Drivers/STM32WLxx_HAL_Driver/Src/stm32wlxx_hal_pwr.c ****   *         i.e. detection on high level (rising edge):
 407:Drivers/STM32WLxx_HAL_Driver/Src/stm32wlxx_hal_pwr.c ****   *           @arg PWR_WAKEUP_PIN1 Pin wake-up the system from Standby mode.
 408:Drivers/STM32WLxx_HAL_Driver/Src/stm32wlxx_hal_pwr.c ****   *           @arg PWR_WAKEUP_PIN2 Pin wake-up the system from Standby mode.
 409:Drivers/STM32WLxx_HAL_Driver/Src/stm32wlxx_hal_pwr.c ****   *           @arg PWR_WAKEUP_PIN3 Pin wake-up the system from Standby mode.
 410:Drivers/STM32WLxx_HAL_Driver/Src/stm32wlxx_hal_pwr.c ****   *         or one of the following value where the user can explicitly specify the enabled pin and
 411:Drivers/STM32WLxx_HAL_Driver/Src/stm32wlxx_hal_pwr.c ****   *         the chosen polarity:
 412:Drivers/STM32WLxx_HAL_Driver/Src/stm32wlxx_hal_pwr.c ****   *           @arg @ref PWR_WAKEUP_PIN1_HIGH or @arg @ref PWR_WAKEUP_PIN1_LOW
 413:Drivers/STM32WLxx_HAL_Driver/Src/stm32wlxx_hal_pwr.c ****   *           @arg @ref PWR_WAKEUP_PIN2_HIGH or @arg @ref PWR_WAKEUP_PIN2_LOW
 414:Drivers/STM32WLxx_HAL_Driver/Src/stm32wlxx_hal_pwr.c ****   *           @arg @ref PWR_WAKEUP_PIN3_HIGH or @arg @ref PWR_WAKEUP_PIN3_LOW
 415:Drivers/STM32WLxx_HAL_Driver/Src/stm32wlxx_hal_pwr.c ****   * @note  PWR_WAKEUP_PINx and PWR_WAKEUP_PINx_HIGH are equivalent.
 416:Drivers/STM32WLxx_HAL_Driver/Src/stm32wlxx_hal_pwr.c ****   * @retval None
 417:Drivers/STM32WLxx_HAL_Driver/Src/stm32wlxx_hal_pwr.c ****   */
 418:Drivers/STM32WLxx_HAL_Driver/Src/stm32wlxx_hal_pwr.c **** void HAL_PWR_EnableWakeUpPin(uint32_t WakeUpPinPolarity)
 419:Drivers/STM32WLxx_HAL_Driver/Src/stm32wlxx_hal_pwr.c **** {
 345              		.loc 1 419 1 is_stmt 1 view -0
 346              		.cfi_startproc
 347              		@ args = 0, pretend = 0, frame = 0
 348              		@ frame_needed = 0, uses_anonymous_args = 0
 349              		@ link register save eliminated.
 420:Drivers/STM32WLxx_HAL_Driver/Src/stm32wlxx_hal_pwr.c ****   assert_param(IS_PWR_WAKEUP_PIN(WakeUpPinPolarity));
 350              		.loc 1 420 3 view .LVU70
ARM GAS  C:\Users\NATHAN~1\AppData\Local\Temp\ccu0I2kX.s 			page 36


 421:Drivers/STM32WLxx_HAL_Driver/Src/stm32wlxx_hal_pwr.c **** 
 422:Drivers/STM32WLxx_HAL_Driver/Src/stm32wlxx_hal_pwr.c ****   /* Specifies the Wake-Up pin polarity for the event detection
 423:Drivers/STM32WLxx_HAL_Driver/Src/stm32wlxx_hal_pwr.c ****     (rising or falling edge) */
 424:Drivers/STM32WLxx_HAL_Driver/Src/stm32wlxx_hal_pwr.c ****   MODIFY_REG(PWR->CR4, ((PWR_CR4_WP1 | PWR_CR4_WP2 | PWR_CR4_WP3) & WakeUpPinPolarity), (WakeUpPinP
 351              		.loc 1 424 3 view .LVU71
 352 0000 064A     		ldr	r2, .L23
 353 0002 D368     		ldr	r3, [r2, #12]
 354 0004 00F00701 		and	r1, r0, #7
 355 0008 23EA0103 		bic	r3, r3, r1
 356 000c 43EA5010 		orr	r0, r3, r0, lsr #5
 357              	.LVL13:
 358              		.loc 1 424 3 is_stmt 0 view .LVU72
 359 0010 D060     		str	r0, [r2, #12]
 425:Drivers/STM32WLxx_HAL_Driver/Src/stm32wlxx_hal_pwr.c **** 
 426:Drivers/STM32WLxx_HAL_Driver/Src/stm32wlxx_hal_pwr.c ****   /* Enable wake-up pin */
 427:Drivers/STM32WLxx_HAL_Driver/Src/stm32wlxx_hal_pwr.c **** #ifdef CORE_CM0PLUS
 428:Drivers/STM32WLxx_HAL_Driver/Src/stm32wlxx_hal_pwr.c ****   SET_BIT(PWR->C2CR3, (PWR_C2CR3_EWUP & WakeUpPinPolarity));
 429:Drivers/STM32WLxx_HAL_Driver/Src/stm32wlxx_hal_pwr.c **** #else
 430:Drivers/STM32WLxx_HAL_Driver/Src/stm32wlxx_hal_pwr.c ****   SET_BIT(PWR->CR3, (PWR_CR3_EWUP & WakeUpPinPolarity));
 360              		.loc 1 430 3 is_stmt 1 view .LVU73
 361 0012 9368     		ldr	r3, [r2, #8]
 362 0014 1943     		orrs	r1, r1, r3
 363 0016 9160     		str	r1, [r2, #8]
 431:Drivers/STM32WLxx_HAL_Driver/Src/stm32wlxx_hal_pwr.c **** #endif
 432:Drivers/STM32WLxx_HAL_Driver/Src/stm32wlxx_hal_pwr.c **** }
 364              		.loc 1 432 1 is_stmt 0 view .LVU74
 365 0018 7047     		bx	lr
 366              	.L24:
 367 001a 00BF     		.align	2
 368              	.L23:
 369 001c 00040058 		.word	1476396032
 370              		.cfi_endproc
 371              	.LFE974:
 373              		.section	.text.HAL_PWR_DisableWakeUpPin,"ax",%progbits
 374              		.align	1
 375              		.global	HAL_PWR_DisableWakeUpPin
 376              		.syntax unified
 377              		.thumb
 378              		.thumb_func
 380              	HAL_PWR_DisableWakeUpPin:
 381              	.LVL14:
 382              	.LFB975:
 433:Drivers/STM32WLxx_HAL_Driver/Src/stm32wlxx_hal_pwr.c **** 
 434:Drivers/STM32WLxx_HAL_Driver/Src/stm32wlxx_hal_pwr.c **** /**
 435:Drivers/STM32WLxx_HAL_Driver/Src/stm32wlxx_hal_pwr.c ****   * @brief  Disable the WakeUp PINx functionality.
 436:Drivers/STM32WLxx_HAL_Driver/Src/stm32wlxx_hal_pwr.c ****   * @param WakeUpPinx Specifies the Power Wake-Up pin to disable.
 437:Drivers/STM32WLxx_HAL_Driver/Src/stm32wlxx_hal_pwr.c ****   *         This parameter can be one of the following values:
 438:Drivers/STM32WLxx_HAL_Driver/Src/stm32wlxx_hal_pwr.c ****   *           @arg @ref PWR_WAKEUP_PIN1 Pin wake-up the system from Standby mode.
 439:Drivers/STM32WLxx_HAL_Driver/Src/stm32wlxx_hal_pwr.c ****   *           @arg @ref PWR_WAKEUP_PIN2 Pin wake-up the system from Standby mode.
 440:Drivers/STM32WLxx_HAL_Driver/Src/stm32wlxx_hal_pwr.c ****   *           @arg @ref PWR_WAKEUP_PIN3 Pin wake-up the system from Standby mode.
 441:Drivers/STM32WLxx_HAL_Driver/Src/stm32wlxx_hal_pwr.c ****   * @retval None
 442:Drivers/STM32WLxx_HAL_Driver/Src/stm32wlxx_hal_pwr.c ****   */
 443:Drivers/STM32WLxx_HAL_Driver/Src/stm32wlxx_hal_pwr.c **** void HAL_PWR_DisableWakeUpPin(uint32_t WakeUpPinx)
 444:Drivers/STM32WLxx_HAL_Driver/Src/stm32wlxx_hal_pwr.c **** {
 383              		.loc 1 444 1 is_stmt 1 view -0
 384              		.cfi_startproc
 385              		@ args = 0, pretend = 0, frame = 0
ARM GAS  C:\Users\NATHAN~1\AppData\Local\Temp\ccu0I2kX.s 			page 37


 386              		@ frame_needed = 0, uses_anonymous_args = 0
 387              		@ link register save eliminated.
 445:Drivers/STM32WLxx_HAL_Driver/Src/stm32wlxx_hal_pwr.c ****   assert_param(IS_PWR_WAKEUP_PIN(WakeUpPinx));
 388              		.loc 1 445 3 view .LVU76
 446:Drivers/STM32WLxx_HAL_Driver/Src/stm32wlxx_hal_pwr.c **** 
 447:Drivers/STM32WLxx_HAL_Driver/Src/stm32wlxx_hal_pwr.c ****   /* Disable wake-up pin */
 448:Drivers/STM32WLxx_HAL_Driver/Src/stm32wlxx_hal_pwr.c **** #ifdef CORE_CM0PLUS
 449:Drivers/STM32WLxx_HAL_Driver/Src/stm32wlxx_hal_pwr.c ****   CLEAR_BIT(PWR->C2CR3, (PWR_C2CR3_EWUP & WakeUpPinx));
 450:Drivers/STM32WLxx_HAL_Driver/Src/stm32wlxx_hal_pwr.c **** #else
 451:Drivers/STM32WLxx_HAL_Driver/Src/stm32wlxx_hal_pwr.c ****   CLEAR_BIT(PWR->CR3, (PWR_CR3_EWUP & WakeUpPinx));
 389              		.loc 1 451 3 view .LVU77
 390 0000 034A     		ldr	r2, .L26
 391 0002 9368     		ldr	r3, [r2, #8]
 392 0004 00F00700 		and	r0, r0, #7
 393              	.LVL15:
 394              		.loc 1 451 3 is_stmt 0 view .LVU78
 395 0008 23EA0003 		bic	r3, r3, r0
 396 000c 9360     		str	r3, [r2, #8]
 452:Drivers/STM32WLxx_HAL_Driver/Src/stm32wlxx_hal_pwr.c **** #endif
 453:Drivers/STM32WLxx_HAL_Driver/Src/stm32wlxx_hal_pwr.c **** }
 397              		.loc 1 453 1 view .LVU79
 398 000e 7047     		bx	lr
 399              	.L27:
 400              		.align	2
 401              	.L26:
 402 0010 00040058 		.word	1476396032
 403              		.cfi_endproc
 404              	.LFE975:
 406              		.section	.text.HAL_PWR_EnterSLEEPMode,"ax",%progbits
 407              		.align	1
 408              		.global	HAL_PWR_EnterSLEEPMode
 409              		.syntax unified
 410              		.thumb
 411              		.thumb_func
 413              	HAL_PWR_EnterSLEEPMode:
 414              	.LVL16:
 415              	.LFB976:
 454:Drivers/STM32WLxx_HAL_Driver/Src/stm32wlxx_hal_pwr.c **** 
 455:Drivers/STM32WLxx_HAL_Driver/Src/stm32wlxx_hal_pwr.c **** /**
 456:Drivers/STM32WLxx_HAL_Driver/Src/stm32wlxx_hal_pwr.c ****   * @brief Enter Sleep or Low-power Sleep mode.
 457:Drivers/STM32WLxx_HAL_Driver/Src/stm32wlxx_hal_pwr.c ****   * @note  In Sleep/Low-power Sleep mode, all I/O pins keep the same state as in Run mode.
 458:Drivers/STM32WLxx_HAL_Driver/Src/stm32wlxx_hal_pwr.c ****   * @param Regulator Specifies the regulator state in Sleep/Low-power Sleep mode.
 459:Drivers/STM32WLxx_HAL_Driver/Src/stm32wlxx_hal_pwr.c ****   *          This parameter can be one of the following values:
 460:Drivers/STM32WLxx_HAL_Driver/Src/stm32wlxx_hal_pwr.c ****   *            @arg @ref PWR_MAINREGULATOR_ON Sleep mode (regulator in main mode)
 461:Drivers/STM32WLxx_HAL_Driver/Src/stm32wlxx_hal_pwr.c ****   *            @arg @ref PWR_LOWPOWERREGULATOR_ON Low-power Sleep mode (regulator in low-power mode
 462:Drivers/STM32WLxx_HAL_Driver/Src/stm32wlxx_hal_pwr.c ****   * @note  Low-power Sleep mode is entered from Low-power Run mode (low-power regulator used
 463:Drivers/STM32WLxx_HAL_Driver/Src/stm32wlxx_hal_pwr.c ****   *        and clock frequency below 2 MHz) and by calling HAL_PWR_EnterSLEEPMode() with Regulator 
 464:Drivers/STM32WLxx_HAL_Driver/Src/stm32wlxx_hal_pwr.c ****   *        to PWR_LOWPOWERREGULATOR_ON.
 465:Drivers/STM32WLxx_HAL_Driver/Src/stm32wlxx_hal_pwr.c ****   *        Additionally, the clock frequency must be reduced below 2 MHz.
 466:Drivers/STM32WLxx_HAL_Driver/Src/stm32wlxx_hal_pwr.c ****   * @note  When exiting Low-power Sleep mode, the MCU is in Low-power Run mode. To move in
 467:Drivers/STM32WLxx_HAL_Driver/Src/stm32wlxx_hal_pwr.c ****   *        Run mode, the user must resort to HAL_PWREx_DisableLowPowerRunMode() API.
 468:Drivers/STM32WLxx_HAL_Driver/Src/stm32wlxx_hal_pwr.c ****   * @param SLEEPEntry Specifies if Sleep mode is entered with WFI or WFE instruction.
 469:Drivers/STM32WLxx_HAL_Driver/Src/stm32wlxx_hal_pwr.c ****   *           This parameter can be one of the following values:
 470:Drivers/STM32WLxx_HAL_Driver/Src/stm32wlxx_hal_pwr.c ****   *            @arg @ref PWR_SLEEPENTRY_WFI enter Sleep or Low-power Sleep mode with WFI instructio
 471:Drivers/STM32WLxx_HAL_Driver/Src/stm32wlxx_hal_pwr.c ****   *            @arg @ref PWR_SLEEPENTRY_WFE enter Sleep or Low-power Sleep mode with WFE instructio
 472:Drivers/STM32WLxx_HAL_Driver/Src/stm32wlxx_hal_pwr.c ****   * @note  When WFI entry is used, tick interrupt have to be disabled if not desired as
 473:Drivers/STM32WLxx_HAL_Driver/Src/stm32wlxx_hal_pwr.c ****   *        the interrupt wake up source.
ARM GAS  C:\Users\NATHAN~1\AppData\Local\Temp\ccu0I2kX.s 			page 38


 474:Drivers/STM32WLxx_HAL_Driver/Src/stm32wlxx_hal_pwr.c ****   * @retval None
 475:Drivers/STM32WLxx_HAL_Driver/Src/stm32wlxx_hal_pwr.c ****   */
 476:Drivers/STM32WLxx_HAL_Driver/Src/stm32wlxx_hal_pwr.c **** void HAL_PWR_EnterSLEEPMode(uint32_t Regulator, uint8_t SLEEPEntry)
 477:Drivers/STM32WLxx_HAL_Driver/Src/stm32wlxx_hal_pwr.c **** {
 416              		.loc 1 477 1 is_stmt 1 view -0
 417              		.cfi_startproc
 418              		@ args = 0, pretend = 0, frame = 0
 419              		@ frame_needed = 0, uses_anonymous_args = 0
 420              		.loc 1 477 1 is_stmt 0 view .LVU81
 421 0000 10B5     		push	{r4, lr}
 422              	.LCFI0:
 423              		.cfi_def_cfa_offset 8
 424              		.cfi_offset 4, -8
 425              		.cfi_offset 14, -4
 426 0002 0C46     		mov	r4, r1
 478:Drivers/STM32WLxx_HAL_Driver/Src/stm32wlxx_hal_pwr.c ****   /* Check the parameters */
 479:Drivers/STM32WLxx_HAL_Driver/Src/stm32wlxx_hal_pwr.c ****   assert_param(IS_PWR_REGULATOR(Regulator));
 427              		.loc 1 479 3 is_stmt 1 view .LVU82
 480:Drivers/STM32WLxx_HAL_Driver/Src/stm32wlxx_hal_pwr.c ****   assert_param(IS_PWR_SLEEP_ENTRY(SLEEPEntry));
 428              		.loc 1 480 3 view .LVU83
 481:Drivers/STM32WLxx_HAL_Driver/Src/stm32wlxx_hal_pwr.c **** 
 482:Drivers/STM32WLxx_HAL_Driver/Src/stm32wlxx_hal_pwr.c ****   /* Set Regulator parameter */
 483:Drivers/STM32WLxx_HAL_Driver/Src/stm32wlxx_hal_pwr.c ****   if (Regulator == PWR_MAINREGULATOR_ON)
 429              		.loc 1 483 3 view .LVU84
 430              		.loc 1 483 6 is_stmt 0 view .LVU85
 431 0004 A0B9     		cbnz	r0, .L29
 484:Drivers/STM32WLxx_HAL_Driver/Src/stm32wlxx_hal_pwr.c ****   {
 485:Drivers/STM32WLxx_HAL_Driver/Src/stm32wlxx_hal_pwr.c ****     /* If in low-power run mode at this point, exit it */
 486:Drivers/STM32WLxx_HAL_Driver/Src/stm32wlxx_hal_pwr.c ****     if (HAL_IS_BIT_SET(PWR->SR2, (PWR_SR2_REGLPF)))
 432              		.loc 1 486 5 is_stmt 1 view .LVU86
 433              		.loc 1 486 9 is_stmt 0 view .LVU87
 434 0006 0F4B     		ldr	r3, .L36
 435 0008 5B69     		ldr	r3, [r3, #20]
 436              		.loc 1 486 8 view .LVU88
 437 000a 13F4007F 		tst	r3, #512
 438 000e 0AD1     		bne	.L34
 439              	.LVL17:
 440              	.L30:
 487:Drivers/STM32WLxx_HAL_Driver/Src/stm32wlxx_hal_pwr.c ****     {
 488:Drivers/STM32WLxx_HAL_Driver/Src/stm32wlxx_hal_pwr.c ****       if (HAL_PWREx_DisableLowPowerRunMode() != HAL_OK)
 489:Drivers/STM32WLxx_HAL_Driver/Src/stm32wlxx_hal_pwr.c ****       {
 490:Drivers/STM32WLxx_HAL_Driver/Src/stm32wlxx_hal_pwr.c ****         return ;
 491:Drivers/STM32WLxx_HAL_Driver/Src/stm32wlxx_hal_pwr.c ****       }
 492:Drivers/STM32WLxx_HAL_Driver/Src/stm32wlxx_hal_pwr.c ****     }
 493:Drivers/STM32WLxx_HAL_Driver/Src/stm32wlxx_hal_pwr.c ****     /* Regulator now in main mode. */
 494:Drivers/STM32WLxx_HAL_Driver/Src/stm32wlxx_hal_pwr.c ****   }
 495:Drivers/STM32WLxx_HAL_Driver/Src/stm32wlxx_hal_pwr.c ****   else
 496:Drivers/STM32WLxx_HAL_Driver/Src/stm32wlxx_hal_pwr.c ****   {
 497:Drivers/STM32WLxx_HAL_Driver/Src/stm32wlxx_hal_pwr.c ****     /* If in run mode, first move to low-power run mode.
 498:Drivers/STM32WLxx_HAL_Driver/Src/stm32wlxx_hal_pwr.c ****        The system clock frequency must be below 2 MHz at this point. */
 499:Drivers/STM32WLxx_HAL_Driver/Src/stm32wlxx_hal_pwr.c ****     if (HAL_IS_BIT_CLR(PWR->SR2, (PWR_SR2_REGLPF)))
 500:Drivers/STM32WLxx_HAL_Driver/Src/stm32wlxx_hal_pwr.c ****     {
 501:Drivers/STM32WLxx_HAL_Driver/Src/stm32wlxx_hal_pwr.c ****       HAL_PWREx_EnableLowPowerRunMode();
 502:Drivers/STM32WLxx_HAL_Driver/Src/stm32wlxx_hal_pwr.c ****     }
 503:Drivers/STM32WLxx_HAL_Driver/Src/stm32wlxx_hal_pwr.c ****   }
 504:Drivers/STM32WLxx_HAL_Driver/Src/stm32wlxx_hal_pwr.c **** 
 505:Drivers/STM32WLxx_HAL_Driver/Src/stm32wlxx_hal_pwr.c ****   /* Clear SLEEPDEEP bit of Cortex System Control Register */
ARM GAS  C:\Users\NATHAN~1\AppData\Local\Temp\ccu0I2kX.s 			page 39


 506:Drivers/STM32WLxx_HAL_Driver/Src/stm32wlxx_hal_pwr.c ****   CLEAR_BIT(SCB->SCR, ((uint32_t)SCB_SCR_SLEEPDEEP_Msk));
 441              		.loc 1 506 3 is_stmt 1 view .LVU89
 442 0010 0D4A     		ldr	r2, .L36+4
 443 0012 1369     		ldr	r3, [r2, #16]
 444 0014 23F00403 		bic	r3, r3, #4
 445 0018 1361     		str	r3, [r2, #16]
 507:Drivers/STM32WLxx_HAL_Driver/Src/stm32wlxx_hal_pwr.c **** 
 508:Drivers/STM32WLxx_HAL_Driver/Src/stm32wlxx_hal_pwr.c ****   /* Select SLEEP mode entry -------------------------------------------------*/
 509:Drivers/STM32WLxx_HAL_Driver/Src/stm32wlxx_hal_pwr.c ****   if (SLEEPEntry == PWR_SLEEPENTRY_WFI)
 446              		.loc 1 509 3 view .LVU90
 447              		.loc 1 509 6 is_stmt 0 view .LVU91
 448 001a 012C     		cmp	r4, #1
 449 001c 10D0     		beq	.L35
 510:Drivers/STM32WLxx_HAL_Driver/Src/stm32wlxx_hal_pwr.c ****   {
 511:Drivers/STM32WLxx_HAL_Driver/Src/stm32wlxx_hal_pwr.c ****     /* Request Wait For Interrupt */
 512:Drivers/STM32WLxx_HAL_Driver/Src/stm32wlxx_hal_pwr.c ****     __WFI();
 513:Drivers/STM32WLxx_HAL_Driver/Src/stm32wlxx_hal_pwr.c ****   }
 514:Drivers/STM32WLxx_HAL_Driver/Src/stm32wlxx_hal_pwr.c ****   else
 515:Drivers/STM32WLxx_HAL_Driver/Src/stm32wlxx_hal_pwr.c ****   {
 516:Drivers/STM32WLxx_HAL_Driver/Src/stm32wlxx_hal_pwr.c ****     /* Request Wait For Event */
 517:Drivers/STM32WLxx_HAL_Driver/Src/stm32wlxx_hal_pwr.c ****     __SEV();
 450              		.loc 1 517 5 is_stmt 1 view .LVU92
 451              		.syntax unified
 452              	@ 517 "Drivers/STM32WLxx_HAL_Driver/Src/stm32wlxx_hal_pwr.c" 1
 453 001e 40BF     		sev
 454              	@ 0 "" 2
 518:Drivers/STM32WLxx_HAL_Driver/Src/stm32wlxx_hal_pwr.c ****     __WFE();
 455              		.loc 1 518 5 view .LVU93
 456              	@ 518 "Drivers/STM32WLxx_HAL_Driver/Src/stm32wlxx_hal_pwr.c" 1
 457 0020 20BF     		wfe
 458              	@ 0 "" 2
 519:Drivers/STM32WLxx_HAL_Driver/Src/stm32wlxx_hal_pwr.c ****     __WFE();
 459              		.loc 1 519 5 view .LVU94
 460              	@ 519 "Drivers/STM32WLxx_HAL_Driver/Src/stm32wlxx_hal_pwr.c" 1
 461 0022 20BF     		wfe
 462              	@ 0 "" 2
 463              		.thumb
 464              		.syntax unified
 465              	.L28:
 520:Drivers/STM32WLxx_HAL_Driver/Src/stm32wlxx_hal_pwr.c ****   }
 521:Drivers/STM32WLxx_HAL_Driver/Src/stm32wlxx_hal_pwr.c **** }
 466              		.loc 1 521 1 is_stmt 0 view .LVU95
 467 0024 10BD     		pop	{r4, pc}
 468              	.LVL18:
 469              	.L34:
 488:Drivers/STM32WLxx_HAL_Driver/Src/stm32wlxx_hal_pwr.c ****       {
 470              		.loc 1 488 7 is_stmt 1 view .LVU96
 488:Drivers/STM32WLxx_HAL_Driver/Src/stm32wlxx_hal_pwr.c ****       {
 471              		.loc 1 488 11 is_stmt 0 view .LVU97
 472 0026 FFF7FEFF 		bl	HAL_PWREx_DisableLowPowerRunMode
 473              	.LVL19:
 488:Drivers/STM32WLxx_HAL_Driver/Src/stm32wlxx_hal_pwr.c ****       {
 474              		.loc 1 488 10 view .LVU98
 475 002a 0028     		cmp	r0, #0
 476 002c F0D0     		beq	.L30
 477 002e F9E7     		b	.L28
 478              	.LVL20:
ARM GAS  C:\Users\NATHAN~1\AppData\Local\Temp\ccu0I2kX.s 			page 40


 479              	.L29:
 499:Drivers/STM32WLxx_HAL_Driver/Src/stm32wlxx_hal_pwr.c ****     {
 480              		.loc 1 499 5 is_stmt 1 view .LVU99
 499:Drivers/STM32WLxx_HAL_Driver/Src/stm32wlxx_hal_pwr.c ****     {
 481              		.loc 1 499 9 is_stmt 0 view .LVU100
 482 0030 044B     		ldr	r3, .L36
 483 0032 5B69     		ldr	r3, [r3, #20]
 499:Drivers/STM32WLxx_HAL_Driver/Src/stm32wlxx_hal_pwr.c ****     {
 484              		.loc 1 499 8 view .LVU101
 485 0034 13F4007F 		tst	r3, #512
 486 0038 EAD1     		bne	.L30
 501:Drivers/STM32WLxx_HAL_Driver/Src/stm32wlxx_hal_pwr.c ****     }
 487              		.loc 1 501 7 is_stmt 1 view .LVU102
 488 003a FFF7FEFF 		bl	HAL_PWREx_EnableLowPowerRunMode
 489              	.LVL21:
 501:Drivers/STM32WLxx_HAL_Driver/Src/stm32wlxx_hal_pwr.c ****     }
 490              		.loc 1 501 7 is_stmt 0 view .LVU103
 491 003e E7E7     		b	.L30
 492              	.L35:
 512:Drivers/STM32WLxx_HAL_Driver/Src/stm32wlxx_hal_pwr.c ****   }
 493              		.loc 1 512 5 is_stmt 1 view .LVU104
 494              		.syntax unified
 495              	@ 512 "Drivers/STM32WLxx_HAL_Driver/Src/stm32wlxx_hal_pwr.c" 1
 496 0040 30BF     		wfi
 497              	@ 0 "" 2
 498              		.thumb
 499              		.syntax unified
 500 0042 EFE7     		b	.L28
 501              	.L37:
 502              		.align	2
 503              	.L36:
 504 0044 00040058 		.word	1476396032
 505 0048 00ED00E0 		.word	-536810240
 506              		.cfi_endproc
 507              	.LFE976:
 509              		.section	.text.HAL_PWR_EnterSTOPMode,"ax",%progbits
 510              		.align	1
 511              		.global	HAL_PWR_EnterSTOPMode
 512              		.syntax unified
 513              		.thumb
 514              		.thumb_func
 516              	HAL_PWR_EnterSTOPMode:
 517              	.LVL22:
 518              	.LFB977:
 522:Drivers/STM32WLxx_HAL_Driver/Src/stm32wlxx_hal_pwr.c **** 
 523:Drivers/STM32WLxx_HAL_Driver/Src/stm32wlxx_hal_pwr.c **** /**
 524:Drivers/STM32WLxx_HAL_Driver/Src/stm32wlxx_hal_pwr.c ****   * @brief Enter Stop mode
 525:Drivers/STM32WLxx_HAL_Driver/Src/stm32wlxx_hal_pwr.c ****   * @note  This API is named HAL_PWR_EnterSTOPMode to ensure compatibility with legacy STM32 series
 526:Drivers/STM32WLxx_HAL_Driver/Src/stm32wlxx_hal_pwr.c ****   *        where only "Stop mode" is mentioned with main or low power regulator ON.
 527:Drivers/STM32WLxx_HAL_Driver/Src/stm32wlxx_hal_pwr.c ****   *        It is recommended to use functions:
 528:Drivers/STM32WLxx_HAL_Driver/Src/stm32wlxx_hal_pwr.c ****   *        @arg @ref HAL_PWREx_EnterSTOP0Mode
 529:Drivers/STM32WLxx_HAL_Driver/Src/stm32wlxx_hal_pwr.c ****   *        @arg @ref HAL_PWREx_EnterSTOP1Mode
 530:Drivers/STM32WLxx_HAL_Driver/Src/stm32wlxx_hal_pwr.c ****   *        @arg @ref HAL_PWREx_EnterSTOP2Mode
 531:Drivers/STM32WLxx_HAL_Driver/Src/stm32wlxx_hal_pwr.c ****   * @note  In Stop mode, all I/O pins keep the same state as in Run mode.
 532:Drivers/STM32WLxx_HAL_Driver/Src/stm32wlxx_hal_pwr.c ****   * @note  All clocks in the VCORE domain are stopped; the PLL, the MSI,
 533:Drivers/STM32WLxx_HAL_Driver/Src/stm32wlxx_hal_pwr.c ****   *        the HSI and the HSE oscillators are disabled. Some peripherals with the wakeup capabilit
 534:Drivers/STM32WLxx_HAL_Driver/Src/stm32wlxx_hal_pwr.c ****   *        (I2Cx, USARTx and LPUART) can switch on the HSI to receive a frame, and switch off the H
ARM GAS  C:\Users\NATHAN~1\AppData\Local\Temp\ccu0I2kX.s 			page 41


 535:Drivers/STM32WLxx_HAL_Driver/Src/stm32wlxx_hal_pwr.c ****   *        after receiving the frame if it is not a wakeup frame. In this case, the HSI clock is pr
 536:Drivers/STM32WLxx_HAL_Driver/Src/stm32wlxx_hal_pwr.c ****   *        only to the peripheral requesting it.
 537:Drivers/STM32WLxx_HAL_Driver/Src/stm32wlxx_hal_pwr.c ****   *        SRAM1, SRAM2 and register contents are preserved.
 538:Drivers/STM32WLxx_HAL_Driver/Src/stm32wlxx_hal_pwr.c ****   *        The BOR is available.
 539:Drivers/STM32WLxx_HAL_Driver/Src/stm32wlxx_hal_pwr.c ****   *        The voltage regulator can be configured either in normal (Stop 0) or low-power mode (Sto
 540:Drivers/STM32WLxx_HAL_Driver/Src/stm32wlxx_hal_pwr.c ****   * @note  When exiting Stop 0 or Stop 1 mode by issuing an interrupt or a wakeup event,
 541:Drivers/STM32WLxx_HAL_Driver/Src/stm32wlxx_hal_pwr.c ****   *         the HSI RC oscillator is selected as system clock if STOPWUCK bit in RCC_CFGR register
 542:Drivers/STM32WLxx_HAL_Driver/Src/stm32wlxx_hal_pwr.c ****   *         is set; the MSI oscillator is selected if STOPWUCK is cleared.
 543:Drivers/STM32WLxx_HAL_Driver/Src/stm32wlxx_hal_pwr.c ****   * @note  When the voltage regulator operates in low power mode (Stop 1), an additional
 544:Drivers/STM32WLxx_HAL_Driver/Src/stm32wlxx_hal_pwr.c ****   *         startup delay is incurred when waking up.
 545:Drivers/STM32WLxx_HAL_Driver/Src/stm32wlxx_hal_pwr.c ****   *         By keeping the internal regulator ON during Stop mode (Stop 0), the consumption
 546:Drivers/STM32WLxx_HAL_Driver/Src/stm32wlxx_hal_pwr.c ****   *         is higher although the startup time is reduced.
 547:Drivers/STM32WLxx_HAL_Driver/Src/stm32wlxx_hal_pwr.c ****   * @note  According to system power policy, system entering in Stop mode
 548:Drivers/STM32WLxx_HAL_Driver/Src/stm32wlxx_hal_pwr.c ****   *        is depending on other CPU power mode.
 549:Drivers/STM32WLxx_HAL_Driver/Src/stm32wlxx_hal_pwr.c ****   * @param Regulator Specifies the regulator state in Stop mode.
 550:Drivers/STM32WLxx_HAL_Driver/Src/stm32wlxx_hal_pwr.c ****   *          This parameter can be one of the following values:
 551:Drivers/STM32WLxx_HAL_Driver/Src/stm32wlxx_hal_pwr.c ****   *            @arg @ref PWR_MAINREGULATOR_ON  Stop 0 mode (main regulator ON)
 552:Drivers/STM32WLxx_HAL_Driver/Src/stm32wlxx_hal_pwr.c ****   *            @arg @ref PWR_LOWPOWERREGULATOR_ON  Stop 1 mode (low power regulator ON)
 553:Drivers/STM32WLxx_HAL_Driver/Src/stm32wlxx_hal_pwr.c ****   * @param STOPEntry Specifies Stop 0, Stop 1 mode is entered with WFI or WFE instruction.
 554:Drivers/STM32WLxx_HAL_Driver/Src/stm32wlxx_hal_pwr.c ****   *          This parameter can be one of the following values:
 555:Drivers/STM32WLxx_HAL_Driver/Src/stm32wlxx_hal_pwr.c ****   *            @arg @ref PWR_STOPENTRY_WFI  Enter Stop 0 or Stop 1 mode with WFI instruction.
 556:Drivers/STM32WLxx_HAL_Driver/Src/stm32wlxx_hal_pwr.c ****   *            @arg @ref PWR_STOPENTRY_WFE  Enter Stop 0 or Stop 1 mode with WFE instruction.
 557:Drivers/STM32WLxx_HAL_Driver/Src/stm32wlxx_hal_pwr.c ****   * @retval None
 558:Drivers/STM32WLxx_HAL_Driver/Src/stm32wlxx_hal_pwr.c ****   */
 559:Drivers/STM32WLxx_HAL_Driver/Src/stm32wlxx_hal_pwr.c **** void HAL_PWR_EnterSTOPMode(uint32_t Regulator, uint8_t STOPEntry)
 560:Drivers/STM32WLxx_HAL_Driver/Src/stm32wlxx_hal_pwr.c **** {
 519              		.loc 1 560 1 view -0
 520              		.cfi_startproc
 521              		@ args = 0, pretend = 0, frame = 0
 522              		@ frame_needed = 0, uses_anonymous_args = 0
 523              		.loc 1 560 1 is_stmt 0 view .LVU106
 524 0000 08B5     		push	{r3, lr}
 525              	.LCFI1:
 526              		.cfi_def_cfa_offset 8
 527              		.cfi_offset 3, -8
 528              		.cfi_offset 14, -4
 561:Drivers/STM32WLxx_HAL_Driver/Src/stm32wlxx_hal_pwr.c ****   /* Check the parameters */
 562:Drivers/STM32WLxx_HAL_Driver/Src/stm32wlxx_hal_pwr.c ****   assert_param(IS_PWR_REGULATOR(Regulator));
 529              		.loc 1 562 3 is_stmt 1 view .LVU107
 563:Drivers/STM32WLxx_HAL_Driver/Src/stm32wlxx_hal_pwr.c **** 
 564:Drivers/STM32WLxx_HAL_Driver/Src/stm32wlxx_hal_pwr.c ****   if (Regulator == PWR_LOWPOWERREGULATOR_ON)
 530              		.loc 1 564 3 view .LVU108
 531              		.loc 1 564 6 is_stmt 0 view .LVU109
 532 0002 B0F5804F 		cmp	r0, #16384
 533 0006 03D0     		beq	.L42
 565:Drivers/STM32WLxx_HAL_Driver/Src/stm32wlxx_hal_pwr.c ****   {
 566:Drivers/STM32WLxx_HAL_Driver/Src/stm32wlxx_hal_pwr.c ****     HAL_PWREx_EnterSTOP1Mode(STOPEntry);
 567:Drivers/STM32WLxx_HAL_Driver/Src/stm32wlxx_hal_pwr.c ****   }
 568:Drivers/STM32WLxx_HAL_Driver/Src/stm32wlxx_hal_pwr.c ****   else
 569:Drivers/STM32WLxx_HAL_Driver/Src/stm32wlxx_hal_pwr.c ****   {
 570:Drivers/STM32WLxx_HAL_Driver/Src/stm32wlxx_hal_pwr.c ****     HAL_PWREx_EnterSTOP0Mode(STOPEntry);
 534              		.loc 1 570 5 is_stmt 1 view .LVU110
 535 0008 0846     		mov	r0, r1
 536              	.LVL23:
 537              		.loc 1 570 5 is_stmt 0 view .LVU111
 538 000a FFF7FEFF 		bl	HAL_PWREx_EnterSTOP0Mode
 539              	.LVL24:
ARM GAS  C:\Users\NATHAN~1\AppData\Local\Temp\ccu0I2kX.s 			page 42


 540              	.L38:
 571:Drivers/STM32WLxx_HAL_Driver/Src/stm32wlxx_hal_pwr.c ****   }
 572:Drivers/STM32WLxx_HAL_Driver/Src/stm32wlxx_hal_pwr.c **** }
 541              		.loc 1 572 1 view .LVU112
 542 000e 08BD     		pop	{r3, pc}
 543              	.LVL25:
 544              	.L42:
 566:Drivers/STM32WLxx_HAL_Driver/Src/stm32wlxx_hal_pwr.c ****   }
 545              		.loc 1 566 5 is_stmt 1 view .LVU113
 546 0010 0846     		mov	r0, r1
 547              	.LVL26:
 566:Drivers/STM32WLxx_HAL_Driver/Src/stm32wlxx_hal_pwr.c ****   }
 548              		.loc 1 566 5 is_stmt 0 view .LVU114
 549 0012 FFF7FEFF 		bl	HAL_PWREx_EnterSTOP1Mode
 550              	.LVL27:
 566:Drivers/STM32WLxx_HAL_Driver/Src/stm32wlxx_hal_pwr.c ****   }
 551              		.loc 1 566 5 view .LVU115
 552 0016 FAE7     		b	.L38
 553              		.cfi_endproc
 554              	.LFE977:
 556              		.section	.text.HAL_PWR_EnterSTANDBYMode,"ax",%progbits
 557              		.align	1
 558              		.global	HAL_PWR_EnterSTANDBYMode
 559              		.syntax unified
 560              		.thumb
 561              		.thumb_func
 563              	HAL_PWR_EnterSTANDBYMode:
 564              	.LFB978:
 573:Drivers/STM32WLxx_HAL_Driver/Src/stm32wlxx_hal_pwr.c **** 
 574:Drivers/STM32WLxx_HAL_Driver/Src/stm32wlxx_hal_pwr.c **** /**
 575:Drivers/STM32WLxx_HAL_Driver/Src/stm32wlxx_hal_pwr.c ****   * @brief Enter Standby mode.
 576:Drivers/STM32WLxx_HAL_Driver/Src/stm32wlxx_hal_pwr.c ****   * @note  In Standby mode, the PLL, the HSI, the MSI and the HSE oscillators are switched
 577:Drivers/STM32WLxx_HAL_Driver/Src/stm32wlxx_hal_pwr.c ****   *        off. The voltage regulator is disabled, except when SRAM2 content is preserved
 578:Drivers/STM32WLxx_HAL_Driver/Src/stm32wlxx_hal_pwr.c ****   *        in which case the regulator is in low-power mode.
 579:Drivers/STM32WLxx_HAL_Driver/Src/stm32wlxx_hal_pwr.c ****   *        SRAM and register contents are lost except for registers in the Backup domain and
 580:Drivers/STM32WLxx_HAL_Driver/Src/stm32wlxx_hal_pwr.c ****   *        Standby circuitry. SRAM2 content can be preserved if the bit RRS is set in PWR_CR3 regis
 581:Drivers/STM32WLxx_HAL_Driver/Src/stm32wlxx_hal_pwr.c ****   *        To enable this feature, the user can resort to HAL_PWREx_EnableSRAMRetention() API
 582:Drivers/STM32WLxx_HAL_Driver/Src/stm32wlxx_hal_pwr.c ****   *        to set RRS bit.
 583:Drivers/STM32WLxx_HAL_Driver/Src/stm32wlxx_hal_pwr.c ****   *        The BOR is available.
 584:Drivers/STM32WLxx_HAL_Driver/Src/stm32wlxx_hal_pwr.c ****   * @note  The I/Os can be configured either with a pull-up or pull-down or can be kept in analog s
 585:Drivers/STM32WLxx_HAL_Driver/Src/stm32wlxx_hal_pwr.c ****   *        HAL_PWREx_EnableGPIOPullUp() and HAL_PWREx_EnableGPIOPullDown() respectively enable Pull
 586:Drivers/STM32WLxx_HAL_Driver/Src/stm32wlxx_hal_pwr.c ****   *        Pull Down state, HAL_PWREx_DisableGPIOPullUp() and HAL_PWREx_DisableGPIOPullDown() disab
 587:Drivers/STM32WLxx_HAL_Driver/Src/stm32wlxx_hal_pwr.c ****   *        same.
 588:Drivers/STM32WLxx_HAL_Driver/Src/stm32wlxx_hal_pwr.c ****   *        These states are effective in Standby mode only if APC bit is set through
 589:Drivers/STM32WLxx_HAL_Driver/Src/stm32wlxx_hal_pwr.c ****   *        HAL_PWREx_EnablePullUpPullDownConfig() API.
 590:Drivers/STM32WLxx_HAL_Driver/Src/stm32wlxx_hal_pwr.c ****   * @note  According to system power policy, system entering in Standby mode
 591:Drivers/STM32WLxx_HAL_Driver/Src/stm32wlxx_hal_pwr.c ****   *        is depending on other CPU power mode.
 592:Drivers/STM32WLxx_HAL_Driver/Src/stm32wlxx_hal_pwr.c ****   * @retval None
 593:Drivers/STM32WLxx_HAL_Driver/Src/stm32wlxx_hal_pwr.c ****   */
 594:Drivers/STM32WLxx_HAL_Driver/Src/stm32wlxx_hal_pwr.c **** void HAL_PWR_EnterSTANDBYMode(void)
 595:Drivers/STM32WLxx_HAL_Driver/Src/stm32wlxx_hal_pwr.c **** {
 565              		.loc 1 595 1 is_stmt 1 view -0
 566              		.cfi_startproc
 567              		@ args = 0, pretend = 0, frame = 0
 568              		@ frame_needed = 0, uses_anonymous_args = 0
 569              		@ link register save eliminated.
 596:Drivers/STM32WLxx_HAL_Driver/Src/stm32wlxx_hal_pwr.c **** #ifdef CORE_CM0PLUS
ARM GAS  C:\Users\NATHAN~1\AppData\Local\Temp\ccu0I2kX.s 			page 43


 597:Drivers/STM32WLxx_HAL_Driver/Src/stm32wlxx_hal_pwr.c ****   /* Set Stand-by mode */
 598:Drivers/STM32WLxx_HAL_Driver/Src/stm32wlxx_hal_pwr.c ****   MODIFY_REG(PWR->C2CR1, PWR_C2CR1_LPMS, PWR_LOWPOWERMODE_STANDBY);
 599:Drivers/STM32WLxx_HAL_Driver/Src/stm32wlxx_hal_pwr.c **** #else
 600:Drivers/STM32WLxx_HAL_Driver/Src/stm32wlxx_hal_pwr.c ****   /* Set Stand-by mode */
 601:Drivers/STM32WLxx_HAL_Driver/Src/stm32wlxx_hal_pwr.c ****   MODIFY_REG(PWR->CR1, PWR_CR1_LPMS, PWR_LOWPOWERMODE_STANDBY);
 570              		.loc 1 601 3 view .LVU117
 571 0000 064A     		ldr	r2, .L44
 572 0002 1368     		ldr	r3, [r2]
 573 0004 23F00703 		bic	r3, r3, #7
 574 0008 43F00303 		orr	r3, r3, #3
 575 000c 1360     		str	r3, [r2]
 602:Drivers/STM32WLxx_HAL_Driver/Src/stm32wlxx_hal_pwr.c **** #endif
 603:Drivers/STM32WLxx_HAL_Driver/Src/stm32wlxx_hal_pwr.c **** 
 604:Drivers/STM32WLxx_HAL_Driver/Src/stm32wlxx_hal_pwr.c ****   /* Set SLEEPDEEP bit of Cortex System Control Register */
 605:Drivers/STM32WLxx_HAL_Driver/Src/stm32wlxx_hal_pwr.c ****   SET_BIT(SCB->SCR, ((uint32_t)SCB_SCR_SLEEPDEEP_Msk));
 576              		.loc 1 605 3 view .LVU118
 577 000e 044A     		ldr	r2, .L44+4
 578 0010 1369     		ldr	r3, [r2, #16]
 579 0012 43F00403 		orr	r3, r3, #4
 580 0016 1361     		str	r3, [r2, #16]
 606:Drivers/STM32WLxx_HAL_Driver/Src/stm32wlxx_hal_pwr.c **** 
 607:Drivers/STM32WLxx_HAL_Driver/Src/stm32wlxx_hal_pwr.c ****   /* This option is used to ensure that store operations are completed */
 608:Drivers/STM32WLxx_HAL_Driver/Src/stm32wlxx_hal_pwr.c **** #if defined ( __CC_ARM)
 609:Drivers/STM32WLxx_HAL_Driver/Src/stm32wlxx_hal_pwr.c ****   __force_stores();
 610:Drivers/STM32WLxx_HAL_Driver/Src/stm32wlxx_hal_pwr.c **** #endif
 611:Drivers/STM32WLxx_HAL_Driver/Src/stm32wlxx_hal_pwr.c **** 
 612:Drivers/STM32WLxx_HAL_Driver/Src/stm32wlxx_hal_pwr.c ****   /* Request Wait For Interrupt */
 613:Drivers/STM32WLxx_HAL_Driver/Src/stm32wlxx_hal_pwr.c ****   __WFI();
 581              		.loc 1 613 3 view .LVU119
 582              		.syntax unified
 583              	@ 613 "Drivers/STM32WLxx_HAL_Driver/Src/stm32wlxx_hal_pwr.c" 1
 584 0018 30BF     		wfi
 585              	@ 0 "" 2
 614:Drivers/STM32WLxx_HAL_Driver/Src/stm32wlxx_hal_pwr.c **** 
 615:Drivers/STM32WLxx_HAL_Driver/Src/stm32wlxx_hal_pwr.c ****   /* Note: After this request to enter in Standby mode, at wake-up, program
 616:Drivers/STM32WLxx_HAL_Driver/Src/stm32wlxx_hal_pwr.c ****            execution depends on system low-power mode:
 617:Drivers/STM32WLxx_HAL_Driver/Src/stm32wlxx_hal_pwr.c ****            - If system was in Standby mode (other CPU in Standby or Shutdown),
 618:Drivers/STM32WLxx_HAL_Driver/Src/stm32wlxx_hal_pwr.c ****              then at wake-up program restarts at reset state
 619:Drivers/STM32WLxx_HAL_Driver/Src/stm32wlxx_hal_pwr.c ****            - If system was in Run or Stop mode (other CPU in Run, Sleep, Stop),
 620:Drivers/STM32WLxx_HAL_Driver/Src/stm32wlxx_hal_pwr.c ****              then at wake-up program continues from this point
 621:Drivers/STM32WLxx_HAL_Driver/Src/stm32wlxx_hal_pwr.c ****   */
 622:Drivers/STM32WLxx_HAL_Driver/Src/stm32wlxx_hal_pwr.c **** }
 586              		.loc 1 622 1 is_stmt 0 view .LVU120
 587              		.thumb
 588              		.syntax unified
 589 001a 7047     		bx	lr
 590              	.L45:
 591              		.align	2
 592              	.L44:
 593 001c 00040058 		.word	1476396032
 594 0020 00ED00E0 		.word	-536810240
 595              		.cfi_endproc
 596              	.LFE978:
 598              		.section	.text.HAL_PWR_EnableSleepOnExit,"ax",%progbits
 599              		.align	1
 600              		.global	HAL_PWR_EnableSleepOnExit
 601              		.syntax unified
ARM GAS  C:\Users\NATHAN~1\AppData\Local\Temp\ccu0I2kX.s 			page 44


 602              		.thumb
 603              		.thumb_func
 605              	HAL_PWR_EnableSleepOnExit:
 606              	.LFB979:
 623:Drivers/STM32WLxx_HAL_Driver/Src/stm32wlxx_hal_pwr.c **** 
 624:Drivers/STM32WLxx_HAL_Driver/Src/stm32wlxx_hal_pwr.c **** /**
 625:Drivers/STM32WLxx_HAL_Driver/Src/stm32wlxx_hal_pwr.c ****   * @brief  Indicate Sleep-On-Exit when returning from Handler mode to Thread mode.
 626:Drivers/STM32WLxx_HAL_Driver/Src/stm32wlxx_hal_pwr.c ****   * @note   Set SLEEPONEXIT bit of SCR register. When this bit is set, the processor
 627:Drivers/STM32WLxx_HAL_Driver/Src/stm32wlxx_hal_pwr.c ****   *         re-enters SLEEP mode when an interruption handling is over.
 628:Drivers/STM32WLxx_HAL_Driver/Src/stm32wlxx_hal_pwr.c ****   *         Setting this bit is useful when the processor is expected to run only on
 629:Drivers/STM32WLxx_HAL_Driver/Src/stm32wlxx_hal_pwr.c ****   *         interruptions handling.
 630:Drivers/STM32WLxx_HAL_Driver/Src/stm32wlxx_hal_pwr.c ****   * @retval None
 631:Drivers/STM32WLxx_HAL_Driver/Src/stm32wlxx_hal_pwr.c ****   */
 632:Drivers/STM32WLxx_HAL_Driver/Src/stm32wlxx_hal_pwr.c **** void HAL_PWR_EnableSleepOnExit(void)
 633:Drivers/STM32WLxx_HAL_Driver/Src/stm32wlxx_hal_pwr.c **** {
 607              		.loc 1 633 1 is_stmt 1 view -0
 608              		.cfi_startproc
 609              		@ args = 0, pretend = 0, frame = 0
 610              		@ frame_needed = 0, uses_anonymous_args = 0
 611              		@ link register save eliminated.
 634:Drivers/STM32WLxx_HAL_Driver/Src/stm32wlxx_hal_pwr.c ****   /* Set SLEEPONEXIT bit of Cortex System Control Register */
 635:Drivers/STM32WLxx_HAL_Driver/Src/stm32wlxx_hal_pwr.c ****   SET_BIT(SCB->SCR, ((uint32_t)SCB_SCR_SLEEPONEXIT_Msk));
 612              		.loc 1 635 3 view .LVU122
 613 0000 024A     		ldr	r2, .L47
 614 0002 1369     		ldr	r3, [r2, #16]
 615 0004 43F00203 		orr	r3, r3, #2
 616 0008 1361     		str	r3, [r2, #16]
 636:Drivers/STM32WLxx_HAL_Driver/Src/stm32wlxx_hal_pwr.c **** }
 617              		.loc 1 636 1 is_stmt 0 view .LVU123
 618 000a 7047     		bx	lr
 619              	.L48:
 620              		.align	2
 621              	.L47:
 622 000c 00ED00E0 		.word	-536810240
 623              		.cfi_endproc
 624              	.LFE979:
 626              		.section	.text.HAL_PWR_DisableSleepOnExit,"ax",%progbits
 627              		.align	1
 628              		.global	HAL_PWR_DisableSleepOnExit
 629              		.syntax unified
 630              		.thumb
 631              		.thumb_func
 633              	HAL_PWR_DisableSleepOnExit:
 634              	.LFB980:
 637:Drivers/STM32WLxx_HAL_Driver/Src/stm32wlxx_hal_pwr.c **** 
 638:Drivers/STM32WLxx_HAL_Driver/Src/stm32wlxx_hal_pwr.c **** /**
 639:Drivers/STM32WLxx_HAL_Driver/Src/stm32wlxx_hal_pwr.c ****   * @brief  Disable Sleep-On-Exit feature when returning from Handler mode to Thread mode.
 640:Drivers/STM32WLxx_HAL_Driver/Src/stm32wlxx_hal_pwr.c ****   * @note   Clear SLEEPONEXIT bit of SCR register. When this bit is set, the processor
 641:Drivers/STM32WLxx_HAL_Driver/Src/stm32wlxx_hal_pwr.c ****   *         re-enters SLEEP mode when an interruption handling is over.
 642:Drivers/STM32WLxx_HAL_Driver/Src/stm32wlxx_hal_pwr.c ****   * @retval None
 643:Drivers/STM32WLxx_HAL_Driver/Src/stm32wlxx_hal_pwr.c ****   */
 644:Drivers/STM32WLxx_HAL_Driver/Src/stm32wlxx_hal_pwr.c **** void HAL_PWR_DisableSleepOnExit(void)
 645:Drivers/STM32WLxx_HAL_Driver/Src/stm32wlxx_hal_pwr.c **** {
 635              		.loc 1 645 1 is_stmt 1 view -0
 636              		.cfi_startproc
 637              		@ args = 0, pretend = 0, frame = 0
 638              		@ frame_needed = 0, uses_anonymous_args = 0
ARM GAS  C:\Users\NATHAN~1\AppData\Local\Temp\ccu0I2kX.s 			page 45


 639              		@ link register save eliminated.
 646:Drivers/STM32WLxx_HAL_Driver/Src/stm32wlxx_hal_pwr.c ****   /* Clear SLEEPONEXIT bit of Cortex System Control Register */
 647:Drivers/STM32WLxx_HAL_Driver/Src/stm32wlxx_hal_pwr.c ****   CLEAR_BIT(SCB->SCR, ((uint32_t)SCB_SCR_SLEEPONEXIT_Msk));
 640              		.loc 1 647 3 view .LVU125
 641 0000 024A     		ldr	r2, .L50
 642 0002 1369     		ldr	r3, [r2, #16]
 643 0004 23F00203 		bic	r3, r3, #2
 644 0008 1361     		str	r3, [r2, #16]
 648:Drivers/STM32WLxx_HAL_Driver/Src/stm32wlxx_hal_pwr.c **** }
 645              		.loc 1 648 1 is_stmt 0 view .LVU126
 646 000a 7047     		bx	lr
 647              	.L51:
 648              		.align	2
 649              	.L50:
 650 000c 00ED00E0 		.word	-536810240
 651              		.cfi_endproc
 652              	.LFE980:
 654              		.section	.text.HAL_PWR_EnableSEVOnPend,"ax",%progbits
 655              		.align	1
 656              		.global	HAL_PWR_EnableSEVOnPend
 657              		.syntax unified
 658              		.thumb
 659              		.thumb_func
 661              	HAL_PWR_EnableSEVOnPend:
 662              	.LFB981:
 649:Drivers/STM32WLxx_HAL_Driver/Src/stm32wlxx_hal_pwr.c **** 
 650:Drivers/STM32WLxx_HAL_Driver/Src/stm32wlxx_hal_pwr.c **** /**
 651:Drivers/STM32WLxx_HAL_Driver/Src/stm32wlxx_hal_pwr.c ****   * @brief Enable CPU SEVONPEND bit.
 652:Drivers/STM32WLxx_HAL_Driver/Src/stm32wlxx_hal_pwr.c ****   * @note Set SEVONPEND bit of SCR register. When this bit is set, this causes
 653:Drivers/STM32WLxx_HAL_Driver/Src/stm32wlxx_hal_pwr.c ****   *       WFE to wake up when an interrupt moves from inactive to pended.
 654:Drivers/STM32WLxx_HAL_Driver/Src/stm32wlxx_hal_pwr.c ****   * @retval None
 655:Drivers/STM32WLxx_HAL_Driver/Src/stm32wlxx_hal_pwr.c ****   */
 656:Drivers/STM32WLxx_HAL_Driver/Src/stm32wlxx_hal_pwr.c **** void HAL_PWR_EnableSEVOnPend(void)
 657:Drivers/STM32WLxx_HAL_Driver/Src/stm32wlxx_hal_pwr.c **** {
 663              		.loc 1 657 1 is_stmt 1 view -0
 664              		.cfi_startproc
 665              		@ args = 0, pretend = 0, frame = 0
 666              		@ frame_needed = 0, uses_anonymous_args = 0
 667              		@ link register save eliminated.
 658:Drivers/STM32WLxx_HAL_Driver/Src/stm32wlxx_hal_pwr.c ****   /* Set SEVONPEND bit of Cortex System Control Register */
 659:Drivers/STM32WLxx_HAL_Driver/Src/stm32wlxx_hal_pwr.c ****   SET_BIT(SCB->SCR, ((uint32_t)SCB_SCR_SEVONPEND_Msk));
 668              		.loc 1 659 3 view .LVU128
 669 0000 024A     		ldr	r2, .L53
 670 0002 1369     		ldr	r3, [r2, #16]
 671 0004 43F01003 		orr	r3, r3, #16
 672 0008 1361     		str	r3, [r2, #16]
 660:Drivers/STM32WLxx_HAL_Driver/Src/stm32wlxx_hal_pwr.c **** }
 673              		.loc 1 660 1 is_stmt 0 view .LVU129
 674 000a 7047     		bx	lr
 675              	.L54:
 676              		.align	2
 677              	.L53:
 678 000c 00ED00E0 		.word	-536810240
 679              		.cfi_endproc
 680              	.LFE981:
 682              		.section	.text.HAL_PWR_DisableSEVOnPend,"ax",%progbits
 683              		.align	1
ARM GAS  C:\Users\NATHAN~1\AppData\Local\Temp\ccu0I2kX.s 			page 46


 684              		.global	HAL_PWR_DisableSEVOnPend
 685              		.syntax unified
 686              		.thumb
 687              		.thumb_func
 689              	HAL_PWR_DisableSEVOnPend:
 690              	.LFB982:
 661:Drivers/STM32WLxx_HAL_Driver/Src/stm32wlxx_hal_pwr.c **** 
 662:Drivers/STM32WLxx_HAL_Driver/Src/stm32wlxx_hal_pwr.c **** /**
 663:Drivers/STM32WLxx_HAL_Driver/Src/stm32wlxx_hal_pwr.c ****   * @brief Disable CPU SEVONPEND bit.
 664:Drivers/STM32WLxx_HAL_Driver/Src/stm32wlxx_hal_pwr.c ****   * @note Clear SEVONPEND bit of SCR register. When this bit is set, this causes
 665:Drivers/STM32WLxx_HAL_Driver/Src/stm32wlxx_hal_pwr.c ****   *       WFE to wake up when an interrupt moves from inactive to pended.
 666:Drivers/STM32WLxx_HAL_Driver/Src/stm32wlxx_hal_pwr.c ****   * @retval None
 667:Drivers/STM32WLxx_HAL_Driver/Src/stm32wlxx_hal_pwr.c ****   */
 668:Drivers/STM32WLxx_HAL_Driver/Src/stm32wlxx_hal_pwr.c **** void HAL_PWR_DisableSEVOnPend(void)
 669:Drivers/STM32WLxx_HAL_Driver/Src/stm32wlxx_hal_pwr.c **** {
 691              		.loc 1 669 1 is_stmt 1 view -0
 692              		.cfi_startproc
 693              		@ args = 0, pretend = 0, frame = 0
 694              		@ frame_needed = 0, uses_anonymous_args = 0
 695              		@ link register save eliminated.
 670:Drivers/STM32WLxx_HAL_Driver/Src/stm32wlxx_hal_pwr.c ****   /* Clear SEVONPEND bit of Cortex System Control Register */
 671:Drivers/STM32WLxx_HAL_Driver/Src/stm32wlxx_hal_pwr.c ****   CLEAR_BIT(SCB->SCR, ((uint32_t)SCB_SCR_SEVONPEND_Msk));
 696              		.loc 1 671 3 view .LVU131
 697 0000 024A     		ldr	r2, .L56
 698 0002 1369     		ldr	r3, [r2, #16]
 699 0004 23F01003 		bic	r3, r3, #16
 700 0008 1361     		str	r3, [r2, #16]
 672:Drivers/STM32WLxx_HAL_Driver/Src/stm32wlxx_hal_pwr.c **** }
 701              		.loc 1 672 1 is_stmt 0 view .LVU132
 702 000a 7047     		bx	lr
 703              	.L57:
 704              		.align	2
 705              	.L56:
 706 000c 00ED00E0 		.word	-536810240
 707              		.cfi_endproc
 708              	.LFE982:
 710              		.section	.text.HAL_PWR_PVDCallback,"ax",%progbits
 711              		.align	1
 712              		.weak	HAL_PWR_PVDCallback
 713              		.syntax unified
 714              		.thumb
 715              		.thumb_func
 717              	HAL_PWR_PVDCallback:
 718              	.LFB983:
 673:Drivers/STM32WLxx_HAL_Driver/Src/stm32wlxx_hal_pwr.c **** 
 674:Drivers/STM32WLxx_HAL_Driver/Src/stm32wlxx_hal_pwr.c **** /**
 675:Drivers/STM32WLxx_HAL_Driver/Src/stm32wlxx_hal_pwr.c ****   * @brief  PWR PVD interrupt callback
 676:Drivers/STM32WLxx_HAL_Driver/Src/stm32wlxx_hal_pwr.c ****   * @retval None
 677:Drivers/STM32WLxx_HAL_Driver/Src/stm32wlxx_hal_pwr.c ****   */
 678:Drivers/STM32WLxx_HAL_Driver/Src/stm32wlxx_hal_pwr.c **** __weak void HAL_PWR_PVDCallback(void)
 679:Drivers/STM32WLxx_HAL_Driver/Src/stm32wlxx_hal_pwr.c **** {
 719              		.loc 1 679 1 is_stmt 1 view -0
 720              		.cfi_startproc
 721              		@ args = 0, pretend = 0, frame = 0
 722              		@ frame_needed = 0, uses_anonymous_args = 0
 723              		@ link register save eliminated.
 680:Drivers/STM32WLxx_HAL_Driver/Src/stm32wlxx_hal_pwr.c ****   /* NOTE : This function should not be modified; when the callback is needed,
ARM GAS  C:\Users\NATHAN~1\AppData\Local\Temp\ccu0I2kX.s 			page 47


 681:Drivers/STM32WLxx_HAL_Driver/Src/stm32wlxx_hal_pwr.c ****             the HAL_PWR_PVDCallback can be implemented in the user file
 682:Drivers/STM32WLxx_HAL_Driver/Src/stm32wlxx_hal_pwr.c ****   */
 683:Drivers/STM32WLxx_HAL_Driver/Src/stm32wlxx_hal_pwr.c **** }
 724              		.loc 1 683 1 view .LVU134
 725 0000 7047     		bx	lr
 726              		.cfi_endproc
 727              	.LFE983:
 729              		.text
 730              	.Letext0:
 731              		.file 3 "c:\\program files (x86)\\gnu arm embedded toolchain\\10 2021.10\\arm-none-eabi\\include\\
 732              		.file 4 "c:\\program files (x86)\\gnu arm embedded toolchain\\10 2021.10\\arm-none-eabi\\include\\
 733              		.file 5 "Drivers/CMSIS/Include/core_cm4.h"
 734              		.file 6 "Drivers/CMSIS/Device/ST/STM32WLxx/Include/stm32wle5xx.h"
 735              		.file 7 "Drivers/STM32WLxx_HAL_Driver/Inc/stm32wlxx_hal_def.h"
 736              		.file 8 "Drivers/STM32WLxx_HAL_Driver/Inc/stm32wlxx_hal_pwr.h"
 737              		.file 9 "Drivers/STM32WLxx_HAL_Driver/Inc/stm32wlxx_hal_pwr_ex.h"
 738              		.file 10 "Drivers/STM32WLxx_HAL_Driver/Inc/stm32wlxx_ll_dma.h"
ARM GAS  C:\Users\NATHAN~1\AppData\Local\Temp\ccu0I2kX.s 			page 48

