ARM GAS  C:\Users\NATHAN~1\AppData\Local\Temp\ccSyVvP3.s 			page 1


   1              		.cpu cortex-m4
   2              		.arch armv7e-m
   3              		.fpu softvfp
   4              		.eabi_attribute 20, 1
   5              		.eabi_attribute 21, 1
   6              		.eabi_attribute 23, 3
   7              		.eabi_attribute 24, 1
   8              		.eabi_attribute 25, 1
   9              		.eabi_attribute 26, 1
  10              		.eabi_attribute 30, 1
  11              		.eabi_attribute 34, 1
  12              		.eabi_attribute 18, 4
  13              		.file	"stm32wlxx_hal_pwr_ex.c"
  14              		.text
  15              	.Ltext0:
  16              		.cfi_sections	.debug_frame
  17              		.section	.text.HAL_PWREx_GetVoltageRange,"ax",%progbits
  18              		.align	1
  19              		.global	HAL_PWREx_GetVoltageRange
  20              		.syntax unified
  21              		.thumb
  22              		.thumb_func
  24              	HAL_PWREx_GetVoltageRange:
  25              	.LFB968:
  26              		.file 1 "Drivers/STM32WLxx_HAL_Driver/Src/stm32wlxx_hal_pwr_ex.c"
   1:Drivers/STM32WLxx_HAL_Driver/Src/stm32wlxx_hal_pwr_ex.c **** /**
   2:Drivers/STM32WLxx_HAL_Driver/Src/stm32wlxx_hal_pwr_ex.c ****   ******************************************************************************
   3:Drivers/STM32WLxx_HAL_Driver/Src/stm32wlxx_hal_pwr_ex.c ****   * @file    stm32wlxx_hal_pwr_ex.c
   4:Drivers/STM32WLxx_HAL_Driver/Src/stm32wlxx_hal_pwr_ex.c ****   * @author  MCD Application Team
   5:Drivers/STM32WLxx_HAL_Driver/Src/stm32wlxx_hal_pwr_ex.c ****   * @brief   Extended PWR HAL module driver.
   6:Drivers/STM32WLxx_HAL_Driver/Src/stm32wlxx_hal_pwr_ex.c ****   *          This file provides firmware functions to manage the following
   7:Drivers/STM32WLxx_HAL_Driver/Src/stm32wlxx_hal_pwr_ex.c ****   *          functionalities of the Power Controller (PWR) peripheral:
   8:Drivers/STM32WLxx_HAL_Driver/Src/stm32wlxx_hal_pwr_ex.c ****   *           + Extended Initialization and de-initialization functions
   9:Drivers/STM32WLxx_HAL_Driver/Src/stm32wlxx_hal_pwr_ex.c ****   *           + Extended Peripheral Control functions
  10:Drivers/STM32WLxx_HAL_Driver/Src/stm32wlxx_hal_pwr_ex.c ****   *
  11:Drivers/STM32WLxx_HAL_Driver/Src/stm32wlxx_hal_pwr_ex.c ****   ******************************************************************************
  12:Drivers/STM32WLxx_HAL_Driver/Src/stm32wlxx_hal_pwr_ex.c ****   * @attention
  13:Drivers/STM32WLxx_HAL_Driver/Src/stm32wlxx_hal_pwr_ex.c ****   *
  14:Drivers/STM32WLxx_HAL_Driver/Src/stm32wlxx_hal_pwr_ex.c ****   * <h2><center>&copy; Copyright (c) 2020 STMicroelectronics.
  15:Drivers/STM32WLxx_HAL_Driver/Src/stm32wlxx_hal_pwr_ex.c ****   * All rights reserved.</center></h2>
  16:Drivers/STM32WLxx_HAL_Driver/Src/stm32wlxx_hal_pwr_ex.c ****   *
  17:Drivers/STM32WLxx_HAL_Driver/Src/stm32wlxx_hal_pwr_ex.c ****   * This software component is licensed by ST under BSD 3-Clause license,
  18:Drivers/STM32WLxx_HAL_Driver/Src/stm32wlxx_hal_pwr_ex.c ****   * the "License"; You may not use this file except in compliance with the
  19:Drivers/STM32WLxx_HAL_Driver/Src/stm32wlxx_hal_pwr_ex.c ****   * License. You may obtain a copy of the License at:
  20:Drivers/STM32WLxx_HAL_Driver/Src/stm32wlxx_hal_pwr_ex.c ****   *                        opensource.org/licenses/BSD-3-Clause
  21:Drivers/STM32WLxx_HAL_Driver/Src/stm32wlxx_hal_pwr_ex.c ****   *
  22:Drivers/STM32WLxx_HAL_Driver/Src/stm32wlxx_hal_pwr_ex.c ****   ******************************************************************************
  23:Drivers/STM32WLxx_HAL_Driver/Src/stm32wlxx_hal_pwr_ex.c ****   */
  24:Drivers/STM32WLxx_HAL_Driver/Src/stm32wlxx_hal_pwr_ex.c **** 
  25:Drivers/STM32WLxx_HAL_Driver/Src/stm32wlxx_hal_pwr_ex.c **** /* Includes ------------------------------------------------------------------*/
  26:Drivers/STM32WLxx_HAL_Driver/Src/stm32wlxx_hal_pwr_ex.c **** #include "stm32wlxx_hal.h"
  27:Drivers/STM32WLxx_HAL_Driver/Src/stm32wlxx_hal_pwr_ex.c **** 
  28:Drivers/STM32WLxx_HAL_Driver/Src/stm32wlxx_hal_pwr_ex.c **** /** @addtogroup STM32WLxx_HAL_Driver
  29:Drivers/STM32WLxx_HAL_Driver/Src/stm32wlxx_hal_pwr_ex.c ****   * @{
  30:Drivers/STM32WLxx_HAL_Driver/Src/stm32wlxx_hal_pwr_ex.c ****   */
  31:Drivers/STM32WLxx_HAL_Driver/Src/stm32wlxx_hal_pwr_ex.c **** 
  32:Drivers/STM32WLxx_HAL_Driver/Src/stm32wlxx_hal_pwr_ex.c **** /** @addtogroup PWREx
ARM GAS  C:\Users\NATHAN~1\AppData\Local\Temp\ccSyVvP3.s 			page 2


  33:Drivers/STM32WLxx_HAL_Driver/Src/stm32wlxx_hal_pwr_ex.c ****   * @{
  34:Drivers/STM32WLxx_HAL_Driver/Src/stm32wlxx_hal_pwr_ex.c ****   */
  35:Drivers/STM32WLxx_HAL_Driver/Src/stm32wlxx_hal_pwr_ex.c **** 
  36:Drivers/STM32WLxx_HAL_Driver/Src/stm32wlxx_hal_pwr_ex.c **** #ifdef HAL_PWR_MODULE_ENABLED
  37:Drivers/STM32WLxx_HAL_Driver/Src/stm32wlxx_hal_pwr_ex.c **** 
  38:Drivers/STM32WLxx_HAL_Driver/Src/stm32wlxx_hal_pwr_ex.c **** /* Private typedef -----------------------------------------------------------*/
  39:Drivers/STM32WLxx_HAL_Driver/Src/stm32wlxx_hal_pwr_ex.c **** /* Private constants ---------------------------------------------------------*/
  40:Drivers/STM32WLxx_HAL_Driver/Src/stm32wlxx_hal_pwr_ex.c **** /** @addtogroup PWREx_Private_Constants PWR Extended Private Constants
  41:Drivers/STM32WLxx_HAL_Driver/Src/stm32wlxx_hal_pwr_ex.c ****   * @{
  42:Drivers/STM32WLxx_HAL_Driver/Src/stm32wlxx_hal_pwr_ex.c ****   */
  43:Drivers/STM32WLxx_HAL_Driver/Src/stm32wlxx_hal_pwr_ex.c **** #define PWR_PORTC_AVAILABLE_PINS   (PWR_GPIO_BIT_15 | PWR_GPIO_BIT_14 | PWR_GPIO_BIT_13 | PWR_GPIO_
  44:Drivers/STM32WLxx_HAL_Driver/Src/stm32wlxx_hal_pwr_ex.c **** #define PWR_PORTH_AVAILABLE_PINS   (PWR_GPIO_BIT_3)
  45:Drivers/STM32WLxx_HAL_Driver/Src/stm32wlxx_hal_pwr_ex.c **** 
  46:Drivers/STM32WLxx_HAL_Driver/Src/stm32wlxx_hal_pwr_ex.c **** /** @defgroup PWREx_TimeOut_Value PWR Extended Flag Setting Time Out Value
  47:Drivers/STM32WLxx_HAL_Driver/Src/stm32wlxx_hal_pwr_ex.c ****   * @{
  48:Drivers/STM32WLxx_HAL_Driver/Src/stm32wlxx_hal_pwr_ex.c ****   */
  49:Drivers/STM32WLxx_HAL_Driver/Src/stm32wlxx_hal_pwr_ex.c **** #define PWR_FLAG_SETTING_DELAY_US                      50UL   /*!< Time out value for REGLPF and VO
  50:Drivers/STM32WLxx_HAL_Driver/Src/stm32wlxx_hal_pwr_ex.c **** /**
  51:Drivers/STM32WLxx_HAL_Driver/Src/stm32wlxx_hal_pwr_ex.c ****   * @}
  52:Drivers/STM32WLxx_HAL_Driver/Src/stm32wlxx_hal_pwr_ex.c ****   */
  53:Drivers/STM32WLxx_HAL_Driver/Src/stm32wlxx_hal_pwr_ex.c **** 
  54:Drivers/STM32WLxx_HAL_Driver/Src/stm32wlxx_hal_pwr_ex.c **** /**
  55:Drivers/STM32WLxx_HAL_Driver/Src/stm32wlxx_hal_pwr_ex.c ****   * @}
  56:Drivers/STM32WLxx_HAL_Driver/Src/stm32wlxx_hal_pwr_ex.c ****   */
  57:Drivers/STM32WLxx_HAL_Driver/Src/stm32wlxx_hal_pwr_ex.c **** 
  58:Drivers/STM32WLxx_HAL_Driver/Src/stm32wlxx_hal_pwr_ex.c **** /* Private macro -------------------------------------------------------------*/
  59:Drivers/STM32WLxx_HAL_Driver/Src/stm32wlxx_hal_pwr_ex.c **** /* Private variables ---------------------------------------------------------*/
  60:Drivers/STM32WLxx_HAL_Driver/Src/stm32wlxx_hal_pwr_ex.c **** /* Private function prototypes -----------------------------------------------*/
  61:Drivers/STM32WLxx_HAL_Driver/Src/stm32wlxx_hal_pwr_ex.c **** /* Exported functions --------------------------------------------------------*/
  62:Drivers/STM32WLxx_HAL_Driver/Src/stm32wlxx_hal_pwr_ex.c **** /** @addtogroup PWREx_Exported_Functions PWR Extended Exported Functions
  63:Drivers/STM32WLxx_HAL_Driver/Src/stm32wlxx_hal_pwr_ex.c ****   * @{
  64:Drivers/STM32WLxx_HAL_Driver/Src/stm32wlxx_hal_pwr_ex.c ****   */
  65:Drivers/STM32WLxx_HAL_Driver/Src/stm32wlxx_hal_pwr_ex.c **** 
  66:Drivers/STM32WLxx_HAL_Driver/Src/stm32wlxx_hal_pwr_ex.c **** /** @addtogroup PWREx_Exported_Functions_Group1 Extended Peripheral Control functions
  67:Drivers/STM32WLxx_HAL_Driver/Src/stm32wlxx_hal_pwr_ex.c ****   *  @brief   Extended Peripheral Control functions
  68:Drivers/STM32WLxx_HAL_Driver/Src/stm32wlxx_hal_pwr_ex.c ****   *
  69:Drivers/STM32WLxx_HAL_Driver/Src/stm32wlxx_hal_pwr_ex.c **** @verbatim
  70:Drivers/STM32WLxx_HAL_Driver/Src/stm32wlxx_hal_pwr_ex.c ****  ===============================================================================
  71:Drivers/STM32WLxx_HAL_Driver/Src/stm32wlxx_hal_pwr_ex.c ****               ##### Extended Peripheral Initialization and de-initialization functions #####
  72:Drivers/STM32WLxx_HAL_Driver/Src/stm32wlxx_hal_pwr_ex.c ****  ===============================================================================
  73:Drivers/STM32WLxx_HAL_Driver/Src/stm32wlxx_hal_pwr_ex.c ****     [..]
  74:Drivers/STM32WLxx_HAL_Driver/Src/stm32wlxx_hal_pwr_ex.c **** 
  75:Drivers/STM32WLxx_HAL_Driver/Src/stm32wlxx_hal_pwr_ex.c **** @endverbatim
  76:Drivers/STM32WLxx_HAL_Driver/Src/stm32wlxx_hal_pwr_ex.c ****   * @{
  77:Drivers/STM32WLxx_HAL_Driver/Src/stm32wlxx_hal_pwr_ex.c ****   */
  78:Drivers/STM32WLxx_HAL_Driver/Src/stm32wlxx_hal_pwr_ex.c **** 
  79:Drivers/STM32WLxx_HAL_Driver/Src/stm32wlxx_hal_pwr_ex.c **** 
  80:Drivers/STM32WLxx_HAL_Driver/Src/stm32wlxx_hal_pwr_ex.c **** /**
  81:Drivers/STM32WLxx_HAL_Driver/Src/stm32wlxx_hal_pwr_ex.c ****   * @brief Return Voltage Scaling Range.
  82:Drivers/STM32WLxx_HAL_Driver/Src/stm32wlxx_hal_pwr_ex.c ****   * @retval VOS bit field (PWR_REGULATOR_VOLTAGE_SCALE1 or PWPWR_REGULATOR_VOLTAGE_SCALE2)
  83:Drivers/STM32WLxx_HAL_Driver/Src/stm32wlxx_hal_pwr_ex.c ****   */
  84:Drivers/STM32WLxx_HAL_Driver/Src/stm32wlxx_hal_pwr_ex.c **** uint32_t HAL_PWREx_GetVoltageRange(void)
  85:Drivers/STM32WLxx_HAL_Driver/Src/stm32wlxx_hal_pwr_ex.c **** {
  27              		.loc 1 85 1 view -0
  28              		.cfi_startproc
  29              		@ args = 0, pretend = 0, frame = 0
  30              		@ frame_needed = 0, uses_anonymous_args = 0
ARM GAS  C:\Users\NATHAN~1\AppData\Local\Temp\ccSyVvP3.s 			page 3


  31              		@ link register save eliminated.
  86:Drivers/STM32WLxx_HAL_Driver/Src/stm32wlxx_hal_pwr_ex.c ****   return (PWR->CR1 & PWR_CR1_VOS);
  32              		.loc 1 86 3 view .LVU1
  33              		.loc 1 86 14 is_stmt 0 view .LVU2
  34 0000 024B     		ldr	r3, .L2
  35 0002 1868     		ldr	r0, [r3]
  87:Drivers/STM32WLxx_HAL_Driver/Src/stm32wlxx_hal_pwr_ex.c **** }
  36              		.loc 1 87 1 view .LVU3
  37 0004 00F4C060 		and	r0, r0, #1536
  38 0008 7047     		bx	lr
  39              	.L3:
  40 000a 00BF     		.align	2
  41              	.L2:
  42 000c 00040058 		.word	1476396032
  43              		.cfi_endproc
  44              	.LFE968:
  46              		.section	.text.HAL_PWREx_ControlVoltageScaling,"ax",%progbits
  47              		.align	1
  48              		.global	HAL_PWREx_ControlVoltageScaling
  49              		.syntax unified
  50              		.thumb
  51              		.thumb_func
  53              	HAL_PWREx_ControlVoltageScaling:
  54              	.LVL0:
  55              	.LFB969:
  88:Drivers/STM32WLxx_HAL_Driver/Src/stm32wlxx_hal_pwr_ex.c **** 
  89:Drivers/STM32WLxx_HAL_Driver/Src/stm32wlxx_hal_pwr_ex.c **** /**
  90:Drivers/STM32WLxx_HAL_Driver/Src/stm32wlxx_hal_pwr_ex.c ****   * @brief Configure the main internal regulator output voltage.
  91:Drivers/STM32WLxx_HAL_Driver/Src/stm32wlxx_hal_pwr_ex.c ****   * @param VoltageScaling specifies the regulator output voltage to achieve
  92:Drivers/STM32WLxx_HAL_Driver/Src/stm32wlxx_hal_pwr_ex.c ****   *         a trade-off between performance and power consumption.
  93:Drivers/STM32WLxx_HAL_Driver/Src/stm32wlxx_hal_pwr_ex.c ****   *          This parameter can be one of the following values:
  94:Drivers/STM32WLxx_HAL_Driver/Src/stm32wlxx_hal_pwr_ex.c ****   *            @arg @ref PWR_REGULATOR_VOLTAGE_SCALE1 Regulator voltage output range 1 mode,
  95:Drivers/STM32WLxx_HAL_Driver/Src/stm32wlxx_hal_pwr_ex.c ****   *                                                typical output voltage at 1.2 V,
  96:Drivers/STM32WLxx_HAL_Driver/Src/stm32wlxx_hal_pwr_ex.c ****   *                                                system frequency up to 48 MHz.
  97:Drivers/STM32WLxx_HAL_Driver/Src/stm32wlxx_hal_pwr_ex.c ****   *            @arg @ref PWR_REGULATOR_VOLTAGE_SCALE2 Regulator voltage output range 2 mode,
  98:Drivers/STM32WLxx_HAL_Driver/Src/stm32wlxx_hal_pwr_ex.c ****   *                                                typical output voltage at 1.0 V,
  99:Drivers/STM32WLxx_HAL_Driver/Src/stm32wlxx_hal_pwr_ex.c ****   *                                                system frequency up to 16 MHz.
 100:Drivers/STM32WLxx_HAL_Driver/Src/stm32wlxx_hal_pwr_ex.c ****   * @note  When moving from Range 1 to Range 2, the system frequency must be decreased to
 101:Drivers/STM32WLxx_HAL_Driver/Src/stm32wlxx_hal_pwr_ex.c ****   *        a value below 16 MHz before calling HAL_PWREx_ControlVoltageScaling() API.
 102:Drivers/STM32WLxx_HAL_Driver/Src/stm32wlxx_hal_pwr_ex.c ****   *        When moving from Range 2 to Range 1, the system frequency can be increased to
 103:Drivers/STM32WLxx_HAL_Driver/Src/stm32wlxx_hal_pwr_ex.c ****   *        a value up to 48 MHz after calling HAL_PWREx_ControlVoltageScaling() API.
 104:Drivers/STM32WLxx_HAL_Driver/Src/stm32wlxx_hal_pwr_ex.c ****   * @note  When moving from Range 2 to Range 1, the API waits for VOSF flag to be
 105:Drivers/STM32WLxx_HAL_Driver/Src/stm32wlxx_hal_pwr_ex.c ****   *        cleared before returning the status. If the flag is not cleared within
 106:Drivers/STM32WLxx_HAL_Driver/Src/stm32wlxx_hal_pwr_ex.c ****   *        50 microseconds, HAL_TIMEOUT status is reported.
 107:Drivers/STM32WLxx_HAL_Driver/Src/stm32wlxx_hal_pwr_ex.c ****   * @retval HAL Status
 108:Drivers/STM32WLxx_HAL_Driver/Src/stm32wlxx_hal_pwr_ex.c ****   */
 109:Drivers/STM32WLxx_HAL_Driver/Src/stm32wlxx_hal_pwr_ex.c **** HAL_StatusTypeDef HAL_PWREx_ControlVoltageScaling(uint32_t VoltageScaling)
 110:Drivers/STM32WLxx_HAL_Driver/Src/stm32wlxx_hal_pwr_ex.c **** {
  56              		.loc 1 110 1 is_stmt 1 view -0
  57              		.cfi_startproc
  58              		@ args = 0, pretend = 0, frame = 0
  59              		@ frame_needed = 0, uses_anonymous_args = 0
  60              		@ link register save eliminated.
 111:Drivers/STM32WLxx_HAL_Driver/Src/stm32wlxx_hal_pwr_ex.c ****   uint32_t wait_loop_index;
  61              		.loc 1 111 3 view .LVU5
 112:Drivers/STM32WLxx_HAL_Driver/Src/stm32wlxx_hal_pwr_ex.c **** 
 113:Drivers/STM32WLxx_HAL_Driver/Src/stm32wlxx_hal_pwr_ex.c ****   assert_param(IS_PWR_VOLTAGE_SCALING_RANGE(VoltageScaling));
ARM GAS  C:\Users\NATHAN~1\AppData\Local\Temp\ccSyVvP3.s 			page 4


  62              		.loc 1 113 3 view .LVU6
 114:Drivers/STM32WLxx_HAL_Driver/Src/stm32wlxx_hal_pwr_ex.c **** 
 115:Drivers/STM32WLxx_HAL_Driver/Src/stm32wlxx_hal_pwr_ex.c ****   /* If Set Range 1 */
 116:Drivers/STM32WLxx_HAL_Driver/Src/stm32wlxx_hal_pwr_ex.c ****   if (VoltageScaling == PWR_REGULATOR_VOLTAGE_SCALE1)
  63              		.loc 1 116 3 view .LVU7
  64              		.loc 1 116 6 is_stmt 0 view .LVU8
  65 0000 B0F5007F 		cmp	r0, #512
  66 0004 0FD0     		beq	.L13
 117:Drivers/STM32WLxx_HAL_Driver/Src/stm32wlxx_hal_pwr_ex.c ****   {
 118:Drivers/STM32WLxx_HAL_Driver/Src/stm32wlxx_hal_pwr_ex.c ****     if (READ_BIT(PWR->CR1, PWR_CR1_VOS) != PWR_REGULATOR_VOLTAGE_SCALE1)
 119:Drivers/STM32WLxx_HAL_Driver/Src/stm32wlxx_hal_pwr_ex.c ****     {
 120:Drivers/STM32WLxx_HAL_Driver/Src/stm32wlxx_hal_pwr_ex.c ****       /* Set Range 1 */
 121:Drivers/STM32WLxx_HAL_Driver/Src/stm32wlxx_hal_pwr_ex.c ****       MODIFY_REG(PWR->CR1, PWR_CR1_VOS, PWR_REGULATOR_VOLTAGE_SCALE1);
 122:Drivers/STM32WLxx_HAL_Driver/Src/stm32wlxx_hal_pwr_ex.c **** 
 123:Drivers/STM32WLxx_HAL_Driver/Src/stm32wlxx_hal_pwr_ex.c ****       /* Wait until VOSF is cleared */
 124:Drivers/STM32WLxx_HAL_Driver/Src/stm32wlxx_hal_pwr_ex.c ****       wait_loop_index = ((PWR_FLAG_SETTING_DELAY_US * SystemCoreClock) / 1000000UL);
 125:Drivers/STM32WLxx_HAL_Driver/Src/stm32wlxx_hal_pwr_ex.c ****       while ((HAL_IS_BIT_SET(PWR->SR2, PWR_SR2_VOSF)) && (wait_loop_index != 0U))
 126:Drivers/STM32WLxx_HAL_Driver/Src/stm32wlxx_hal_pwr_ex.c ****       {
 127:Drivers/STM32WLxx_HAL_Driver/Src/stm32wlxx_hal_pwr_ex.c ****         wait_loop_index--;
 128:Drivers/STM32WLxx_HAL_Driver/Src/stm32wlxx_hal_pwr_ex.c ****       }
 129:Drivers/STM32WLxx_HAL_Driver/Src/stm32wlxx_hal_pwr_ex.c ****       if (HAL_IS_BIT_SET(PWR->SR2, PWR_SR2_VOSF))
 130:Drivers/STM32WLxx_HAL_Driver/Src/stm32wlxx_hal_pwr_ex.c ****       {
 131:Drivers/STM32WLxx_HAL_Driver/Src/stm32wlxx_hal_pwr_ex.c ****         return HAL_TIMEOUT;
 132:Drivers/STM32WLxx_HAL_Driver/Src/stm32wlxx_hal_pwr_ex.c ****       }
 133:Drivers/STM32WLxx_HAL_Driver/Src/stm32wlxx_hal_pwr_ex.c ****     }
 134:Drivers/STM32WLxx_HAL_Driver/Src/stm32wlxx_hal_pwr_ex.c ****   }
 135:Drivers/STM32WLxx_HAL_Driver/Src/stm32wlxx_hal_pwr_ex.c ****   else
 136:Drivers/STM32WLxx_HAL_Driver/Src/stm32wlxx_hal_pwr_ex.c ****   {
 137:Drivers/STM32WLxx_HAL_Driver/Src/stm32wlxx_hal_pwr_ex.c ****     if (READ_BIT(PWR->CR1, PWR_CR1_VOS) != PWR_REGULATOR_VOLTAGE_SCALE2)
  67              		.loc 1 137 5 is_stmt 1 view .LVU9
  68              		.loc 1 137 9 is_stmt 0 view .LVU10
  69 0006 1E4B     		ldr	r3, .L14
  70 0008 1B68     		ldr	r3, [r3]
  71 000a 03F4C063 		and	r3, r3, #1536
  72              		.loc 1 137 8 view .LVU11
  73 000e B3F5806F 		cmp	r3, #1024
  74 0012 33D0     		beq	.L12
 138:Drivers/STM32WLxx_HAL_Driver/Src/stm32wlxx_hal_pwr_ex.c ****     {
 139:Drivers/STM32WLxx_HAL_Driver/Src/stm32wlxx_hal_pwr_ex.c ****       /* Set Range 2 */
 140:Drivers/STM32WLxx_HAL_Driver/Src/stm32wlxx_hal_pwr_ex.c ****       MODIFY_REG(PWR->CR1, PWR_CR1_VOS, PWR_REGULATOR_VOLTAGE_SCALE2);
  75              		.loc 1 140 7 is_stmt 1 view .LVU12
  76 0014 1A4A     		ldr	r2, .L14
  77 0016 1368     		ldr	r3, [r2]
  78 0018 23F4C063 		bic	r3, r3, #1536
  79 001c 43F48063 		orr	r3, r3, #1024
  80 0020 1360     		str	r3, [r2]
 141:Drivers/STM32WLxx_HAL_Driver/Src/stm32wlxx_hal_pwr_ex.c ****       /* No need to wait for VOSF to be cleared for this transition */
 142:Drivers/STM32WLxx_HAL_Driver/Src/stm32wlxx_hal_pwr_ex.c ****     }
 143:Drivers/STM32WLxx_HAL_Driver/Src/stm32wlxx_hal_pwr_ex.c ****   }
 144:Drivers/STM32WLxx_HAL_Driver/Src/stm32wlxx_hal_pwr_ex.c **** 
 145:Drivers/STM32WLxx_HAL_Driver/Src/stm32wlxx_hal_pwr_ex.c ****   return HAL_OK;
  81              		.loc 1 145 10 is_stmt 0 view .LVU13
  82 0022 0020     		movs	r0, #0
  83              	.LVL1:
  84              		.loc 1 145 10 view .LVU14
  85 0024 7047     		bx	lr
  86              	.LVL2:
ARM GAS  C:\Users\NATHAN~1\AppData\Local\Temp\ccSyVvP3.s 			page 5


  87              	.L13:
 118:Drivers/STM32WLxx_HAL_Driver/Src/stm32wlxx_hal_pwr_ex.c ****     {
  88              		.loc 1 118 5 is_stmt 1 view .LVU15
 118:Drivers/STM32WLxx_HAL_Driver/Src/stm32wlxx_hal_pwr_ex.c ****     {
  89              		.loc 1 118 9 is_stmt 0 view .LVU16
  90 0026 164B     		ldr	r3, .L14
  91 0028 1B68     		ldr	r3, [r3]
  92 002a 03F4C063 		and	r3, r3, #1536
 118:Drivers/STM32WLxx_HAL_Driver/Src/stm32wlxx_hal_pwr_ex.c ****     {
  93              		.loc 1 118 8 view .LVU17
  94 002e B3F5007F 		cmp	r3, #512
  95 0032 1FD0     		beq	.L10
 121:Drivers/STM32WLxx_HAL_Driver/Src/stm32wlxx_hal_pwr_ex.c **** 
  96              		.loc 1 121 7 is_stmt 1 view .LVU18
  97 0034 124A     		ldr	r2, .L14
  98 0036 1368     		ldr	r3, [r2]
  99 0038 23F4C063 		bic	r3, r3, #1536
 100 003c 43F40073 		orr	r3, r3, #512
 101 0040 1360     		str	r3, [r2]
 124:Drivers/STM32WLxx_HAL_Driver/Src/stm32wlxx_hal_pwr_ex.c ****       while ((HAL_IS_BIT_SET(PWR->SR2, PWR_SR2_VOSF)) && (wait_loop_index != 0U))
 102              		.loc 1 124 7 view .LVU19
 124:Drivers/STM32WLxx_HAL_Driver/Src/stm32wlxx_hal_pwr_ex.c ****       while ((HAL_IS_BIT_SET(PWR->SR2, PWR_SR2_VOSF)) && (wait_loop_index != 0U))
 103              		.loc 1 124 53 is_stmt 0 view .LVU20
 104 0042 104B     		ldr	r3, .L14+4
 105 0044 1B68     		ldr	r3, [r3]
 106 0046 3222     		movs	r2, #50
 107 0048 02FB03F3 		mul	r3, r2, r3
 124:Drivers/STM32WLxx_HAL_Driver/Src/stm32wlxx_hal_pwr_ex.c ****       while ((HAL_IS_BIT_SET(PWR->SR2, PWR_SR2_VOSF)) && (wait_loop_index != 0U))
 108              		.loc 1 124 23 view .LVU21
 109 004c 0E4A     		ldr	r2, .L14+8
 110 004e A2FB0323 		umull	r2, r3, r2, r3
 111 0052 9B0C     		lsrs	r3, r3, #18
 112              	.LVL3:
 125:Drivers/STM32WLxx_HAL_Driver/Src/stm32wlxx_hal_pwr_ex.c ****       {
 113              		.loc 1 125 7 is_stmt 1 view .LVU22
 125:Drivers/STM32WLxx_HAL_Driver/Src/stm32wlxx_hal_pwr_ex.c ****       {
 114              		.loc 1 125 13 is_stmt 0 view .LVU23
 115 0054 00E0     		b	.L7
 116              	.L9:
 127:Drivers/STM32WLxx_HAL_Driver/Src/stm32wlxx_hal_pwr_ex.c ****       }
 117              		.loc 1 127 9 is_stmt 1 view .LVU24
 127:Drivers/STM32WLxx_HAL_Driver/Src/stm32wlxx_hal_pwr_ex.c ****       }
 118              		.loc 1 127 24 is_stmt 0 view .LVU25
 119 0056 013B     		subs	r3, r3, #1
 120              	.LVL4:
 121              	.L7:
 125:Drivers/STM32WLxx_HAL_Driver/Src/stm32wlxx_hal_pwr_ex.c ****       {
 122              		.loc 1 125 13 is_stmt 1 view .LVU26
 125:Drivers/STM32WLxx_HAL_Driver/Src/stm32wlxx_hal_pwr_ex.c ****       {
 123              		.loc 1 125 15 is_stmt 0 view .LVU27
 124 0058 094A     		ldr	r2, .L14
 125 005a 5269     		ldr	r2, [r2, #20]
 125:Drivers/STM32WLxx_HAL_Driver/Src/stm32wlxx_hal_pwr_ex.c ****       {
 126              		.loc 1 125 13 view .LVU28
 127 005c 12F4806F 		tst	r2, #1024
 128 0060 01D0     		beq	.L8
 125:Drivers/STM32WLxx_HAL_Driver/Src/stm32wlxx_hal_pwr_ex.c ****       {
ARM GAS  C:\Users\NATHAN~1\AppData\Local\Temp\ccSyVvP3.s 			page 6


 129              		.loc 1 125 55 discriminator 1 view .LVU29
 130 0062 002B     		cmp	r3, #0
 131 0064 F7D1     		bne	.L9
 132              	.L8:
 129:Drivers/STM32WLxx_HAL_Driver/Src/stm32wlxx_hal_pwr_ex.c ****       {
 133              		.loc 1 129 7 is_stmt 1 view .LVU30
 129:Drivers/STM32WLxx_HAL_Driver/Src/stm32wlxx_hal_pwr_ex.c ****       {
 134              		.loc 1 129 11 is_stmt 0 view .LVU31
 135 0066 064B     		ldr	r3, .L14
 136              	.LVL5:
 129:Drivers/STM32WLxx_HAL_Driver/Src/stm32wlxx_hal_pwr_ex.c ****       {
 137              		.loc 1 129 11 view .LVU32
 138 0068 5B69     		ldr	r3, [r3, #20]
 129:Drivers/STM32WLxx_HAL_Driver/Src/stm32wlxx_hal_pwr_ex.c ****       {
 139              		.loc 1 129 10 view .LVU33
 140 006a 13F4806F 		tst	r3, #1024
 141 006e 03D1     		bne	.L11
 142              		.loc 1 145 10 view .LVU34
 143 0070 0020     		movs	r0, #0
 144              	.LVL6:
 145              		.loc 1 145 10 view .LVU35
 146 0072 7047     		bx	lr
 147              	.LVL7:
 148              	.L10:
 149              		.loc 1 145 10 view .LVU36
 150 0074 0020     		movs	r0, #0
 151              	.LVL8:
 152              		.loc 1 145 10 view .LVU37
 153 0076 7047     		bx	lr
 154              	.LVL9:
 155              	.L11:
 131:Drivers/STM32WLxx_HAL_Driver/Src/stm32wlxx_hal_pwr_ex.c ****       }
 156              		.loc 1 131 16 view .LVU38
 157 0078 0320     		movs	r0, #3
 158              	.LVL10:
 131:Drivers/STM32WLxx_HAL_Driver/Src/stm32wlxx_hal_pwr_ex.c ****       }
 159              		.loc 1 131 16 view .LVU39
 160 007a 7047     		bx	lr
 161              	.LVL11:
 162              	.L12:
 163              		.loc 1 145 10 view .LVU40
 164 007c 0020     		movs	r0, #0
 165              	.LVL12:
 146:Drivers/STM32WLxx_HAL_Driver/Src/stm32wlxx_hal_pwr_ex.c **** }
 166              		.loc 1 146 1 view .LVU41
 167 007e 7047     		bx	lr
 168              	.L15:
 169              		.align	2
 170              	.L14:
 171 0080 00040058 		.word	1476396032
 172 0084 00000000 		.word	SystemCoreClock
 173 0088 83DE1B43 		.word	1125899907
 174              		.cfi_endproc
 175              	.LFE969:
 177              		.section	.text.HAL_PWREx_EnableBatteryCharging,"ax",%progbits
 178              		.align	1
 179              		.global	HAL_PWREx_EnableBatteryCharging
ARM GAS  C:\Users\NATHAN~1\AppData\Local\Temp\ccSyVvP3.s 			page 7


 180              		.syntax unified
 181              		.thumb
 182              		.thumb_func
 184              	HAL_PWREx_EnableBatteryCharging:
 185              	.LVL13:
 186              	.LFB970:
 147:Drivers/STM32WLxx_HAL_Driver/Src/stm32wlxx_hal_pwr_ex.c **** 
 148:Drivers/STM32WLxx_HAL_Driver/Src/stm32wlxx_hal_pwr_ex.c **** /****************************************************************************/
 149:Drivers/STM32WLxx_HAL_Driver/Src/stm32wlxx_hal_pwr_ex.c **** 
 150:Drivers/STM32WLxx_HAL_Driver/Src/stm32wlxx_hal_pwr_ex.c **** /**
 151:Drivers/STM32WLxx_HAL_Driver/Src/stm32wlxx_hal_pwr_ex.c ****   * @brief Enable battery charging.
 152:Drivers/STM32WLxx_HAL_Driver/Src/stm32wlxx_hal_pwr_ex.c ****   *        When VDD is present, charge the external battery on VBAT through an internal resistor.
 153:Drivers/STM32WLxx_HAL_Driver/Src/stm32wlxx_hal_pwr_ex.c ****   * @param ResistorSelection specifies the resistor impedance.
 154:Drivers/STM32WLxx_HAL_Driver/Src/stm32wlxx_hal_pwr_ex.c ****   *          This parameter can be one of the following values:
 155:Drivers/STM32WLxx_HAL_Driver/Src/stm32wlxx_hal_pwr_ex.c ****   *            @arg @ref PWR_BATTERY_CHARGING_RESISTOR_5     5 kOhms resistor
 156:Drivers/STM32WLxx_HAL_Driver/Src/stm32wlxx_hal_pwr_ex.c ****   *            @arg @ref PWR_BATTERY_CHARGING_RESISTOR_1_5 1.5 kOhms resistor
 157:Drivers/STM32WLxx_HAL_Driver/Src/stm32wlxx_hal_pwr_ex.c ****   * @retval None
 158:Drivers/STM32WLxx_HAL_Driver/Src/stm32wlxx_hal_pwr_ex.c ****   */
 159:Drivers/STM32WLxx_HAL_Driver/Src/stm32wlxx_hal_pwr_ex.c **** void HAL_PWREx_EnableBatteryCharging(uint32_t ResistorSelection)
 160:Drivers/STM32WLxx_HAL_Driver/Src/stm32wlxx_hal_pwr_ex.c **** {
 187              		.loc 1 160 1 is_stmt 1 view -0
 188              		.cfi_startproc
 189              		@ args = 0, pretend = 0, frame = 0
 190              		@ frame_needed = 0, uses_anonymous_args = 0
 191              		@ link register save eliminated.
 161:Drivers/STM32WLxx_HAL_Driver/Src/stm32wlxx_hal_pwr_ex.c ****   assert_param(IS_PWR_BATTERY_RESISTOR_SELECT(ResistorSelection));
 192              		.loc 1 161 3 view .LVU43
 162:Drivers/STM32WLxx_HAL_Driver/Src/stm32wlxx_hal_pwr_ex.c **** 
 163:Drivers/STM32WLxx_HAL_Driver/Src/stm32wlxx_hal_pwr_ex.c ****   /* Specify resistor selection */
 164:Drivers/STM32WLxx_HAL_Driver/Src/stm32wlxx_hal_pwr_ex.c ****   MODIFY_REG(PWR->CR4, PWR_CR4_VBRS, ResistorSelection);
 193              		.loc 1 164 3 view .LVU44
 194 0000 054A     		ldr	r2, .L17
 195 0002 D368     		ldr	r3, [r2, #12]
 196 0004 23F40073 		bic	r3, r3, #512
 197 0008 0343     		orrs	r3, r3, r0
 198 000a D360     		str	r3, [r2, #12]
 165:Drivers/STM32WLxx_HAL_Driver/Src/stm32wlxx_hal_pwr_ex.c **** 
 166:Drivers/STM32WLxx_HAL_Driver/Src/stm32wlxx_hal_pwr_ex.c ****   /* Enable battery charging */
 167:Drivers/STM32WLxx_HAL_Driver/Src/stm32wlxx_hal_pwr_ex.c ****   SET_BIT(PWR->CR4, PWR_CR4_VBE);
 199              		.loc 1 167 3 view .LVU45
 200 000c D368     		ldr	r3, [r2, #12]
 201 000e 43F48073 		orr	r3, r3, #256
 202 0012 D360     		str	r3, [r2, #12]
 168:Drivers/STM32WLxx_HAL_Driver/Src/stm32wlxx_hal_pwr_ex.c **** }
 203              		.loc 1 168 1 is_stmt 0 view .LVU46
 204 0014 7047     		bx	lr
 205              	.L18:
 206 0016 00BF     		.align	2
 207              	.L17:
 208 0018 00040058 		.word	1476396032
 209              		.cfi_endproc
 210              	.LFE970:
 212              		.section	.text.HAL_PWREx_DisableBatteryCharging,"ax",%progbits
 213              		.align	1
 214              		.global	HAL_PWREx_DisableBatteryCharging
 215              		.syntax unified
 216              		.thumb
ARM GAS  C:\Users\NATHAN~1\AppData\Local\Temp\ccSyVvP3.s 			page 8


 217              		.thumb_func
 219              	HAL_PWREx_DisableBatteryCharging:
 220              	.LFB971:
 169:Drivers/STM32WLxx_HAL_Driver/Src/stm32wlxx_hal_pwr_ex.c **** 
 170:Drivers/STM32WLxx_HAL_Driver/Src/stm32wlxx_hal_pwr_ex.c **** /**
 171:Drivers/STM32WLxx_HAL_Driver/Src/stm32wlxx_hal_pwr_ex.c ****   * @brief Disable battery charging.
 172:Drivers/STM32WLxx_HAL_Driver/Src/stm32wlxx_hal_pwr_ex.c ****   * @retval None
 173:Drivers/STM32WLxx_HAL_Driver/Src/stm32wlxx_hal_pwr_ex.c ****   */
 174:Drivers/STM32WLxx_HAL_Driver/Src/stm32wlxx_hal_pwr_ex.c **** void HAL_PWREx_DisableBatteryCharging(void)
 175:Drivers/STM32WLxx_HAL_Driver/Src/stm32wlxx_hal_pwr_ex.c **** {
 221              		.loc 1 175 1 is_stmt 1 view -0
 222              		.cfi_startproc
 223              		@ args = 0, pretend = 0, frame = 0
 224              		@ frame_needed = 0, uses_anonymous_args = 0
 225              		@ link register save eliminated.
 176:Drivers/STM32WLxx_HAL_Driver/Src/stm32wlxx_hal_pwr_ex.c ****   CLEAR_BIT(PWR->CR4, PWR_CR4_VBE);
 226              		.loc 1 176 3 view .LVU48
 227 0000 024A     		ldr	r2, .L20
 228 0002 D368     		ldr	r3, [r2, #12]
 229 0004 23F48073 		bic	r3, r3, #256
 230 0008 D360     		str	r3, [r2, #12]
 177:Drivers/STM32WLxx_HAL_Driver/Src/stm32wlxx_hal_pwr_ex.c **** }
 231              		.loc 1 177 1 is_stmt 0 view .LVU49
 232 000a 7047     		bx	lr
 233              	.L21:
 234              		.align	2
 235              	.L20:
 236 000c 00040058 		.word	1476396032
 237              		.cfi_endproc
 238              	.LFE971:
 240              		.section	.text.HAL_PWREx_EnableInternalWakeUpLine,"ax",%progbits
 241              		.align	1
 242              		.global	HAL_PWREx_EnableInternalWakeUpLine
 243              		.syntax unified
 244              		.thumb
 245              		.thumb_func
 247              	HAL_PWREx_EnableInternalWakeUpLine:
 248              	.LFB972:
 178:Drivers/STM32WLxx_HAL_Driver/Src/stm32wlxx_hal_pwr_ex.c **** 
 179:Drivers/STM32WLxx_HAL_Driver/Src/stm32wlxx_hal_pwr_ex.c **** /****************************************************************************/
 180:Drivers/STM32WLxx_HAL_Driver/Src/stm32wlxx_hal_pwr_ex.c **** 
 181:Drivers/STM32WLxx_HAL_Driver/Src/stm32wlxx_hal_pwr_ex.c **** /**
 182:Drivers/STM32WLxx_HAL_Driver/Src/stm32wlxx_hal_pwr_ex.c ****   * @brief Enable Internal Wake-up Line.
 183:Drivers/STM32WLxx_HAL_Driver/Src/stm32wlxx_hal_pwr_ex.c ****   * @retval None
 184:Drivers/STM32WLxx_HAL_Driver/Src/stm32wlxx_hal_pwr_ex.c ****   */
 185:Drivers/STM32WLxx_HAL_Driver/Src/stm32wlxx_hal_pwr_ex.c **** void HAL_PWREx_EnableInternalWakeUpLine(void)
 186:Drivers/STM32WLxx_HAL_Driver/Src/stm32wlxx_hal_pwr_ex.c **** {
 249              		.loc 1 186 1 is_stmt 1 view -0
 250              		.cfi_startproc
 251              		@ args = 0, pretend = 0, frame = 0
 252              		@ frame_needed = 0, uses_anonymous_args = 0
 253              		@ link register save eliminated.
 187:Drivers/STM32WLxx_HAL_Driver/Src/stm32wlxx_hal_pwr_ex.c **** #ifdef CORE_CM0PLUS
 188:Drivers/STM32WLxx_HAL_Driver/Src/stm32wlxx_hal_pwr_ex.c ****   SET_BIT(PWR->C2CR3, PWR_C2CR3_EIWUL);
 189:Drivers/STM32WLxx_HAL_Driver/Src/stm32wlxx_hal_pwr_ex.c **** #else
 190:Drivers/STM32WLxx_HAL_Driver/Src/stm32wlxx_hal_pwr_ex.c ****   SET_BIT(PWR->CR3, PWR_CR3_EIWUL);
 254              		.loc 1 190 3 view .LVU51
ARM GAS  C:\Users\NATHAN~1\AppData\Local\Temp\ccSyVvP3.s 			page 9


 255 0000 024A     		ldr	r2, .L23
 256 0002 9368     		ldr	r3, [r2, #8]
 257 0004 43F40043 		orr	r3, r3, #32768
 258 0008 9360     		str	r3, [r2, #8]
 191:Drivers/STM32WLxx_HAL_Driver/Src/stm32wlxx_hal_pwr_ex.c **** #endif
 192:Drivers/STM32WLxx_HAL_Driver/Src/stm32wlxx_hal_pwr_ex.c **** }
 259              		.loc 1 192 1 is_stmt 0 view .LVU52
 260 000a 7047     		bx	lr
 261              	.L24:
 262              		.align	2
 263              	.L23:
 264 000c 00040058 		.word	1476396032
 265              		.cfi_endproc
 266              	.LFE972:
 268              		.section	.text.HAL_PWREx_DisableInternalWakeUpLine,"ax",%progbits
 269              		.align	1
 270              		.global	HAL_PWREx_DisableInternalWakeUpLine
 271              		.syntax unified
 272              		.thumb
 273              		.thumb_func
 275              	HAL_PWREx_DisableInternalWakeUpLine:
 276              	.LFB973:
 193:Drivers/STM32WLxx_HAL_Driver/Src/stm32wlxx_hal_pwr_ex.c **** 
 194:Drivers/STM32WLxx_HAL_Driver/Src/stm32wlxx_hal_pwr_ex.c **** /**
 195:Drivers/STM32WLxx_HAL_Driver/Src/stm32wlxx_hal_pwr_ex.c ****   * @brief Disable Internal Wake-up Line.
 196:Drivers/STM32WLxx_HAL_Driver/Src/stm32wlxx_hal_pwr_ex.c ****   * @retval None
 197:Drivers/STM32WLxx_HAL_Driver/Src/stm32wlxx_hal_pwr_ex.c ****   */
 198:Drivers/STM32WLxx_HAL_Driver/Src/stm32wlxx_hal_pwr_ex.c **** void HAL_PWREx_DisableInternalWakeUpLine(void)
 199:Drivers/STM32WLxx_HAL_Driver/Src/stm32wlxx_hal_pwr_ex.c **** {
 277              		.loc 1 199 1 is_stmt 1 view -0
 278              		.cfi_startproc
 279              		@ args = 0, pretend = 0, frame = 0
 280              		@ frame_needed = 0, uses_anonymous_args = 0
 281              		@ link register save eliminated.
 200:Drivers/STM32WLxx_HAL_Driver/Src/stm32wlxx_hal_pwr_ex.c **** #ifdef CORE_CM0PLUS
 201:Drivers/STM32WLxx_HAL_Driver/Src/stm32wlxx_hal_pwr_ex.c ****   CLEAR_BIT(PWR->C2CR3, PWR_C2CR3_EIWUL);
 202:Drivers/STM32WLxx_HAL_Driver/Src/stm32wlxx_hal_pwr_ex.c **** #else
 203:Drivers/STM32WLxx_HAL_Driver/Src/stm32wlxx_hal_pwr_ex.c ****   CLEAR_BIT(PWR->CR3, PWR_CR3_EIWUL);
 282              		.loc 1 203 3 view .LVU54
 283 0000 024A     		ldr	r2, .L26
 284 0002 9368     		ldr	r3, [r2, #8]
 285 0004 23F40043 		bic	r3, r3, #32768
 286 0008 9360     		str	r3, [r2, #8]
 204:Drivers/STM32WLxx_HAL_Driver/Src/stm32wlxx_hal_pwr_ex.c **** #endif
 205:Drivers/STM32WLxx_HAL_Driver/Src/stm32wlxx_hal_pwr_ex.c **** }
 287              		.loc 1 205 1 is_stmt 0 view .LVU55
 288 000a 7047     		bx	lr
 289              	.L27:
 290              		.align	2
 291              	.L26:
 292 000c 00040058 		.word	1476396032
 293              		.cfi_endproc
 294              	.LFE973:
 296              		.section	.text.HAL_PWREx_SetRadioBusyPolarity,"ax",%progbits
 297              		.align	1
 298              		.global	HAL_PWREx_SetRadioBusyPolarity
 299              		.syntax unified
ARM GAS  C:\Users\NATHAN~1\AppData\Local\Temp\ccSyVvP3.s 			page 10


 300              		.thumb
 301              		.thumb_func
 303              	HAL_PWREx_SetRadioBusyPolarity:
 304              	.LVL14:
 305              	.LFB974:
 206:Drivers/STM32WLxx_HAL_Driver/Src/stm32wlxx_hal_pwr_ex.c **** 
 207:Drivers/STM32WLxx_HAL_Driver/Src/stm32wlxx_hal_pwr_ex.c **** /**
 208:Drivers/STM32WLxx_HAL_Driver/Src/stm32wlxx_hal_pwr_ex.c ****   * @brief  Set radio busy trigger polarity.
 209:Drivers/STM32WLxx_HAL_Driver/Src/stm32wlxx_hal_pwr_ex.c ****   * @param  RadioBusyPolarity This parameter can be one of the following values:
 210:Drivers/STM32WLxx_HAL_Driver/Src/stm32wlxx_hal_pwr_ex.c ****   *         @arg @ref PWR_RADIO_BUSY_POLARITY_RISING
 211:Drivers/STM32WLxx_HAL_Driver/Src/stm32wlxx_hal_pwr_ex.c ****   *         @arg @ref PWR_RADIO_BUSY_POLARITY_FALLING
 212:Drivers/STM32WLxx_HAL_Driver/Src/stm32wlxx_hal_pwr_ex.c ****   * @retval HAL Status
 213:Drivers/STM32WLxx_HAL_Driver/Src/stm32wlxx_hal_pwr_ex.c ****   */
 214:Drivers/STM32WLxx_HAL_Driver/Src/stm32wlxx_hal_pwr_ex.c **** void HAL_PWREx_SetRadioBusyPolarity(uint32_t RadioBusyPolarity)
 215:Drivers/STM32WLxx_HAL_Driver/Src/stm32wlxx_hal_pwr_ex.c **** {
 306              		.loc 1 215 1 is_stmt 1 view -0
 307              		.cfi_startproc
 308              		@ args = 0, pretend = 0, frame = 0
 309              		@ frame_needed = 0, uses_anonymous_args = 0
 310              		@ link register save eliminated.
 216:Drivers/STM32WLxx_HAL_Driver/Src/stm32wlxx_hal_pwr_ex.c ****   /* Check the parameters */
 217:Drivers/STM32WLxx_HAL_Driver/Src/stm32wlxx_hal_pwr_ex.c ****   assert_param(IS_RADIO_BUSY_POLARITY(RadioBusyPolarity));
 311              		.loc 1 217 3 view .LVU57
 218:Drivers/STM32WLxx_HAL_Driver/Src/stm32wlxx_hal_pwr_ex.c **** 
 219:Drivers/STM32WLxx_HAL_Driver/Src/stm32wlxx_hal_pwr_ex.c ****   LL_PWR_SetRadioBusyPolarity(RadioBusyPolarity);
 312              		.loc 1 219 3 view .LVU58
 313              	.LBB38:
 314              	.LBI38:
 315              		.file 2 "Drivers/STM32WLxx_HAL_Driver/Inc/stm32wlxx_ll_pwr.h"
   1:Drivers/STM32WLxx_HAL_Driver/Inc/stm32wlxx_ll_pwr.h **** /**
   2:Drivers/STM32WLxx_HAL_Driver/Inc/stm32wlxx_ll_pwr.h ****   ******************************************************************************
   3:Drivers/STM32WLxx_HAL_Driver/Inc/stm32wlxx_ll_pwr.h ****   * @file    stm32wlxx_ll_pwr.h
   4:Drivers/STM32WLxx_HAL_Driver/Inc/stm32wlxx_ll_pwr.h ****   * @author  MCD Application Team
   5:Drivers/STM32WLxx_HAL_Driver/Inc/stm32wlxx_ll_pwr.h ****   * @brief   Header file of PWR LL module.
   6:Drivers/STM32WLxx_HAL_Driver/Inc/stm32wlxx_ll_pwr.h ****   ******************************************************************************
   7:Drivers/STM32WLxx_HAL_Driver/Inc/stm32wlxx_ll_pwr.h ****   * @attention
   8:Drivers/STM32WLxx_HAL_Driver/Inc/stm32wlxx_ll_pwr.h ****   *
   9:Drivers/STM32WLxx_HAL_Driver/Inc/stm32wlxx_ll_pwr.h ****   * <h2><center>&copy; Copyright (c) 2020 STMicroelectronics.
  10:Drivers/STM32WLxx_HAL_Driver/Inc/stm32wlxx_ll_pwr.h ****   * All rights reserved.</center></h2>
  11:Drivers/STM32WLxx_HAL_Driver/Inc/stm32wlxx_ll_pwr.h ****   *
  12:Drivers/STM32WLxx_HAL_Driver/Inc/stm32wlxx_ll_pwr.h ****   * This software component is licensed by ST under BSD 3-Clause license,
  13:Drivers/STM32WLxx_HAL_Driver/Inc/stm32wlxx_ll_pwr.h ****   * the "License"; You may not use this file except in compliance with the
  14:Drivers/STM32WLxx_HAL_Driver/Inc/stm32wlxx_ll_pwr.h ****   * License. You may obtain a copy of the License at:
  15:Drivers/STM32WLxx_HAL_Driver/Inc/stm32wlxx_ll_pwr.h ****   *                        opensource.org/licenses/BSD-3-Clause
  16:Drivers/STM32WLxx_HAL_Driver/Inc/stm32wlxx_ll_pwr.h ****   *
  17:Drivers/STM32WLxx_HAL_Driver/Inc/stm32wlxx_ll_pwr.h ****   ******************************************************************************
  18:Drivers/STM32WLxx_HAL_Driver/Inc/stm32wlxx_ll_pwr.h ****   */
  19:Drivers/STM32WLxx_HAL_Driver/Inc/stm32wlxx_ll_pwr.h **** 
  20:Drivers/STM32WLxx_HAL_Driver/Inc/stm32wlxx_ll_pwr.h **** /* Define to prevent recursive inclusion -------------------------------------*/
  21:Drivers/STM32WLxx_HAL_Driver/Inc/stm32wlxx_ll_pwr.h **** #ifndef __STM32WLxx_LL_PWR_H
  22:Drivers/STM32WLxx_HAL_Driver/Inc/stm32wlxx_ll_pwr.h **** #define __STM32WLxx_LL_PWR_H
  23:Drivers/STM32WLxx_HAL_Driver/Inc/stm32wlxx_ll_pwr.h **** 
  24:Drivers/STM32WLxx_HAL_Driver/Inc/stm32wlxx_ll_pwr.h **** #ifdef __cplusplus
  25:Drivers/STM32WLxx_HAL_Driver/Inc/stm32wlxx_ll_pwr.h **** extern "C" {
  26:Drivers/STM32WLxx_HAL_Driver/Inc/stm32wlxx_ll_pwr.h **** #endif
  27:Drivers/STM32WLxx_HAL_Driver/Inc/stm32wlxx_ll_pwr.h **** 
  28:Drivers/STM32WLxx_HAL_Driver/Inc/stm32wlxx_ll_pwr.h **** /* Includes ------------------------------------------------------------------*/
ARM GAS  C:\Users\NATHAN~1\AppData\Local\Temp\ccSyVvP3.s 			page 11


  29:Drivers/STM32WLxx_HAL_Driver/Inc/stm32wlxx_ll_pwr.h **** #include "stm32wlxx.h"
  30:Drivers/STM32WLxx_HAL_Driver/Inc/stm32wlxx_ll_pwr.h **** 
  31:Drivers/STM32WLxx_HAL_Driver/Inc/stm32wlxx_ll_pwr.h **** /** @addtogroup STM32WLxx_LL_Driver
  32:Drivers/STM32WLxx_HAL_Driver/Inc/stm32wlxx_ll_pwr.h ****   * @{
  33:Drivers/STM32WLxx_HAL_Driver/Inc/stm32wlxx_ll_pwr.h ****   */
  34:Drivers/STM32WLxx_HAL_Driver/Inc/stm32wlxx_ll_pwr.h **** 
  35:Drivers/STM32WLxx_HAL_Driver/Inc/stm32wlxx_ll_pwr.h **** #if defined(PWR)
  36:Drivers/STM32WLxx_HAL_Driver/Inc/stm32wlxx_ll_pwr.h **** 
  37:Drivers/STM32WLxx_HAL_Driver/Inc/stm32wlxx_ll_pwr.h **** /** @defgroup PWR_LL PWR
  38:Drivers/STM32WLxx_HAL_Driver/Inc/stm32wlxx_ll_pwr.h ****   * @{
  39:Drivers/STM32WLxx_HAL_Driver/Inc/stm32wlxx_ll_pwr.h ****   */
  40:Drivers/STM32WLxx_HAL_Driver/Inc/stm32wlxx_ll_pwr.h **** 
  41:Drivers/STM32WLxx_HAL_Driver/Inc/stm32wlxx_ll_pwr.h **** /* Private types -------------------------------------------------------------*/
  42:Drivers/STM32WLxx_HAL_Driver/Inc/stm32wlxx_ll_pwr.h **** /* Private variables ---------------------------------------------------------*/
  43:Drivers/STM32WLxx_HAL_Driver/Inc/stm32wlxx_ll_pwr.h **** 
  44:Drivers/STM32WLxx_HAL_Driver/Inc/stm32wlxx_ll_pwr.h **** /* Private constants ---------------------------------------------------------*/
  45:Drivers/STM32WLxx_HAL_Driver/Inc/stm32wlxx_ll_pwr.h **** /** @defgroup PWR_LL_Private_Constants PWR Private Constants
  46:Drivers/STM32WLxx_HAL_Driver/Inc/stm32wlxx_ll_pwr.h ****   * @{
  47:Drivers/STM32WLxx_HAL_Driver/Inc/stm32wlxx_ll_pwr.h ****   */
  48:Drivers/STM32WLxx_HAL_Driver/Inc/stm32wlxx_ll_pwr.h **** #define PWR_FLASH_POWER_MODE_UNLOCK_CODE  (0x0000C1B0UL)
  49:Drivers/STM32WLxx_HAL_Driver/Inc/stm32wlxx_ll_pwr.h **** /**
  50:Drivers/STM32WLxx_HAL_Driver/Inc/stm32wlxx_ll_pwr.h ****   * @}
  51:Drivers/STM32WLxx_HAL_Driver/Inc/stm32wlxx_ll_pwr.h ****   */
  52:Drivers/STM32WLxx_HAL_Driver/Inc/stm32wlxx_ll_pwr.h **** 
  53:Drivers/STM32WLxx_HAL_Driver/Inc/stm32wlxx_ll_pwr.h **** /* Private macros ------------------------------------------------------------*/
  54:Drivers/STM32WLxx_HAL_Driver/Inc/stm32wlxx_ll_pwr.h **** 
  55:Drivers/STM32WLxx_HAL_Driver/Inc/stm32wlxx_ll_pwr.h **** /* Exported types ------------------------------------------------------------*/
  56:Drivers/STM32WLxx_HAL_Driver/Inc/stm32wlxx_ll_pwr.h **** /* Exported constants --------------------------------------------------------*/
  57:Drivers/STM32WLxx_HAL_Driver/Inc/stm32wlxx_ll_pwr.h **** /** @defgroup PWR_LL_Exported_Constants PWR Exported Constants
  58:Drivers/STM32WLxx_HAL_Driver/Inc/stm32wlxx_ll_pwr.h ****   * @{
  59:Drivers/STM32WLxx_HAL_Driver/Inc/stm32wlxx_ll_pwr.h ****   */
  60:Drivers/STM32WLxx_HAL_Driver/Inc/stm32wlxx_ll_pwr.h **** 
  61:Drivers/STM32WLxx_HAL_Driver/Inc/stm32wlxx_ll_pwr.h **** /** @defgroup PWR_LL_EC_CLEAR_FLAG Clear Flags Defines
  62:Drivers/STM32WLxx_HAL_Driver/Inc/stm32wlxx_ll_pwr.h ****   * @brief    Flags defines which can be used with LL_PWR_WriteReg function
  63:Drivers/STM32WLxx_HAL_Driver/Inc/stm32wlxx_ll_pwr.h ****   * @{
  64:Drivers/STM32WLxx_HAL_Driver/Inc/stm32wlxx_ll_pwr.h ****   */
  65:Drivers/STM32WLxx_HAL_Driver/Inc/stm32wlxx_ll_pwr.h **** #define LL_PWR_SCR_CWUF                    PWR_SCR_CWUF
  66:Drivers/STM32WLxx_HAL_Driver/Inc/stm32wlxx_ll_pwr.h **** #define LL_PWR_SCR_CWUF3                   PWR_SCR_CWUF3
  67:Drivers/STM32WLxx_HAL_Driver/Inc/stm32wlxx_ll_pwr.h **** #define LL_PWR_SCR_CWUF2                   PWR_SCR_CWUF2
  68:Drivers/STM32WLxx_HAL_Driver/Inc/stm32wlxx_ll_pwr.h **** #define LL_PWR_SCR_CWUF1                   PWR_SCR_CWUF1
  69:Drivers/STM32WLxx_HAL_Driver/Inc/stm32wlxx_ll_pwr.h **** #define LL_PWR_SCR_CWPVDF                  PWR_SCR_CWPVDF
  70:Drivers/STM32WLxx_HAL_Driver/Inc/stm32wlxx_ll_pwr.h **** #define LL_PWR_SCR_CWRFBUSYF               PWR_SCR_CWRFBUSYF
  71:Drivers/STM32WLxx_HAL_Driver/Inc/stm32wlxx_ll_pwr.h **** #define LL_PWR_SCR_CC2HF                   PWR_SCR_CC2HF
  72:Drivers/STM32WLxx_HAL_Driver/Inc/stm32wlxx_ll_pwr.h **** #define LL_PWR_EXTSCR_C2CSSF               PWR_EXTSCR_C2CSSF
  73:Drivers/STM32WLxx_HAL_Driver/Inc/stm32wlxx_ll_pwr.h **** #define LL_PWR_EXTSCR_C1CSSF               PWR_EXTSCR_C1CSSF
  74:Drivers/STM32WLxx_HAL_Driver/Inc/stm32wlxx_ll_pwr.h **** /**
  75:Drivers/STM32WLxx_HAL_Driver/Inc/stm32wlxx_ll_pwr.h ****   * @}
  76:Drivers/STM32WLxx_HAL_Driver/Inc/stm32wlxx_ll_pwr.h ****   */
  77:Drivers/STM32WLxx_HAL_Driver/Inc/stm32wlxx_ll_pwr.h **** 
  78:Drivers/STM32WLxx_HAL_Driver/Inc/stm32wlxx_ll_pwr.h **** /** @defgroup PWR_LL_EC_GET_FLAG Get Flags Defines
  79:Drivers/STM32WLxx_HAL_Driver/Inc/stm32wlxx_ll_pwr.h ****   * @brief    Flags defines which can be used with LL_PWR_ReadReg function
  80:Drivers/STM32WLxx_HAL_Driver/Inc/stm32wlxx_ll_pwr.h ****   * @{
  81:Drivers/STM32WLxx_HAL_Driver/Inc/stm32wlxx_ll_pwr.h ****   */
  82:Drivers/STM32WLxx_HAL_Driver/Inc/stm32wlxx_ll_pwr.h **** #define LL_PWR_SR1_WUFI                    PWR_SR1_WUFI
  83:Drivers/STM32WLxx_HAL_Driver/Inc/stm32wlxx_ll_pwr.h **** #define LL_PWR_SR1_WUF3                    PWR_SR1_WUF3
  84:Drivers/STM32WLxx_HAL_Driver/Inc/stm32wlxx_ll_pwr.h **** #define LL_PWR_SR1_WUF2                    PWR_SR1_WUF2
  85:Drivers/STM32WLxx_HAL_Driver/Inc/stm32wlxx_ll_pwr.h **** #define LL_PWR_SR1_WUF1                    PWR_SR1_WUF1
ARM GAS  C:\Users\NATHAN~1\AppData\Local\Temp\ccSyVvP3.s 			page 12


  86:Drivers/STM32WLxx_HAL_Driver/Inc/stm32wlxx_ll_pwr.h **** #define LL_PWR_SR1_WPVDF                   PWR_SR1_WPVDF
  87:Drivers/STM32WLxx_HAL_Driver/Inc/stm32wlxx_ll_pwr.h **** 
  88:Drivers/STM32WLxx_HAL_Driver/Inc/stm32wlxx_ll_pwr.h **** #define LL_PWR_SR2_LDORDY                  PWR_SR2_LDORDY
  89:Drivers/STM32WLxx_HAL_Driver/Inc/stm32wlxx_ll_pwr.h **** #define LL_PWR_SR2_PVMO3                   PWR_SR2_PVMO3
  90:Drivers/STM32WLxx_HAL_Driver/Inc/stm32wlxx_ll_pwr.h **** #define LL_PWR_SR2_PVDO                    PWR_SR2_PVDO
  91:Drivers/STM32WLxx_HAL_Driver/Inc/stm32wlxx_ll_pwr.h **** #define LL_PWR_SR2_RFEOL                   PWR_SR2_RFEOLF
  92:Drivers/STM32WLxx_HAL_Driver/Inc/stm32wlxx_ll_pwr.h **** #define LL_PWR_SR2_VOSF                    PWR_SR2_VOSF
  93:Drivers/STM32WLxx_HAL_Driver/Inc/stm32wlxx_ll_pwr.h **** #define LL_PWR_SR2_REGLPF                  PWR_SR2_REGLPF
  94:Drivers/STM32WLxx_HAL_Driver/Inc/stm32wlxx_ll_pwr.h **** #define LL_PWR_SR2_REGLPS                  PWR_SR2_REGLPS
  95:Drivers/STM32WLxx_HAL_Driver/Inc/stm32wlxx_ll_pwr.h **** #define LL_PWR_SR2_REGMRS                  PWR_SR2_REGMRS
  96:Drivers/STM32WLxx_HAL_Driver/Inc/stm32wlxx_ll_pwr.h **** 
  97:Drivers/STM32WLxx_HAL_Driver/Inc/stm32wlxx_ll_pwr.h **** /* SMPS flags */
  98:Drivers/STM32WLxx_HAL_Driver/Inc/stm32wlxx_ll_pwr.h **** #define LL_PWR_SR2_SMPSRDY                 PWR_SR2_SMPSRDY
  99:Drivers/STM32WLxx_HAL_Driver/Inc/stm32wlxx_ll_pwr.h **** 
 100:Drivers/STM32WLxx_HAL_Driver/Inc/stm32wlxx_ll_pwr.h **** /* Radio flags */
 101:Drivers/STM32WLxx_HAL_Driver/Inc/stm32wlxx_ll_pwr.h **** #define LL_PWR_SR1_WRFBUSY                 PWR_SR1_WRFBUSYF   /* Radio busy flag for wake-up and in
 102:Drivers/STM32WLxx_HAL_Driver/Inc/stm32wlxx_ll_pwr.h **** #define LL_PWR_SR2_RFBUSYS                 PWR_SR2_RFBUSYS    /* Radio busy signal flag (current st
 103:Drivers/STM32WLxx_HAL_Driver/Inc/stm32wlxx_ll_pwr.h **** #define LL_PWR_SR2_RFBUSYMS                PWR_SR2_RFBUSYMS   /* Radio busy masked signal flag (cur
 104:Drivers/STM32WLxx_HAL_Driver/Inc/stm32wlxx_ll_pwr.h **** 
 105:Drivers/STM32WLxx_HAL_Driver/Inc/stm32wlxx_ll_pwr.h **** /* Multicore flags */
 106:Drivers/STM32WLxx_HAL_Driver/Inc/stm32wlxx_ll_pwr.h **** #define LL_PWR_EXTSCR_C1SBF                PWR_EXTSCR_C1SBF    /* System Standby flag for CPU1 */
 107:Drivers/STM32WLxx_HAL_Driver/Inc/stm32wlxx_ll_pwr.h **** #define LL_PWR_EXTSCR_C1STOP2F             PWR_EXTSCR_C1STOP2F /* System Stop 2 flag for CPU1 */
 108:Drivers/STM32WLxx_HAL_Driver/Inc/stm32wlxx_ll_pwr.h **** #define LL_PWR_EXTSCR_C1STOPF              PWR_EXTSCR_C1STOPF  /* System Stop 0 or stop 1 flag for 
 109:Drivers/STM32WLxx_HAL_Driver/Inc/stm32wlxx_ll_pwr.h **** #define LL_PWR_EXTSCR_C1DS                 PWR_EXTSCR_C1DS     /* CPU1 deepsleep mode */
 110:Drivers/STM32WLxx_HAL_Driver/Inc/stm32wlxx_ll_pwr.h **** #if defined(DUAL_CORE)
 111:Drivers/STM32WLxx_HAL_Driver/Inc/stm32wlxx_ll_pwr.h **** #define LL_PWR_EXTSCR_C2SBF                PWR_EXTSCR_C2SBF    /* System Standby flag for CPU2 */
 112:Drivers/STM32WLxx_HAL_Driver/Inc/stm32wlxx_ll_pwr.h **** #define LL_PWR_EXTSCR_C2STOP2F             PWR_EXTSCR_C2STOP2F /* System Stop 2 flag for CPU2 */
 113:Drivers/STM32WLxx_HAL_Driver/Inc/stm32wlxx_ll_pwr.h **** #define LL_PWR_EXTSCR_C2STOPF              PWR_EXTSCR_C2STOPF  /* System Stop 0 or stop 1 flag for 
 114:Drivers/STM32WLxx_HAL_Driver/Inc/stm32wlxx_ll_pwr.h **** #define LL_PWR_EXTSCR_C2DS                 PWR_EXTSCR_C2DS     /* CPU2 deepsleep mode */
 115:Drivers/STM32WLxx_HAL_Driver/Inc/stm32wlxx_ll_pwr.h **** #define LL_PWR_SR2_C2BOOTS                 PWR_SR2_C2BOOTS     /* CPU2 boot request source informat
 116:Drivers/STM32WLxx_HAL_Driver/Inc/stm32wlxx_ll_pwr.h **** #define LL_PWR_SR1_C2HF                    PWR_SR1_C2HF        /* CPU2 hold interrupt flag */
 117:Drivers/STM32WLxx_HAL_Driver/Inc/stm32wlxx_ll_pwr.h **** #endif
 118:Drivers/STM32WLxx_HAL_Driver/Inc/stm32wlxx_ll_pwr.h **** /**
 119:Drivers/STM32WLxx_HAL_Driver/Inc/stm32wlxx_ll_pwr.h ****   * @}
 120:Drivers/STM32WLxx_HAL_Driver/Inc/stm32wlxx_ll_pwr.h ****   */
 121:Drivers/STM32WLxx_HAL_Driver/Inc/stm32wlxx_ll_pwr.h **** 
 122:Drivers/STM32WLxx_HAL_Driver/Inc/stm32wlxx_ll_pwr.h **** /** @defgroup PWR_LL_EC_REGU_VOLTAGE REGU VOLTAGE
 123:Drivers/STM32WLxx_HAL_Driver/Inc/stm32wlxx_ll_pwr.h ****   * @{
 124:Drivers/STM32WLxx_HAL_Driver/Inc/stm32wlxx_ll_pwr.h ****   */
 125:Drivers/STM32WLxx_HAL_Driver/Inc/stm32wlxx_ll_pwr.h **** #define LL_PWR_REGU_VOLTAGE_SCALE1         (PWR_CR1_VOS_0) /* Regulator voltage output range 1 mode
 126:Drivers/STM32WLxx_HAL_Driver/Inc/stm32wlxx_ll_pwr.h **** #define LL_PWR_REGU_VOLTAGE_SCALE2         (PWR_CR1_VOS_1) /* Regulator voltage output range 2 mode
 127:Drivers/STM32WLxx_HAL_Driver/Inc/stm32wlxx_ll_pwr.h **** /**
 128:Drivers/STM32WLxx_HAL_Driver/Inc/stm32wlxx_ll_pwr.h ****   * @}
 129:Drivers/STM32WLxx_HAL_Driver/Inc/stm32wlxx_ll_pwr.h ****   */
 130:Drivers/STM32WLxx_HAL_Driver/Inc/stm32wlxx_ll_pwr.h **** 
 131:Drivers/STM32WLxx_HAL_Driver/Inc/stm32wlxx_ll_pwr.h **** /** @defgroup PWR_LL_EC_MODE_PWR MODE PWR
 132:Drivers/STM32WLxx_HAL_Driver/Inc/stm32wlxx_ll_pwr.h ****   * @{
 133:Drivers/STM32WLxx_HAL_Driver/Inc/stm32wlxx_ll_pwr.h ****   */
 134:Drivers/STM32WLxx_HAL_Driver/Inc/stm32wlxx_ll_pwr.h **** #define LL_PWR_MODE_STOP0                  (0x000000000UL)
 135:Drivers/STM32WLxx_HAL_Driver/Inc/stm32wlxx_ll_pwr.h **** #define LL_PWR_MODE_STOP1                  (PWR_CR1_LPMS_0)
 136:Drivers/STM32WLxx_HAL_Driver/Inc/stm32wlxx_ll_pwr.h **** #define LL_PWR_MODE_STOP2                  (PWR_CR1_LPMS_1)
 137:Drivers/STM32WLxx_HAL_Driver/Inc/stm32wlxx_ll_pwr.h **** #define LL_PWR_MODE_STANDBY                (PWR_CR1_LPMS_1 | PWR_CR1_LPMS_0)
 138:Drivers/STM32WLxx_HAL_Driver/Inc/stm32wlxx_ll_pwr.h **** #define LL_PWR_MODE_SHUTDOWN               (PWR_CR1_LPMS_2 | PWR_CR1_LPMS_1 | PWR_CR1_LPMS_0)
 139:Drivers/STM32WLxx_HAL_Driver/Inc/stm32wlxx_ll_pwr.h **** /**
 140:Drivers/STM32WLxx_HAL_Driver/Inc/stm32wlxx_ll_pwr.h ****   * @}
 141:Drivers/STM32WLxx_HAL_Driver/Inc/stm32wlxx_ll_pwr.h ****   */
 142:Drivers/STM32WLxx_HAL_Driver/Inc/stm32wlxx_ll_pwr.h **** 
ARM GAS  C:\Users\NATHAN~1\AppData\Local\Temp\ccSyVvP3.s 			page 13


 143:Drivers/STM32WLxx_HAL_Driver/Inc/stm32wlxx_ll_pwr.h **** /** @defgroup PWR_LL_EC_FLASH_LPRUN_POWER_DOWN_MODE Flash power-down mode during low-power run mode
 144:Drivers/STM32WLxx_HAL_Driver/Inc/stm32wlxx_ll_pwr.h ****   * @{
 145:Drivers/STM32WLxx_HAL_Driver/Inc/stm32wlxx_ll_pwr.h ****   */
 146:Drivers/STM32WLxx_HAL_Driver/Inc/stm32wlxx_ll_pwr.h **** #define LL_PWR_FLASH_LPRUN_MODE_IDLE       (0x000000000UL)
 147:Drivers/STM32WLxx_HAL_Driver/Inc/stm32wlxx_ll_pwr.h **** #define LL_PWR_FLASH_LPRUN_MODE_POWER_DOWN (PWR_CR1_FPDR)
 148:Drivers/STM32WLxx_HAL_Driver/Inc/stm32wlxx_ll_pwr.h **** /**
 149:Drivers/STM32WLxx_HAL_Driver/Inc/stm32wlxx_ll_pwr.h ****   * @}
 150:Drivers/STM32WLxx_HAL_Driver/Inc/stm32wlxx_ll_pwr.h ****   */
 151:Drivers/STM32WLxx_HAL_Driver/Inc/stm32wlxx_ll_pwr.h **** 
 152:Drivers/STM32WLxx_HAL_Driver/Inc/stm32wlxx_ll_pwr.h **** /** @defgroup PWR_LL_EC_FLASH_SLEEP_POWER_DOWN_MODE Flash power-down mode during sleep mode
 153:Drivers/STM32WLxx_HAL_Driver/Inc/stm32wlxx_ll_pwr.h ****   * @{
 154:Drivers/STM32WLxx_HAL_Driver/Inc/stm32wlxx_ll_pwr.h ****   */
 155:Drivers/STM32WLxx_HAL_Driver/Inc/stm32wlxx_ll_pwr.h **** #define LL_PWR_FLASH_SLEEP_MODE_IDLE       (0x000000000UL)
 156:Drivers/STM32WLxx_HAL_Driver/Inc/stm32wlxx_ll_pwr.h **** #define LL_PWR_FLASH_SLEEP_MODE_POWER_DOWN (PWR_CR1_FPDS)
 157:Drivers/STM32WLxx_HAL_Driver/Inc/stm32wlxx_ll_pwr.h **** /**
 158:Drivers/STM32WLxx_HAL_Driver/Inc/stm32wlxx_ll_pwr.h ****   * @}
 159:Drivers/STM32WLxx_HAL_Driver/Inc/stm32wlxx_ll_pwr.h ****   */
 160:Drivers/STM32WLxx_HAL_Driver/Inc/stm32wlxx_ll_pwr.h **** 
 161:Drivers/STM32WLxx_HAL_Driver/Inc/stm32wlxx_ll_pwr.h **** /** @defgroup PWR_LL_EC_PVM Peripheral voltage monitoring
 162:Drivers/STM32WLxx_HAL_Driver/Inc/stm32wlxx_ll_pwr.h ****   * @{
 163:Drivers/STM32WLxx_HAL_Driver/Inc/stm32wlxx_ll_pwr.h ****   */
 164:Drivers/STM32WLxx_HAL_Driver/Inc/stm32wlxx_ll_pwr.h **** #define LL_PWR_PVM_VDDA_1_62V              (PWR_CR2_PVME3)     /* Monitoring VDDA vs. 1.62V  */
 165:Drivers/STM32WLxx_HAL_Driver/Inc/stm32wlxx_ll_pwr.h **** /**
 166:Drivers/STM32WLxx_HAL_Driver/Inc/stm32wlxx_ll_pwr.h ****   * @}
 167:Drivers/STM32WLxx_HAL_Driver/Inc/stm32wlxx_ll_pwr.h ****   */
 168:Drivers/STM32WLxx_HAL_Driver/Inc/stm32wlxx_ll_pwr.h **** 
 169:Drivers/STM32WLxx_HAL_Driver/Inc/stm32wlxx_ll_pwr.h **** /** @defgroup PWR_LL_EC_PVDLEVEL PVDLEVEL
 170:Drivers/STM32WLxx_HAL_Driver/Inc/stm32wlxx_ll_pwr.h ****   * @{
 171:Drivers/STM32WLxx_HAL_Driver/Inc/stm32wlxx_ll_pwr.h ****   */
 172:Drivers/STM32WLxx_HAL_Driver/Inc/stm32wlxx_ll_pwr.h **** #define LL_PWR_PVDLEVEL_0                  (0x00000000UL)                                  /* VPVD0
 173:Drivers/STM32WLxx_HAL_Driver/Inc/stm32wlxx_ll_pwr.h **** #define LL_PWR_PVDLEVEL_1                  (PWR_CR2_PLS_0)                                 /* VPVD1
 174:Drivers/STM32WLxx_HAL_Driver/Inc/stm32wlxx_ll_pwr.h **** #define LL_PWR_PVDLEVEL_2                  (PWR_CR2_PLS_1)                                 /* VPVD2
 175:Drivers/STM32WLxx_HAL_Driver/Inc/stm32wlxx_ll_pwr.h **** #define LL_PWR_PVDLEVEL_3                  (PWR_CR2_PLS_1 | PWR_CR2_PLS_0)                 /* VPVD3
 176:Drivers/STM32WLxx_HAL_Driver/Inc/stm32wlxx_ll_pwr.h **** #define LL_PWR_PVDLEVEL_4                  (PWR_CR2_PLS_2)                                 /* VPVD4
 177:Drivers/STM32WLxx_HAL_Driver/Inc/stm32wlxx_ll_pwr.h **** #define LL_PWR_PVDLEVEL_5                  (PWR_CR2_PLS_2 | PWR_CR2_PLS_0)                 /* VPVD5
 178:Drivers/STM32WLxx_HAL_Driver/Inc/stm32wlxx_ll_pwr.h **** #define LL_PWR_PVDLEVEL_6                  (PWR_CR2_PLS_2 | PWR_CR2_PLS_1)                 /* VPVD6
 179:Drivers/STM32WLxx_HAL_Driver/Inc/stm32wlxx_ll_pwr.h **** #define LL_PWR_PVDLEVEL_7                  (PWR_CR2_PLS_2 | PWR_CR2_PLS_1 | PWR_CR2_PLS_0) /* Exter
 180:Drivers/STM32WLxx_HAL_Driver/Inc/stm32wlxx_ll_pwr.h **** /**
 181:Drivers/STM32WLxx_HAL_Driver/Inc/stm32wlxx_ll_pwr.h ****   * @}
 182:Drivers/STM32WLxx_HAL_Driver/Inc/stm32wlxx_ll_pwr.h ****   */
 183:Drivers/STM32WLxx_HAL_Driver/Inc/stm32wlxx_ll_pwr.h **** 
 184:Drivers/STM32WLxx_HAL_Driver/Inc/stm32wlxx_ll_pwr.h **** /** @defgroup PWR_LL_EC_EOL_OPERATING_MODES Monitoring of supply voltage for radio operating level 
 185:Drivers/STM32WLxx_HAL_Driver/Inc/stm32wlxx_ll_pwr.h ****   * @{
 186:Drivers/STM32WLxx_HAL_Driver/Inc/stm32wlxx_ll_pwr.h ****   */
 187:Drivers/STM32WLxx_HAL_Driver/Inc/stm32wlxx_ll_pwr.h **** #define LL_PWR_RADIO_EOL_DISABLE                  (0x00000000UL)    /*!< Monitoring of supply volta
 188:Drivers/STM32WLxx_HAL_Driver/Inc/stm32wlxx_ll_pwr.h **** #define LL_PWR_RADIO_EOL_ENABLE                   (PWR_CR5_RFEOLEN) /*!< Monitoring of supply volta
 189:Drivers/STM32WLxx_HAL_Driver/Inc/stm32wlxx_ll_pwr.h **** /**
 190:Drivers/STM32WLxx_HAL_Driver/Inc/stm32wlxx_ll_pwr.h ****   * @}
 191:Drivers/STM32WLxx_HAL_Driver/Inc/stm32wlxx_ll_pwr.h ****   */
 192:Drivers/STM32WLxx_HAL_Driver/Inc/stm32wlxx_ll_pwr.h **** 
 193:Drivers/STM32WLxx_HAL_Driver/Inc/stm32wlxx_ll_pwr.h **** /** @defgroup PWR_LL_EC_WAKEUP WAKEUP
 194:Drivers/STM32WLxx_HAL_Driver/Inc/stm32wlxx_ll_pwr.h ****   * @{
 195:Drivers/STM32WLxx_HAL_Driver/Inc/stm32wlxx_ll_pwr.h ****   */
 196:Drivers/STM32WLxx_HAL_Driver/Inc/stm32wlxx_ll_pwr.h **** #define LL_PWR_WAKEUP_PIN1                 (PWR_CR3_EWUP1)
 197:Drivers/STM32WLxx_HAL_Driver/Inc/stm32wlxx_ll_pwr.h **** #define LL_PWR_WAKEUP_PIN2                 (PWR_CR3_EWUP2)
 198:Drivers/STM32WLxx_HAL_Driver/Inc/stm32wlxx_ll_pwr.h **** #define LL_PWR_WAKEUP_PIN3                 (PWR_CR3_EWUP3)
 199:Drivers/STM32WLxx_HAL_Driver/Inc/stm32wlxx_ll_pwr.h **** /**
ARM GAS  C:\Users\NATHAN~1\AppData\Local\Temp\ccSyVvP3.s 			page 14


 200:Drivers/STM32WLxx_HAL_Driver/Inc/stm32wlxx_ll_pwr.h ****   * @}
 201:Drivers/STM32WLxx_HAL_Driver/Inc/stm32wlxx_ll_pwr.h ****   */
 202:Drivers/STM32WLxx_HAL_Driver/Inc/stm32wlxx_ll_pwr.h **** 
 203:Drivers/STM32WLxx_HAL_Driver/Inc/stm32wlxx_ll_pwr.h **** /** @defgroup PWR_LL_EC_BATT_CHARG_RESISTOR BATT CHARG RESISTOR
 204:Drivers/STM32WLxx_HAL_Driver/Inc/stm32wlxx_ll_pwr.h ****   * @{
 205:Drivers/STM32WLxx_HAL_Driver/Inc/stm32wlxx_ll_pwr.h ****   */
 206:Drivers/STM32WLxx_HAL_Driver/Inc/stm32wlxx_ll_pwr.h **** #define LL_PWR_BATT_CHARG_RESISTOR_5K      (0x00000000UL)
 207:Drivers/STM32WLxx_HAL_Driver/Inc/stm32wlxx_ll_pwr.h **** #define LL_PWR_BATT_CHARGRESISTOR_1_5K     (PWR_CR4_VBRS)
 208:Drivers/STM32WLxx_HAL_Driver/Inc/stm32wlxx_ll_pwr.h **** /**
 209:Drivers/STM32WLxx_HAL_Driver/Inc/stm32wlxx_ll_pwr.h ****   * @}
 210:Drivers/STM32WLxx_HAL_Driver/Inc/stm32wlxx_ll_pwr.h ****   */
 211:Drivers/STM32WLxx_HAL_Driver/Inc/stm32wlxx_ll_pwr.h **** 
 212:Drivers/STM32WLxx_HAL_Driver/Inc/stm32wlxx_ll_pwr.h **** /** @defgroup PWR_LL_EC_GPIO GPIO
 213:Drivers/STM32WLxx_HAL_Driver/Inc/stm32wlxx_ll_pwr.h ****   * @{
 214:Drivers/STM32WLxx_HAL_Driver/Inc/stm32wlxx_ll_pwr.h ****   */
 215:Drivers/STM32WLxx_HAL_Driver/Inc/stm32wlxx_ll_pwr.h **** #define LL_PWR_GPIO_A                      ((uint32_t)(&(PWR->PUCRA)))
 216:Drivers/STM32WLxx_HAL_Driver/Inc/stm32wlxx_ll_pwr.h **** #define LL_PWR_GPIO_B                      ((uint32_t)(&(PWR->PUCRB)))
 217:Drivers/STM32WLxx_HAL_Driver/Inc/stm32wlxx_ll_pwr.h **** #define LL_PWR_GPIO_C                      ((uint32_t)(&(PWR->PUCRC)))
 218:Drivers/STM32WLxx_HAL_Driver/Inc/stm32wlxx_ll_pwr.h **** #define LL_PWR_GPIO_H                      ((uint32_t)(&(PWR->PUCRH)))
 219:Drivers/STM32WLxx_HAL_Driver/Inc/stm32wlxx_ll_pwr.h **** /**
 220:Drivers/STM32WLxx_HAL_Driver/Inc/stm32wlxx_ll_pwr.h ****   * @}
 221:Drivers/STM32WLxx_HAL_Driver/Inc/stm32wlxx_ll_pwr.h ****   */
 222:Drivers/STM32WLxx_HAL_Driver/Inc/stm32wlxx_ll_pwr.h **** 
 223:Drivers/STM32WLxx_HAL_Driver/Inc/stm32wlxx_ll_pwr.h **** /** @defgroup PWR_LL_EC_GPIO_BIT GPIO BIT
 224:Drivers/STM32WLxx_HAL_Driver/Inc/stm32wlxx_ll_pwr.h ****   * @{
 225:Drivers/STM32WLxx_HAL_Driver/Inc/stm32wlxx_ll_pwr.h ****   */
 226:Drivers/STM32WLxx_HAL_Driver/Inc/stm32wlxx_ll_pwr.h **** /* Note: LL_PWR_GPIO_BIT_x defined from port B because all pins are available */
 227:Drivers/STM32WLxx_HAL_Driver/Inc/stm32wlxx_ll_pwr.h **** /*       for PWR pull-up and pull-down.                                       */
 228:Drivers/STM32WLxx_HAL_Driver/Inc/stm32wlxx_ll_pwr.h **** #define LL_PWR_GPIO_BIT_0                  (PWR_PUCRB_PB0)
 229:Drivers/STM32WLxx_HAL_Driver/Inc/stm32wlxx_ll_pwr.h **** #define LL_PWR_GPIO_BIT_1                  (PWR_PUCRB_PB1)
 230:Drivers/STM32WLxx_HAL_Driver/Inc/stm32wlxx_ll_pwr.h **** #define LL_PWR_GPIO_BIT_2                  (PWR_PUCRB_PB2)
 231:Drivers/STM32WLxx_HAL_Driver/Inc/stm32wlxx_ll_pwr.h **** #define LL_PWR_GPIO_BIT_3                  (PWR_PUCRB_PB3)
 232:Drivers/STM32WLxx_HAL_Driver/Inc/stm32wlxx_ll_pwr.h **** #define LL_PWR_GPIO_BIT_4                  (PWR_PUCRB_PB4)
 233:Drivers/STM32WLxx_HAL_Driver/Inc/stm32wlxx_ll_pwr.h **** #define LL_PWR_GPIO_BIT_5                  (PWR_PUCRB_PB5)
 234:Drivers/STM32WLxx_HAL_Driver/Inc/stm32wlxx_ll_pwr.h **** #define LL_PWR_GPIO_BIT_6                  (PWR_PUCRB_PB6)
 235:Drivers/STM32WLxx_HAL_Driver/Inc/stm32wlxx_ll_pwr.h **** #define LL_PWR_GPIO_BIT_7                  (PWR_PUCRB_PB7)
 236:Drivers/STM32WLxx_HAL_Driver/Inc/stm32wlxx_ll_pwr.h **** #define LL_PWR_GPIO_BIT_8                  (PWR_PUCRB_PB8)
 237:Drivers/STM32WLxx_HAL_Driver/Inc/stm32wlxx_ll_pwr.h **** #define LL_PWR_GPIO_BIT_9                  (PWR_PUCRB_PB9)
 238:Drivers/STM32WLxx_HAL_Driver/Inc/stm32wlxx_ll_pwr.h **** #define LL_PWR_GPIO_BIT_10                 (PWR_PUCRB_PB10)
 239:Drivers/STM32WLxx_HAL_Driver/Inc/stm32wlxx_ll_pwr.h **** #define LL_PWR_GPIO_BIT_11                 (PWR_PUCRB_PB11)
 240:Drivers/STM32WLxx_HAL_Driver/Inc/stm32wlxx_ll_pwr.h **** #define LL_PWR_GPIO_BIT_12                 (PWR_PUCRB_PB12)
 241:Drivers/STM32WLxx_HAL_Driver/Inc/stm32wlxx_ll_pwr.h **** #define LL_PWR_GPIO_BIT_13                 (PWR_PUCRB_PB13)
 242:Drivers/STM32WLxx_HAL_Driver/Inc/stm32wlxx_ll_pwr.h **** #define LL_PWR_GPIO_BIT_14                 (PWR_PUCRB_PB14)
 243:Drivers/STM32WLxx_HAL_Driver/Inc/stm32wlxx_ll_pwr.h **** #define LL_PWR_GPIO_BIT_15                 (PWR_PUCRB_PB15)
 244:Drivers/STM32WLxx_HAL_Driver/Inc/stm32wlxx_ll_pwr.h **** /**
 245:Drivers/STM32WLxx_HAL_Driver/Inc/stm32wlxx_ll_pwr.h ****   * @}
 246:Drivers/STM32WLxx_HAL_Driver/Inc/stm32wlxx_ll_pwr.h ****   */
 247:Drivers/STM32WLxx_HAL_Driver/Inc/stm32wlxx_ll_pwr.h **** 
 248:Drivers/STM32WLxx_HAL_Driver/Inc/stm32wlxx_ll_pwr.h **** /** @defgroup PWR_LL_EC_SMPS_OPERATING_MODES SMPS step down converter operating modes
 249:Drivers/STM32WLxx_HAL_Driver/Inc/stm32wlxx_ll_pwr.h ****   * @{
 250:Drivers/STM32WLxx_HAL_Driver/Inc/stm32wlxx_ll_pwr.h ****   */
 251:Drivers/STM32WLxx_HAL_Driver/Inc/stm32wlxx_ll_pwr.h **** #define LL_PWR_SMPS_BYPASS                 (0x00000000UL)    /*!< SMPS step down in bypass mode (di
 252:Drivers/STM32WLxx_HAL_Driver/Inc/stm32wlxx_ll_pwr.h **** #define LL_PWR_SMPS_STEP_DOWN              (PWR_CR5_SMPSEN)  /*!< SMPS step down in step down mode 
 253:Drivers/STM32WLxx_HAL_Driver/Inc/stm32wlxx_ll_pwr.h **** /**
 254:Drivers/STM32WLxx_HAL_Driver/Inc/stm32wlxx_ll_pwr.h ****   * @}
 255:Drivers/STM32WLxx_HAL_Driver/Inc/stm32wlxx_ll_pwr.h ****   */
 256:Drivers/STM32WLxx_HAL_Driver/Inc/stm32wlxx_ll_pwr.h **** 
ARM GAS  C:\Users\NATHAN~1\AppData\Local\Temp\ccSyVvP3.s 			page 15


 257:Drivers/STM32WLxx_HAL_Driver/Inc/stm32wlxx_ll_pwr.h **** /** @defgroup PWR_LL_EC_RADIO_BUSY_POLARITY Radio busy signal polarity
 258:Drivers/STM32WLxx_HAL_Driver/Inc/stm32wlxx_ll_pwr.h ****   * @{
 259:Drivers/STM32WLxx_HAL_Driver/Inc/stm32wlxx_ll_pwr.h ****   */
 260:Drivers/STM32WLxx_HAL_Driver/Inc/stm32wlxx_ll_pwr.h **** #define LL_PWR_RADIO_BUSY_POLARITY_RISING  (0x00000000UL)     /*!< Radio busy signal polarity to ri
 261:Drivers/STM32WLxx_HAL_Driver/Inc/stm32wlxx_ll_pwr.h **** #define LL_PWR_RADIO_BUSY_POLARITY_FALLING (PWR_CR4_WRFBUSYP) /*!< Radio busy signal polarity to fa
 262:Drivers/STM32WLxx_HAL_Driver/Inc/stm32wlxx_ll_pwr.h **** /**
 263:Drivers/STM32WLxx_HAL_Driver/Inc/stm32wlxx_ll_pwr.h ****   * @}
 264:Drivers/STM32WLxx_HAL_Driver/Inc/stm32wlxx_ll_pwr.h ****   */
 265:Drivers/STM32WLxx_HAL_Driver/Inc/stm32wlxx_ll_pwr.h **** 
 266:Drivers/STM32WLxx_HAL_Driver/Inc/stm32wlxx_ll_pwr.h **** /** @defgroup PWR_LL_EC_RADIO_BUSY_TRIGGER Radio busy trigger
 267:Drivers/STM32WLxx_HAL_Driver/Inc/stm32wlxx_ll_pwr.h ****   * @{
 268:Drivers/STM32WLxx_HAL_Driver/Inc/stm32wlxx_ll_pwr.h ****   */
 269:Drivers/STM32WLxx_HAL_Driver/Inc/stm32wlxx_ll_pwr.h **** #define LL_PWR_RADIO_BUSY_TRIGGER_NONE     (0x00000000UL)     /*!< Radio busy trigger action: no wa
 270:Drivers/STM32WLxx_HAL_Driver/Inc/stm32wlxx_ll_pwr.h **** #define LL_PWR_RADIO_BUSY_TRIGGER_WU_IT    (PWR_CR3_EWRFBUSY) /*!< Radio busy trigger action: wake-
 271:Drivers/STM32WLxx_HAL_Driver/Inc/stm32wlxx_ll_pwr.h **** /**
 272:Drivers/STM32WLxx_HAL_Driver/Inc/stm32wlxx_ll_pwr.h ****   * @}
 273:Drivers/STM32WLxx_HAL_Driver/Inc/stm32wlxx_ll_pwr.h ****   */
 274:Drivers/STM32WLxx_HAL_Driver/Inc/stm32wlxx_ll_pwr.h **** 
 275:Drivers/STM32WLxx_HAL_Driver/Inc/stm32wlxx_ll_pwr.h **** /** @defgroup PWR_LL_EC_RADIO_IRQ_TRIGGER Radio IRQ trigger
 276:Drivers/STM32WLxx_HAL_Driver/Inc/stm32wlxx_ll_pwr.h ****   * @{
 277:Drivers/STM32WLxx_HAL_Driver/Inc/stm32wlxx_ll_pwr.h ****   */
 278:Drivers/STM32WLxx_HAL_Driver/Inc/stm32wlxx_ll_pwr.h **** #define LL_PWR_RADIO_IRQ_TRIGGER_NONE      (0x00000000UL)     /*!< Radio IRQ trigger action: no wak
 279:Drivers/STM32WLxx_HAL_Driver/Inc/stm32wlxx_ll_pwr.h **** #define LL_PWR_RADIO_IRQ_TRIGGER_WU_IT     (PWR_CR3_EWRFIRQ)  /*!< Radio IRQ trigger action: wake-u
 280:Drivers/STM32WLxx_HAL_Driver/Inc/stm32wlxx_ll_pwr.h **** /**
 281:Drivers/STM32WLxx_HAL_Driver/Inc/stm32wlxx_ll_pwr.h ****   * @}
 282:Drivers/STM32WLxx_HAL_Driver/Inc/stm32wlxx_ll_pwr.h ****   */
 283:Drivers/STM32WLxx_HAL_Driver/Inc/stm32wlxx_ll_pwr.h **** 
 284:Drivers/STM32WLxx_HAL_Driver/Inc/stm32wlxx_ll_pwr.h **** /** @defgroup PWR_LL_EC_RADIO_SPI_NSS_SRC Radio Sub-GHz radio SPI NSS source
 285:Drivers/STM32WLxx_HAL_Driver/Inc/stm32wlxx_ll_pwr.h ****   * @{
 286:Drivers/STM32WLxx_HAL_Driver/Inc/stm32wlxx_ll_pwr.h ****   */
 287:Drivers/STM32WLxx_HAL_Driver/Inc/stm32wlxx_ll_pwr.h **** #define LL_PWR_SUBGHZSPI_NSS_SRC_SW        (0x00000000UL)            /*!< Sub-GHz radio SPI NSS con
 288:Drivers/STM32WLxx_HAL_Driver/Inc/stm32wlxx_ll_pwr.h **** #define LL_PWR_SUBGHZSPI_NSS_SRC_LPTIM3    (PWR_CR1_SUBGHZSPINSSSEL) /*!< Sub-GHz radio SPI NSS con
 289:Drivers/STM32WLxx_HAL_Driver/Inc/stm32wlxx_ll_pwr.h **** /**
 290:Drivers/STM32WLxx_HAL_Driver/Inc/stm32wlxx_ll_pwr.h ****   * @}
 291:Drivers/STM32WLxx_HAL_Driver/Inc/stm32wlxx_ll_pwr.h ****   */
 292:Drivers/STM32WLxx_HAL_Driver/Inc/stm32wlxx_ll_pwr.h **** 
 293:Drivers/STM32WLxx_HAL_Driver/Inc/stm32wlxx_ll_pwr.h **** /**
 294:Drivers/STM32WLxx_HAL_Driver/Inc/stm32wlxx_ll_pwr.h ****   * @}
 295:Drivers/STM32WLxx_HAL_Driver/Inc/stm32wlxx_ll_pwr.h ****   */
 296:Drivers/STM32WLxx_HAL_Driver/Inc/stm32wlxx_ll_pwr.h **** 
 297:Drivers/STM32WLxx_HAL_Driver/Inc/stm32wlxx_ll_pwr.h **** /* Exported macro ------------------------------------------------------------*/
 298:Drivers/STM32WLxx_HAL_Driver/Inc/stm32wlxx_ll_pwr.h **** /** @defgroup PWR_LL_Exported_Macros PWR Exported Macros
 299:Drivers/STM32WLxx_HAL_Driver/Inc/stm32wlxx_ll_pwr.h ****   * @{
 300:Drivers/STM32WLxx_HAL_Driver/Inc/stm32wlxx_ll_pwr.h ****   */
 301:Drivers/STM32WLxx_HAL_Driver/Inc/stm32wlxx_ll_pwr.h **** 
 302:Drivers/STM32WLxx_HAL_Driver/Inc/stm32wlxx_ll_pwr.h **** /** @defgroup PWR_LL_EM_WRITE_READ Common Write and read registers Macros
 303:Drivers/STM32WLxx_HAL_Driver/Inc/stm32wlxx_ll_pwr.h ****   * @{
 304:Drivers/STM32WLxx_HAL_Driver/Inc/stm32wlxx_ll_pwr.h ****   */
 305:Drivers/STM32WLxx_HAL_Driver/Inc/stm32wlxx_ll_pwr.h **** 
 306:Drivers/STM32WLxx_HAL_Driver/Inc/stm32wlxx_ll_pwr.h **** /**
 307:Drivers/STM32WLxx_HAL_Driver/Inc/stm32wlxx_ll_pwr.h ****   * @brief  Write a value in PWR register
 308:Drivers/STM32WLxx_HAL_Driver/Inc/stm32wlxx_ll_pwr.h ****   * @param  __REG__ Register to be written
 309:Drivers/STM32WLxx_HAL_Driver/Inc/stm32wlxx_ll_pwr.h ****   * @param  __VALUE__ Value to be written in the register
 310:Drivers/STM32WLxx_HAL_Driver/Inc/stm32wlxx_ll_pwr.h ****   * @retval None
 311:Drivers/STM32WLxx_HAL_Driver/Inc/stm32wlxx_ll_pwr.h ****   */
 312:Drivers/STM32WLxx_HAL_Driver/Inc/stm32wlxx_ll_pwr.h **** #define LL_PWR_WriteReg(__REG__, __VALUE__) WRITE_REG(PWR->__REG__, (__VALUE__))
 313:Drivers/STM32WLxx_HAL_Driver/Inc/stm32wlxx_ll_pwr.h **** 
ARM GAS  C:\Users\NATHAN~1\AppData\Local\Temp\ccSyVvP3.s 			page 16


 314:Drivers/STM32WLxx_HAL_Driver/Inc/stm32wlxx_ll_pwr.h **** /**
 315:Drivers/STM32WLxx_HAL_Driver/Inc/stm32wlxx_ll_pwr.h ****   * @brief  Read a value in PWR register
 316:Drivers/STM32WLxx_HAL_Driver/Inc/stm32wlxx_ll_pwr.h ****   * @param  __REG__ Register to be read
 317:Drivers/STM32WLxx_HAL_Driver/Inc/stm32wlxx_ll_pwr.h ****   * @retval Register value
 318:Drivers/STM32WLxx_HAL_Driver/Inc/stm32wlxx_ll_pwr.h ****   */
 319:Drivers/STM32WLxx_HAL_Driver/Inc/stm32wlxx_ll_pwr.h **** #define LL_PWR_ReadReg(__REG__) READ_REG(PWR->__REG__)
 320:Drivers/STM32WLxx_HAL_Driver/Inc/stm32wlxx_ll_pwr.h **** /**
 321:Drivers/STM32WLxx_HAL_Driver/Inc/stm32wlxx_ll_pwr.h ****   * @}
 322:Drivers/STM32WLxx_HAL_Driver/Inc/stm32wlxx_ll_pwr.h ****   */
 323:Drivers/STM32WLxx_HAL_Driver/Inc/stm32wlxx_ll_pwr.h **** 
 324:Drivers/STM32WLxx_HAL_Driver/Inc/stm32wlxx_ll_pwr.h **** /**
 325:Drivers/STM32WLxx_HAL_Driver/Inc/stm32wlxx_ll_pwr.h ****   * @}
 326:Drivers/STM32WLxx_HAL_Driver/Inc/stm32wlxx_ll_pwr.h ****   */
 327:Drivers/STM32WLxx_HAL_Driver/Inc/stm32wlxx_ll_pwr.h **** 
 328:Drivers/STM32WLxx_HAL_Driver/Inc/stm32wlxx_ll_pwr.h **** 
 329:Drivers/STM32WLxx_HAL_Driver/Inc/stm32wlxx_ll_pwr.h **** /* Exported functions --------------------------------------------------------*/
 330:Drivers/STM32WLxx_HAL_Driver/Inc/stm32wlxx_ll_pwr.h **** /** @defgroup PWR_LL_Exported_Functions PWR Exported Functions
 331:Drivers/STM32WLxx_HAL_Driver/Inc/stm32wlxx_ll_pwr.h ****   * @{
 332:Drivers/STM32WLxx_HAL_Driver/Inc/stm32wlxx_ll_pwr.h ****   */
 333:Drivers/STM32WLxx_HAL_Driver/Inc/stm32wlxx_ll_pwr.h **** 
 334:Drivers/STM32WLxx_HAL_Driver/Inc/stm32wlxx_ll_pwr.h **** /** @defgroup PWR_LL_EF_Configuration Configuration
 335:Drivers/STM32WLxx_HAL_Driver/Inc/stm32wlxx_ll_pwr.h ****   * @{
 336:Drivers/STM32WLxx_HAL_Driver/Inc/stm32wlxx_ll_pwr.h ****   */
 337:Drivers/STM32WLxx_HAL_Driver/Inc/stm32wlxx_ll_pwr.h **** 
 338:Drivers/STM32WLxx_HAL_Driver/Inc/stm32wlxx_ll_pwr.h **** /**
 339:Drivers/STM32WLxx_HAL_Driver/Inc/stm32wlxx_ll_pwr.h ****   * @brief  Switch from run main mode to run low-power mode.
 340:Drivers/STM32WLxx_HAL_Driver/Inc/stm32wlxx_ll_pwr.h ****   * @rmtoll CR1          LPR           LL_PWR_EnterLowPowerRunMode
 341:Drivers/STM32WLxx_HAL_Driver/Inc/stm32wlxx_ll_pwr.h ****   * @retval None
 342:Drivers/STM32WLxx_HAL_Driver/Inc/stm32wlxx_ll_pwr.h ****   */
 343:Drivers/STM32WLxx_HAL_Driver/Inc/stm32wlxx_ll_pwr.h **** __STATIC_INLINE void LL_PWR_EnterLowPowerRunMode(void)
 344:Drivers/STM32WLxx_HAL_Driver/Inc/stm32wlxx_ll_pwr.h **** {
 345:Drivers/STM32WLxx_HAL_Driver/Inc/stm32wlxx_ll_pwr.h ****   SET_BIT(PWR->CR1, PWR_CR1_LPR);
 346:Drivers/STM32WLxx_HAL_Driver/Inc/stm32wlxx_ll_pwr.h **** }
 347:Drivers/STM32WLxx_HAL_Driver/Inc/stm32wlxx_ll_pwr.h **** 
 348:Drivers/STM32WLxx_HAL_Driver/Inc/stm32wlxx_ll_pwr.h **** /**
 349:Drivers/STM32WLxx_HAL_Driver/Inc/stm32wlxx_ll_pwr.h ****   * @brief  Switch from run main mode to low-power mode.
 350:Drivers/STM32WLxx_HAL_Driver/Inc/stm32wlxx_ll_pwr.h ****   * @rmtoll CR1          LPR           LL_PWR_ExitLowPowerRunMode
 351:Drivers/STM32WLxx_HAL_Driver/Inc/stm32wlxx_ll_pwr.h ****   * @retval None
 352:Drivers/STM32WLxx_HAL_Driver/Inc/stm32wlxx_ll_pwr.h ****   */
 353:Drivers/STM32WLxx_HAL_Driver/Inc/stm32wlxx_ll_pwr.h **** __STATIC_INLINE void LL_PWR_ExitLowPowerRunMode(void)
 354:Drivers/STM32WLxx_HAL_Driver/Inc/stm32wlxx_ll_pwr.h **** {
 355:Drivers/STM32WLxx_HAL_Driver/Inc/stm32wlxx_ll_pwr.h ****   CLEAR_BIT(PWR->CR1, PWR_CR1_LPR);
 356:Drivers/STM32WLxx_HAL_Driver/Inc/stm32wlxx_ll_pwr.h **** }
 357:Drivers/STM32WLxx_HAL_Driver/Inc/stm32wlxx_ll_pwr.h **** 
 358:Drivers/STM32WLxx_HAL_Driver/Inc/stm32wlxx_ll_pwr.h **** /**
 359:Drivers/STM32WLxx_HAL_Driver/Inc/stm32wlxx_ll_pwr.h ****   * @brief  Check if the regulator is in low-power mode
 360:Drivers/STM32WLxx_HAL_Driver/Inc/stm32wlxx_ll_pwr.h ****   * @rmtoll CR1          LPR           LL_PWR_IsEnabledLowPowerRunMode
 361:Drivers/STM32WLxx_HAL_Driver/Inc/stm32wlxx_ll_pwr.h ****   * @retval State of bit (1 or 0).
 362:Drivers/STM32WLxx_HAL_Driver/Inc/stm32wlxx_ll_pwr.h ****   */
 363:Drivers/STM32WLxx_HAL_Driver/Inc/stm32wlxx_ll_pwr.h **** __STATIC_INLINE uint32_t LL_PWR_IsEnabledLowPowerRunMode(void)
 364:Drivers/STM32WLxx_HAL_Driver/Inc/stm32wlxx_ll_pwr.h **** {
 365:Drivers/STM32WLxx_HAL_Driver/Inc/stm32wlxx_ll_pwr.h ****   return ((READ_BIT(PWR->CR1, PWR_CR1_LPR) == (PWR_CR1_LPR)) ? 1UL : 0UL);
 366:Drivers/STM32WLxx_HAL_Driver/Inc/stm32wlxx_ll_pwr.h **** }
 367:Drivers/STM32WLxx_HAL_Driver/Inc/stm32wlxx_ll_pwr.h **** 
 368:Drivers/STM32WLxx_HAL_Driver/Inc/stm32wlxx_ll_pwr.h **** /**
 369:Drivers/STM32WLxx_HAL_Driver/Inc/stm32wlxx_ll_pwr.h ****   * @brief  Set the main internal regulator output voltage
 370:Drivers/STM32WLxx_HAL_Driver/Inc/stm32wlxx_ll_pwr.h ****   * @note   A delay is required for the internal regulator to be ready
ARM GAS  C:\Users\NATHAN~1\AppData\Local\Temp\ccSyVvP3.s 			page 17


 371:Drivers/STM32WLxx_HAL_Driver/Inc/stm32wlxx_ll_pwr.h ****   *         after the voltage scaling has been changed.
 372:Drivers/STM32WLxx_HAL_Driver/Inc/stm32wlxx_ll_pwr.h ****   *         Check whether regulator reached the selected voltage level
 373:Drivers/STM32WLxx_HAL_Driver/Inc/stm32wlxx_ll_pwr.h ****   *         can be done using function @ref LL_PWR_IsActiveFlag_VOS().
 374:Drivers/STM32WLxx_HAL_Driver/Inc/stm32wlxx_ll_pwr.h ****   * @rmtoll CR1          VOS           LL_PWR_SetRegulVoltageScaling
 375:Drivers/STM32WLxx_HAL_Driver/Inc/stm32wlxx_ll_pwr.h ****   * @param  VoltageScaling This parameter can be one of the following values:
 376:Drivers/STM32WLxx_HAL_Driver/Inc/stm32wlxx_ll_pwr.h ****   *         @arg @ref LL_PWR_REGU_VOLTAGE_SCALE1
 377:Drivers/STM32WLxx_HAL_Driver/Inc/stm32wlxx_ll_pwr.h ****   *         @arg @ref LL_PWR_REGU_VOLTAGE_SCALE2
 378:Drivers/STM32WLxx_HAL_Driver/Inc/stm32wlxx_ll_pwr.h ****   * @retval None
 379:Drivers/STM32WLxx_HAL_Driver/Inc/stm32wlxx_ll_pwr.h ****   */
 380:Drivers/STM32WLxx_HAL_Driver/Inc/stm32wlxx_ll_pwr.h **** __STATIC_INLINE void LL_PWR_SetRegulVoltageScaling(uint32_t VoltageScaling)
 381:Drivers/STM32WLxx_HAL_Driver/Inc/stm32wlxx_ll_pwr.h **** {
 382:Drivers/STM32WLxx_HAL_Driver/Inc/stm32wlxx_ll_pwr.h ****   MODIFY_REG(PWR->CR1, PWR_CR1_VOS, VoltageScaling);
 383:Drivers/STM32WLxx_HAL_Driver/Inc/stm32wlxx_ll_pwr.h **** }
 384:Drivers/STM32WLxx_HAL_Driver/Inc/stm32wlxx_ll_pwr.h **** 
 385:Drivers/STM32WLxx_HAL_Driver/Inc/stm32wlxx_ll_pwr.h **** /**
 386:Drivers/STM32WLxx_HAL_Driver/Inc/stm32wlxx_ll_pwr.h ****   * @brief  Get the main internal regulator output voltage
 387:Drivers/STM32WLxx_HAL_Driver/Inc/stm32wlxx_ll_pwr.h ****   * @rmtoll CR1          VOS           LL_PWR_GetRegulVoltageScaling
 388:Drivers/STM32WLxx_HAL_Driver/Inc/stm32wlxx_ll_pwr.h ****   * @retval Returned value can be one of the following values:
 389:Drivers/STM32WLxx_HAL_Driver/Inc/stm32wlxx_ll_pwr.h ****   *         @arg @ref LL_PWR_REGU_VOLTAGE_SCALE1
 390:Drivers/STM32WLxx_HAL_Driver/Inc/stm32wlxx_ll_pwr.h ****   *         @arg @ref LL_PWR_REGU_VOLTAGE_SCALE2
 391:Drivers/STM32WLxx_HAL_Driver/Inc/stm32wlxx_ll_pwr.h ****   */
 392:Drivers/STM32WLxx_HAL_Driver/Inc/stm32wlxx_ll_pwr.h **** __STATIC_INLINE uint32_t LL_PWR_GetRegulVoltageScaling(void)
 393:Drivers/STM32WLxx_HAL_Driver/Inc/stm32wlxx_ll_pwr.h **** {
 394:Drivers/STM32WLxx_HAL_Driver/Inc/stm32wlxx_ll_pwr.h ****   return (uint32_t)(READ_BIT(PWR->CR1, PWR_CR1_VOS));
 395:Drivers/STM32WLxx_HAL_Driver/Inc/stm32wlxx_ll_pwr.h **** }
 396:Drivers/STM32WLxx_HAL_Driver/Inc/stm32wlxx_ll_pwr.h **** 
 397:Drivers/STM32WLxx_HAL_Driver/Inc/stm32wlxx_ll_pwr.h **** /**
 398:Drivers/STM32WLxx_HAL_Driver/Inc/stm32wlxx_ll_pwr.h ****   * @brief  Enable access to the backup domain
 399:Drivers/STM32WLxx_HAL_Driver/Inc/stm32wlxx_ll_pwr.h ****   * @rmtoll CR1          DBP           LL_PWR_EnableBkUpAccess
 400:Drivers/STM32WLxx_HAL_Driver/Inc/stm32wlxx_ll_pwr.h ****   * @retval None
 401:Drivers/STM32WLxx_HAL_Driver/Inc/stm32wlxx_ll_pwr.h ****   */
 402:Drivers/STM32WLxx_HAL_Driver/Inc/stm32wlxx_ll_pwr.h **** __STATIC_INLINE void LL_PWR_EnableBkUpAccess(void)
 403:Drivers/STM32WLxx_HAL_Driver/Inc/stm32wlxx_ll_pwr.h **** {
 404:Drivers/STM32WLxx_HAL_Driver/Inc/stm32wlxx_ll_pwr.h ****   SET_BIT(PWR->CR1, PWR_CR1_DBP);
 405:Drivers/STM32WLxx_HAL_Driver/Inc/stm32wlxx_ll_pwr.h **** }
 406:Drivers/STM32WLxx_HAL_Driver/Inc/stm32wlxx_ll_pwr.h **** 
 407:Drivers/STM32WLxx_HAL_Driver/Inc/stm32wlxx_ll_pwr.h **** /**
 408:Drivers/STM32WLxx_HAL_Driver/Inc/stm32wlxx_ll_pwr.h ****   * @brief  Disable access to the backup domain
 409:Drivers/STM32WLxx_HAL_Driver/Inc/stm32wlxx_ll_pwr.h ****   * @rmtoll CR1          DBP           LL_PWR_DisableBkUpAccess
 410:Drivers/STM32WLxx_HAL_Driver/Inc/stm32wlxx_ll_pwr.h ****   * @retval None
 411:Drivers/STM32WLxx_HAL_Driver/Inc/stm32wlxx_ll_pwr.h ****   */
 412:Drivers/STM32WLxx_HAL_Driver/Inc/stm32wlxx_ll_pwr.h **** __STATIC_INLINE void LL_PWR_DisableBkUpAccess(void)
 413:Drivers/STM32WLxx_HAL_Driver/Inc/stm32wlxx_ll_pwr.h **** {
 414:Drivers/STM32WLxx_HAL_Driver/Inc/stm32wlxx_ll_pwr.h ****   CLEAR_BIT(PWR->CR1, PWR_CR1_DBP);
 415:Drivers/STM32WLxx_HAL_Driver/Inc/stm32wlxx_ll_pwr.h **** }
 416:Drivers/STM32WLxx_HAL_Driver/Inc/stm32wlxx_ll_pwr.h **** 
 417:Drivers/STM32WLxx_HAL_Driver/Inc/stm32wlxx_ll_pwr.h **** /**
 418:Drivers/STM32WLxx_HAL_Driver/Inc/stm32wlxx_ll_pwr.h ****   * @brief  Check if the backup domain is enabled
 419:Drivers/STM32WLxx_HAL_Driver/Inc/stm32wlxx_ll_pwr.h ****   * @rmtoll CR1          DBP           LL_PWR_IsEnabledBkUpAccess
 420:Drivers/STM32WLxx_HAL_Driver/Inc/stm32wlxx_ll_pwr.h ****   * @retval State of bit (1 or 0).
 421:Drivers/STM32WLxx_HAL_Driver/Inc/stm32wlxx_ll_pwr.h ****   */
 422:Drivers/STM32WLxx_HAL_Driver/Inc/stm32wlxx_ll_pwr.h **** __STATIC_INLINE uint32_t LL_PWR_IsEnabledBkUpAccess(void)
 423:Drivers/STM32WLxx_HAL_Driver/Inc/stm32wlxx_ll_pwr.h **** {
 424:Drivers/STM32WLxx_HAL_Driver/Inc/stm32wlxx_ll_pwr.h ****   return ((READ_BIT(PWR->CR1, PWR_CR1_DBP) == (PWR_CR1_DBP)) ? 1UL : 0UL);
 425:Drivers/STM32WLxx_HAL_Driver/Inc/stm32wlxx_ll_pwr.h **** }
 426:Drivers/STM32WLxx_HAL_Driver/Inc/stm32wlxx_ll_pwr.h **** 
 427:Drivers/STM32WLxx_HAL_Driver/Inc/stm32wlxx_ll_pwr.h **** /**
ARM GAS  C:\Users\NATHAN~1\AppData\Local\Temp\ccSyVvP3.s 			page 18


 428:Drivers/STM32WLxx_HAL_Driver/Inc/stm32wlxx_ll_pwr.h ****   * @brief  Set Low-Power mode
 429:Drivers/STM32WLxx_HAL_Driver/Inc/stm32wlxx_ll_pwr.h ****   * @rmtoll CR1          LPMS          LL_PWR_SetPowerMode
 430:Drivers/STM32WLxx_HAL_Driver/Inc/stm32wlxx_ll_pwr.h ****   * @param  LowPowerMode This parameter can be one of the following values:
 431:Drivers/STM32WLxx_HAL_Driver/Inc/stm32wlxx_ll_pwr.h ****   *         @arg @ref LL_PWR_MODE_STOP0
 432:Drivers/STM32WLxx_HAL_Driver/Inc/stm32wlxx_ll_pwr.h ****   *         @arg @ref LL_PWR_MODE_STOP1
 433:Drivers/STM32WLxx_HAL_Driver/Inc/stm32wlxx_ll_pwr.h ****   *         @arg @ref LL_PWR_MODE_STOP2
 434:Drivers/STM32WLxx_HAL_Driver/Inc/stm32wlxx_ll_pwr.h ****   *         @arg @ref LL_PWR_MODE_STANDBY
 435:Drivers/STM32WLxx_HAL_Driver/Inc/stm32wlxx_ll_pwr.h ****   *         @arg @ref LL_PWR_MODE_SHUTDOWN
 436:Drivers/STM32WLxx_HAL_Driver/Inc/stm32wlxx_ll_pwr.h ****   * @retval None
 437:Drivers/STM32WLxx_HAL_Driver/Inc/stm32wlxx_ll_pwr.h ****   */
 438:Drivers/STM32WLxx_HAL_Driver/Inc/stm32wlxx_ll_pwr.h **** __STATIC_INLINE void LL_PWR_SetPowerMode(uint32_t LowPowerMode)
 439:Drivers/STM32WLxx_HAL_Driver/Inc/stm32wlxx_ll_pwr.h **** {
 440:Drivers/STM32WLxx_HAL_Driver/Inc/stm32wlxx_ll_pwr.h ****   MODIFY_REG(PWR->CR1, PWR_CR1_LPMS, LowPowerMode);
 441:Drivers/STM32WLxx_HAL_Driver/Inc/stm32wlxx_ll_pwr.h **** }
 442:Drivers/STM32WLxx_HAL_Driver/Inc/stm32wlxx_ll_pwr.h **** 
 443:Drivers/STM32WLxx_HAL_Driver/Inc/stm32wlxx_ll_pwr.h **** /**
 444:Drivers/STM32WLxx_HAL_Driver/Inc/stm32wlxx_ll_pwr.h ****   * @brief  Get Low-Power mode
 445:Drivers/STM32WLxx_HAL_Driver/Inc/stm32wlxx_ll_pwr.h ****   * @rmtoll CR1          LPMS          LL_PWR_GetPowerMode
 446:Drivers/STM32WLxx_HAL_Driver/Inc/stm32wlxx_ll_pwr.h ****   * @retval Returned value can be one of the following values:
 447:Drivers/STM32WLxx_HAL_Driver/Inc/stm32wlxx_ll_pwr.h ****   *         @arg @ref LL_PWR_MODE_STOP0
 448:Drivers/STM32WLxx_HAL_Driver/Inc/stm32wlxx_ll_pwr.h ****   *         @arg @ref LL_PWR_MODE_STOP1
 449:Drivers/STM32WLxx_HAL_Driver/Inc/stm32wlxx_ll_pwr.h ****   *         @arg @ref LL_PWR_MODE_STOP2
 450:Drivers/STM32WLxx_HAL_Driver/Inc/stm32wlxx_ll_pwr.h ****   *         @arg @ref LL_PWR_MODE_STANDBY
 451:Drivers/STM32WLxx_HAL_Driver/Inc/stm32wlxx_ll_pwr.h ****   *         @arg @ref LL_PWR_MODE_SHUTDOWN
 452:Drivers/STM32WLxx_HAL_Driver/Inc/stm32wlxx_ll_pwr.h ****   */
 453:Drivers/STM32WLxx_HAL_Driver/Inc/stm32wlxx_ll_pwr.h **** __STATIC_INLINE uint32_t LL_PWR_GetPowerMode(void)
 454:Drivers/STM32WLxx_HAL_Driver/Inc/stm32wlxx_ll_pwr.h **** {
 455:Drivers/STM32WLxx_HAL_Driver/Inc/stm32wlxx_ll_pwr.h ****   return (uint32_t)(READ_BIT(PWR->CR1, PWR_CR1_LPMS));
 456:Drivers/STM32WLxx_HAL_Driver/Inc/stm32wlxx_ll_pwr.h **** }
 457:Drivers/STM32WLxx_HAL_Driver/Inc/stm32wlxx_ll_pwr.h **** 
 458:Drivers/STM32WLxx_HAL_Driver/Inc/stm32wlxx_ll_pwr.h **** /**
 459:Drivers/STM32WLxx_HAL_Driver/Inc/stm32wlxx_ll_pwr.h ****   * @brief  Set flash power-down mode during low-power run mode
 460:Drivers/STM32WLxx_HAL_Driver/Inc/stm32wlxx_ll_pwr.h ****   * @rmtoll CR1          FPDR          LL_PWR_SetFlashPowerModeLPRun
 461:Drivers/STM32WLxx_HAL_Driver/Inc/stm32wlxx_ll_pwr.h ****   * @param  FlashLowPowerMode This parameter can be one of the following values:
 462:Drivers/STM32WLxx_HAL_Driver/Inc/stm32wlxx_ll_pwr.h ****   *         @arg @ref LL_PWR_FLASH_LPRUN_MODE_IDLE
 463:Drivers/STM32WLxx_HAL_Driver/Inc/stm32wlxx_ll_pwr.h ****   *         @arg @ref LL_PWR_FLASH_LPRUN_MODE_POWER_DOWN
 464:Drivers/STM32WLxx_HAL_Driver/Inc/stm32wlxx_ll_pwr.h ****   * @retval None
 465:Drivers/STM32WLxx_HAL_Driver/Inc/stm32wlxx_ll_pwr.h ****   */
 466:Drivers/STM32WLxx_HAL_Driver/Inc/stm32wlxx_ll_pwr.h **** __STATIC_INLINE void LL_PWR_SetFlashPowerModeLPRun(uint32_t FlashLowPowerMode)
 467:Drivers/STM32WLxx_HAL_Driver/Inc/stm32wlxx_ll_pwr.h **** {
 468:Drivers/STM32WLxx_HAL_Driver/Inc/stm32wlxx_ll_pwr.h ****   /* Unlock bit FPDR */
 469:Drivers/STM32WLxx_HAL_Driver/Inc/stm32wlxx_ll_pwr.h ****   WRITE_REG(PWR->CR1, PWR_FLASH_POWER_MODE_UNLOCK_CODE);
 470:Drivers/STM32WLxx_HAL_Driver/Inc/stm32wlxx_ll_pwr.h **** 
 471:Drivers/STM32WLxx_HAL_Driver/Inc/stm32wlxx_ll_pwr.h ****   /* Update bit FPDR */
 472:Drivers/STM32WLxx_HAL_Driver/Inc/stm32wlxx_ll_pwr.h ****   MODIFY_REG(PWR->CR1, PWR_CR1_FPDR, FlashLowPowerMode);
 473:Drivers/STM32WLxx_HAL_Driver/Inc/stm32wlxx_ll_pwr.h **** }
 474:Drivers/STM32WLxx_HAL_Driver/Inc/stm32wlxx_ll_pwr.h **** 
 475:Drivers/STM32WLxx_HAL_Driver/Inc/stm32wlxx_ll_pwr.h **** /**
 476:Drivers/STM32WLxx_HAL_Driver/Inc/stm32wlxx_ll_pwr.h ****   * @brief  Get flash power-down mode during low-power run mode
 477:Drivers/STM32WLxx_HAL_Driver/Inc/stm32wlxx_ll_pwr.h ****   * @rmtoll CR1          FPDR          LL_PWR_GetFlashPowerModeLPRun
 478:Drivers/STM32WLxx_HAL_Driver/Inc/stm32wlxx_ll_pwr.h ****   * @retval Returned value can be one of the following values:
 479:Drivers/STM32WLxx_HAL_Driver/Inc/stm32wlxx_ll_pwr.h ****   *         @arg @ref LL_PWR_FLASH_LPRUN_MODE_IDLE
 480:Drivers/STM32WLxx_HAL_Driver/Inc/stm32wlxx_ll_pwr.h ****   *         @arg @ref LL_PWR_FLASH_LPRUN_MODE_POWER_DOWN
 481:Drivers/STM32WLxx_HAL_Driver/Inc/stm32wlxx_ll_pwr.h ****   */
 482:Drivers/STM32WLxx_HAL_Driver/Inc/stm32wlxx_ll_pwr.h **** __STATIC_INLINE uint32_t LL_PWR_GetFlashPowerModeLPRun(void)
 483:Drivers/STM32WLxx_HAL_Driver/Inc/stm32wlxx_ll_pwr.h **** {
 484:Drivers/STM32WLxx_HAL_Driver/Inc/stm32wlxx_ll_pwr.h ****   return (uint32_t)(READ_BIT(PWR->CR1, PWR_CR1_FPDR));
ARM GAS  C:\Users\NATHAN~1\AppData\Local\Temp\ccSyVvP3.s 			page 19


 485:Drivers/STM32WLxx_HAL_Driver/Inc/stm32wlxx_ll_pwr.h **** }
 486:Drivers/STM32WLxx_HAL_Driver/Inc/stm32wlxx_ll_pwr.h **** 
 487:Drivers/STM32WLxx_HAL_Driver/Inc/stm32wlxx_ll_pwr.h **** /**
 488:Drivers/STM32WLxx_HAL_Driver/Inc/stm32wlxx_ll_pwr.h ****   * @brief  Set flash power-down mode during sleep mode
 489:Drivers/STM32WLxx_HAL_Driver/Inc/stm32wlxx_ll_pwr.h ****   * @rmtoll CR1          FPDS          LL_PWR_SetFlashPowerModeSleep
 490:Drivers/STM32WLxx_HAL_Driver/Inc/stm32wlxx_ll_pwr.h ****   * @param  FlashLowPowerMode This parameter can be one of the following values:
 491:Drivers/STM32WLxx_HAL_Driver/Inc/stm32wlxx_ll_pwr.h ****   *         @arg @ref LL_PWR_FLASH_SLEEP_MODE_IDLE
 492:Drivers/STM32WLxx_HAL_Driver/Inc/stm32wlxx_ll_pwr.h ****   *         @arg @ref LL_PWR_FLASH_SLEEP_MODE_POWER_DOWN
 493:Drivers/STM32WLxx_HAL_Driver/Inc/stm32wlxx_ll_pwr.h ****   * @retval None
 494:Drivers/STM32WLxx_HAL_Driver/Inc/stm32wlxx_ll_pwr.h ****   */
 495:Drivers/STM32WLxx_HAL_Driver/Inc/stm32wlxx_ll_pwr.h **** __STATIC_INLINE void LL_PWR_SetFlashPowerModeSleep(uint32_t FlashLowPowerMode)
 496:Drivers/STM32WLxx_HAL_Driver/Inc/stm32wlxx_ll_pwr.h **** {
 497:Drivers/STM32WLxx_HAL_Driver/Inc/stm32wlxx_ll_pwr.h ****   MODIFY_REG(PWR->CR1, PWR_CR1_FPDS, FlashLowPowerMode);
 498:Drivers/STM32WLxx_HAL_Driver/Inc/stm32wlxx_ll_pwr.h **** }
 499:Drivers/STM32WLxx_HAL_Driver/Inc/stm32wlxx_ll_pwr.h **** 
 500:Drivers/STM32WLxx_HAL_Driver/Inc/stm32wlxx_ll_pwr.h **** /**
 501:Drivers/STM32WLxx_HAL_Driver/Inc/stm32wlxx_ll_pwr.h ****   * @brief  Get flash power-down mode during sleep mode
 502:Drivers/STM32WLxx_HAL_Driver/Inc/stm32wlxx_ll_pwr.h ****   * @rmtoll CR1          FPDS          LL_PWR_GetFlashPowerModeSleep
 503:Drivers/STM32WLxx_HAL_Driver/Inc/stm32wlxx_ll_pwr.h ****   * @retval Returned value can be one of the following values:
 504:Drivers/STM32WLxx_HAL_Driver/Inc/stm32wlxx_ll_pwr.h ****   *         @arg @ref LL_PWR_FLASH_SLEEP_MODE_IDLE
 505:Drivers/STM32WLxx_HAL_Driver/Inc/stm32wlxx_ll_pwr.h ****   *         @arg @ref LL_PWR_FLASH_SLEEP_MODE_POWER_DOWN
 506:Drivers/STM32WLxx_HAL_Driver/Inc/stm32wlxx_ll_pwr.h ****   */
 507:Drivers/STM32WLxx_HAL_Driver/Inc/stm32wlxx_ll_pwr.h **** __STATIC_INLINE uint32_t LL_PWR_GetFlashPowerModeSleep(void)
 508:Drivers/STM32WLxx_HAL_Driver/Inc/stm32wlxx_ll_pwr.h **** {
 509:Drivers/STM32WLxx_HAL_Driver/Inc/stm32wlxx_ll_pwr.h ****   return (uint32_t)(READ_BIT(PWR->CR1, PWR_CR1_FPDS));
 510:Drivers/STM32WLxx_HAL_Driver/Inc/stm32wlxx_ll_pwr.h **** }
 511:Drivers/STM32WLxx_HAL_Driver/Inc/stm32wlxx_ll_pwr.h **** 
 512:Drivers/STM32WLxx_HAL_Driver/Inc/stm32wlxx_ll_pwr.h **** /**
 513:Drivers/STM32WLxx_HAL_Driver/Inc/stm32wlxx_ll_pwr.h ****   * @brief  Enable the Power Voltage Monitoring on a peripheral
 514:Drivers/STM32WLxx_HAL_Driver/Inc/stm32wlxx_ll_pwr.h ****   * @rmtoll CR2          PVME3         LL_PWR_EnablePVM
 515:Drivers/STM32WLxx_HAL_Driver/Inc/stm32wlxx_ll_pwr.h ****   * @param  PeriphVoltage This parameter can be one of the following values:
 516:Drivers/STM32WLxx_HAL_Driver/Inc/stm32wlxx_ll_pwr.h ****   *         @arg @ref LL_PWR_PVM_VDDA_1_62V
 517:Drivers/STM32WLxx_HAL_Driver/Inc/stm32wlxx_ll_pwr.h ****   * @retval None
 518:Drivers/STM32WLxx_HAL_Driver/Inc/stm32wlxx_ll_pwr.h ****   */
 519:Drivers/STM32WLxx_HAL_Driver/Inc/stm32wlxx_ll_pwr.h **** __STATIC_INLINE void LL_PWR_EnablePVM(uint32_t PeriphVoltage)
 520:Drivers/STM32WLxx_HAL_Driver/Inc/stm32wlxx_ll_pwr.h **** {
 521:Drivers/STM32WLxx_HAL_Driver/Inc/stm32wlxx_ll_pwr.h ****   SET_BIT(PWR->CR2, PeriphVoltage);
 522:Drivers/STM32WLxx_HAL_Driver/Inc/stm32wlxx_ll_pwr.h **** }
 523:Drivers/STM32WLxx_HAL_Driver/Inc/stm32wlxx_ll_pwr.h **** 
 524:Drivers/STM32WLxx_HAL_Driver/Inc/stm32wlxx_ll_pwr.h **** /**
 525:Drivers/STM32WLxx_HAL_Driver/Inc/stm32wlxx_ll_pwr.h ****   * @brief  Disable the Power Voltage Monitoring on a peripheral
 526:Drivers/STM32WLxx_HAL_Driver/Inc/stm32wlxx_ll_pwr.h ****   * @rmtoll CR2          PVME3         LL_PWR_DisablePVM
 527:Drivers/STM32WLxx_HAL_Driver/Inc/stm32wlxx_ll_pwr.h ****   * @param  PeriphVoltage This parameter can be one of the following values:
 528:Drivers/STM32WLxx_HAL_Driver/Inc/stm32wlxx_ll_pwr.h ****   *         @arg @ref LL_PWR_PVM_VDDA_1_62V
 529:Drivers/STM32WLxx_HAL_Driver/Inc/stm32wlxx_ll_pwr.h ****   * @retval None
 530:Drivers/STM32WLxx_HAL_Driver/Inc/stm32wlxx_ll_pwr.h ****   */
 531:Drivers/STM32WLxx_HAL_Driver/Inc/stm32wlxx_ll_pwr.h **** __STATIC_INLINE void LL_PWR_DisablePVM(uint32_t PeriphVoltage)
 532:Drivers/STM32WLxx_HAL_Driver/Inc/stm32wlxx_ll_pwr.h **** {
 533:Drivers/STM32WLxx_HAL_Driver/Inc/stm32wlxx_ll_pwr.h ****   CLEAR_BIT(PWR->CR2, PeriphVoltage);
 534:Drivers/STM32WLxx_HAL_Driver/Inc/stm32wlxx_ll_pwr.h **** }
 535:Drivers/STM32WLxx_HAL_Driver/Inc/stm32wlxx_ll_pwr.h **** 
 536:Drivers/STM32WLxx_HAL_Driver/Inc/stm32wlxx_ll_pwr.h **** /**
 537:Drivers/STM32WLxx_HAL_Driver/Inc/stm32wlxx_ll_pwr.h ****   * @brief  Check if Power Voltage Monitoring is enabled on a peripheral
 538:Drivers/STM32WLxx_HAL_Driver/Inc/stm32wlxx_ll_pwr.h ****   * @rmtoll CR2          PVME3         LL_PWR_IsEnabledPVM
 539:Drivers/STM32WLxx_HAL_Driver/Inc/stm32wlxx_ll_pwr.h ****   * @param  PeriphVoltage This parameter can be one of the following values:
 540:Drivers/STM32WLxx_HAL_Driver/Inc/stm32wlxx_ll_pwr.h ****   *         @arg @ref LL_PWR_PVM_VDDA_1_62V
 541:Drivers/STM32WLxx_HAL_Driver/Inc/stm32wlxx_ll_pwr.h ****   * @retval State of bit (1 or 0).
ARM GAS  C:\Users\NATHAN~1\AppData\Local\Temp\ccSyVvP3.s 			page 20


 542:Drivers/STM32WLxx_HAL_Driver/Inc/stm32wlxx_ll_pwr.h ****   */
 543:Drivers/STM32WLxx_HAL_Driver/Inc/stm32wlxx_ll_pwr.h **** __STATIC_INLINE uint32_t LL_PWR_IsEnabledPVM(uint32_t PeriphVoltage)
 544:Drivers/STM32WLxx_HAL_Driver/Inc/stm32wlxx_ll_pwr.h **** {
 545:Drivers/STM32WLxx_HAL_Driver/Inc/stm32wlxx_ll_pwr.h ****   return ((READ_BIT(PWR->CR2, PeriphVoltage) == (PeriphVoltage)) ? 1UL : 0UL);
 546:Drivers/STM32WLxx_HAL_Driver/Inc/stm32wlxx_ll_pwr.h **** }
 547:Drivers/STM32WLxx_HAL_Driver/Inc/stm32wlxx_ll_pwr.h **** 
 548:Drivers/STM32WLxx_HAL_Driver/Inc/stm32wlxx_ll_pwr.h **** /**
 549:Drivers/STM32WLxx_HAL_Driver/Inc/stm32wlxx_ll_pwr.h ****   * @brief  Configure the voltage threshold detected by the Power Voltage Detector
 550:Drivers/STM32WLxx_HAL_Driver/Inc/stm32wlxx_ll_pwr.h ****   * @rmtoll CR2          PLS           LL_PWR_SetPVDLevel
 551:Drivers/STM32WLxx_HAL_Driver/Inc/stm32wlxx_ll_pwr.h ****   * @param  PVDLevel This parameter can be one of the following values:
 552:Drivers/STM32WLxx_HAL_Driver/Inc/stm32wlxx_ll_pwr.h ****   *         @arg @ref LL_PWR_PVDLEVEL_0
 553:Drivers/STM32WLxx_HAL_Driver/Inc/stm32wlxx_ll_pwr.h ****   *         @arg @ref LL_PWR_PVDLEVEL_1
 554:Drivers/STM32WLxx_HAL_Driver/Inc/stm32wlxx_ll_pwr.h ****   *         @arg @ref LL_PWR_PVDLEVEL_2
 555:Drivers/STM32WLxx_HAL_Driver/Inc/stm32wlxx_ll_pwr.h ****   *         @arg @ref LL_PWR_PVDLEVEL_3
 556:Drivers/STM32WLxx_HAL_Driver/Inc/stm32wlxx_ll_pwr.h ****   *         @arg @ref LL_PWR_PVDLEVEL_4
 557:Drivers/STM32WLxx_HAL_Driver/Inc/stm32wlxx_ll_pwr.h ****   *         @arg @ref LL_PWR_PVDLEVEL_5
 558:Drivers/STM32WLxx_HAL_Driver/Inc/stm32wlxx_ll_pwr.h ****   *         @arg @ref LL_PWR_PVDLEVEL_6
 559:Drivers/STM32WLxx_HAL_Driver/Inc/stm32wlxx_ll_pwr.h ****   *         @arg @ref LL_PWR_PVDLEVEL_7
 560:Drivers/STM32WLxx_HAL_Driver/Inc/stm32wlxx_ll_pwr.h ****   * @retval None
 561:Drivers/STM32WLxx_HAL_Driver/Inc/stm32wlxx_ll_pwr.h ****   */
 562:Drivers/STM32WLxx_HAL_Driver/Inc/stm32wlxx_ll_pwr.h **** __STATIC_INLINE void LL_PWR_SetPVDLevel(uint32_t PVDLevel)
 563:Drivers/STM32WLxx_HAL_Driver/Inc/stm32wlxx_ll_pwr.h **** {
 564:Drivers/STM32WLxx_HAL_Driver/Inc/stm32wlxx_ll_pwr.h ****   MODIFY_REG(PWR->CR2, PWR_CR2_PLS, PVDLevel);
 565:Drivers/STM32WLxx_HAL_Driver/Inc/stm32wlxx_ll_pwr.h **** }
 566:Drivers/STM32WLxx_HAL_Driver/Inc/stm32wlxx_ll_pwr.h **** 
 567:Drivers/STM32WLxx_HAL_Driver/Inc/stm32wlxx_ll_pwr.h **** /**
 568:Drivers/STM32WLxx_HAL_Driver/Inc/stm32wlxx_ll_pwr.h ****   * @brief  Get the voltage threshold detection
 569:Drivers/STM32WLxx_HAL_Driver/Inc/stm32wlxx_ll_pwr.h ****   * @rmtoll CR2          PLS           LL_PWR_GetPVDLevel
 570:Drivers/STM32WLxx_HAL_Driver/Inc/stm32wlxx_ll_pwr.h ****   * @retval Returned value can be one of the following values:
 571:Drivers/STM32WLxx_HAL_Driver/Inc/stm32wlxx_ll_pwr.h ****   *         @arg @ref LL_PWR_PVDLEVEL_0
 572:Drivers/STM32WLxx_HAL_Driver/Inc/stm32wlxx_ll_pwr.h ****   *         @arg @ref LL_PWR_PVDLEVEL_1
 573:Drivers/STM32WLxx_HAL_Driver/Inc/stm32wlxx_ll_pwr.h ****   *         @arg @ref LL_PWR_PVDLEVEL_2
 574:Drivers/STM32WLxx_HAL_Driver/Inc/stm32wlxx_ll_pwr.h ****   *         @arg @ref LL_PWR_PVDLEVEL_3
 575:Drivers/STM32WLxx_HAL_Driver/Inc/stm32wlxx_ll_pwr.h ****   *         @arg @ref LL_PWR_PVDLEVEL_4
 576:Drivers/STM32WLxx_HAL_Driver/Inc/stm32wlxx_ll_pwr.h ****   *         @arg @ref LL_PWR_PVDLEVEL_5
 577:Drivers/STM32WLxx_HAL_Driver/Inc/stm32wlxx_ll_pwr.h ****   *         @arg @ref LL_PWR_PVDLEVEL_6
 578:Drivers/STM32WLxx_HAL_Driver/Inc/stm32wlxx_ll_pwr.h ****   *         @arg @ref LL_PWR_PVDLEVEL_7
 579:Drivers/STM32WLxx_HAL_Driver/Inc/stm32wlxx_ll_pwr.h ****   */
 580:Drivers/STM32WLxx_HAL_Driver/Inc/stm32wlxx_ll_pwr.h **** __STATIC_INLINE uint32_t LL_PWR_GetPVDLevel(void)
 581:Drivers/STM32WLxx_HAL_Driver/Inc/stm32wlxx_ll_pwr.h **** {
 582:Drivers/STM32WLxx_HAL_Driver/Inc/stm32wlxx_ll_pwr.h ****   return (uint32_t)(READ_BIT(PWR->CR2, PWR_CR2_PLS));
 583:Drivers/STM32WLxx_HAL_Driver/Inc/stm32wlxx_ll_pwr.h **** }
 584:Drivers/STM32WLxx_HAL_Driver/Inc/stm32wlxx_ll_pwr.h **** 
 585:Drivers/STM32WLxx_HAL_Driver/Inc/stm32wlxx_ll_pwr.h **** /**
 586:Drivers/STM32WLxx_HAL_Driver/Inc/stm32wlxx_ll_pwr.h ****   * @brief  Enable Power Voltage Detector
 587:Drivers/STM32WLxx_HAL_Driver/Inc/stm32wlxx_ll_pwr.h ****   * @rmtoll CR2          PVDE          LL_PWR_EnablePVD
 588:Drivers/STM32WLxx_HAL_Driver/Inc/stm32wlxx_ll_pwr.h ****   * @retval None
 589:Drivers/STM32WLxx_HAL_Driver/Inc/stm32wlxx_ll_pwr.h ****   */
 590:Drivers/STM32WLxx_HAL_Driver/Inc/stm32wlxx_ll_pwr.h **** __STATIC_INLINE void LL_PWR_EnablePVD(void)
 591:Drivers/STM32WLxx_HAL_Driver/Inc/stm32wlxx_ll_pwr.h **** {
 592:Drivers/STM32WLxx_HAL_Driver/Inc/stm32wlxx_ll_pwr.h ****   SET_BIT(PWR->CR2, PWR_CR2_PVDE);
 593:Drivers/STM32WLxx_HAL_Driver/Inc/stm32wlxx_ll_pwr.h **** }
 594:Drivers/STM32WLxx_HAL_Driver/Inc/stm32wlxx_ll_pwr.h **** 
 595:Drivers/STM32WLxx_HAL_Driver/Inc/stm32wlxx_ll_pwr.h **** /**
 596:Drivers/STM32WLxx_HAL_Driver/Inc/stm32wlxx_ll_pwr.h ****   * @brief  Disable Power Voltage Detector
 597:Drivers/STM32WLxx_HAL_Driver/Inc/stm32wlxx_ll_pwr.h ****   * @rmtoll CR2          PVDE          LL_PWR_DisablePVD
 598:Drivers/STM32WLxx_HAL_Driver/Inc/stm32wlxx_ll_pwr.h ****   * @retval None
ARM GAS  C:\Users\NATHAN~1\AppData\Local\Temp\ccSyVvP3.s 			page 21


 599:Drivers/STM32WLxx_HAL_Driver/Inc/stm32wlxx_ll_pwr.h ****   */
 600:Drivers/STM32WLxx_HAL_Driver/Inc/stm32wlxx_ll_pwr.h **** __STATIC_INLINE void LL_PWR_DisablePVD(void)
 601:Drivers/STM32WLxx_HAL_Driver/Inc/stm32wlxx_ll_pwr.h **** {
 602:Drivers/STM32WLxx_HAL_Driver/Inc/stm32wlxx_ll_pwr.h ****   CLEAR_BIT(PWR->CR2, PWR_CR2_PVDE);
 603:Drivers/STM32WLxx_HAL_Driver/Inc/stm32wlxx_ll_pwr.h **** }
 604:Drivers/STM32WLxx_HAL_Driver/Inc/stm32wlxx_ll_pwr.h **** 
 605:Drivers/STM32WLxx_HAL_Driver/Inc/stm32wlxx_ll_pwr.h **** /**
 606:Drivers/STM32WLxx_HAL_Driver/Inc/stm32wlxx_ll_pwr.h ****   * @brief  Check if Power Voltage Detector is enabled
 607:Drivers/STM32WLxx_HAL_Driver/Inc/stm32wlxx_ll_pwr.h ****   * @rmtoll CR2          PVDE          LL_PWR_IsEnabledPVD
 608:Drivers/STM32WLxx_HAL_Driver/Inc/stm32wlxx_ll_pwr.h ****   * @retval State of bit (1 or 0).
 609:Drivers/STM32WLxx_HAL_Driver/Inc/stm32wlxx_ll_pwr.h ****   */
 610:Drivers/STM32WLxx_HAL_Driver/Inc/stm32wlxx_ll_pwr.h **** __STATIC_INLINE uint32_t LL_PWR_IsEnabledPVD(void)
 611:Drivers/STM32WLxx_HAL_Driver/Inc/stm32wlxx_ll_pwr.h **** {
 612:Drivers/STM32WLxx_HAL_Driver/Inc/stm32wlxx_ll_pwr.h ****   return ((READ_BIT(PWR->CR2, PWR_CR2_PVDE) == (PWR_CR2_PVDE)) ? 1UL : 0UL);
 613:Drivers/STM32WLxx_HAL_Driver/Inc/stm32wlxx_ll_pwr.h **** }
 614:Drivers/STM32WLxx_HAL_Driver/Inc/stm32wlxx_ll_pwr.h **** 
 615:Drivers/STM32WLxx_HAL_Driver/Inc/stm32wlxx_ll_pwr.h **** /**
 616:Drivers/STM32WLxx_HAL_Driver/Inc/stm32wlxx_ll_pwr.h ****   * @brief  Set monitoring of supply voltage for radio operating level
 617:Drivers/STM32WLxx_HAL_Driver/Inc/stm32wlxx_ll_pwr.h ****   *         (radio End Of Life), radio must be in active mode.
 618:Drivers/STM32WLxx_HAL_Driver/Inc/stm32wlxx_ll_pwr.h ****   * @rmtoll CR5          RFEOLEN       LL_PWR_SetRadioEOL
 619:Drivers/STM32WLxx_HAL_Driver/Inc/stm32wlxx_ll_pwr.h ****   * @param  RadioEOL This parameter can be one of the following values:
 620:Drivers/STM32WLxx_HAL_Driver/Inc/stm32wlxx_ll_pwr.h ****   *         @arg @ref LL_PWR_RADIO_EOL_DISABLE
 621:Drivers/STM32WLxx_HAL_Driver/Inc/stm32wlxx_ll_pwr.h ****   *         @arg @ref LL_PWR_RADIO_EOL_ENABLE
 622:Drivers/STM32WLxx_HAL_Driver/Inc/stm32wlxx_ll_pwr.h ****   * @retval None
 623:Drivers/STM32WLxx_HAL_Driver/Inc/stm32wlxx_ll_pwr.h ****   */
 624:Drivers/STM32WLxx_HAL_Driver/Inc/stm32wlxx_ll_pwr.h **** __STATIC_INLINE void LL_PWR_SetRadioEOL(uint32_t RadioEOL)
 625:Drivers/STM32WLxx_HAL_Driver/Inc/stm32wlxx_ll_pwr.h **** {
 626:Drivers/STM32WLxx_HAL_Driver/Inc/stm32wlxx_ll_pwr.h ****   MODIFY_REG(PWR->CR5, PWR_CR5_RFEOLEN, RadioEOL);
 627:Drivers/STM32WLxx_HAL_Driver/Inc/stm32wlxx_ll_pwr.h **** }
 628:Drivers/STM32WLxx_HAL_Driver/Inc/stm32wlxx_ll_pwr.h **** 
 629:Drivers/STM32WLxx_HAL_Driver/Inc/stm32wlxx_ll_pwr.h **** /**
 630:Drivers/STM32WLxx_HAL_Driver/Inc/stm32wlxx_ll_pwr.h ****   * @brief  Get monitoring of supply voltage for radio operating level (radio End Of Life)
 631:Drivers/STM32WLxx_HAL_Driver/Inc/stm32wlxx_ll_pwr.h ****   * @rmtoll CR5          RFEOLEN       LL_PWR_GetRadioEOL
 632:Drivers/STM32WLxx_HAL_Driver/Inc/stm32wlxx_ll_pwr.h ****   * @retval Returned value can be one of the following values:
 633:Drivers/STM32WLxx_HAL_Driver/Inc/stm32wlxx_ll_pwr.h ****   *         @arg @ref LL_PWR_RADIO_EOL_DISABLE
 634:Drivers/STM32WLxx_HAL_Driver/Inc/stm32wlxx_ll_pwr.h ****   *         @arg @ref LL_PWR_RADIO_EOL_ENABLE
 635:Drivers/STM32WLxx_HAL_Driver/Inc/stm32wlxx_ll_pwr.h ****   */
 636:Drivers/STM32WLxx_HAL_Driver/Inc/stm32wlxx_ll_pwr.h **** __STATIC_INLINE uint32_t LL_PWR_GetRadioEOL(void)
 637:Drivers/STM32WLxx_HAL_Driver/Inc/stm32wlxx_ll_pwr.h **** {
 638:Drivers/STM32WLxx_HAL_Driver/Inc/stm32wlxx_ll_pwr.h ****   return (uint32_t)(READ_BIT(PWR->CR5, PWR_CR5_RFEOLEN));
 639:Drivers/STM32WLxx_HAL_Driver/Inc/stm32wlxx_ll_pwr.h **** }
 640:Drivers/STM32WLxx_HAL_Driver/Inc/stm32wlxx_ll_pwr.h **** 
 641:Drivers/STM32WLxx_HAL_Driver/Inc/stm32wlxx_ll_pwr.h **** /**
 642:Drivers/STM32WLxx_HAL_Driver/Inc/stm32wlxx_ll_pwr.h ****   * @brief  Enable Internal Wake-up line
 643:Drivers/STM32WLxx_HAL_Driver/Inc/stm32wlxx_ll_pwr.h ****   * @rmtoll CR3          EIWF          LL_PWR_EnableInternWU
 644:Drivers/STM32WLxx_HAL_Driver/Inc/stm32wlxx_ll_pwr.h ****   * @retval None
 645:Drivers/STM32WLxx_HAL_Driver/Inc/stm32wlxx_ll_pwr.h ****   */
 646:Drivers/STM32WLxx_HAL_Driver/Inc/stm32wlxx_ll_pwr.h **** __STATIC_INLINE void LL_PWR_EnableInternWU(void)
 647:Drivers/STM32WLxx_HAL_Driver/Inc/stm32wlxx_ll_pwr.h **** {
 648:Drivers/STM32WLxx_HAL_Driver/Inc/stm32wlxx_ll_pwr.h ****   SET_BIT(PWR->CR3, PWR_CR3_EIWUL);
 649:Drivers/STM32WLxx_HAL_Driver/Inc/stm32wlxx_ll_pwr.h **** }
 650:Drivers/STM32WLxx_HAL_Driver/Inc/stm32wlxx_ll_pwr.h **** 
 651:Drivers/STM32WLxx_HAL_Driver/Inc/stm32wlxx_ll_pwr.h **** /**
 652:Drivers/STM32WLxx_HAL_Driver/Inc/stm32wlxx_ll_pwr.h ****   * @brief  Disable Internal Wake-up line
 653:Drivers/STM32WLxx_HAL_Driver/Inc/stm32wlxx_ll_pwr.h ****   * @rmtoll CR3          EIWF          LL_PWR_DisableInternWU
 654:Drivers/STM32WLxx_HAL_Driver/Inc/stm32wlxx_ll_pwr.h ****   * @retval None
 655:Drivers/STM32WLxx_HAL_Driver/Inc/stm32wlxx_ll_pwr.h ****   */
ARM GAS  C:\Users\NATHAN~1\AppData\Local\Temp\ccSyVvP3.s 			page 22


 656:Drivers/STM32WLxx_HAL_Driver/Inc/stm32wlxx_ll_pwr.h **** __STATIC_INLINE void LL_PWR_DisableInternWU(void)
 657:Drivers/STM32WLxx_HAL_Driver/Inc/stm32wlxx_ll_pwr.h **** {
 658:Drivers/STM32WLxx_HAL_Driver/Inc/stm32wlxx_ll_pwr.h ****   CLEAR_BIT(PWR->CR3, PWR_CR3_EIWUL);
 659:Drivers/STM32WLxx_HAL_Driver/Inc/stm32wlxx_ll_pwr.h **** }
 660:Drivers/STM32WLxx_HAL_Driver/Inc/stm32wlxx_ll_pwr.h **** 
 661:Drivers/STM32WLxx_HAL_Driver/Inc/stm32wlxx_ll_pwr.h **** /**
 662:Drivers/STM32WLxx_HAL_Driver/Inc/stm32wlxx_ll_pwr.h ****   * @brief  Check if Internal Wake-up line is enabled
 663:Drivers/STM32WLxx_HAL_Driver/Inc/stm32wlxx_ll_pwr.h ****   * @rmtoll CR3          EIWF          LL_PWR_IsEnabledInternWU
 664:Drivers/STM32WLxx_HAL_Driver/Inc/stm32wlxx_ll_pwr.h ****   * @retval State of bit (1 or 0).
 665:Drivers/STM32WLxx_HAL_Driver/Inc/stm32wlxx_ll_pwr.h ****   */
 666:Drivers/STM32WLxx_HAL_Driver/Inc/stm32wlxx_ll_pwr.h **** __STATIC_INLINE uint32_t LL_PWR_IsEnabledInternWU(void)
 667:Drivers/STM32WLxx_HAL_Driver/Inc/stm32wlxx_ll_pwr.h **** {
 668:Drivers/STM32WLxx_HAL_Driver/Inc/stm32wlxx_ll_pwr.h ****   return ((READ_BIT(PWR->CR3, PWR_CR3_EIWUL) == (PWR_CR3_EIWUL)) ? 1UL : 0UL);
 669:Drivers/STM32WLxx_HAL_Driver/Inc/stm32wlxx_ll_pwr.h **** }
 670:Drivers/STM32WLxx_HAL_Driver/Inc/stm32wlxx_ll_pwr.h **** 
 671:Drivers/STM32WLxx_HAL_Driver/Inc/stm32wlxx_ll_pwr.h **** /**
 672:Drivers/STM32WLxx_HAL_Driver/Inc/stm32wlxx_ll_pwr.h ****   * @brief  Enable pull-up and pull-down configuration
 673:Drivers/STM32WLxx_HAL_Driver/Inc/stm32wlxx_ll_pwr.h ****   * @rmtoll CR3          APC           LL_PWR_EnablePUPDCfg
 674:Drivers/STM32WLxx_HAL_Driver/Inc/stm32wlxx_ll_pwr.h ****   * @retval None
 675:Drivers/STM32WLxx_HAL_Driver/Inc/stm32wlxx_ll_pwr.h ****   */
 676:Drivers/STM32WLxx_HAL_Driver/Inc/stm32wlxx_ll_pwr.h **** __STATIC_INLINE void LL_PWR_EnablePUPDCfg(void)
 677:Drivers/STM32WLxx_HAL_Driver/Inc/stm32wlxx_ll_pwr.h **** {
 678:Drivers/STM32WLxx_HAL_Driver/Inc/stm32wlxx_ll_pwr.h ****   SET_BIT(PWR->CR3, PWR_CR3_APC);
 679:Drivers/STM32WLxx_HAL_Driver/Inc/stm32wlxx_ll_pwr.h **** }
 680:Drivers/STM32WLxx_HAL_Driver/Inc/stm32wlxx_ll_pwr.h **** 
 681:Drivers/STM32WLxx_HAL_Driver/Inc/stm32wlxx_ll_pwr.h **** /**
 682:Drivers/STM32WLxx_HAL_Driver/Inc/stm32wlxx_ll_pwr.h ****   * @brief  Disable pull-up and pull-down configuration
 683:Drivers/STM32WLxx_HAL_Driver/Inc/stm32wlxx_ll_pwr.h ****   * @rmtoll CR3          APC           LL_PWR_DisablePUPDCfg
 684:Drivers/STM32WLxx_HAL_Driver/Inc/stm32wlxx_ll_pwr.h ****   * @retval None
 685:Drivers/STM32WLxx_HAL_Driver/Inc/stm32wlxx_ll_pwr.h ****   */
 686:Drivers/STM32WLxx_HAL_Driver/Inc/stm32wlxx_ll_pwr.h **** __STATIC_INLINE void LL_PWR_DisablePUPDCfg(void)
 687:Drivers/STM32WLxx_HAL_Driver/Inc/stm32wlxx_ll_pwr.h **** {
 688:Drivers/STM32WLxx_HAL_Driver/Inc/stm32wlxx_ll_pwr.h ****   CLEAR_BIT(PWR->CR3, PWR_CR3_APC);
 689:Drivers/STM32WLxx_HAL_Driver/Inc/stm32wlxx_ll_pwr.h **** }
 690:Drivers/STM32WLxx_HAL_Driver/Inc/stm32wlxx_ll_pwr.h **** 
 691:Drivers/STM32WLxx_HAL_Driver/Inc/stm32wlxx_ll_pwr.h **** /**
 692:Drivers/STM32WLxx_HAL_Driver/Inc/stm32wlxx_ll_pwr.h ****   * @brief  Check if pull-up and pull-down configuration is enabled
 693:Drivers/STM32WLxx_HAL_Driver/Inc/stm32wlxx_ll_pwr.h ****   * @rmtoll CR3          APC           LL_PWR_IsEnabledPUPDCfg
 694:Drivers/STM32WLxx_HAL_Driver/Inc/stm32wlxx_ll_pwr.h ****   * @retval State of bit (1 or 0).
 695:Drivers/STM32WLxx_HAL_Driver/Inc/stm32wlxx_ll_pwr.h ****   */
 696:Drivers/STM32WLxx_HAL_Driver/Inc/stm32wlxx_ll_pwr.h **** __STATIC_INLINE uint32_t LL_PWR_IsEnabledPUPDCfg(void)
 697:Drivers/STM32WLxx_HAL_Driver/Inc/stm32wlxx_ll_pwr.h **** {
 698:Drivers/STM32WLxx_HAL_Driver/Inc/stm32wlxx_ll_pwr.h ****   return ((READ_BIT(PWR->CR3, PWR_CR3_APC) == (PWR_CR3_APC)) ? 1UL : 0UL);
 699:Drivers/STM32WLxx_HAL_Driver/Inc/stm32wlxx_ll_pwr.h **** }
 700:Drivers/STM32WLxx_HAL_Driver/Inc/stm32wlxx_ll_pwr.h **** 
 701:Drivers/STM32WLxx_HAL_Driver/Inc/stm32wlxx_ll_pwr.h **** /**
 702:Drivers/STM32WLxx_HAL_Driver/Inc/stm32wlxx_ll_pwr.h ****   * @brief  Enable SRAM2 content retention in Standby mode
 703:Drivers/STM32WLxx_HAL_Driver/Inc/stm32wlxx_ll_pwr.h ****   * @rmtoll CR3          RRS           LL_PWR_EnableSRAM2Retention
 704:Drivers/STM32WLxx_HAL_Driver/Inc/stm32wlxx_ll_pwr.h ****   * @retval None
 705:Drivers/STM32WLxx_HAL_Driver/Inc/stm32wlxx_ll_pwr.h ****   */
 706:Drivers/STM32WLxx_HAL_Driver/Inc/stm32wlxx_ll_pwr.h **** __STATIC_INLINE void LL_PWR_EnableSRAM2Retention(void)
 707:Drivers/STM32WLxx_HAL_Driver/Inc/stm32wlxx_ll_pwr.h **** {
 708:Drivers/STM32WLxx_HAL_Driver/Inc/stm32wlxx_ll_pwr.h ****   SET_BIT(PWR->CR3, PWR_CR3_RRS);
 709:Drivers/STM32WLxx_HAL_Driver/Inc/stm32wlxx_ll_pwr.h **** }
 710:Drivers/STM32WLxx_HAL_Driver/Inc/stm32wlxx_ll_pwr.h **** 
 711:Drivers/STM32WLxx_HAL_Driver/Inc/stm32wlxx_ll_pwr.h **** /**
 712:Drivers/STM32WLxx_HAL_Driver/Inc/stm32wlxx_ll_pwr.h ****   * @brief  Disable SRAM2 content retention in Standby mode
ARM GAS  C:\Users\NATHAN~1\AppData\Local\Temp\ccSyVvP3.s 			page 23


 713:Drivers/STM32WLxx_HAL_Driver/Inc/stm32wlxx_ll_pwr.h ****   * @rmtoll CR3          RRS           LL_PWR_DisableSRAM2Retention
 714:Drivers/STM32WLxx_HAL_Driver/Inc/stm32wlxx_ll_pwr.h ****   * @retval None
 715:Drivers/STM32WLxx_HAL_Driver/Inc/stm32wlxx_ll_pwr.h ****   */
 716:Drivers/STM32WLxx_HAL_Driver/Inc/stm32wlxx_ll_pwr.h **** __STATIC_INLINE void LL_PWR_DisableSRAM2Retention(void)
 717:Drivers/STM32WLxx_HAL_Driver/Inc/stm32wlxx_ll_pwr.h **** {
 718:Drivers/STM32WLxx_HAL_Driver/Inc/stm32wlxx_ll_pwr.h ****   CLEAR_BIT(PWR->CR3, PWR_CR3_RRS);
 719:Drivers/STM32WLxx_HAL_Driver/Inc/stm32wlxx_ll_pwr.h **** }
 720:Drivers/STM32WLxx_HAL_Driver/Inc/stm32wlxx_ll_pwr.h **** 
 721:Drivers/STM32WLxx_HAL_Driver/Inc/stm32wlxx_ll_pwr.h **** /**
 722:Drivers/STM32WLxx_HAL_Driver/Inc/stm32wlxx_ll_pwr.h ****   * @brief  Check if SRAM2 content retention in Standby mode is enabled
 723:Drivers/STM32WLxx_HAL_Driver/Inc/stm32wlxx_ll_pwr.h ****   * @rmtoll CR3          RRS           LL_PWR_IsEnabledSRAM2Retention
 724:Drivers/STM32WLxx_HAL_Driver/Inc/stm32wlxx_ll_pwr.h ****   * @retval State of bit (1 or 0).
 725:Drivers/STM32WLxx_HAL_Driver/Inc/stm32wlxx_ll_pwr.h ****   */
 726:Drivers/STM32WLxx_HAL_Driver/Inc/stm32wlxx_ll_pwr.h **** __STATIC_INLINE uint32_t LL_PWR_IsEnabledSRAM2Retention(void)
 727:Drivers/STM32WLxx_HAL_Driver/Inc/stm32wlxx_ll_pwr.h **** {
 728:Drivers/STM32WLxx_HAL_Driver/Inc/stm32wlxx_ll_pwr.h ****   return ((READ_BIT(PWR->CR3, PWR_CR3_RRS) == (PWR_CR3_RRS)) ? 1UL : 0UL);
 729:Drivers/STM32WLxx_HAL_Driver/Inc/stm32wlxx_ll_pwr.h **** }
 730:Drivers/STM32WLxx_HAL_Driver/Inc/stm32wlxx_ll_pwr.h **** 
 731:Drivers/STM32WLxx_HAL_Driver/Inc/stm32wlxx_ll_pwr.h **** /**
 732:Drivers/STM32WLxx_HAL_Driver/Inc/stm32wlxx_ll_pwr.h ****   * @brief  Enable wake-up power voltage detection with trigger for CPU1
 733:Drivers/STM32WLxx_HAL_Driver/Inc/stm32wlxx_ll_pwr.h ****   * @note   Wake-up power voltage detection status can be checked
 734:Drivers/STM32WLxx_HAL_Driver/Inc/stm32wlxx_ll_pwr.h ****   *         using function @ref LL_PWR_IsActiveFlag_WPVD().
 735:Drivers/STM32WLxx_HAL_Driver/Inc/stm32wlxx_ll_pwr.h ****   * @rmtoll CR3          EWPVD         LL_PWR_EnableWPVD
 736:Drivers/STM32WLxx_HAL_Driver/Inc/stm32wlxx_ll_pwr.h ****   * @retval None
 737:Drivers/STM32WLxx_HAL_Driver/Inc/stm32wlxx_ll_pwr.h ****   */
 738:Drivers/STM32WLxx_HAL_Driver/Inc/stm32wlxx_ll_pwr.h **** __STATIC_INLINE void LL_PWR_EnableWPVD(void)
 739:Drivers/STM32WLxx_HAL_Driver/Inc/stm32wlxx_ll_pwr.h **** {
 740:Drivers/STM32WLxx_HAL_Driver/Inc/stm32wlxx_ll_pwr.h ****   SET_BIT(PWR->CR3, PWR_CR3_EWPVD);
 741:Drivers/STM32WLxx_HAL_Driver/Inc/stm32wlxx_ll_pwr.h **** }
 742:Drivers/STM32WLxx_HAL_Driver/Inc/stm32wlxx_ll_pwr.h **** 
 743:Drivers/STM32WLxx_HAL_Driver/Inc/stm32wlxx_ll_pwr.h **** /**
 744:Drivers/STM32WLxx_HAL_Driver/Inc/stm32wlxx_ll_pwr.h ****   * @brief  Disable wake-up power voltage detection with trigger for CPU1
 745:Drivers/STM32WLxx_HAL_Driver/Inc/stm32wlxx_ll_pwr.h ****   * @rmtoll CR3          EWPVD         LL_PWR_DisableWPVD
 746:Drivers/STM32WLxx_HAL_Driver/Inc/stm32wlxx_ll_pwr.h ****   * @retval None
 747:Drivers/STM32WLxx_HAL_Driver/Inc/stm32wlxx_ll_pwr.h ****   */
 748:Drivers/STM32WLxx_HAL_Driver/Inc/stm32wlxx_ll_pwr.h **** __STATIC_INLINE void LL_PWR_DisableWPVD(void)
 749:Drivers/STM32WLxx_HAL_Driver/Inc/stm32wlxx_ll_pwr.h **** {
 750:Drivers/STM32WLxx_HAL_Driver/Inc/stm32wlxx_ll_pwr.h ****   CLEAR_BIT(PWR->CR3, PWR_CR3_EWPVD);
 751:Drivers/STM32WLxx_HAL_Driver/Inc/stm32wlxx_ll_pwr.h **** }
 752:Drivers/STM32WLxx_HAL_Driver/Inc/stm32wlxx_ll_pwr.h **** 
 753:Drivers/STM32WLxx_HAL_Driver/Inc/stm32wlxx_ll_pwr.h **** /**
 754:Drivers/STM32WLxx_HAL_Driver/Inc/stm32wlxx_ll_pwr.h ****   * @brief  Check if wake-up power voltage detection is enabled with trigger for CPU1
 755:Drivers/STM32WLxx_HAL_Driver/Inc/stm32wlxx_ll_pwr.h ****   * @rmtoll CR3          EWPVD         LL_PWR_IsEnabledWPVD
 756:Drivers/STM32WLxx_HAL_Driver/Inc/stm32wlxx_ll_pwr.h ****   * @retval State of bit (1 or 0).
 757:Drivers/STM32WLxx_HAL_Driver/Inc/stm32wlxx_ll_pwr.h ****   */
 758:Drivers/STM32WLxx_HAL_Driver/Inc/stm32wlxx_ll_pwr.h **** __STATIC_INLINE uint32_t LL_PWR_IsEnabledWPVD(void)
 759:Drivers/STM32WLxx_HAL_Driver/Inc/stm32wlxx_ll_pwr.h **** {
 760:Drivers/STM32WLxx_HAL_Driver/Inc/stm32wlxx_ll_pwr.h ****   return ((READ_BIT(PWR->CR3, PWR_CR3_EWPVD) == (PWR_CR3_EWPVD)) ? 1UL : 0UL);
 761:Drivers/STM32WLxx_HAL_Driver/Inc/stm32wlxx_ll_pwr.h **** }
 762:Drivers/STM32WLxx_HAL_Driver/Inc/stm32wlxx_ll_pwr.h **** 
 763:Drivers/STM32WLxx_HAL_Driver/Inc/stm32wlxx_ll_pwr.h **** /**
 764:Drivers/STM32WLxx_HAL_Driver/Inc/stm32wlxx_ll_pwr.h ****   * @brief  Enable periodical sampling of supply voltage in Stop and Standby
 765:Drivers/STM32WLxx_HAL_Driver/Inc/stm32wlxx_ll_pwr.h ****   *         modes for detecting condition of PDR and BOR reset.
 766:Drivers/STM32WLxx_HAL_Driver/Inc/stm32wlxx_ll_pwr.h ****   * @note   Caution: When enabled, and if the supply voltage drops below
 767:Drivers/STM32WLxx_HAL_Driver/Inc/stm32wlxx_ll_pwr.h ****   *         the minimum operating condition between two supply voltage samples,
 768:Drivers/STM32WLxx_HAL_Driver/Inc/stm32wlxx_ll_pwr.h ****   *         the reset condition is missed and no reset is generated.
 769:Drivers/STM32WLxx_HAL_Driver/Inc/stm32wlxx_ll_pwr.h ****   * @rmtoll CR3          ULPEN         LL_PWR_EnableBORPVD_ULP
ARM GAS  C:\Users\NATHAN~1\AppData\Local\Temp\ccSyVvP3.s 			page 24


 770:Drivers/STM32WLxx_HAL_Driver/Inc/stm32wlxx_ll_pwr.h ****   * @retval None
 771:Drivers/STM32WLxx_HAL_Driver/Inc/stm32wlxx_ll_pwr.h ****   */
 772:Drivers/STM32WLxx_HAL_Driver/Inc/stm32wlxx_ll_pwr.h **** __STATIC_INLINE void LL_PWR_EnableBORPVD_ULP(void)
 773:Drivers/STM32WLxx_HAL_Driver/Inc/stm32wlxx_ll_pwr.h **** {
 774:Drivers/STM32WLxx_HAL_Driver/Inc/stm32wlxx_ll_pwr.h ****   SET_BIT(PWR->CR3, PWR_CR3_ULPEN);
 775:Drivers/STM32WLxx_HAL_Driver/Inc/stm32wlxx_ll_pwr.h **** }
 776:Drivers/STM32WLxx_HAL_Driver/Inc/stm32wlxx_ll_pwr.h **** 
 777:Drivers/STM32WLxx_HAL_Driver/Inc/stm32wlxx_ll_pwr.h **** /**
 778:Drivers/STM32WLxx_HAL_Driver/Inc/stm32wlxx_ll_pwr.h ****   * @brief  Disable periodical sampling of supply voltage in Stop and Standby
 779:Drivers/STM32WLxx_HAL_Driver/Inc/stm32wlxx_ll_pwr.h ****   *         modes for detecting condition of PDR and BOR reset.
 780:Drivers/STM32WLxx_HAL_Driver/Inc/stm32wlxx_ll_pwr.h ****   * @rmtoll CR3          ULPEN         LL_PWR_DisableBORPVD_ULP
 781:Drivers/STM32WLxx_HAL_Driver/Inc/stm32wlxx_ll_pwr.h ****   * @retval None
 782:Drivers/STM32WLxx_HAL_Driver/Inc/stm32wlxx_ll_pwr.h ****   */
 783:Drivers/STM32WLxx_HAL_Driver/Inc/stm32wlxx_ll_pwr.h **** __STATIC_INLINE void LL_PWR_DisableBORPVD_ULP(void)
 784:Drivers/STM32WLxx_HAL_Driver/Inc/stm32wlxx_ll_pwr.h **** {
 785:Drivers/STM32WLxx_HAL_Driver/Inc/stm32wlxx_ll_pwr.h ****   CLEAR_BIT(PWR->CR3, PWR_CR3_ULPEN);
 786:Drivers/STM32WLxx_HAL_Driver/Inc/stm32wlxx_ll_pwr.h **** }
 787:Drivers/STM32WLxx_HAL_Driver/Inc/stm32wlxx_ll_pwr.h **** 
 788:Drivers/STM32WLxx_HAL_Driver/Inc/stm32wlxx_ll_pwr.h **** /**
 789:Drivers/STM32WLxx_HAL_Driver/Inc/stm32wlxx_ll_pwr.h ****   * @brief  Check if periodical sampling of supply voltage in Stop and Standby
 790:Drivers/STM32WLxx_HAL_Driver/Inc/stm32wlxx_ll_pwr.h ****   *         modes is enabled.
 791:Drivers/STM32WLxx_HAL_Driver/Inc/stm32wlxx_ll_pwr.h ****   * @rmtoll CR3          ULPEN         LL_PWR_IsEnabledBORPVD_ULP
 792:Drivers/STM32WLxx_HAL_Driver/Inc/stm32wlxx_ll_pwr.h ****   * @retval State of bit (1 or 0).
 793:Drivers/STM32WLxx_HAL_Driver/Inc/stm32wlxx_ll_pwr.h ****   */
 794:Drivers/STM32WLxx_HAL_Driver/Inc/stm32wlxx_ll_pwr.h **** __STATIC_INLINE uint32_t LL_PWR_IsEnabledBORPVD_ULP(void)
 795:Drivers/STM32WLxx_HAL_Driver/Inc/stm32wlxx_ll_pwr.h **** {
 796:Drivers/STM32WLxx_HAL_Driver/Inc/stm32wlxx_ll_pwr.h ****   return ((READ_BIT(PWR->CR3, PWR_CR3_ULPEN) == (PWR_CR3_ULPEN)) ? 1UL : 0UL);
 797:Drivers/STM32WLxx_HAL_Driver/Inc/stm32wlxx_ll_pwr.h **** }
 798:Drivers/STM32WLxx_HAL_Driver/Inc/stm32wlxx_ll_pwr.h **** 
 799:Drivers/STM32WLxx_HAL_Driver/Inc/stm32wlxx_ll_pwr.h **** /**
 800:Drivers/STM32WLxx_HAL_Driver/Inc/stm32wlxx_ll_pwr.h ****   * @brief  Enable the WakeUp PINx functionality
 801:Drivers/STM32WLxx_HAL_Driver/Inc/stm32wlxx_ll_pwr.h ****   * @rmtoll CR3          EWUP1         LL_PWR_EnableWakeUpPin\n
 802:Drivers/STM32WLxx_HAL_Driver/Inc/stm32wlxx_ll_pwr.h ****   *         CR3          EWUP2         LL_PWR_EnableWakeUpPin\n
 803:Drivers/STM32WLxx_HAL_Driver/Inc/stm32wlxx_ll_pwr.h ****   *         CR3          EWUP3         LL_PWR_EnableWakeUpPin
 804:Drivers/STM32WLxx_HAL_Driver/Inc/stm32wlxx_ll_pwr.h ****   * @param  WakeUpPin This parameter can be one of the following values:
 805:Drivers/STM32WLxx_HAL_Driver/Inc/stm32wlxx_ll_pwr.h ****   *         @arg @ref LL_PWR_WAKEUP_PIN1
 806:Drivers/STM32WLxx_HAL_Driver/Inc/stm32wlxx_ll_pwr.h ****   *         @arg @ref LL_PWR_WAKEUP_PIN2
 807:Drivers/STM32WLxx_HAL_Driver/Inc/stm32wlxx_ll_pwr.h ****   *         @arg @ref LL_PWR_WAKEUP_PIN3
 808:Drivers/STM32WLxx_HAL_Driver/Inc/stm32wlxx_ll_pwr.h ****   * @retval None
 809:Drivers/STM32WLxx_HAL_Driver/Inc/stm32wlxx_ll_pwr.h ****   */
 810:Drivers/STM32WLxx_HAL_Driver/Inc/stm32wlxx_ll_pwr.h **** __STATIC_INLINE void LL_PWR_EnableWakeUpPin(uint32_t WakeUpPin)
 811:Drivers/STM32WLxx_HAL_Driver/Inc/stm32wlxx_ll_pwr.h **** {
 812:Drivers/STM32WLxx_HAL_Driver/Inc/stm32wlxx_ll_pwr.h ****   SET_BIT(PWR->CR3, WakeUpPin);
 813:Drivers/STM32WLxx_HAL_Driver/Inc/stm32wlxx_ll_pwr.h **** }
 814:Drivers/STM32WLxx_HAL_Driver/Inc/stm32wlxx_ll_pwr.h **** 
 815:Drivers/STM32WLxx_HAL_Driver/Inc/stm32wlxx_ll_pwr.h **** /**
 816:Drivers/STM32WLxx_HAL_Driver/Inc/stm32wlxx_ll_pwr.h ****   * @brief  Disable the WakeUp PINx functionality
 817:Drivers/STM32WLxx_HAL_Driver/Inc/stm32wlxx_ll_pwr.h ****   * @rmtoll CR3          EWUP1         LL_PWR_DisableWakeUpPin\n
 818:Drivers/STM32WLxx_HAL_Driver/Inc/stm32wlxx_ll_pwr.h ****   *         CR3          EWUP2         LL_PWR_DisableWakeUpPin\n
 819:Drivers/STM32WLxx_HAL_Driver/Inc/stm32wlxx_ll_pwr.h ****   *         CR3          EWUP3         LL_PWR_DisableWakeUpPin
 820:Drivers/STM32WLxx_HAL_Driver/Inc/stm32wlxx_ll_pwr.h ****   * @param  WakeUpPin This parameter can be one of the following values:
 821:Drivers/STM32WLxx_HAL_Driver/Inc/stm32wlxx_ll_pwr.h ****   *         @arg @ref LL_PWR_WAKEUP_PIN1
 822:Drivers/STM32WLxx_HAL_Driver/Inc/stm32wlxx_ll_pwr.h ****   *         @arg @ref LL_PWR_WAKEUP_PIN2
 823:Drivers/STM32WLxx_HAL_Driver/Inc/stm32wlxx_ll_pwr.h ****   *         @arg @ref LL_PWR_WAKEUP_PIN3
 824:Drivers/STM32WLxx_HAL_Driver/Inc/stm32wlxx_ll_pwr.h ****   * @retval None
 825:Drivers/STM32WLxx_HAL_Driver/Inc/stm32wlxx_ll_pwr.h ****   */
 826:Drivers/STM32WLxx_HAL_Driver/Inc/stm32wlxx_ll_pwr.h **** __STATIC_INLINE void LL_PWR_DisableWakeUpPin(uint32_t WakeUpPin)
ARM GAS  C:\Users\NATHAN~1\AppData\Local\Temp\ccSyVvP3.s 			page 25


 827:Drivers/STM32WLxx_HAL_Driver/Inc/stm32wlxx_ll_pwr.h **** {
 828:Drivers/STM32WLxx_HAL_Driver/Inc/stm32wlxx_ll_pwr.h ****   CLEAR_BIT(PWR->CR3, WakeUpPin);
 829:Drivers/STM32WLxx_HAL_Driver/Inc/stm32wlxx_ll_pwr.h **** }
 830:Drivers/STM32WLxx_HAL_Driver/Inc/stm32wlxx_ll_pwr.h **** 
 831:Drivers/STM32WLxx_HAL_Driver/Inc/stm32wlxx_ll_pwr.h **** /**
 832:Drivers/STM32WLxx_HAL_Driver/Inc/stm32wlxx_ll_pwr.h ****   * @brief  Check if the WakeUp PINx functionality is enabled
 833:Drivers/STM32WLxx_HAL_Driver/Inc/stm32wlxx_ll_pwr.h ****   * @rmtoll CR3          EWUP1         LL_PWR_IsEnabledWakeUpPin\n
 834:Drivers/STM32WLxx_HAL_Driver/Inc/stm32wlxx_ll_pwr.h ****   *         CR3          EWUP2         LL_PWR_IsEnabledWakeUpPin\n
 835:Drivers/STM32WLxx_HAL_Driver/Inc/stm32wlxx_ll_pwr.h ****   *         CR3          EWUP3         LL_PWR_IsEnabledWakeUpPin
 836:Drivers/STM32WLxx_HAL_Driver/Inc/stm32wlxx_ll_pwr.h ****   * @param  WakeUpPin This parameter can be one of the following values:
 837:Drivers/STM32WLxx_HAL_Driver/Inc/stm32wlxx_ll_pwr.h ****   *         @arg @ref LL_PWR_WAKEUP_PIN1
 838:Drivers/STM32WLxx_HAL_Driver/Inc/stm32wlxx_ll_pwr.h ****   *         @arg @ref LL_PWR_WAKEUP_PIN2
 839:Drivers/STM32WLxx_HAL_Driver/Inc/stm32wlxx_ll_pwr.h ****   *         @arg @ref LL_PWR_WAKEUP_PIN3
 840:Drivers/STM32WLxx_HAL_Driver/Inc/stm32wlxx_ll_pwr.h ****   * @retval State of bit (1 or 0).
 841:Drivers/STM32WLxx_HAL_Driver/Inc/stm32wlxx_ll_pwr.h ****   */
 842:Drivers/STM32WLxx_HAL_Driver/Inc/stm32wlxx_ll_pwr.h **** __STATIC_INLINE uint32_t LL_PWR_IsEnabledWakeUpPin(uint32_t WakeUpPin)
 843:Drivers/STM32WLxx_HAL_Driver/Inc/stm32wlxx_ll_pwr.h **** {
 844:Drivers/STM32WLxx_HAL_Driver/Inc/stm32wlxx_ll_pwr.h ****   return ((READ_BIT(PWR->CR3, WakeUpPin) == (WakeUpPin)) ? 1UL : 0UL);
 845:Drivers/STM32WLxx_HAL_Driver/Inc/stm32wlxx_ll_pwr.h **** }
 846:Drivers/STM32WLxx_HAL_Driver/Inc/stm32wlxx_ll_pwr.h **** 
 847:Drivers/STM32WLxx_HAL_Driver/Inc/stm32wlxx_ll_pwr.h **** /**
 848:Drivers/STM32WLxx_HAL_Driver/Inc/stm32wlxx_ll_pwr.h ****   * @brief  Set the resistor impedance
 849:Drivers/STM32WLxx_HAL_Driver/Inc/stm32wlxx_ll_pwr.h ****   * @rmtoll CR4          VBRS          LL_PWR_SetBattChargResistor
 850:Drivers/STM32WLxx_HAL_Driver/Inc/stm32wlxx_ll_pwr.h ****   * @param  Resistor This parameter can be one of the following values:
 851:Drivers/STM32WLxx_HAL_Driver/Inc/stm32wlxx_ll_pwr.h ****   *         @arg @ref LL_PWR_BATT_CHARG_RESISTOR_5K
 852:Drivers/STM32WLxx_HAL_Driver/Inc/stm32wlxx_ll_pwr.h ****   *         @arg @ref LL_PWR_BATT_CHARGRESISTOR_1_5K
 853:Drivers/STM32WLxx_HAL_Driver/Inc/stm32wlxx_ll_pwr.h ****   * @retval None
 854:Drivers/STM32WLxx_HAL_Driver/Inc/stm32wlxx_ll_pwr.h ****   */
 855:Drivers/STM32WLxx_HAL_Driver/Inc/stm32wlxx_ll_pwr.h **** __STATIC_INLINE void LL_PWR_SetBattChargResistor(uint32_t Resistor)
 856:Drivers/STM32WLxx_HAL_Driver/Inc/stm32wlxx_ll_pwr.h **** {
 857:Drivers/STM32WLxx_HAL_Driver/Inc/stm32wlxx_ll_pwr.h ****   MODIFY_REG(PWR->CR4, PWR_CR4_VBRS, Resistor);
 858:Drivers/STM32WLxx_HAL_Driver/Inc/stm32wlxx_ll_pwr.h **** }
 859:Drivers/STM32WLxx_HAL_Driver/Inc/stm32wlxx_ll_pwr.h **** 
 860:Drivers/STM32WLxx_HAL_Driver/Inc/stm32wlxx_ll_pwr.h **** /**
 861:Drivers/STM32WLxx_HAL_Driver/Inc/stm32wlxx_ll_pwr.h ****   * @brief  Get the resistor impedance
 862:Drivers/STM32WLxx_HAL_Driver/Inc/stm32wlxx_ll_pwr.h ****   * @rmtoll CR4          VBRS          LL_PWR_GetBattChargResistor
 863:Drivers/STM32WLxx_HAL_Driver/Inc/stm32wlxx_ll_pwr.h ****   * @retval Returned value can be one of the following values:
 864:Drivers/STM32WLxx_HAL_Driver/Inc/stm32wlxx_ll_pwr.h ****   *         @arg @ref LL_PWR_BATT_CHARG_RESISTOR_5K
 865:Drivers/STM32WLxx_HAL_Driver/Inc/stm32wlxx_ll_pwr.h ****   *         @arg @ref LL_PWR_BATT_CHARGRESISTOR_1_5K
 866:Drivers/STM32WLxx_HAL_Driver/Inc/stm32wlxx_ll_pwr.h ****   */
 867:Drivers/STM32WLxx_HAL_Driver/Inc/stm32wlxx_ll_pwr.h **** __STATIC_INLINE uint32_t LL_PWR_GetBattChargResistor(void)
 868:Drivers/STM32WLxx_HAL_Driver/Inc/stm32wlxx_ll_pwr.h **** {
 869:Drivers/STM32WLxx_HAL_Driver/Inc/stm32wlxx_ll_pwr.h ****   return (uint32_t)(READ_BIT(PWR->CR4, PWR_CR4_VBRS));
 870:Drivers/STM32WLxx_HAL_Driver/Inc/stm32wlxx_ll_pwr.h **** }
 871:Drivers/STM32WLxx_HAL_Driver/Inc/stm32wlxx_ll_pwr.h **** 
 872:Drivers/STM32WLxx_HAL_Driver/Inc/stm32wlxx_ll_pwr.h **** /**
 873:Drivers/STM32WLxx_HAL_Driver/Inc/stm32wlxx_ll_pwr.h ****   * @brief  Enable battery charging
 874:Drivers/STM32WLxx_HAL_Driver/Inc/stm32wlxx_ll_pwr.h ****   * @rmtoll CR4          VBE           LL_PWR_EnableBatteryCharging
 875:Drivers/STM32WLxx_HAL_Driver/Inc/stm32wlxx_ll_pwr.h ****   * @retval None
 876:Drivers/STM32WLxx_HAL_Driver/Inc/stm32wlxx_ll_pwr.h ****   */
 877:Drivers/STM32WLxx_HAL_Driver/Inc/stm32wlxx_ll_pwr.h **** __STATIC_INLINE void LL_PWR_EnableBatteryCharging(void)
 878:Drivers/STM32WLxx_HAL_Driver/Inc/stm32wlxx_ll_pwr.h **** {
 879:Drivers/STM32WLxx_HAL_Driver/Inc/stm32wlxx_ll_pwr.h ****   SET_BIT(PWR->CR4, PWR_CR4_VBE);
 880:Drivers/STM32WLxx_HAL_Driver/Inc/stm32wlxx_ll_pwr.h **** }
 881:Drivers/STM32WLxx_HAL_Driver/Inc/stm32wlxx_ll_pwr.h **** 
 882:Drivers/STM32WLxx_HAL_Driver/Inc/stm32wlxx_ll_pwr.h **** /**
 883:Drivers/STM32WLxx_HAL_Driver/Inc/stm32wlxx_ll_pwr.h ****   * @brief  Disable battery charging
ARM GAS  C:\Users\NATHAN~1\AppData\Local\Temp\ccSyVvP3.s 			page 26


 884:Drivers/STM32WLxx_HAL_Driver/Inc/stm32wlxx_ll_pwr.h ****   * @rmtoll CR4          VBE           LL_PWR_DisableBatteryCharging
 885:Drivers/STM32WLxx_HAL_Driver/Inc/stm32wlxx_ll_pwr.h ****   * @retval None
 886:Drivers/STM32WLxx_HAL_Driver/Inc/stm32wlxx_ll_pwr.h ****   */
 887:Drivers/STM32WLxx_HAL_Driver/Inc/stm32wlxx_ll_pwr.h **** __STATIC_INLINE void LL_PWR_DisableBatteryCharging(void)
 888:Drivers/STM32WLxx_HAL_Driver/Inc/stm32wlxx_ll_pwr.h **** {
 889:Drivers/STM32WLxx_HAL_Driver/Inc/stm32wlxx_ll_pwr.h ****   CLEAR_BIT(PWR->CR4, PWR_CR4_VBE);
 890:Drivers/STM32WLxx_HAL_Driver/Inc/stm32wlxx_ll_pwr.h **** }
 891:Drivers/STM32WLxx_HAL_Driver/Inc/stm32wlxx_ll_pwr.h **** 
 892:Drivers/STM32WLxx_HAL_Driver/Inc/stm32wlxx_ll_pwr.h **** /**
 893:Drivers/STM32WLxx_HAL_Driver/Inc/stm32wlxx_ll_pwr.h ****   * @brief  Check if battery charging is enabled
 894:Drivers/STM32WLxx_HAL_Driver/Inc/stm32wlxx_ll_pwr.h ****   * @rmtoll CR4          VBE           LL_PWR_IsEnabledBatteryCharging
 895:Drivers/STM32WLxx_HAL_Driver/Inc/stm32wlxx_ll_pwr.h ****   * @retval State of bit (1 or 0).
 896:Drivers/STM32WLxx_HAL_Driver/Inc/stm32wlxx_ll_pwr.h ****   */
 897:Drivers/STM32WLxx_HAL_Driver/Inc/stm32wlxx_ll_pwr.h **** __STATIC_INLINE uint32_t LL_PWR_IsEnabledBatteryCharging(void)
 898:Drivers/STM32WLxx_HAL_Driver/Inc/stm32wlxx_ll_pwr.h **** {
 899:Drivers/STM32WLxx_HAL_Driver/Inc/stm32wlxx_ll_pwr.h ****   return ((READ_BIT(PWR->CR4, PWR_CR4_VBE) == (PWR_CR4_VBE)) ? 1UL : 0UL);
 900:Drivers/STM32WLxx_HAL_Driver/Inc/stm32wlxx_ll_pwr.h **** }
 901:Drivers/STM32WLxx_HAL_Driver/Inc/stm32wlxx_ll_pwr.h **** 
 902:Drivers/STM32WLxx_HAL_Driver/Inc/stm32wlxx_ll_pwr.h **** /**
 903:Drivers/STM32WLxx_HAL_Driver/Inc/stm32wlxx_ll_pwr.h ****   * @brief  Set the Wake-Up pin polarity low for the event detection
 904:Drivers/STM32WLxx_HAL_Driver/Inc/stm32wlxx_ll_pwr.h ****   * @rmtoll CR4          WP1           LL_PWR_SetWakeUpPinPolarityLow\n
 905:Drivers/STM32WLxx_HAL_Driver/Inc/stm32wlxx_ll_pwr.h ****   *         CR4          WP2           LL_PWR_SetWakeUpPinPolarityLow\n
 906:Drivers/STM32WLxx_HAL_Driver/Inc/stm32wlxx_ll_pwr.h ****   *         CR4          WP3           LL_PWR_SetWakeUpPinPolarityLow
 907:Drivers/STM32WLxx_HAL_Driver/Inc/stm32wlxx_ll_pwr.h ****   * @param  WakeUpPin This parameter can be one of the following values:
 908:Drivers/STM32WLxx_HAL_Driver/Inc/stm32wlxx_ll_pwr.h ****   *         @arg @ref LL_PWR_WAKEUP_PIN1
 909:Drivers/STM32WLxx_HAL_Driver/Inc/stm32wlxx_ll_pwr.h ****   *         @arg @ref LL_PWR_WAKEUP_PIN2
 910:Drivers/STM32WLxx_HAL_Driver/Inc/stm32wlxx_ll_pwr.h ****   *         @arg @ref LL_PWR_WAKEUP_PIN3
 911:Drivers/STM32WLxx_HAL_Driver/Inc/stm32wlxx_ll_pwr.h ****   * @retval None
 912:Drivers/STM32WLxx_HAL_Driver/Inc/stm32wlxx_ll_pwr.h ****   */
 913:Drivers/STM32WLxx_HAL_Driver/Inc/stm32wlxx_ll_pwr.h **** __STATIC_INLINE void LL_PWR_SetWakeUpPinPolarityLow(uint32_t WakeUpPin)
 914:Drivers/STM32WLxx_HAL_Driver/Inc/stm32wlxx_ll_pwr.h **** {
 915:Drivers/STM32WLxx_HAL_Driver/Inc/stm32wlxx_ll_pwr.h ****   SET_BIT(PWR->CR4, WakeUpPin);
 916:Drivers/STM32WLxx_HAL_Driver/Inc/stm32wlxx_ll_pwr.h **** }
 917:Drivers/STM32WLxx_HAL_Driver/Inc/stm32wlxx_ll_pwr.h **** 
 918:Drivers/STM32WLxx_HAL_Driver/Inc/stm32wlxx_ll_pwr.h **** /**
 919:Drivers/STM32WLxx_HAL_Driver/Inc/stm32wlxx_ll_pwr.h ****   * @brief  Set the Wake-Up pin polarity high for the event detection
 920:Drivers/STM32WLxx_HAL_Driver/Inc/stm32wlxx_ll_pwr.h ****   * @rmtoll CR4          WP1           LL_PWR_SetWakeUpPinPolarityHigh\n
 921:Drivers/STM32WLxx_HAL_Driver/Inc/stm32wlxx_ll_pwr.h ****   *         CR4          WP2           LL_PWR_SetWakeUpPinPolarityHigh\n
 922:Drivers/STM32WLxx_HAL_Driver/Inc/stm32wlxx_ll_pwr.h ****   *         CR4          WP3           LL_PWR_SetWakeUpPinPolarityHigh
 923:Drivers/STM32WLxx_HAL_Driver/Inc/stm32wlxx_ll_pwr.h ****   * @param  WakeUpPin This parameter can be one of the following values:
 924:Drivers/STM32WLxx_HAL_Driver/Inc/stm32wlxx_ll_pwr.h ****   *         @arg @ref LL_PWR_WAKEUP_PIN1
 925:Drivers/STM32WLxx_HAL_Driver/Inc/stm32wlxx_ll_pwr.h ****   *         @arg @ref LL_PWR_WAKEUP_PIN2
 926:Drivers/STM32WLxx_HAL_Driver/Inc/stm32wlxx_ll_pwr.h ****   *         @arg @ref LL_PWR_WAKEUP_PIN3
 927:Drivers/STM32WLxx_HAL_Driver/Inc/stm32wlxx_ll_pwr.h ****   * @retval None
 928:Drivers/STM32WLxx_HAL_Driver/Inc/stm32wlxx_ll_pwr.h ****   */
 929:Drivers/STM32WLxx_HAL_Driver/Inc/stm32wlxx_ll_pwr.h **** __STATIC_INLINE void LL_PWR_SetWakeUpPinPolarityHigh(uint32_t WakeUpPin)
 930:Drivers/STM32WLxx_HAL_Driver/Inc/stm32wlxx_ll_pwr.h **** {
 931:Drivers/STM32WLxx_HAL_Driver/Inc/stm32wlxx_ll_pwr.h ****   CLEAR_BIT(PWR->CR4, WakeUpPin);
 932:Drivers/STM32WLxx_HAL_Driver/Inc/stm32wlxx_ll_pwr.h **** }
 933:Drivers/STM32WLxx_HAL_Driver/Inc/stm32wlxx_ll_pwr.h **** 
 934:Drivers/STM32WLxx_HAL_Driver/Inc/stm32wlxx_ll_pwr.h **** /**
 935:Drivers/STM32WLxx_HAL_Driver/Inc/stm32wlxx_ll_pwr.h ****   * @brief  Get the Wake-Up pin polarity for the event detection
 936:Drivers/STM32WLxx_HAL_Driver/Inc/stm32wlxx_ll_pwr.h ****   * @rmtoll CR4          WP1           LL_PWR_IsWakeUpPinPolarityLow\n
 937:Drivers/STM32WLxx_HAL_Driver/Inc/stm32wlxx_ll_pwr.h ****   *         CR4          WP2           LL_PWR_IsWakeUpPinPolarityLow\n
 938:Drivers/STM32WLxx_HAL_Driver/Inc/stm32wlxx_ll_pwr.h ****   *         CR4          WP3           LL_PWR_IsWakeUpPinPolarityLow
 939:Drivers/STM32WLxx_HAL_Driver/Inc/stm32wlxx_ll_pwr.h ****   * @param  WakeUpPin This parameter can be one of the following values:
 940:Drivers/STM32WLxx_HAL_Driver/Inc/stm32wlxx_ll_pwr.h ****   *         @arg @ref LL_PWR_WAKEUP_PIN1
ARM GAS  C:\Users\NATHAN~1\AppData\Local\Temp\ccSyVvP3.s 			page 27


 941:Drivers/STM32WLxx_HAL_Driver/Inc/stm32wlxx_ll_pwr.h ****   *         @arg @ref LL_PWR_WAKEUP_PIN2
 942:Drivers/STM32WLxx_HAL_Driver/Inc/stm32wlxx_ll_pwr.h ****   *         @arg @ref LL_PWR_WAKEUP_PIN3
 943:Drivers/STM32WLxx_HAL_Driver/Inc/stm32wlxx_ll_pwr.h ****   * @retval State of bit (1 or 0).
 944:Drivers/STM32WLxx_HAL_Driver/Inc/stm32wlxx_ll_pwr.h ****   */
 945:Drivers/STM32WLxx_HAL_Driver/Inc/stm32wlxx_ll_pwr.h **** __STATIC_INLINE uint32_t LL_PWR_IsWakeUpPinPolarityLow(uint32_t WakeUpPin)
 946:Drivers/STM32WLxx_HAL_Driver/Inc/stm32wlxx_ll_pwr.h **** {
 947:Drivers/STM32WLxx_HAL_Driver/Inc/stm32wlxx_ll_pwr.h ****   return ((READ_BIT(PWR->CR4, WakeUpPin) == (WakeUpPin)) ? 1UL : 0UL);
 948:Drivers/STM32WLxx_HAL_Driver/Inc/stm32wlxx_ll_pwr.h **** }
 949:Drivers/STM32WLxx_HAL_Driver/Inc/stm32wlxx_ll_pwr.h **** 
 950:Drivers/STM32WLxx_HAL_Driver/Inc/stm32wlxx_ll_pwr.h **** /**
 951:Drivers/STM32WLxx_HAL_Driver/Inc/stm32wlxx_ll_pwr.h ****   * @brief  Enable GPIO pull-up state in Standby and Shutdown modes
 952:Drivers/STM32WLxx_HAL_Driver/Inc/stm32wlxx_ll_pwr.h ****   * @note   Some pins are not configurable for pulling in Standby and Shutdown
 953:Drivers/STM32WLxx_HAL_Driver/Inc/stm32wlxx_ll_pwr.h ****   *         modes. Refer to reference manual for available pins and ports.
 954:Drivers/STM32WLxx_HAL_Driver/Inc/stm32wlxx_ll_pwr.h ****   * @rmtoll PUCRA        PU0-15        LL_PWR_EnableGPIOPullUp\n
 955:Drivers/STM32WLxx_HAL_Driver/Inc/stm32wlxx_ll_pwr.h ****   *         PUCRB        PU0-15        LL_PWR_EnableGPIOPullUp\n
 956:Drivers/STM32WLxx_HAL_Driver/Inc/stm32wlxx_ll_pwr.h ****   *         PUCRC        PU0-15        LL_PWR_EnableGPIOPullUp\n
 957:Drivers/STM32WLxx_HAL_Driver/Inc/stm32wlxx_ll_pwr.h ****   *         PUCRH        PU0-15        LL_PWR_EnableGPIOPullUp
 958:Drivers/STM32WLxx_HAL_Driver/Inc/stm32wlxx_ll_pwr.h ****   * @param  GPIO This parameter can be one of the following values:
 959:Drivers/STM32WLxx_HAL_Driver/Inc/stm32wlxx_ll_pwr.h ****   *         @arg @ref LL_PWR_GPIO_A
 960:Drivers/STM32WLxx_HAL_Driver/Inc/stm32wlxx_ll_pwr.h ****   *         @arg @ref LL_PWR_GPIO_B
 961:Drivers/STM32WLxx_HAL_Driver/Inc/stm32wlxx_ll_pwr.h ****   *         @arg @ref LL_PWR_GPIO_C
 962:Drivers/STM32WLxx_HAL_Driver/Inc/stm32wlxx_ll_pwr.h ****   *         @arg @ref LL_PWR_GPIO_H
 963:Drivers/STM32WLxx_HAL_Driver/Inc/stm32wlxx_ll_pwr.h ****   * @param  GPIONumber This parameter can be one of the following values:
 964:Drivers/STM32WLxx_HAL_Driver/Inc/stm32wlxx_ll_pwr.h ****   *         @arg @ref LL_PWR_GPIO_BIT_0
 965:Drivers/STM32WLxx_HAL_Driver/Inc/stm32wlxx_ll_pwr.h ****   *         @arg @ref LL_PWR_GPIO_BIT_1
 966:Drivers/STM32WLxx_HAL_Driver/Inc/stm32wlxx_ll_pwr.h ****   *         @arg @ref LL_PWR_GPIO_BIT_2
 967:Drivers/STM32WLxx_HAL_Driver/Inc/stm32wlxx_ll_pwr.h ****   *         @arg @ref LL_PWR_GPIO_BIT_3
 968:Drivers/STM32WLxx_HAL_Driver/Inc/stm32wlxx_ll_pwr.h ****   *         @arg @ref LL_PWR_GPIO_BIT_4
 969:Drivers/STM32WLxx_HAL_Driver/Inc/stm32wlxx_ll_pwr.h ****   *         @arg @ref LL_PWR_GPIO_BIT_5
 970:Drivers/STM32WLxx_HAL_Driver/Inc/stm32wlxx_ll_pwr.h ****   *         @arg @ref LL_PWR_GPIO_BIT_6
 971:Drivers/STM32WLxx_HAL_Driver/Inc/stm32wlxx_ll_pwr.h ****   *         @arg @ref LL_PWR_GPIO_BIT_7
 972:Drivers/STM32WLxx_HAL_Driver/Inc/stm32wlxx_ll_pwr.h ****   *         @arg @ref LL_PWR_GPIO_BIT_8
 973:Drivers/STM32WLxx_HAL_Driver/Inc/stm32wlxx_ll_pwr.h ****   *         @arg @ref LL_PWR_GPIO_BIT_9
 974:Drivers/STM32WLxx_HAL_Driver/Inc/stm32wlxx_ll_pwr.h ****   *         @arg @ref LL_PWR_GPIO_BIT_10
 975:Drivers/STM32WLxx_HAL_Driver/Inc/stm32wlxx_ll_pwr.h ****   *         @arg @ref LL_PWR_GPIO_BIT_11
 976:Drivers/STM32WLxx_HAL_Driver/Inc/stm32wlxx_ll_pwr.h ****   *         @arg @ref LL_PWR_GPIO_BIT_12
 977:Drivers/STM32WLxx_HAL_Driver/Inc/stm32wlxx_ll_pwr.h ****   *         @arg @ref LL_PWR_GPIO_BIT_13
 978:Drivers/STM32WLxx_HAL_Driver/Inc/stm32wlxx_ll_pwr.h ****   *         @arg @ref LL_PWR_GPIO_BIT_14
 979:Drivers/STM32WLxx_HAL_Driver/Inc/stm32wlxx_ll_pwr.h ****   *         @arg @ref LL_PWR_GPIO_BIT_15
 980:Drivers/STM32WLxx_HAL_Driver/Inc/stm32wlxx_ll_pwr.h ****   * @retval None
 981:Drivers/STM32WLxx_HAL_Driver/Inc/stm32wlxx_ll_pwr.h ****   */
 982:Drivers/STM32WLxx_HAL_Driver/Inc/stm32wlxx_ll_pwr.h **** __STATIC_INLINE void LL_PWR_EnableGPIOPullUp(uint32_t GPIO, uint32_t GPIONumber)
 983:Drivers/STM32WLxx_HAL_Driver/Inc/stm32wlxx_ll_pwr.h **** {
 984:Drivers/STM32WLxx_HAL_Driver/Inc/stm32wlxx_ll_pwr.h ****   SET_BIT(*((__IO uint32_t *)GPIO), GPIONumber);
 985:Drivers/STM32WLxx_HAL_Driver/Inc/stm32wlxx_ll_pwr.h **** }
 986:Drivers/STM32WLxx_HAL_Driver/Inc/stm32wlxx_ll_pwr.h **** 
 987:Drivers/STM32WLxx_HAL_Driver/Inc/stm32wlxx_ll_pwr.h **** /**
 988:Drivers/STM32WLxx_HAL_Driver/Inc/stm32wlxx_ll_pwr.h ****   * @brief  Disable GPIO pull-up state in Standby and Shutdown modes
 989:Drivers/STM32WLxx_HAL_Driver/Inc/stm32wlxx_ll_pwr.h ****   * @note   Some pins are not configurable for pulling in Standby and Shutdown
 990:Drivers/STM32WLxx_HAL_Driver/Inc/stm32wlxx_ll_pwr.h ****   *         modes. Refer to reference manual for available pins and ports.
 991:Drivers/STM32WLxx_HAL_Driver/Inc/stm32wlxx_ll_pwr.h ****   * @rmtoll PUCRA        PU0-15        LL_PWR_DisableGPIOPullUp\n
 992:Drivers/STM32WLxx_HAL_Driver/Inc/stm32wlxx_ll_pwr.h ****   *         PUCRB        PU0-15        LL_PWR_DisableGPIOPullUp\n
 993:Drivers/STM32WLxx_HAL_Driver/Inc/stm32wlxx_ll_pwr.h ****   *         PUCRC        PU0-15        LL_PWR_DisableGPIOPullUp\n
 994:Drivers/STM32WLxx_HAL_Driver/Inc/stm32wlxx_ll_pwr.h ****   *         PUCRH        PU0-15        LL_PWR_DisableGPIOPullUp
 995:Drivers/STM32WLxx_HAL_Driver/Inc/stm32wlxx_ll_pwr.h ****   * @param  GPIO This parameter can be one of the following values:
 996:Drivers/STM32WLxx_HAL_Driver/Inc/stm32wlxx_ll_pwr.h ****   *         @arg @ref LL_PWR_GPIO_A
 997:Drivers/STM32WLxx_HAL_Driver/Inc/stm32wlxx_ll_pwr.h ****   *         @arg @ref LL_PWR_GPIO_B
ARM GAS  C:\Users\NATHAN~1\AppData\Local\Temp\ccSyVvP3.s 			page 28


 998:Drivers/STM32WLxx_HAL_Driver/Inc/stm32wlxx_ll_pwr.h ****   *         @arg @ref LL_PWR_GPIO_C
 999:Drivers/STM32WLxx_HAL_Driver/Inc/stm32wlxx_ll_pwr.h ****   *         @arg @ref LL_PWR_GPIO_H
1000:Drivers/STM32WLxx_HAL_Driver/Inc/stm32wlxx_ll_pwr.h ****   * @param  GPIONumber This parameter can be one of the following values:
1001:Drivers/STM32WLxx_HAL_Driver/Inc/stm32wlxx_ll_pwr.h ****   *         @arg @ref LL_PWR_GPIO_BIT_0
1002:Drivers/STM32WLxx_HAL_Driver/Inc/stm32wlxx_ll_pwr.h ****   *         @arg @ref LL_PWR_GPIO_BIT_1
1003:Drivers/STM32WLxx_HAL_Driver/Inc/stm32wlxx_ll_pwr.h ****   *         @arg @ref LL_PWR_GPIO_BIT_2
1004:Drivers/STM32WLxx_HAL_Driver/Inc/stm32wlxx_ll_pwr.h ****   *         @arg @ref LL_PWR_GPIO_BIT_3
1005:Drivers/STM32WLxx_HAL_Driver/Inc/stm32wlxx_ll_pwr.h ****   *         @arg @ref LL_PWR_GPIO_BIT_4
1006:Drivers/STM32WLxx_HAL_Driver/Inc/stm32wlxx_ll_pwr.h ****   *         @arg @ref LL_PWR_GPIO_BIT_5
1007:Drivers/STM32WLxx_HAL_Driver/Inc/stm32wlxx_ll_pwr.h ****   *         @arg @ref LL_PWR_GPIO_BIT_6
1008:Drivers/STM32WLxx_HAL_Driver/Inc/stm32wlxx_ll_pwr.h ****   *         @arg @ref LL_PWR_GPIO_BIT_7
1009:Drivers/STM32WLxx_HAL_Driver/Inc/stm32wlxx_ll_pwr.h ****   *         @arg @ref LL_PWR_GPIO_BIT_8
1010:Drivers/STM32WLxx_HAL_Driver/Inc/stm32wlxx_ll_pwr.h ****   *         @arg @ref LL_PWR_GPIO_BIT_9
1011:Drivers/STM32WLxx_HAL_Driver/Inc/stm32wlxx_ll_pwr.h ****   *         @arg @ref LL_PWR_GPIO_BIT_10
1012:Drivers/STM32WLxx_HAL_Driver/Inc/stm32wlxx_ll_pwr.h ****   *         @arg @ref LL_PWR_GPIO_BIT_11
1013:Drivers/STM32WLxx_HAL_Driver/Inc/stm32wlxx_ll_pwr.h ****   *         @arg @ref LL_PWR_GPIO_BIT_12
1014:Drivers/STM32WLxx_HAL_Driver/Inc/stm32wlxx_ll_pwr.h ****   *         @arg @ref LL_PWR_GPIO_BIT_13
1015:Drivers/STM32WLxx_HAL_Driver/Inc/stm32wlxx_ll_pwr.h ****   *         @arg @ref LL_PWR_GPIO_BIT_14
1016:Drivers/STM32WLxx_HAL_Driver/Inc/stm32wlxx_ll_pwr.h ****   *         @arg @ref LL_PWR_GPIO_BIT_15
1017:Drivers/STM32WLxx_HAL_Driver/Inc/stm32wlxx_ll_pwr.h ****   * @retval None
1018:Drivers/STM32WLxx_HAL_Driver/Inc/stm32wlxx_ll_pwr.h ****   */
1019:Drivers/STM32WLxx_HAL_Driver/Inc/stm32wlxx_ll_pwr.h **** __STATIC_INLINE void LL_PWR_DisableGPIOPullUp(uint32_t GPIO, uint32_t GPIONumber)
1020:Drivers/STM32WLxx_HAL_Driver/Inc/stm32wlxx_ll_pwr.h **** {
1021:Drivers/STM32WLxx_HAL_Driver/Inc/stm32wlxx_ll_pwr.h ****   CLEAR_BIT(*((__IO uint32_t *)GPIO), GPIONumber);
1022:Drivers/STM32WLxx_HAL_Driver/Inc/stm32wlxx_ll_pwr.h **** }
1023:Drivers/STM32WLxx_HAL_Driver/Inc/stm32wlxx_ll_pwr.h **** 
1024:Drivers/STM32WLxx_HAL_Driver/Inc/stm32wlxx_ll_pwr.h **** /**
1025:Drivers/STM32WLxx_HAL_Driver/Inc/stm32wlxx_ll_pwr.h ****   * @brief  Check if GPIO pull-up state is enabled
1026:Drivers/STM32WLxx_HAL_Driver/Inc/stm32wlxx_ll_pwr.h ****   * @rmtoll PUCRA        PU0-15        LL_PWR_IsEnabledGPIOPullUp\n
1027:Drivers/STM32WLxx_HAL_Driver/Inc/stm32wlxx_ll_pwr.h ****   *         PUCRB        PU0-15        LL_PWR_IsEnabledGPIOPullUp\n
1028:Drivers/STM32WLxx_HAL_Driver/Inc/stm32wlxx_ll_pwr.h ****   *         PUCRC        PU0-15        LL_PWR_IsEnabledGPIOPullUp\n
1029:Drivers/STM32WLxx_HAL_Driver/Inc/stm32wlxx_ll_pwr.h ****   *         PUCRH        PU0-15        LL_PWR_IsEnabledGPIOPullUp
1030:Drivers/STM32WLxx_HAL_Driver/Inc/stm32wlxx_ll_pwr.h ****   * @param  GPIO This parameter can be one of the following values:
1031:Drivers/STM32WLxx_HAL_Driver/Inc/stm32wlxx_ll_pwr.h ****   *         @arg @ref LL_PWR_GPIO_A
1032:Drivers/STM32WLxx_HAL_Driver/Inc/stm32wlxx_ll_pwr.h ****   *         @arg @ref LL_PWR_GPIO_B
1033:Drivers/STM32WLxx_HAL_Driver/Inc/stm32wlxx_ll_pwr.h ****   *         @arg @ref LL_PWR_GPIO_C
1034:Drivers/STM32WLxx_HAL_Driver/Inc/stm32wlxx_ll_pwr.h ****   *         @arg @ref LL_PWR_GPIO_H
1035:Drivers/STM32WLxx_HAL_Driver/Inc/stm32wlxx_ll_pwr.h ****   * @param  GPIONumber This parameter can be one of the following values:
1036:Drivers/STM32WLxx_HAL_Driver/Inc/stm32wlxx_ll_pwr.h ****   *         @arg @ref LL_PWR_GPIO_BIT_0
1037:Drivers/STM32WLxx_HAL_Driver/Inc/stm32wlxx_ll_pwr.h ****   *         @arg @ref LL_PWR_GPIO_BIT_1
1038:Drivers/STM32WLxx_HAL_Driver/Inc/stm32wlxx_ll_pwr.h ****   *         @arg @ref LL_PWR_GPIO_BIT_2
1039:Drivers/STM32WLxx_HAL_Driver/Inc/stm32wlxx_ll_pwr.h ****   *         @arg @ref LL_PWR_GPIO_BIT_3
1040:Drivers/STM32WLxx_HAL_Driver/Inc/stm32wlxx_ll_pwr.h ****   *         @arg @ref LL_PWR_GPIO_BIT_4
1041:Drivers/STM32WLxx_HAL_Driver/Inc/stm32wlxx_ll_pwr.h ****   *         @arg @ref LL_PWR_GPIO_BIT_5
1042:Drivers/STM32WLxx_HAL_Driver/Inc/stm32wlxx_ll_pwr.h ****   *         @arg @ref LL_PWR_GPIO_BIT_6
1043:Drivers/STM32WLxx_HAL_Driver/Inc/stm32wlxx_ll_pwr.h ****   *         @arg @ref LL_PWR_GPIO_BIT_7
1044:Drivers/STM32WLxx_HAL_Driver/Inc/stm32wlxx_ll_pwr.h ****   *         @arg @ref LL_PWR_GPIO_BIT_8
1045:Drivers/STM32WLxx_HAL_Driver/Inc/stm32wlxx_ll_pwr.h ****   *         @arg @ref LL_PWR_GPIO_BIT_9
1046:Drivers/STM32WLxx_HAL_Driver/Inc/stm32wlxx_ll_pwr.h ****   *         @arg @ref LL_PWR_GPIO_BIT_10
1047:Drivers/STM32WLxx_HAL_Driver/Inc/stm32wlxx_ll_pwr.h ****   *         @arg @ref LL_PWR_GPIO_BIT_11
1048:Drivers/STM32WLxx_HAL_Driver/Inc/stm32wlxx_ll_pwr.h ****   *         @arg @ref LL_PWR_GPIO_BIT_12
1049:Drivers/STM32WLxx_HAL_Driver/Inc/stm32wlxx_ll_pwr.h ****   *         @arg @ref LL_PWR_GPIO_BIT_13
1050:Drivers/STM32WLxx_HAL_Driver/Inc/stm32wlxx_ll_pwr.h ****   *         @arg @ref LL_PWR_GPIO_BIT_14
1051:Drivers/STM32WLxx_HAL_Driver/Inc/stm32wlxx_ll_pwr.h ****   *         @arg @ref LL_PWR_GPIO_BIT_15
1052:Drivers/STM32WLxx_HAL_Driver/Inc/stm32wlxx_ll_pwr.h ****   * @retval State of bit (1 or 0).
1053:Drivers/STM32WLxx_HAL_Driver/Inc/stm32wlxx_ll_pwr.h ****   */
1054:Drivers/STM32WLxx_HAL_Driver/Inc/stm32wlxx_ll_pwr.h **** __STATIC_INLINE uint32_t LL_PWR_IsEnabledGPIOPullUp(uint32_t GPIO, uint32_t GPIONumber)
ARM GAS  C:\Users\NATHAN~1\AppData\Local\Temp\ccSyVvP3.s 			page 29


1055:Drivers/STM32WLxx_HAL_Driver/Inc/stm32wlxx_ll_pwr.h **** {
1056:Drivers/STM32WLxx_HAL_Driver/Inc/stm32wlxx_ll_pwr.h ****   return ((READ_BIT(*((__IO uint32_t *)(GPIO)), GPIONumber) == (GPIONumber)) ? 1UL : 0UL);
1057:Drivers/STM32WLxx_HAL_Driver/Inc/stm32wlxx_ll_pwr.h **** }
1058:Drivers/STM32WLxx_HAL_Driver/Inc/stm32wlxx_ll_pwr.h **** 
1059:Drivers/STM32WLxx_HAL_Driver/Inc/stm32wlxx_ll_pwr.h **** /**
1060:Drivers/STM32WLxx_HAL_Driver/Inc/stm32wlxx_ll_pwr.h ****   * @brief  Enable GPIO pull-down state in Standby and Shutdown modes
1061:Drivers/STM32WLxx_HAL_Driver/Inc/stm32wlxx_ll_pwr.h ****   * @note   Some pins are not configurable for pulling in Standby and Shutdown
1062:Drivers/STM32WLxx_HAL_Driver/Inc/stm32wlxx_ll_pwr.h ****   *         modes. Refer to reference manual for available pins and ports.
1063:Drivers/STM32WLxx_HAL_Driver/Inc/stm32wlxx_ll_pwr.h ****   * @rmtoll PDCRA        PD0-15        LL_PWR_EnableGPIOPullDown\n
1064:Drivers/STM32WLxx_HAL_Driver/Inc/stm32wlxx_ll_pwr.h ****   *         PDCRB        PD0-15        LL_PWR_EnableGPIOPullDown\n
1065:Drivers/STM32WLxx_HAL_Driver/Inc/stm32wlxx_ll_pwr.h ****   *         PDCRC        PD0-15        LL_PWR_EnableGPIOPullDown\n
1066:Drivers/STM32WLxx_HAL_Driver/Inc/stm32wlxx_ll_pwr.h ****   *         PDCRH        PD0-15        LL_PWR_EnableGPIOPullDown
1067:Drivers/STM32WLxx_HAL_Driver/Inc/stm32wlxx_ll_pwr.h ****   * @param  GPIO This parameter can be one of the following values:
1068:Drivers/STM32WLxx_HAL_Driver/Inc/stm32wlxx_ll_pwr.h ****   *         @arg @ref LL_PWR_GPIO_A
1069:Drivers/STM32WLxx_HAL_Driver/Inc/stm32wlxx_ll_pwr.h ****   *         @arg @ref LL_PWR_GPIO_B
1070:Drivers/STM32WLxx_HAL_Driver/Inc/stm32wlxx_ll_pwr.h ****   *         @arg @ref LL_PWR_GPIO_C
1071:Drivers/STM32WLxx_HAL_Driver/Inc/stm32wlxx_ll_pwr.h ****   *         @arg @ref LL_PWR_GPIO_H
1072:Drivers/STM32WLxx_HAL_Driver/Inc/stm32wlxx_ll_pwr.h ****   * @param  GPIONumber This parameter can be one of the following values:
1073:Drivers/STM32WLxx_HAL_Driver/Inc/stm32wlxx_ll_pwr.h ****   *         @arg @ref LL_PWR_GPIO_BIT_0
1074:Drivers/STM32WLxx_HAL_Driver/Inc/stm32wlxx_ll_pwr.h ****   *         @arg @ref LL_PWR_GPIO_BIT_1
1075:Drivers/STM32WLxx_HAL_Driver/Inc/stm32wlxx_ll_pwr.h ****   *         @arg @ref LL_PWR_GPIO_BIT_2
1076:Drivers/STM32WLxx_HAL_Driver/Inc/stm32wlxx_ll_pwr.h ****   *         @arg @ref LL_PWR_GPIO_BIT_3
1077:Drivers/STM32WLxx_HAL_Driver/Inc/stm32wlxx_ll_pwr.h ****   *         @arg @ref LL_PWR_GPIO_BIT_4
1078:Drivers/STM32WLxx_HAL_Driver/Inc/stm32wlxx_ll_pwr.h ****   *         @arg @ref LL_PWR_GPIO_BIT_5
1079:Drivers/STM32WLxx_HAL_Driver/Inc/stm32wlxx_ll_pwr.h ****   *         @arg @ref LL_PWR_GPIO_BIT_6
1080:Drivers/STM32WLxx_HAL_Driver/Inc/stm32wlxx_ll_pwr.h ****   *         @arg @ref LL_PWR_GPIO_BIT_7
1081:Drivers/STM32WLxx_HAL_Driver/Inc/stm32wlxx_ll_pwr.h ****   *         @arg @ref LL_PWR_GPIO_BIT_8
1082:Drivers/STM32WLxx_HAL_Driver/Inc/stm32wlxx_ll_pwr.h ****   *         @arg @ref LL_PWR_GPIO_BIT_9
1083:Drivers/STM32WLxx_HAL_Driver/Inc/stm32wlxx_ll_pwr.h ****   *         @arg @ref LL_PWR_GPIO_BIT_10
1084:Drivers/STM32WLxx_HAL_Driver/Inc/stm32wlxx_ll_pwr.h ****   *         @arg @ref LL_PWR_GPIO_BIT_11
1085:Drivers/STM32WLxx_HAL_Driver/Inc/stm32wlxx_ll_pwr.h ****   *         @arg @ref LL_PWR_GPIO_BIT_12
1086:Drivers/STM32WLxx_HAL_Driver/Inc/stm32wlxx_ll_pwr.h ****   *         @arg @ref LL_PWR_GPIO_BIT_13
1087:Drivers/STM32WLxx_HAL_Driver/Inc/stm32wlxx_ll_pwr.h ****   *         @arg @ref LL_PWR_GPIO_BIT_14
1088:Drivers/STM32WLxx_HAL_Driver/Inc/stm32wlxx_ll_pwr.h ****   *         @arg @ref LL_PWR_GPIO_BIT_15
1089:Drivers/STM32WLxx_HAL_Driver/Inc/stm32wlxx_ll_pwr.h ****   * @retval None
1090:Drivers/STM32WLxx_HAL_Driver/Inc/stm32wlxx_ll_pwr.h ****   */
1091:Drivers/STM32WLxx_HAL_Driver/Inc/stm32wlxx_ll_pwr.h **** __STATIC_INLINE void LL_PWR_EnableGPIOPullDown(uint32_t GPIO, uint32_t GPIONumber)
1092:Drivers/STM32WLxx_HAL_Driver/Inc/stm32wlxx_ll_pwr.h **** {
1093:Drivers/STM32WLxx_HAL_Driver/Inc/stm32wlxx_ll_pwr.h ****   SET_BIT(*((__IO uint32_t *)(GPIO + 4U)), GPIONumber);
1094:Drivers/STM32WLxx_HAL_Driver/Inc/stm32wlxx_ll_pwr.h **** }
1095:Drivers/STM32WLxx_HAL_Driver/Inc/stm32wlxx_ll_pwr.h **** 
1096:Drivers/STM32WLxx_HAL_Driver/Inc/stm32wlxx_ll_pwr.h **** /**
1097:Drivers/STM32WLxx_HAL_Driver/Inc/stm32wlxx_ll_pwr.h ****   * @brief  Disable GPIO pull-down state in Standby and Shutdown modes
1098:Drivers/STM32WLxx_HAL_Driver/Inc/stm32wlxx_ll_pwr.h ****   * @note   Some pins are not configurable for pulling in Standby and Shutdown
1099:Drivers/STM32WLxx_HAL_Driver/Inc/stm32wlxx_ll_pwr.h ****   *         modes. Refer to reference manual for available pins and ports.
1100:Drivers/STM32WLxx_HAL_Driver/Inc/stm32wlxx_ll_pwr.h ****   * @rmtoll PDCRA        PD0-15        LL_PWR_DisableGPIOPullDown\n
1101:Drivers/STM32WLxx_HAL_Driver/Inc/stm32wlxx_ll_pwr.h ****   *         PDCRB        PD0-15        LL_PWR_DisableGPIOPullDown\n
1102:Drivers/STM32WLxx_HAL_Driver/Inc/stm32wlxx_ll_pwr.h ****   *         PDCRC        PD0-15        LL_PWR_DisableGPIOPullDown\n
1103:Drivers/STM32WLxx_HAL_Driver/Inc/stm32wlxx_ll_pwr.h ****   *         PDCRH        PD0-15        LL_PWR_DisableGPIOPullDown
1104:Drivers/STM32WLxx_HAL_Driver/Inc/stm32wlxx_ll_pwr.h ****   * @param  GPIO This parameter can be one of the following values:
1105:Drivers/STM32WLxx_HAL_Driver/Inc/stm32wlxx_ll_pwr.h ****   *         @arg @ref LL_PWR_GPIO_A
1106:Drivers/STM32WLxx_HAL_Driver/Inc/stm32wlxx_ll_pwr.h ****   *         @arg @ref LL_PWR_GPIO_B
1107:Drivers/STM32WLxx_HAL_Driver/Inc/stm32wlxx_ll_pwr.h ****   *         @arg @ref LL_PWR_GPIO_C
1108:Drivers/STM32WLxx_HAL_Driver/Inc/stm32wlxx_ll_pwr.h ****   *         @arg @ref LL_PWR_GPIO_H
1109:Drivers/STM32WLxx_HAL_Driver/Inc/stm32wlxx_ll_pwr.h ****   * @param  GPIONumber This parameter can be one of the following values:
1110:Drivers/STM32WLxx_HAL_Driver/Inc/stm32wlxx_ll_pwr.h ****   *         @arg @ref LL_PWR_GPIO_BIT_0
1111:Drivers/STM32WLxx_HAL_Driver/Inc/stm32wlxx_ll_pwr.h ****   *         @arg @ref LL_PWR_GPIO_BIT_1
ARM GAS  C:\Users\NATHAN~1\AppData\Local\Temp\ccSyVvP3.s 			page 30


1112:Drivers/STM32WLxx_HAL_Driver/Inc/stm32wlxx_ll_pwr.h ****   *         @arg @ref LL_PWR_GPIO_BIT_2
1113:Drivers/STM32WLxx_HAL_Driver/Inc/stm32wlxx_ll_pwr.h ****   *         @arg @ref LL_PWR_GPIO_BIT_3
1114:Drivers/STM32WLxx_HAL_Driver/Inc/stm32wlxx_ll_pwr.h ****   *         @arg @ref LL_PWR_GPIO_BIT_4
1115:Drivers/STM32WLxx_HAL_Driver/Inc/stm32wlxx_ll_pwr.h ****   *         @arg @ref LL_PWR_GPIO_BIT_5
1116:Drivers/STM32WLxx_HAL_Driver/Inc/stm32wlxx_ll_pwr.h ****   *         @arg @ref LL_PWR_GPIO_BIT_6
1117:Drivers/STM32WLxx_HAL_Driver/Inc/stm32wlxx_ll_pwr.h ****   *         @arg @ref LL_PWR_GPIO_BIT_7
1118:Drivers/STM32WLxx_HAL_Driver/Inc/stm32wlxx_ll_pwr.h ****   *         @arg @ref LL_PWR_GPIO_BIT_8
1119:Drivers/STM32WLxx_HAL_Driver/Inc/stm32wlxx_ll_pwr.h ****   *         @arg @ref LL_PWR_GPIO_BIT_9
1120:Drivers/STM32WLxx_HAL_Driver/Inc/stm32wlxx_ll_pwr.h ****   *         @arg @ref LL_PWR_GPIO_BIT_10
1121:Drivers/STM32WLxx_HAL_Driver/Inc/stm32wlxx_ll_pwr.h ****   *         @arg @ref LL_PWR_GPIO_BIT_11
1122:Drivers/STM32WLxx_HAL_Driver/Inc/stm32wlxx_ll_pwr.h ****   *         @arg @ref LL_PWR_GPIO_BIT_12
1123:Drivers/STM32WLxx_HAL_Driver/Inc/stm32wlxx_ll_pwr.h ****   *         @arg @ref LL_PWR_GPIO_BIT_13
1124:Drivers/STM32WLxx_HAL_Driver/Inc/stm32wlxx_ll_pwr.h ****   *         @arg @ref LL_PWR_GPIO_BIT_14
1125:Drivers/STM32WLxx_HAL_Driver/Inc/stm32wlxx_ll_pwr.h ****   *         @arg @ref LL_PWR_GPIO_BIT_15
1126:Drivers/STM32WLxx_HAL_Driver/Inc/stm32wlxx_ll_pwr.h ****   * @retval None
1127:Drivers/STM32WLxx_HAL_Driver/Inc/stm32wlxx_ll_pwr.h ****   */
1128:Drivers/STM32WLxx_HAL_Driver/Inc/stm32wlxx_ll_pwr.h **** __STATIC_INLINE void LL_PWR_DisableGPIOPullDown(uint32_t GPIO, uint32_t GPIONumber)
1129:Drivers/STM32WLxx_HAL_Driver/Inc/stm32wlxx_ll_pwr.h **** {
1130:Drivers/STM32WLxx_HAL_Driver/Inc/stm32wlxx_ll_pwr.h ****   CLEAR_BIT(*((__IO uint32_t *)(GPIO + 4U)), GPIONumber);
1131:Drivers/STM32WLxx_HAL_Driver/Inc/stm32wlxx_ll_pwr.h **** }
1132:Drivers/STM32WLxx_HAL_Driver/Inc/stm32wlxx_ll_pwr.h **** 
1133:Drivers/STM32WLxx_HAL_Driver/Inc/stm32wlxx_ll_pwr.h **** /**
1134:Drivers/STM32WLxx_HAL_Driver/Inc/stm32wlxx_ll_pwr.h ****   * @brief  Check if GPIO pull-down state is enabled
1135:Drivers/STM32WLxx_HAL_Driver/Inc/stm32wlxx_ll_pwr.h ****   * @rmtoll PDCRA        PD0-15        LL_PWR_IsEnabledGPIOPullDown\n
1136:Drivers/STM32WLxx_HAL_Driver/Inc/stm32wlxx_ll_pwr.h ****   *         PDCRB        PD0-15        LL_PWR_IsEnabledGPIOPullDown\n
1137:Drivers/STM32WLxx_HAL_Driver/Inc/stm32wlxx_ll_pwr.h ****   *         PDCRC        PD0-15        LL_PWR_IsEnabledGPIOPullDown\n
1138:Drivers/STM32WLxx_HAL_Driver/Inc/stm32wlxx_ll_pwr.h ****   *         PDCRH        PD0-15        LL_PWR_IsEnabledGPIOPullDown
1139:Drivers/STM32WLxx_HAL_Driver/Inc/stm32wlxx_ll_pwr.h ****   * @param  GPIO This parameter can be one of the following values:
1140:Drivers/STM32WLxx_HAL_Driver/Inc/stm32wlxx_ll_pwr.h ****   *         @arg @ref LL_PWR_GPIO_A
1141:Drivers/STM32WLxx_HAL_Driver/Inc/stm32wlxx_ll_pwr.h ****   *         @arg @ref LL_PWR_GPIO_B
1142:Drivers/STM32WLxx_HAL_Driver/Inc/stm32wlxx_ll_pwr.h ****   *         @arg @ref LL_PWR_GPIO_C
1143:Drivers/STM32WLxx_HAL_Driver/Inc/stm32wlxx_ll_pwr.h ****   *         @arg @ref LL_PWR_GPIO_H
1144:Drivers/STM32WLxx_HAL_Driver/Inc/stm32wlxx_ll_pwr.h ****   * @param  GPIONumber This parameter can be one of the following values:
1145:Drivers/STM32WLxx_HAL_Driver/Inc/stm32wlxx_ll_pwr.h ****   *         @arg @ref LL_PWR_GPIO_BIT_0
1146:Drivers/STM32WLxx_HAL_Driver/Inc/stm32wlxx_ll_pwr.h ****   *         @arg @ref LL_PWR_GPIO_BIT_1
1147:Drivers/STM32WLxx_HAL_Driver/Inc/stm32wlxx_ll_pwr.h ****   *         @arg @ref LL_PWR_GPIO_BIT_2
1148:Drivers/STM32WLxx_HAL_Driver/Inc/stm32wlxx_ll_pwr.h ****   *         @arg @ref LL_PWR_GPIO_BIT_3
1149:Drivers/STM32WLxx_HAL_Driver/Inc/stm32wlxx_ll_pwr.h ****   *         @arg @ref LL_PWR_GPIO_BIT_4
1150:Drivers/STM32WLxx_HAL_Driver/Inc/stm32wlxx_ll_pwr.h ****   *         @arg @ref LL_PWR_GPIO_BIT_5
1151:Drivers/STM32WLxx_HAL_Driver/Inc/stm32wlxx_ll_pwr.h ****   *         @arg @ref LL_PWR_GPIO_BIT_6
1152:Drivers/STM32WLxx_HAL_Driver/Inc/stm32wlxx_ll_pwr.h ****   *         @arg @ref LL_PWR_GPIO_BIT_7
1153:Drivers/STM32WLxx_HAL_Driver/Inc/stm32wlxx_ll_pwr.h ****   *         @arg @ref LL_PWR_GPIO_BIT_8
1154:Drivers/STM32WLxx_HAL_Driver/Inc/stm32wlxx_ll_pwr.h ****   *         @arg @ref LL_PWR_GPIO_BIT_9
1155:Drivers/STM32WLxx_HAL_Driver/Inc/stm32wlxx_ll_pwr.h ****   *         @arg @ref LL_PWR_GPIO_BIT_10
1156:Drivers/STM32WLxx_HAL_Driver/Inc/stm32wlxx_ll_pwr.h ****   *         @arg @ref LL_PWR_GPIO_BIT_11
1157:Drivers/STM32WLxx_HAL_Driver/Inc/stm32wlxx_ll_pwr.h ****   *         @arg @ref LL_PWR_GPIO_BIT_12
1158:Drivers/STM32WLxx_HAL_Driver/Inc/stm32wlxx_ll_pwr.h ****   *         @arg @ref LL_PWR_GPIO_BIT_13
1159:Drivers/STM32WLxx_HAL_Driver/Inc/stm32wlxx_ll_pwr.h ****   *         @arg @ref LL_PWR_GPIO_BIT_14
1160:Drivers/STM32WLxx_HAL_Driver/Inc/stm32wlxx_ll_pwr.h ****   *         @arg @ref LL_PWR_GPIO_BIT_15
1161:Drivers/STM32WLxx_HAL_Driver/Inc/stm32wlxx_ll_pwr.h ****   * @retval State of bit (1 or 0).
1162:Drivers/STM32WLxx_HAL_Driver/Inc/stm32wlxx_ll_pwr.h ****   */
1163:Drivers/STM32WLxx_HAL_Driver/Inc/stm32wlxx_ll_pwr.h **** __STATIC_INLINE uint32_t LL_PWR_IsEnabledGPIOPullDown(uint32_t GPIO, uint32_t GPIONumber)
1164:Drivers/STM32WLxx_HAL_Driver/Inc/stm32wlxx_ll_pwr.h **** {
1165:Drivers/STM32WLxx_HAL_Driver/Inc/stm32wlxx_ll_pwr.h ****   return ((READ_BIT(*((__IO uint32_t *)(GPIO + 4U)), GPIONumber) == (GPIONumber)) ? 1UL : 0UL);
1166:Drivers/STM32WLxx_HAL_Driver/Inc/stm32wlxx_ll_pwr.h **** }
1167:Drivers/STM32WLxx_HAL_Driver/Inc/stm32wlxx_ll_pwr.h **** 
1168:Drivers/STM32WLxx_HAL_Driver/Inc/stm32wlxx_ll_pwr.h **** /**
ARM GAS  C:\Users\NATHAN~1\AppData\Local\Temp\ccSyVvP3.s 			page 31


1169:Drivers/STM32WLxx_HAL_Driver/Inc/stm32wlxx_ll_pwr.h ****   * @}
1170:Drivers/STM32WLxx_HAL_Driver/Inc/stm32wlxx_ll_pwr.h ****   */
1171:Drivers/STM32WLxx_HAL_Driver/Inc/stm32wlxx_ll_pwr.h **** 
1172:Drivers/STM32WLxx_HAL_Driver/Inc/stm32wlxx_ll_pwr.h **** /** @defgroup PWR_LL_EF_Configuration_SMPS Configuration of SMPS
1173:Drivers/STM32WLxx_HAL_Driver/Inc/stm32wlxx_ll_pwr.h ****   * @{
1174:Drivers/STM32WLxx_HAL_Driver/Inc/stm32wlxx_ll_pwr.h ****   */
1175:Drivers/STM32WLxx_HAL_Driver/Inc/stm32wlxx_ll_pwr.h **** 
1176:Drivers/STM32WLxx_HAL_Driver/Inc/stm32wlxx_ll_pwr.h **** /**
1177:Drivers/STM32WLxx_HAL_Driver/Inc/stm32wlxx_ll_pwr.h ****   * @brief  Set SMPS operating mode
1178:Drivers/STM32WLxx_HAL_Driver/Inc/stm32wlxx_ll_pwr.h ****   * @note   In case of a board without SMPS coil mounted, SMPS should not be activated.
1179:Drivers/STM32WLxx_HAL_Driver/Inc/stm32wlxx_ll_pwr.h ****   * @rmtoll CR5          SMPSEN        LL_PWR_SMPS_SetMode
1180:Drivers/STM32WLxx_HAL_Driver/Inc/stm32wlxx_ll_pwr.h ****   * @param  OperatingMode This parameter can be one of the following values:
1181:Drivers/STM32WLxx_HAL_Driver/Inc/stm32wlxx_ll_pwr.h ****   *         @arg @ref LL_PWR_SMPS_BYPASS
1182:Drivers/STM32WLxx_HAL_Driver/Inc/stm32wlxx_ll_pwr.h ****   *         @arg @ref LL_PWR_SMPS_STEP_DOWN
1183:Drivers/STM32WLxx_HAL_Driver/Inc/stm32wlxx_ll_pwr.h ****   * @retval None
1184:Drivers/STM32WLxx_HAL_Driver/Inc/stm32wlxx_ll_pwr.h ****   */
1185:Drivers/STM32WLxx_HAL_Driver/Inc/stm32wlxx_ll_pwr.h **** __STATIC_INLINE void LL_PWR_SMPS_SetMode(uint32_t OperatingMode)
1186:Drivers/STM32WLxx_HAL_Driver/Inc/stm32wlxx_ll_pwr.h **** {
1187:Drivers/STM32WLxx_HAL_Driver/Inc/stm32wlxx_ll_pwr.h ****   MODIFY_REG(PWR->CR5, PWR_CR5_SMPSEN, OperatingMode);
1188:Drivers/STM32WLxx_HAL_Driver/Inc/stm32wlxx_ll_pwr.h **** }
1189:Drivers/STM32WLxx_HAL_Driver/Inc/stm32wlxx_ll_pwr.h **** 
1190:Drivers/STM32WLxx_HAL_Driver/Inc/stm32wlxx_ll_pwr.h **** /**
1191:Drivers/STM32WLxx_HAL_Driver/Inc/stm32wlxx_ll_pwr.h ****   * @brief  Get SMPS operating mode
1192:Drivers/STM32WLxx_HAL_Driver/Inc/stm32wlxx_ll_pwr.h ****   * @rmtoll CR5          SMPSEN        LL_PWR_SMPS_GetMode
1193:Drivers/STM32WLxx_HAL_Driver/Inc/stm32wlxx_ll_pwr.h ****   * @retval Returned value can be one of the following values:
1194:Drivers/STM32WLxx_HAL_Driver/Inc/stm32wlxx_ll_pwr.h ****   *         @arg @ref LL_PWR_SMPS_BYPASS
1195:Drivers/STM32WLxx_HAL_Driver/Inc/stm32wlxx_ll_pwr.h ****   *         @arg @ref LL_PWR_SMPS_STEP_DOWN
1196:Drivers/STM32WLxx_HAL_Driver/Inc/stm32wlxx_ll_pwr.h ****   */
1197:Drivers/STM32WLxx_HAL_Driver/Inc/stm32wlxx_ll_pwr.h **** __STATIC_INLINE uint32_t LL_PWR_SMPS_GetMode(void)
1198:Drivers/STM32WLxx_HAL_Driver/Inc/stm32wlxx_ll_pwr.h **** {
1199:Drivers/STM32WLxx_HAL_Driver/Inc/stm32wlxx_ll_pwr.h ****   return (uint32_t)(READ_BIT(PWR->CR5, PWR_CR5_SMPSEN));
1200:Drivers/STM32WLxx_HAL_Driver/Inc/stm32wlxx_ll_pwr.h **** }
1201:Drivers/STM32WLxx_HAL_Driver/Inc/stm32wlxx_ll_pwr.h **** 
1202:Drivers/STM32WLxx_HAL_Driver/Inc/stm32wlxx_ll_pwr.h **** /**
1203:Drivers/STM32WLxx_HAL_Driver/Inc/stm32wlxx_ll_pwr.h ****   * @brief  Get SMPS effective operating mode
1204:Drivers/STM32WLxx_HAL_Driver/Inc/stm32wlxx_ll_pwr.h ****   * @note   SMPS operating mode can be changed by hardware, therefore
1205:Drivers/STM32WLxx_HAL_Driver/Inc/stm32wlxx_ll_pwr.h ****   *         requested operating mode can differ from effective low power mode.
1206:Drivers/STM32WLxx_HAL_Driver/Inc/stm32wlxx_ll_pwr.h ****   *         - dependency SubGhz Radio IP: can switch SMPS on for radio activity.
1207:Drivers/STM32WLxx_HAL_Driver/Inc/stm32wlxx_ll_pwr.h ****   * @note   In case of a board without SMPS coil mounted, SMPS should not be activated
1208:Drivers/STM32WLxx_HAL_Driver/Inc/stm32wlxx_ll_pwr.h ****   *         and this function is not relevant.
1209:Drivers/STM32WLxx_HAL_Driver/Inc/stm32wlxx_ll_pwr.h ****   * @rmtoll SR2          SMPSRDY       LL_PWR_SMPS_GetEffectiveMode
1210:Drivers/STM32WLxx_HAL_Driver/Inc/stm32wlxx_ll_pwr.h ****   * @retval Returned value can be one of the following values:
1211:Drivers/STM32WLxx_HAL_Driver/Inc/stm32wlxx_ll_pwr.h ****   *         @arg @ref LL_PWR_SMPS_BYPASS
1212:Drivers/STM32WLxx_HAL_Driver/Inc/stm32wlxx_ll_pwr.h ****   *         @arg @ref LL_PWR_SMPS_STEP_DOWN
1213:Drivers/STM32WLxx_HAL_Driver/Inc/stm32wlxx_ll_pwr.h ****   */
1214:Drivers/STM32WLxx_HAL_Driver/Inc/stm32wlxx_ll_pwr.h **** __STATIC_INLINE uint32_t LL_PWR_SMPS_GetEffectiveMode(void)
1215:Drivers/STM32WLxx_HAL_Driver/Inc/stm32wlxx_ll_pwr.h **** {
1216:Drivers/STM32WLxx_HAL_Driver/Inc/stm32wlxx_ll_pwr.h ****   /* Return a value corresponding to definition of literals                   */
1217:Drivers/STM32WLxx_HAL_Driver/Inc/stm32wlxx_ll_pwr.h ****   /* LL_PWR_SMPS_BYPASS or LL_PWR_SMPS_STEP_DOWN.                             */
1218:Drivers/STM32WLxx_HAL_Driver/Inc/stm32wlxx_ll_pwr.h ****   return (uint32_t)(READ_BIT(PWR->SR2, PWR_SR2_SMPSRDY) << (PWR_CR5_SMPSEN_Pos - PWR_SR2_SMPSRDY_Po
1219:Drivers/STM32WLxx_HAL_Driver/Inc/stm32wlxx_ll_pwr.h **** }
1220:Drivers/STM32WLxx_HAL_Driver/Inc/stm32wlxx_ll_pwr.h **** 
1221:Drivers/STM32WLxx_HAL_Driver/Inc/stm32wlxx_ll_pwr.h **** /**
1222:Drivers/STM32WLxx_HAL_Driver/Inc/stm32wlxx_ll_pwr.h ****   * @brief  SMPS step down converter enable
1223:Drivers/STM32WLxx_HAL_Driver/Inc/stm32wlxx_ll_pwr.h ****   * @note   This function can be used for specific usage of the SMPS,
1224:Drivers/STM32WLxx_HAL_Driver/Inc/stm32wlxx_ll_pwr.h ****   *         for general usage of the SMPS the function
1225:Drivers/STM32WLxx_HAL_Driver/Inc/stm32wlxx_ll_pwr.h ****   *         @ref LL_PWR_SMPS_SetMode() should be used instead.
ARM GAS  C:\Users\NATHAN~1\AppData\Local\Temp\ccSyVvP3.s 			page 32


1226:Drivers/STM32WLxx_HAL_Driver/Inc/stm32wlxx_ll_pwr.h ****   * @rmtoll CR5          SMPSEN        LL_PWR_SMPS_Enable
1227:Drivers/STM32WLxx_HAL_Driver/Inc/stm32wlxx_ll_pwr.h ****   * @retval None
1228:Drivers/STM32WLxx_HAL_Driver/Inc/stm32wlxx_ll_pwr.h ****   */
1229:Drivers/STM32WLxx_HAL_Driver/Inc/stm32wlxx_ll_pwr.h **** __STATIC_INLINE void LL_PWR_SMPS_Enable(void)
1230:Drivers/STM32WLxx_HAL_Driver/Inc/stm32wlxx_ll_pwr.h **** {
1231:Drivers/STM32WLxx_HAL_Driver/Inc/stm32wlxx_ll_pwr.h ****   SET_BIT(PWR->CR5, PWR_CR5_SMPSEN);
1232:Drivers/STM32WLxx_HAL_Driver/Inc/stm32wlxx_ll_pwr.h **** }
1233:Drivers/STM32WLxx_HAL_Driver/Inc/stm32wlxx_ll_pwr.h **** 
1234:Drivers/STM32WLxx_HAL_Driver/Inc/stm32wlxx_ll_pwr.h **** /**
1235:Drivers/STM32WLxx_HAL_Driver/Inc/stm32wlxx_ll_pwr.h ****   * @brief  SMPS step down converter enable
1236:Drivers/STM32WLxx_HAL_Driver/Inc/stm32wlxx_ll_pwr.h ****   * @note   This function can be used for specific usage of the SMPS,
1237:Drivers/STM32WLxx_HAL_Driver/Inc/stm32wlxx_ll_pwr.h ****   *         for general usage of the SMPS the function
1238:Drivers/STM32WLxx_HAL_Driver/Inc/stm32wlxx_ll_pwr.h ****   *         @ref LL_PWR_SMPS_SetMode() should be used instead.
1239:Drivers/STM32WLxx_HAL_Driver/Inc/stm32wlxx_ll_pwr.h ****   * @rmtoll CR5          SMPSEN        LL_PWR_SMPS_Disable
1240:Drivers/STM32WLxx_HAL_Driver/Inc/stm32wlxx_ll_pwr.h ****   * @retval None
1241:Drivers/STM32WLxx_HAL_Driver/Inc/stm32wlxx_ll_pwr.h ****   */
1242:Drivers/STM32WLxx_HAL_Driver/Inc/stm32wlxx_ll_pwr.h **** __STATIC_INLINE void LL_PWR_SMPS_Disable(void)
1243:Drivers/STM32WLxx_HAL_Driver/Inc/stm32wlxx_ll_pwr.h **** {
1244:Drivers/STM32WLxx_HAL_Driver/Inc/stm32wlxx_ll_pwr.h ****   CLEAR_BIT(PWR->CR5, PWR_CR5_SMPSEN);
1245:Drivers/STM32WLxx_HAL_Driver/Inc/stm32wlxx_ll_pwr.h **** }
1246:Drivers/STM32WLxx_HAL_Driver/Inc/stm32wlxx_ll_pwr.h **** 
1247:Drivers/STM32WLxx_HAL_Driver/Inc/stm32wlxx_ll_pwr.h **** /**
1248:Drivers/STM32WLxx_HAL_Driver/Inc/stm32wlxx_ll_pwr.h ****   * @brief  Check if the SMPS step down converter is enabled
1249:Drivers/STM32WLxx_HAL_Driver/Inc/stm32wlxx_ll_pwr.h ****   * @rmtoll CR5          SMPSEN        LL_PWR_SMPS_IsEnabled
1250:Drivers/STM32WLxx_HAL_Driver/Inc/stm32wlxx_ll_pwr.h ****   * @retval State of bit (1 or 0).
1251:Drivers/STM32WLxx_HAL_Driver/Inc/stm32wlxx_ll_pwr.h ****   */
1252:Drivers/STM32WLxx_HAL_Driver/Inc/stm32wlxx_ll_pwr.h **** __STATIC_INLINE uint32_t LL_PWR_SMPS_IsEnabled(void)
1253:Drivers/STM32WLxx_HAL_Driver/Inc/stm32wlxx_ll_pwr.h **** {
1254:Drivers/STM32WLxx_HAL_Driver/Inc/stm32wlxx_ll_pwr.h ****   return ((READ_BIT(PWR->CR5, PWR_CR5_SMPSEN) == (PWR_CR5_SMPSEN)) ? 1UL : 0UL);
1255:Drivers/STM32WLxx_HAL_Driver/Inc/stm32wlxx_ll_pwr.h **** }
1256:Drivers/STM32WLxx_HAL_Driver/Inc/stm32wlxx_ll_pwr.h **** 
1257:Drivers/STM32WLxx_HAL_Driver/Inc/stm32wlxx_ll_pwr.h **** /**
1258:Drivers/STM32WLxx_HAL_Driver/Inc/stm32wlxx_ll_pwr.h ****   * @}
1259:Drivers/STM32WLxx_HAL_Driver/Inc/stm32wlxx_ll_pwr.h ****   */
1260:Drivers/STM32WLxx_HAL_Driver/Inc/stm32wlxx_ll_pwr.h **** 
1261:Drivers/STM32WLxx_HAL_Driver/Inc/stm32wlxx_ll_pwr.h **** /** @defgroup PWR_LL_EF_Configuration_Radio Configuration of radio
1262:Drivers/STM32WLxx_HAL_Driver/Inc/stm32wlxx_ll_pwr.h ****   * @{
1263:Drivers/STM32WLxx_HAL_Driver/Inc/stm32wlxx_ll_pwr.h ****   */
1264:Drivers/STM32WLxx_HAL_Driver/Inc/stm32wlxx_ll_pwr.h **** 
1265:Drivers/STM32WLxx_HAL_Driver/Inc/stm32wlxx_ll_pwr.h **** /**
1266:Drivers/STM32WLxx_HAL_Driver/Inc/stm32wlxx_ll_pwr.h ****   * @brief  Set radio busy signal polarity
1267:Drivers/STM32WLxx_HAL_Driver/Inc/stm32wlxx_ll_pwr.h ****   * @rmtoll CR4          RFBUSYP       LL_PWR_SetRadioBusyPolarity
1268:Drivers/STM32WLxx_HAL_Driver/Inc/stm32wlxx_ll_pwr.h ****   * @param  RadioBusyPolarity This parameter can be one of the following values:
1269:Drivers/STM32WLxx_HAL_Driver/Inc/stm32wlxx_ll_pwr.h ****   *         @arg @ref LL_PWR_RADIO_BUSY_POLARITY_RISING
1270:Drivers/STM32WLxx_HAL_Driver/Inc/stm32wlxx_ll_pwr.h ****   *         @arg @ref LL_PWR_RADIO_BUSY_POLARITY_FALLING
1271:Drivers/STM32WLxx_HAL_Driver/Inc/stm32wlxx_ll_pwr.h ****   * @retval None
1272:Drivers/STM32WLxx_HAL_Driver/Inc/stm32wlxx_ll_pwr.h ****   */
1273:Drivers/STM32WLxx_HAL_Driver/Inc/stm32wlxx_ll_pwr.h **** __STATIC_INLINE void LL_PWR_SetRadioBusyPolarity(uint32_t RadioBusyPolarity)
 316              		.loc 2 1273 22 view .LVU59
 317              	.LBB39:
1274:Drivers/STM32WLxx_HAL_Driver/Inc/stm32wlxx_ll_pwr.h **** {
1275:Drivers/STM32WLxx_HAL_Driver/Inc/stm32wlxx_ll_pwr.h ****   MODIFY_REG(PWR->CR4, PWR_CR4_WRFBUSYP, RadioBusyPolarity);
 318              		.loc 2 1275 3 view .LVU60
 319 0000 034A     		ldr	r2, .L29
 320 0002 D368     		ldr	r3, [r2, #12]
 321 0004 23F40063 		bic	r3, r3, #2048
 322 0008 1843     		orrs	r0, r0, r3
ARM GAS  C:\Users\NATHAN~1\AppData\Local\Temp\ccSyVvP3.s 			page 33


 323              	.LVL15:
 324              		.loc 2 1275 3 is_stmt 0 view .LVU61
 325 000a D060     		str	r0, [r2, #12]
 326              	.LVL16:
 327              		.loc 2 1275 3 view .LVU62
 328              	.LBE39:
 329              	.LBE38:
 220:Drivers/STM32WLxx_HAL_Driver/Src/stm32wlxx_hal_pwr_ex.c **** }
 330              		.loc 1 220 1 view .LVU63
 331 000c 7047     		bx	lr
 332              	.L30:
 333 000e 00BF     		.align	2
 334              	.L29:
 335 0010 00040058 		.word	1476396032
 336              		.cfi_endproc
 337              	.LFE974:
 339              		.section	.text.HAL_PWREx_SetRadioBusyTrigger,"ax",%progbits
 340              		.align	1
 341              		.global	HAL_PWREx_SetRadioBusyTrigger
 342              		.syntax unified
 343              		.thumb
 344              		.thumb_func
 346              	HAL_PWREx_SetRadioBusyTrigger:
 347              	.LVL17:
 348              	.LFB975:
 221:Drivers/STM32WLxx_HAL_Driver/Src/stm32wlxx_hal_pwr_ex.c **** 
 222:Drivers/STM32WLxx_HAL_Driver/Src/stm32wlxx_hal_pwr_ex.c **** /**
 223:Drivers/STM32WLxx_HAL_Driver/Src/stm32wlxx_hal_pwr_ex.c ****   * @brief  Set radio busy trigger action: wake-up from low-power mode Standby,
 224:Drivers/STM32WLxx_HAL_Driver/Src/stm32wlxx_hal_pwr_ex.c ****   *         interruption.
 225:Drivers/STM32WLxx_HAL_Driver/Src/stm32wlxx_hal_pwr_ex.c ****   * @note   Signal polarity can be configured using function
 226:Drivers/STM32WLxx_HAL_Driver/Src/stm32wlxx_hal_pwr_ex.c ****   *         @ref HAL_PWREx_SetRadioBusyPolarity().
 227:Drivers/STM32WLxx_HAL_Driver/Src/stm32wlxx_hal_pwr_ex.c ****   * @param  RadioBusyTrigger This parameter can be one of the following values:
 228:Drivers/STM32WLxx_HAL_Driver/Src/stm32wlxx_hal_pwr_ex.c ****   *         @arg @ref PWR_RADIO_BUSY_TRIGGER_NONE
 229:Drivers/STM32WLxx_HAL_Driver/Src/stm32wlxx_hal_pwr_ex.c ****   *         @arg @ref PWR_RADIO_BUSY_TRIGGER_WU_IT
 230:Drivers/STM32WLxx_HAL_Driver/Src/stm32wlxx_hal_pwr_ex.c ****   * @retval None
 231:Drivers/STM32WLxx_HAL_Driver/Src/stm32wlxx_hal_pwr_ex.c ****   */
 232:Drivers/STM32WLxx_HAL_Driver/Src/stm32wlxx_hal_pwr_ex.c **** void HAL_PWREx_SetRadioBusyTrigger(uint32_t RadioBusyTrigger)
 233:Drivers/STM32WLxx_HAL_Driver/Src/stm32wlxx_hal_pwr_ex.c **** {
 349              		.loc 1 233 1 is_stmt 1 view -0
 350              		.cfi_startproc
 351              		@ args = 0, pretend = 0, frame = 0
 352              		@ frame_needed = 0, uses_anonymous_args = 0
 353              		@ link register save eliminated.
 234:Drivers/STM32WLxx_HAL_Driver/Src/stm32wlxx_hal_pwr_ex.c ****   /* Check the parameters */
 235:Drivers/STM32WLxx_HAL_Driver/Src/stm32wlxx_hal_pwr_ex.c ****   assert_param(IS_PWR_RADIO_BUSY_TRIGGER(RadioBusyTrigger));
 354              		.loc 1 235 3 view .LVU65
 236:Drivers/STM32WLxx_HAL_Driver/Src/stm32wlxx_hal_pwr_ex.c **** 
 237:Drivers/STM32WLxx_HAL_Driver/Src/stm32wlxx_hal_pwr_ex.c **** #ifdef CORE_CM0PLUS
 238:Drivers/STM32WLxx_HAL_Driver/Src/stm32wlxx_hal_pwr_ex.c ****   LL_C2_PWR_SetRadioBusyTrigger(RadioBusyTrigger);
 239:Drivers/STM32WLxx_HAL_Driver/Src/stm32wlxx_hal_pwr_ex.c **** #else
 240:Drivers/STM32WLxx_HAL_Driver/Src/stm32wlxx_hal_pwr_ex.c ****   LL_PWR_SetRadioBusyTrigger(RadioBusyTrigger);
 355              		.loc 1 240 3 view .LVU66
 356              	.LBB40:
 357              	.LBI40:
1276:Drivers/STM32WLxx_HAL_Driver/Inc/stm32wlxx_ll_pwr.h **** }
1277:Drivers/STM32WLxx_HAL_Driver/Inc/stm32wlxx_ll_pwr.h **** 
1278:Drivers/STM32WLxx_HAL_Driver/Inc/stm32wlxx_ll_pwr.h **** /**
ARM GAS  C:\Users\NATHAN~1\AppData\Local\Temp\ccSyVvP3.s 			page 34


1279:Drivers/STM32WLxx_HAL_Driver/Inc/stm32wlxx_ll_pwr.h ****   * @brief  Get radio busy signal polarity
1280:Drivers/STM32WLxx_HAL_Driver/Inc/stm32wlxx_ll_pwr.h ****   * @rmtoll CR4          RFBUSYP       LL_PWR_GetRadioBusyPolarity
1281:Drivers/STM32WLxx_HAL_Driver/Inc/stm32wlxx_ll_pwr.h ****   * @retval Returned value can be one of the following values:
1282:Drivers/STM32WLxx_HAL_Driver/Inc/stm32wlxx_ll_pwr.h ****   *         @arg @ref LL_PWR_RADIO_BUSY_POLARITY_RISING
1283:Drivers/STM32WLxx_HAL_Driver/Inc/stm32wlxx_ll_pwr.h ****   *         @arg @ref LL_PWR_RADIO_BUSY_POLARITY_FALLING
1284:Drivers/STM32WLxx_HAL_Driver/Inc/stm32wlxx_ll_pwr.h ****   */
1285:Drivers/STM32WLxx_HAL_Driver/Inc/stm32wlxx_ll_pwr.h **** __STATIC_INLINE uint32_t LL_PWR_GetRadioBusyPolarity(void)
1286:Drivers/STM32WLxx_HAL_Driver/Inc/stm32wlxx_ll_pwr.h **** {
1287:Drivers/STM32WLxx_HAL_Driver/Inc/stm32wlxx_ll_pwr.h ****   return (uint32_t)(READ_BIT(PWR->CR4, PWR_CR4_WRFBUSYP));
1288:Drivers/STM32WLxx_HAL_Driver/Inc/stm32wlxx_ll_pwr.h **** }
1289:Drivers/STM32WLxx_HAL_Driver/Inc/stm32wlxx_ll_pwr.h **** 
1290:Drivers/STM32WLxx_HAL_Driver/Inc/stm32wlxx_ll_pwr.h **** /**
1291:Drivers/STM32WLxx_HAL_Driver/Inc/stm32wlxx_ll_pwr.h ****   * @brief  Set radio busy trigger action for CPU1: wake-up from low-power mode
1292:Drivers/STM32WLxx_HAL_Driver/Inc/stm32wlxx_ll_pwr.h ****   *         Standby.
1293:Drivers/STM32WLxx_HAL_Driver/Inc/stm32wlxx_ll_pwr.h ****   * @note   Signal polarity can be configured using function
1294:Drivers/STM32WLxx_HAL_Driver/Inc/stm32wlxx_ll_pwr.h ****   *         @ref LL_PWR_SetRadioBusyPolarity().
1295:Drivers/STM32WLxx_HAL_Driver/Inc/stm32wlxx_ll_pwr.h ****   * @rmtoll CR3          ERFBUSY       LL_PWR_SetRadioBusyTrigger
1296:Drivers/STM32WLxx_HAL_Driver/Inc/stm32wlxx_ll_pwr.h ****   * @param  RadioBusyTrigger This parameter can be one of the following values:
1297:Drivers/STM32WLxx_HAL_Driver/Inc/stm32wlxx_ll_pwr.h ****   *         @arg @ref LL_PWR_RADIO_BUSY_TRIGGER_NONE
1298:Drivers/STM32WLxx_HAL_Driver/Inc/stm32wlxx_ll_pwr.h ****   *         @arg @ref LL_PWR_RADIO_BUSY_TRIGGER_WU_IT
1299:Drivers/STM32WLxx_HAL_Driver/Inc/stm32wlxx_ll_pwr.h ****   * @retval None
1300:Drivers/STM32WLxx_HAL_Driver/Inc/stm32wlxx_ll_pwr.h ****   */
1301:Drivers/STM32WLxx_HAL_Driver/Inc/stm32wlxx_ll_pwr.h **** __STATIC_INLINE void LL_PWR_SetRadioBusyTrigger(uint32_t RadioBusyTrigger)
 358              		.loc 2 1301 22 view .LVU67
 359              	.LBB41:
1302:Drivers/STM32WLxx_HAL_Driver/Inc/stm32wlxx_ll_pwr.h **** {
1303:Drivers/STM32WLxx_HAL_Driver/Inc/stm32wlxx_ll_pwr.h ****   MODIFY_REG(PWR->CR3, PWR_CR3_EWRFBUSY, RadioBusyTrigger);
 360              		.loc 2 1303 3 view .LVU68
 361 0000 034A     		ldr	r2, .L32
 362 0002 9368     		ldr	r3, [r2, #8]
 363 0004 23F40063 		bic	r3, r3, #2048
 364 0008 1843     		orrs	r0, r0, r3
 365              	.LVL18:
 366              		.loc 2 1303 3 is_stmt 0 view .LVU69
 367 000a 9060     		str	r0, [r2, #8]
 368              	.LVL19:
 369              		.loc 2 1303 3 view .LVU70
 370              	.LBE41:
 371              	.LBE40:
 241:Drivers/STM32WLxx_HAL_Driver/Src/stm32wlxx_hal_pwr_ex.c **** #endif
 242:Drivers/STM32WLxx_HAL_Driver/Src/stm32wlxx_hal_pwr_ex.c **** }
 372              		.loc 1 242 1 view .LVU71
 373 000c 7047     		bx	lr
 374              	.L33:
 375 000e 00BF     		.align	2
 376              	.L32:
 377 0010 00040058 		.word	1476396032
 378              		.cfi_endproc
 379              	.LFE975:
 381              		.section	.text.HAL_PWREx_SetRadioIRQTrigger,"ax",%progbits
 382              		.align	1
 383              		.global	HAL_PWREx_SetRadioIRQTrigger
 384              		.syntax unified
 385              		.thumb
 386              		.thumb_func
 388              	HAL_PWREx_SetRadioIRQTrigger:
 389              	.LVL20:
ARM GAS  C:\Users\NATHAN~1\AppData\Local\Temp\ccSyVvP3.s 			page 35


 390              	.LFB976:
 243:Drivers/STM32WLxx_HAL_Driver/Src/stm32wlxx_hal_pwr_ex.c **** 
 244:Drivers/STM32WLxx_HAL_Driver/Src/stm32wlxx_hal_pwr_ex.c **** /**
 245:Drivers/STM32WLxx_HAL_Driver/Src/stm32wlxx_hal_pwr_ex.c ****   * @brief  Set radio IRQ trigger action: wake-up from low-power mode Standby,
 246:Drivers/STM32WLxx_HAL_Driver/Src/stm32wlxx_hal_pwr_ex.c ****   *         interruption.
 247:Drivers/STM32WLxx_HAL_Driver/Src/stm32wlxx_hal_pwr_ex.c ****   * @param  RadioIRQTrigger This parameter can be one of the following values:
 248:Drivers/STM32WLxx_HAL_Driver/Src/stm32wlxx_hal_pwr_ex.c ****   *         @arg @ref PWR_RADIO_IRQ_TRIGGER_NONE
 249:Drivers/STM32WLxx_HAL_Driver/Src/stm32wlxx_hal_pwr_ex.c ****   *         @arg @ref PWR_RADIO_IRQ_TRIGGER_WU_IT
 250:Drivers/STM32WLxx_HAL_Driver/Src/stm32wlxx_hal_pwr_ex.c ****   * @retval None
 251:Drivers/STM32WLxx_HAL_Driver/Src/stm32wlxx_hal_pwr_ex.c ****   */
 252:Drivers/STM32WLxx_HAL_Driver/Src/stm32wlxx_hal_pwr_ex.c **** void HAL_PWREx_SetRadioIRQTrigger(uint32_t RadioIRQTrigger)
 253:Drivers/STM32WLxx_HAL_Driver/Src/stm32wlxx_hal_pwr_ex.c **** {
 391              		.loc 1 253 1 is_stmt 1 view -0
 392              		.cfi_startproc
 393              		@ args = 0, pretend = 0, frame = 0
 394              		@ frame_needed = 0, uses_anonymous_args = 0
 395              		@ link register save eliminated.
 254:Drivers/STM32WLxx_HAL_Driver/Src/stm32wlxx_hal_pwr_ex.c ****   /* Check the parameters */
 255:Drivers/STM32WLxx_HAL_Driver/Src/stm32wlxx_hal_pwr_ex.c ****   assert_param(IS_RADIO_IRQ_TRIGGER(RadioIRQTrigger));
 396              		.loc 1 255 3 view .LVU73
 256:Drivers/STM32WLxx_HAL_Driver/Src/stm32wlxx_hal_pwr_ex.c **** 
 257:Drivers/STM32WLxx_HAL_Driver/Src/stm32wlxx_hal_pwr_ex.c **** #ifdef CORE_CM0PLUS
 258:Drivers/STM32WLxx_HAL_Driver/Src/stm32wlxx_hal_pwr_ex.c ****   LL_C2_PWR_SetRadioIRQTrigger(RadioIRQTrigger);
 259:Drivers/STM32WLxx_HAL_Driver/Src/stm32wlxx_hal_pwr_ex.c **** #else
 260:Drivers/STM32WLxx_HAL_Driver/Src/stm32wlxx_hal_pwr_ex.c ****   LL_PWR_SetRadioIRQTrigger(RadioIRQTrigger);
 397              		.loc 1 260 3 view .LVU74
 398              	.LBB42:
 399              	.LBI42:
1304:Drivers/STM32WLxx_HAL_Driver/Inc/stm32wlxx_ll_pwr.h **** }
1305:Drivers/STM32WLxx_HAL_Driver/Inc/stm32wlxx_ll_pwr.h **** 
1306:Drivers/STM32WLxx_HAL_Driver/Inc/stm32wlxx_ll_pwr.h **** /**
1307:Drivers/STM32WLxx_HAL_Driver/Inc/stm32wlxx_ll_pwr.h ****   * @brief  Get radio busy trigger action for CPU1: wake-up from low-power mode
1308:Drivers/STM32WLxx_HAL_Driver/Inc/stm32wlxx_ll_pwr.h ****   *         Standby.
1309:Drivers/STM32WLxx_HAL_Driver/Inc/stm32wlxx_ll_pwr.h ****   * @rmtoll CR3          ERFBUSY       LL_PWR_GetRadioBusyTrigger
1310:Drivers/STM32WLxx_HAL_Driver/Inc/stm32wlxx_ll_pwr.h ****   * @retval Returned value can be one of the following values:
1311:Drivers/STM32WLxx_HAL_Driver/Inc/stm32wlxx_ll_pwr.h ****   *         @arg @ref LL_PWR_RADIO_BUSY_TRIGGER_NONE
1312:Drivers/STM32WLxx_HAL_Driver/Inc/stm32wlxx_ll_pwr.h ****   *         @arg @ref LL_PWR_RADIO_BUSY_TRIGGER_WU_IT
1313:Drivers/STM32WLxx_HAL_Driver/Inc/stm32wlxx_ll_pwr.h ****   */
1314:Drivers/STM32WLxx_HAL_Driver/Inc/stm32wlxx_ll_pwr.h **** __STATIC_INLINE uint32_t LL_PWR_GetRadioBusyTrigger(void)
1315:Drivers/STM32WLxx_HAL_Driver/Inc/stm32wlxx_ll_pwr.h **** {
1316:Drivers/STM32WLxx_HAL_Driver/Inc/stm32wlxx_ll_pwr.h ****   return (uint32_t)(READ_BIT(PWR->CR3, PWR_CR3_EWRFBUSY));
1317:Drivers/STM32WLxx_HAL_Driver/Inc/stm32wlxx_ll_pwr.h **** }
1318:Drivers/STM32WLxx_HAL_Driver/Inc/stm32wlxx_ll_pwr.h **** 
1319:Drivers/STM32WLxx_HAL_Driver/Inc/stm32wlxx_ll_pwr.h **** /**
1320:Drivers/STM32WLxx_HAL_Driver/Inc/stm32wlxx_ll_pwr.h ****   * @brief  Set radio IRQ trigger action for CPU1: wake-up from low-power mode
1321:Drivers/STM32WLxx_HAL_Driver/Inc/stm32wlxx_ll_pwr.h ****   *         Standby.
1322:Drivers/STM32WLxx_HAL_Driver/Inc/stm32wlxx_ll_pwr.h ****   * @rmtoll CR3          ERFIRQ        LL_PWR_SetRadioIRQTrigger
1323:Drivers/STM32WLxx_HAL_Driver/Inc/stm32wlxx_ll_pwr.h ****   * @param  RadioIRQTrigger This parameter can be one of the following values:
1324:Drivers/STM32WLxx_HAL_Driver/Inc/stm32wlxx_ll_pwr.h ****   *         @arg @ref LL_PWR_RADIO_IRQ_TRIGGER_NONE
1325:Drivers/STM32WLxx_HAL_Driver/Inc/stm32wlxx_ll_pwr.h ****   *         @arg @ref LL_PWR_RADIO_IRQ_TRIGGER_WU_IT
1326:Drivers/STM32WLxx_HAL_Driver/Inc/stm32wlxx_ll_pwr.h ****   * @retval None
1327:Drivers/STM32WLxx_HAL_Driver/Inc/stm32wlxx_ll_pwr.h ****   */
1328:Drivers/STM32WLxx_HAL_Driver/Inc/stm32wlxx_ll_pwr.h **** __STATIC_INLINE void LL_PWR_SetRadioIRQTrigger(uint32_t RadioIRQTrigger)
 400              		.loc 2 1328 22 view .LVU75
 401              	.LBB43:
1329:Drivers/STM32WLxx_HAL_Driver/Inc/stm32wlxx_ll_pwr.h **** {
1330:Drivers/STM32WLxx_HAL_Driver/Inc/stm32wlxx_ll_pwr.h ****   MODIFY_REG(PWR->CR3, PWR_CR3_EWRFIRQ, RadioIRQTrigger);
ARM GAS  C:\Users\NATHAN~1\AppData\Local\Temp\ccSyVvP3.s 			page 36


 402              		.loc 2 1330 3 view .LVU76
 403 0000 034A     		ldr	r2, .L35
 404 0002 9368     		ldr	r3, [r2, #8]
 405 0004 23F40053 		bic	r3, r3, #8192
 406 0008 1843     		orrs	r0, r0, r3
 407              	.LVL21:
 408              		.loc 2 1330 3 is_stmt 0 view .LVU77
 409 000a 9060     		str	r0, [r2, #8]
 410              	.LVL22:
 411              		.loc 2 1330 3 view .LVU78
 412              	.LBE43:
 413              	.LBE42:
 261:Drivers/STM32WLxx_HAL_Driver/Src/stm32wlxx_hal_pwr_ex.c **** #endif
 262:Drivers/STM32WLxx_HAL_Driver/Src/stm32wlxx_hal_pwr_ex.c **** }
 414              		.loc 1 262 1 view .LVU79
 415 000c 7047     		bx	lr
 416              	.L36:
 417 000e 00BF     		.align	2
 418              	.L35:
 419 0010 00040058 		.word	1476396032
 420              		.cfi_endproc
 421              	.LFE976:
 423              		.section	.text.HAL_PWREx_EnableGPIOPullUp,"ax",%progbits
 424              		.align	1
 425              		.global	HAL_PWREx_EnableGPIOPullUp
 426              		.syntax unified
 427              		.thumb
 428              		.thumb_func
 430              	HAL_PWREx_EnableGPIOPullUp:
 431              	.LVL23:
 432              	.LFB977:
 263:Drivers/STM32WLxx_HAL_Driver/Src/stm32wlxx_hal_pwr_ex.c **** 
 264:Drivers/STM32WLxx_HAL_Driver/Src/stm32wlxx_hal_pwr_ex.c **** #if defined(DUAL_CORE)
 265:Drivers/STM32WLxx_HAL_Driver/Src/stm32wlxx_hal_pwr_ex.c **** /**
 266:Drivers/STM32WLxx_HAL_Driver/Src/stm32wlxx_hal_pwr_ex.c ****   * @brief Enable CPU2 on-Hold interrupt.
 267:Drivers/STM32WLxx_HAL_Driver/Src/stm32wlxx_hal_pwr_ex.c ****   * @retval None
 268:Drivers/STM32WLxx_HAL_Driver/Src/stm32wlxx_hal_pwr_ex.c ****   */
 269:Drivers/STM32WLxx_HAL_Driver/Src/stm32wlxx_hal_pwr_ex.c **** void HAL_PWREx_EnableHOLDC2IT(void)
 270:Drivers/STM32WLxx_HAL_Driver/Src/stm32wlxx_hal_pwr_ex.c **** {
 271:Drivers/STM32WLxx_HAL_Driver/Src/stm32wlxx_hal_pwr_ex.c ****   SET_BIT(PWR->CR3, PWR_CR3_EC2H);
 272:Drivers/STM32WLxx_HAL_Driver/Src/stm32wlxx_hal_pwr_ex.c **** }
 273:Drivers/STM32WLxx_HAL_Driver/Src/stm32wlxx_hal_pwr_ex.c **** 
 274:Drivers/STM32WLxx_HAL_Driver/Src/stm32wlxx_hal_pwr_ex.c **** /**
 275:Drivers/STM32WLxx_HAL_Driver/Src/stm32wlxx_hal_pwr_ex.c ****   * @brief Disable CPU2 on-Hold interrupt.
 276:Drivers/STM32WLxx_HAL_Driver/Src/stm32wlxx_hal_pwr_ex.c ****   * @retval None
 277:Drivers/STM32WLxx_HAL_Driver/Src/stm32wlxx_hal_pwr_ex.c ****   */
 278:Drivers/STM32WLxx_HAL_Driver/Src/stm32wlxx_hal_pwr_ex.c **** void HAL_PWREx_DisableHOLDC2IT(void)
 279:Drivers/STM32WLxx_HAL_Driver/Src/stm32wlxx_hal_pwr_ex.c **** {
 280:Drivers/STM32WLxx_HAL_Driver/Src/stm32wlxx_hal_pwr_ex.c ****   CLEAR_BIT(PWR->CR3, PWR_CR3_EC2H);
 281:Drivers/STM32WLxx_HAL_Driver/Src/stm32wlxx_hal_pwr_ex.c **** }
 282:Drivers/STM32WLxx_HAL_Driver/Src/stm32wlxx_hal_pwr_ex.c **** #endif
 283:Drivers/STM32WLxx_HAL_Driver/Src/stm32wlxx_hal_pwr_ex.c **** 
 284:Drivers/STM32WLxx_HAL_Driver/Src/stm32wlxx_hal_pwr_ex.c **** /****************************************************************************/
 285:Drivers/STM32WLxx_HAL_Driver/Src/stm32wlxx_hal_pwr_ex.c **** 
 286:Drivers/STM32WLxx_HAL_Driver/Src/stm32wlxx_hal_pwr_ex.c **** /**
 287:Drivers/STM32WLxx_HAL_Driver/Src/stm32wlxx_hal_pwr_ex.c ****   * @brief Enable GPIO pull-up state in Standby and Shutdown modes.
 288:Drivers/STM32WLxx_HAL_Driver/Src/stm32wlxx_hal_pwr_ex.c ****   * @note  Set the relevant PUy bits of PWR_PUCRx register to configure the I/O in
ARM GAS  C:\Users\NATHAN~1\AppData\Local\Temp\ccSyVvP3.s 			page 37


 289:Drivers/STM32WLxx_HAL_Driver/Src/stm32wlxx_hal_pwr_ex.c ****   *        pull-up state in Standby and Shutdown modes.
 290:Drivers/STM32WLxx_HAL_Driver/Src/stm32wlxx_hal_pwr_ex.c ****   * @note  This state is effective in Standby and Shutdown modes only if APC bit
 291:Drivers/STM32WLxx_HAL_Driver/Src/stm32wlxx_hal_pwr_ex.c ****   *        is set through HAL_PWREx_EnablePullUpPullDownConfig() API.
 292:Drivers/STM32WLxx_HAL_Driver/Src/stm32wlxx_hal_pwr_ex.c ****   * @note  The configuration is lost when exiting the Shutdown mode due to the
 293:Drivers/STM32WLxx_HAL_Driver/Src/stm32wlxx_hal_pwr_ex.c ****   *        power-on reset, maintained when exiting the Standby mode.
 294:Drivers/STM32WLxx_HAL_Driver/Src/stm32wlxx_hal_pwr_ex.c ****   * @note  To avoid any conflict at Standby and Shutdown modes exits, the corresponding
 295:Drivers/STM32WLxx_HAL_Driver/Src/stm32wlxx_hal_pwr_ex.c ****   *        PDy bit of PWR_PDCRx register is cleared unless it is reserved.
 296:Drivers/STM32WLxx_HAL_Driver/Src/stm32wlxx_hal_pwr_ex.c ****   * @note  Even if a PUy bit to set is reserved, the other PUy bits entered as input
 297:Drivers/STM32WLxx_HAL_Driver/Src/stm32wlxx_hal_pwr_ex.c ****   *        parameter at the same time are set.
 298:Drivers/STM32WLxx_HAL_Driver/Src/stm32wlxx_hal_pwr_ex.c ****   * @param GPIO Specify the IO port. This parameter can be PWR_GPIO_A, ..., PWR_GPIO_H
 299:Drivers/STM32WLxx_HAL_Driver/Src/stm32wlxx_hal_pwr_ex.c ****   *         to select the GPIO peripheral.
 300:Drivers/STM32WLxx_HAL_Driver/Src/stm32wlxx_hal_pwr_ex.c ****   * @param GPIONumber Specify the I/O pins numbers.
 301:Drivers/STM32WLxx_HAL_Driver/Src/stm32wlxx_hal_pwr_ex.c ****   *         This parameter can be one of the following values:
 302:Drivers/STM32WLxx_HAL_Driver/Src/stm32wlxx_hal_pwr_ex.c ****   *         PWR_GPIO_BIT_0, ..., PWR_GPIO_BIT_15 (except for PORTH where less
 303:Drivers/STM32WLxx_HAL_Driver/Src/stm32wlxx_hal_pwr_ex.c ****   *         I/O pins are available) or the logical OR of several of them to set
 304:Drivers/STM32WLxx_HAL_Driver/Src/stm32wlxx_hal_pwr_ex.c ****   *         several bits for a given port in a single API call.
 305:Drivers/STM32WLxx_HAL_Driver/Src/stm32wlxx_hal_pwr_ex.c ****   * @retval HAL Status
 306:Drivers/STM32WLxx_HAL_Driver/Src/stm32wlxx_hal_pwr_ex.c ****   */
 307:Drivers/STM32WLxx_HAL_Driver/Src/stm32wlxx_hal_pwr_ex.c **** HAL_StatusTypeDef HAL_PWREx_EnableGPIOPullUp(uint32_t GPIO, uint32_t GPIONumber)
 308:Drivers/STM32WLxx_HAL_Driver/Src/stm32wlxx_hal_pwr_ex.c **** {
 433              		.loc 1 308 1 is_stmt 1 view -0
 434              		.cfi_startproc
 435              		@ args = 0, pretend = 0, frame = 0
 436              		@ frame_needed = 0, uses_anonymous_args = 0
 437              		@ link register save eliminated.
 309:Drivers/STM32WLxx_HAL_Driver/Src/stm32wlxx_hal_pwr_ex.c ****   HAL_StatusTypeDef status = HAL_OK;
 438              		.loc 1 309 3 view .LVU81
 310:Drivers/STM32WLxx_HAL_Driver/Src/stm32wlxx_hal_pwr_ex.c **** 
 311:Drivers/STM32WLxx_HAL_Driver/Src/stm32wlxx_hal_pwr_ex.c ****   assert_param(IS_PWR_GPIO(GPIO));
 439              		.loc 1 311 3 view .LVU82
 312:Drivers/STM32WLxx_HAL_Driver/Src/stm32wlxx_hal_pwr_ex.c ****   assert_param(IS_PWR_GPIO_BIT_NUMBER(GPIONumber));
 440              		.loc 1 312 3 view .LVU83
 313:Drivers/STM32WLxx_HAL_Driver/Src/stm32wlxx_hal_pwr_ex.c **** 
 314:Drivers/STM32WLxx_HAL_Driver/Src/stm32wlxx_hal_pwr_ex.c ****   switch (GPIO)
 441              		.loc 1 314 3 view .LVU84
 442 0000 0728     		cmp	r0, #7
 443 0002 33D8     		bhi	.L44
 444 0004 DFE800F0 		tbb	[pc, r0]
 445              	.L40:
 446 0008 04       		.byte	(.L43-.L40)/2
 447 0009 0E       		.byte	(.L42-.L40)/2
 448 000a 18       		.byte	(.L41-.L40)/2
 449 000b 32       		.byte	(.L44-.L40)/2
 450 000c 32       		.byte	(.L44-.L40)/2
 451 000d 32       		.byte	(.L44-.L40)/2
 452 000e 32       		.byte	(.L44-.L40)/2
 453 000f 26       		.byte	(.L39-.L40)/2
 454              		.p2align 1
 455              	.L43:
 315:Drivers/STM32WLxx_HAL_Driver/Src/stm32wlxx_hal_pwr_ex.c ****   {
 316:Drivers/STM32WLxx_HAL_Driver/Src/stm32wlxx_hal_pwr_ex.c ****     case PWR_GPIO_A:
 317:Drivers/STM32WLxx_HAL_Driver/Src/stm32wlxx_hal_pwr_ex.c ****       SET_BIT(PWR->PUCRA, GPIONumber);
 456              		.loc 1 317 7 view .LVU85
 457 0010 174B     		ldr	r3, .L45
 458 0012 1A6A     		ldr	r2, [r3, #32]
 459 0014 0A43     		orrs	r2, r2, r1
 460 0016 1A62     		str	r2, [r3, #32]
ARM GAS  C:\Users\NATHAN~1\AppData\Local\Temp\ccSyVvP3.s 			page 38


 318:Drivers/STM32WLxx_HAL_Driver/Src/stm32wlxx_hal_pwr_ex.c ****       CLEAR_BIT(PWR->PDCRA, GPIONumber);
 461              		.loc 1 318 7 view .LVU86
 462 0018 5A6A     		ldr	r2, [r3, #36]
 463 001a 22EA0101 		bic	r1, r2, r1
 464              	.LVL24:
 465              		.loc 1 318 7 is_stmt 0 view .LVU87
 466 001e 5962     		str	r1, [r3, #36]
 319:Drivers/STM32WLxx_HAL_Driver/Src/stm32wlxx_hal_pwr_ex.c ****       break;
 467              		.loc 1 319 7 is_stmt 1 view .LVU88
 309:Drivers/STM32WLxx_HAL_Driver/Src/stm32wlxx_hal_pwr_ex.c **** 
 468              		.loc 1 309 21 is_stmt 0 view .LVU89
 469 0020 0020     		movs	r0, #0
 470              	.LVL25:
 471              		.loc 1 319 7 view .LVU90
 472 0022 7047     		bx	lr
 473              	.LVL26:
 474              	.L42:
 320:Drivers/STM32WLxx_HAL_Driver/Src/stm32wlxx_hal_pwr_ex.c ****     case PWR_GPIO_B:
 321:Drivers/STM32WLxx_HAL_Driver/Src/stm32wlxx_hal_pwr_ex.c ****       SET_BIT(PWR->PUCRB, GPIONumber);
 475              		.loc 1 321 7 is_stmt 1 view .LVU91
 476 0024 124B     		ldr	r3, .L45
 477 0026 9A6A     		ldr	r2, [r3, #40]
 478 0028 0A43     		orrs	r2, r2, r1
 479 002a 9A62     		str	r2, [r3, #40]
 322:Drivers/STM32WLxx_HAL_Driver/Src/stm32wlxx_hal_pwr_ex.c ****       CLEAR_BIT(PWR->PDCRB, GPIONumber);
 480              		.loc 1 322 7 view .LVU92
 481 002c DA6A     		ldr	r2, [r3, #44]
 482 002e 22EA0101 		bic	r1, r2, r1
 483              	.LVL27:
 484              		.loc 1 322 7 is_stmt 0 view .LVU93
 485 0032 D962     		str	r1, [r3, #44]
 323:Drivers/STM32WLxx_HAL_Driver/Src/stm32wlxx_hal_pwr_ex.c ****       break;
 486              		.loc 1 323 7 is_stmt 1 view .LVU94
 309:Drivers/STM32WLxx_HAL_Driver/Src/stm32wlxx_hal_pwr_ex.c **** 
 487              		.loc 1 309 21 is_stmt 0 view .LVU95
 488 0034 0020     		movs	r0, #0
 489              	.LVL28:
 490              		.loc 1 323 7 view .LVU96
 491 0036 7047     		bx	lr
 492              	.LVL29:
 493              	.L41:
 324:Drivers/STM32WLxx_HAL_Driver/Src/stm32wlxx_hal_pwr_ex.c ****     case PWR_GPIO_C:
 325:Drivers/STM32WLxx_HAL_Driver/Src/stm32wlxx_hal_pwr_ex.c ****       SET_BIT(PWR->PUCRC, (GPIONumber & PWR_PORTC_AVAILABLE_PINS));
 494              		.loc 1 325 7 is_stmt 1 view .LVU97
 495 0038 0D4B     		ldr	r3, .L45
 496 003a 1A6B     		ldr	r2, [r3, #48]
 497 003c 21F4FC51 		bic	r1, r1, #8064
 498              	.LVL30:
 499              		.loc 1 325 7 is_stmt 0 view .LVU98
 500 0040 0904     		lsls	r1, r1, #16
 501 0042 090C     		lsrs	r1, r1, #16
 502 0044 0A43     		orrs	r2, r2, r1
 503 0046 1A63     		str	r2, [r3, #48]
 326:Drivers/STM32WLxx_HAL_Driver/Src/stm32wlxx_hal_pwr_ex.c ****       CLEAR_BIT(PWR->PDCRC, (GPIONumber & PWR_PORTC_AVAILABLE_PINS));
 504              		.loc 1 326 7 is_stmt 1 view .LVU99
 505 0048 5A6B     		ldr	r2, [r3, #52]
 506 004a 22EA0101 		bic	r1, r2, r1
ARM GAS  C:\Users\NATHAN~1\AppData\Local\Temp\ccSyVvP3.s 			page 39


 507 004e 5963     		str	r1, [r3, #52]
 327:Drivers/STM32WLxx_HAL_Driver/Src/stm32wlxx_hal_pwr_ex.c ****       break;
 508              		.loc 1 327 7 view .LVU100
 309:Drivers/STM32WLxx_HAL_Driver/Src/stm32wlxx_hal_pwr_ex.c **** 
 509              		.loc 1 309 21 is_stmt 0 view .LVU101
 510 0050 0020     		movs	r0, #0
 511              	.LVL31:
 512              		.loc 1 327 7 view .LVU102
 513 0052 7047     		bx	lr
 514              	.LVL32:
 515              	.L39:
 328:Drivers/STM32WLxx_HAL_Driver/Src/stm32wlxx_hal_pwr_ex.c ****     case PWR_GPIO_H:
 329:Drivers/STM32WLxx_HAL_Driver/Src/stm32wlxx_hal_pwr_ex.c ****       SET_BIT(PWR->PUCRH, (GPIONumber & PWR_PORTH_AVAILABLE_PINS));
 516              		.loc 1 329 7 is_stmt 1 view .LVU103
 517 0054 064B     		ldr	r3, .L45
 518 0056 9A6D     		ldr	r2, [r3, #88]
 519 0058 01F00801 		and	r1, r1, #8
 520              	.LVL33:
 521              		.loc 1 329 7 is_stmt 0 view .LVU104
 522 005c 0A43     		orrs	r2, r2, r1
 523 005e 9A65     		str	r2, [r3, #88]
 330:Drivers/STM32WLxx_HAL_Driver/Src/stm32wlxx_hal_pwr_ex.c ****       CLEAR_BIT(PWR->PDCRH, (GPIONumber & PWR_PORTH_AVAILABLE_PINS));
 524              		.loc 1 330 7 is_stmt 1 view .LVU105
 525 0060 DA6D     		ldr	r2, [r3, #92]
 526 0062 22EA0101 		bic	r1, r2, r1
 527 0066 D965     		str	r1, [r3, #92]
 331:Drivers/STM32WLxx_HAL_Driver/Src/stm32wlxx_hal_pwr_ex.c ****       break;
 528              		.loc 1 331 7 view .LVU106
 309:Drivers/STM32WLxx_HAL_Driver/Src/stm32wlxx_hal_pwr_ex.c **** 
 529              		.loc 1 309 21 is_stmt 0 view .LVU107
 530 0068 0020     		movs	r0, #0
 531              	.LVL34:
 532              		.loc 1 331 7 view .LVU108
 533 006a 7047     		bx	lr
 534              	.LVL35:
 535              	.L44:
 314:Drivers/STM32WLxx_HAL_Driver/Src/stm32wlxx_hal_pwr_ex.c ****   {
 536              		.loc 1 314 3 view .LVU109
 537 006c 0120     		movs	r0, #1
 538              	.LVL36:
 332:Drivers/STM32WLxx_HAL_Driver/Src/stm32wlxx_hal_pwr_ex.c ****     default:
 333:Drivers/STM32WLxx_HAL_Driver/Src/stm32wlxx_hal_pwr_ex.c ****       status = HAL_ERROR;
 334:Drivers/STM32WLxx_HAL_Driver/Src/stm32wlxx_hal_pwr_ex.c ****       break;
 335:Drivers/STM32WLxx_HAL_Driver/Src/stm32wlxx_hal_pwr_ex.c ****   }
 336:Drivers/STM32WLxx_HAL_Driver/Src/stm32wlxx_hal_pwr_ex.c **** 
 337:Drivers/STM32WLxx_HAL_Driver/Src/stm32wlxx_hal_pwr_ex.c ****   return status;
 539              		.loc 1 337 3 is_stmt 1 view .LVU110
 338:Drivers/STM32WLxx_HAL_Driver/Src/stm32wlxx_hal_pwr_ex.c **** }
 540              		.loc 1 338 1 is_stmt 0 view .LVU111
 541 006e 7047     		bx	lr
 542              	.L46:
 543              		.align	2
 544              	.L45:
 545 0070 00040058 		.word	1476396032
 546              		.cfi_endproc
 547              	.LFE977:
 549              		.section	.text.HAL_PWREx_DisableGPIOPullUp,"ax",%progbits
ARM GAS  C:\Users\NATHAN~1\AppData\Local\Temp\ccSyVvP3.s 			page 40


 550              		.align	1
 551              		.global	HAL_PWREx_DisableGPIOPullUp
 552              		.syntax unified
 553              		.thumb
 554              		.thumb_func
 556              	HAL_PWREx_DisableGPIOPullUp:
 557              	.LVL37:
 558              	.LFB978:
 339:Drivers/STM32WLxx_HAL_Driver/Src/stm32wlxx_hal_pwr_ex.c **** 
 340:Drivers/STM32WLxx_HAL_Driver/Src/stm32wlxx_hal_pwr_ex.c **** /**
 341:Drivers/STM32WLxx_HAL_Driver/Src/stm32wlxx_hal_pwr_ex.c ****   * @brief Disable GPIO pull-up state in Standby mode and Shutdown modes.
 342:Drivers/STM32WLxx_HAL_Driver/Src/stm32wlxx_hal_pwr_ex.c ****   * @note  Reset the relevant PUy bits of PWR_PUCRx register used to configure the I/O
 343:Drivers/STM32WLxx_HAL_Driver/Src/stm32wlxx_hal_pwr_ex.c ****   *        in pull-up state in Standby and Shutdown modes.
 344:Drivers/STM32WLxx_HAL_Driver/Src/stm32wlxx_hal_pwr_ex.c ****   * @note  Even if a PUy bit to reset is reserved, the other PUy bits entered as input
 345:Drivers/STM32WLxx_HAL_Driver/Src/stm32wlxx_hal_pwr_ex.c ****   *        parameter at the same time are reset.
 346:Drivers/STM32WLxx_HAL_Driver/Src/stm32wlxx_hal_pwr_ex.c ****   * @param GPIO Specifies the IO port. This parameter can be PWR_GPIO_A, ..., PWR_GPIO_H
 347:Drivers/STM32WLxx_HAL_Driver/Src/stm32wlxx_hal_pwr_ex.c ****   *         to select the GPIO peripheral.
 348:Drivers/STM32WLxx_HAL_Driver/Src/stm32wlxx_hal_pwr_ex.c ****   * @param GPIONumber Specify the I/O pins numbers.
 349:Drivers/STM32WLxx_HAL_Driver/Src/stm32wlxx_hal_pwr_ex.c ****   *         This parameter can be one of the following values:
 350:Drivers/STM32WLxx_HAL_Driver/Src/stm32wlxx_hal_pwr_ex.c ****   *         PWR_GPIO_BIT_0, ..., PWR_GPIO_BIT_15 (except for PORTH where less
 351:Drivers/STM32WLxx_HAL_Driver/Src/stm32wlxx_hal_pwr_ex.c ****   *         I/O pins are available) or the logical OR of several of them to reset
 352:Drivers/STM32WLxx_HAL_Driver/Src/stm32wlxx_hal_pwr_ex.c ****   *         several bits for a given port in a single API call.
 353:Drivers/STM32WLxx_HAL_Driver/Src/stm32wlxx_hal_pwr_ex.c ****   * @retval HAL Status
 354:Drivers/STM32WLxx_HAL_Driver/Src/stm32wlxx_hal_pwr_ex.c ****   */
 355:Drivers/STM32WLxx_HAL_Driver/Src/stm32wlxx_hal_pwr_ex.c **** HAL_StatusTypeDef HAL_PWREx_DisableGPIOPullUp(uint32_t GPIO, uint32_t GPIONumber)
 356:Drivers/STM32WLxx_HAL_Driver/Src/stm32wlxx_hal_pwr_ex.c **** {
 559              		.loc 1 356 1 is_stmt 1 view -0
 560              		.cfi_startproc
 561              		@ args = 0, pretend = 0, frame = 0
 562              		@ frame_needed = 0, uses_anonymous_args = 0
 563              		@ link register save eliminated.
 357:Drivers/STM32WLxx_HAL_Driver/Src/stm32wlxx_hal_pwr_ex.c ****   HAL_StatusTypeDef status = HAL_OK;
 564              		.loc 1 357 3 view .LVU113
 358:Drivers/STM32WLxx_HAL_Driver/Src/stm32wlxx_hal_pwr_ex.c **** 
 359:Drivers/STM32WLxx_HAL_Driver/Src/stm32wlxx_hal_pwr_ex.c ****   assert_param(IS_PWR_GPIO(GPIO));
 565              		.loc 1 359 3 view .LVU114
 360:Drivers/STM32WLxx_HAL_Driver/Src/stm32wlxx_hal_pwr_ex.c ****   assert_param(IS_PWR_GPIO_BIT_NUMBER(GPIONumber));
 566              		.loc 1 360 3 view .LVU115
 361:Drivers/STM32WLxx_HAL_Driver/Src/stm32wlxx_hal_pwr_ex.c **** 
 362:Drivers/STM32WLxx_HAL_Driver/Src/stm32wlxx_hal_pwr_ex.c ****   switch (GPIO)
 567              		.loc 1 362 3 view .LVU116
 568 0000 0728     		cmp	r0, #7
 569 0002 27D8     		bhi	.L54
 570 0004 DFE800F0 		tbb	[pc, r0]
 571              	.L50:
 572 0008 04       		.byte	(.L53-.L50)/2
 573 0009 0B       		.byte	(.L52-.L50)/2
 574 000a 12       		.byte	(.L51-.L50)/2
 575 000b 26       		.byte	(.L54-.L50)/2
 576 000c 26       		.byte	(.L54-.L50)/2
 577 000d 26       		.byte	(.L54-.L50)/2
 578 000e 26       		.byte	(.L54-.L50)/2
 579 000f 1D       		.byte	(.L49-.L50)/2
 580              		.p2align 1
 581              	.L53:
 363:Drivers/STM32WLxx_HAL_Driver/Src/stm32wlxx_hal_pwr_ex.c ****   {
 364:Drivers/STM32WLxx_HAL_Driver/Src/stm32wlxx_hal_pwr_ex.c ****     case PWR_GPIO_A:
ARM GAS  C:\Users\NATHAN~1\AppData\Local\Temp\ccSyVvP3.s 			page 41


 365:Drivers/STM32WLxx_HAL_Driver/Src/stm32wlxx_hal_pwr_ex.c ****       CLEAR_BIT(PWR->PUCRA, GPIONumber);
 582              		.loc 1 365 7 view .LVU117
 583 0010 114A     		ldr	r2, .L55
 584 0012 136A     		ldr	r3, [r2, #32]
 585 0014 23EA0101 		bic	r1, r3, r1
 586              	.LVL38:
 587              		.loc 1 365 7 is_stmt 0 view .LVU118
 588 0018 1162     		str	r1, [r2, #32]
 366:Drivers/STM32WLxx_HAL_Driver/Src/stm32wlxx_hal_pwr_ex.c ****       break;
 589              		.loc 1 366 7 is_stmt 1 view .LVU119
 357:Drivers/STM32WLxx_HAL_Driver/Src/stm32wlxx_hal_pwr_ex.c **** 
 590              		.loc 1 357 21 is_stmt 0 view .LVU120
 591 001a 0020     		movs	r0, #0
 592              	.LVL39:
 593              		.loc 1 366 7 view .LVU121
 594 001c 7047     		bx	lr
 595              	.LVL40:
 596              	.L52:
 367:Drivers/STM32WLxx_HAL_Driver/Src/stm32wlxx_hal_pwr_ex.c ****     case PWR_GPIO_B:
 368:Drivers/STM32WLxx_HAL_Driver/Src/stm32wlxx_hal_pwr_ex.c ****       CLEAR_BIT(PWR->PUCRB, GPIONumber);
 597              		.loc 1 368 7 is_stmt 1 view .LVU122
 598 001e 0E4A     		ldr	r2, .L55
 599 0020 936A     		ldr	r3, [r2, #40]
 600 0022 23EA0101 		bic	r1, r3, r1
 601              	.LVL41:
 602              		.loc 1 368 7 is_stmt 0 view .LVU123
 603 0026 9162     		str	r1, [r2, #40]
 369:Drivers/STM32WLxx_HAL_Driver/Src/stm32wlxx_hal_pwr_ex.c ****       break;
 604              		.loc 1 369 7 is_stmt 1 view .LVU124
 357:Drivers/STM32WLxx_HAL_Driver/Src/stm32wlxx_hal_pwr_ex.c **** 
 605              		.loc 1 357 21 is_stmt 0 view .LVU125
 606 0028 0020     		movs	r0, #0
 607              	.LVL42:
 608              		.loc 1 369 7 view .LVU126
 609 002a 7047     		bx	lr
 610              	.LVL43:
 611              	.L51:
 370:Drivers/STM32WLxx_HAL_Driver/Src/stm32wlxx_hal_pwr_ex.c ****     case PWR_GPIO_C:
 371:Drivers/STM32WLxx_HAL_Driver/Src/stm32wlxx_hal_pwr_ex.c ****       CLEAR_BIT(PWR->PUCRC, (GPIONumber & PWR_PORTC_AVAILABLE_PINS));
 612              		.loc 1 371 7 is_stmt 1 view .LVU127
 613 002c 0A4A     		ldr	r2, .L55
 614 002e 136B     		ldr	r3, [r2, #48]
 615 0030 21F4FC51 		bic	r1, r1, #8064
 616              	.LVL44:
 617              		.loc 1 371 7 is_stmt 0 view .LVU128
 618 0034 0904     		lsls	r1, r1, #16
 619 0036 090C     		lsrs	r1, r1, #16
 620 0038 23EA0101 		bic	r1, r3, r1
 621 003c 1163     		str	r1, [r2, #48]
 372:Drivers/STM32WLxx_HAL_Driver/Src/stm32wlxx_hal_pwr_ex.c ****       break;
 622              		.loc 1 372 7 is_stmt 1 view .LVU129
 357:Drivers/STM32WLxx_HAL_Driver/Src/stm32wlxx_hal_pwr_ex.c **** 
 623              		.loc 1 357 21 is_stmt 0 view .LVU130
 624 003e 0020     		movs	r0, #0
 625              	.LVL45:
 626              		.loc 1 372 7 view .LVU131
 627 0040 7047     		bx	lr
ARM GAS  C:\Users\NATHAN~1\AppData\Local\Temp\ccSyVvP3.s 			page 42


 628              	.LVL46:
 629              	.L49:
 373:Drivers/STM32WLxx_HAL_Driver/Src/stm32wlxx_hal_pwr_ex.c ****     case PWR_GPIO_H:
 374:Drivers/STM32WLxx_HAL_Driver/Src/stm32wlxx_hal_pwr_ex.c ****       CLEAR_BIT(PWR->PUCRH, (GPIONumber & PWR_PORTH_AVAILABLE_PINS));
 630              		.loc 1 374 7 is_stmt 1 view .LVU132
 631 0042 054A     		ldr	r2, .L55
 632 0044 936D     		ldr	r3, [r2, #88]
 633 0046 01F00801 		and	r1, r1, #8
 634              	.LVL47:
 635              		.loc 1 374 7 is_stmt 0 view .LVU133
 636 004a 23EA0101 		bic	r1, r3, r1
 637 004e 9165     		str	r1, [r2, #88]
 375:Drivers/STM32WLxx_HAL_Driver/Src/stm32wlxx_hal_pwr_ex.c ****       break;
 638              		.loc 1 375 7 is_stmt 1 view .LVU134
 357:Drivers/STM32WLxx_HAL_Driver/Src/stm32wlxx_hal_pwr_ex.c **** 
 639              		.loc 1 357 21 is_stmt 0 view .LVU135
 640 0050 0020     		movs	r0, #0
 641              	.LVL48:
 642              		.loc 1 375 7 view .LVU136
 643 0052 7047     		bx	lr
 644              	.LVL49:
 645              	.L54:
 362:Drivers/STM32WLxx_HAL_Driver/Src/stm32wlxx_hal_pwr_ex.c ****   {
 646              		.loc 1 362 3 view .LVU137
 647 0054 0120     		movs	r0, #1
 648              	.LVL50:
 376:Drivers/STM32WLxx_HAL_Driver/Src/stm32wlxx_hal_pwr_ex.c ****     default:
 377:Drivers/STM32WLxx_HAL_Driver/Src/stm32wlxx_hal_pwr_ex.c ****       status = HAL_ERROR;
 378:Drivers/STM32WLxx_HAL_Driver/Src/stm32wlxx_hal_pwr_ex.c ****       break;
 379:Drivers/STM32WLxx_HAL_Driver/Src/stm32wlxx_hal_pwr_ex.c ****   }
 380:Drivers/STM32WLxx_HAL_Driver/Src/stm32wlxx_hal_pwr_ex.c **** 
 381:Drivers/STM32WLxx_HAL_Driver/Src/stm32wlxx_hal_pwr_ex.c ****   return status;
 649              		.loc 1 381 3 is_stmt 1 view .LVU138
 382:Drivers/STM32WLxx_HAL_Driver/Src/stm32wlxx_hal_pwr_ex.c **** }
 650              		.loc 1 382 1 is_stmt 0 view .LVU139
 651 0056 7047     		bx	lr
 652              	.L56:
 653              		.align	2
 654              	.L55:
 655 0058 00040058 		.word	1476396032
 656              		.cfi_endproc
 657              	.LFE978:
 659              		.section	.text.HAL_PWREx_EnableGPIOPullDown,"ax",%progbits
 660              		.align	1
 661              		.global	HAL_PWREx_EnableGPIOPullDown
 662              		.syntax unified
 663              		.thumb
 664              		.thumb_func
 666              	HAL_PWREx_EnableGPIOPullDown:
 667              	.LVL51:
 668              	.LFB979:
 383:Drivers/STM32WLxx_HAL_Driver/Src/stm32wlxx_hal_pwr_ex.c **** 
 384:Drivers/STM32WLxx_HAL_Driver/Src/stm32wlxx_hal_pwr_ex.c **** /**
 385:Drivers/STM32WLxx_HAL_Driver/Src/stm32wlxx_hal_pwr_ex.c ****   * @brief Enable GPIO pull-down state in Standby and Shutdown modes.
 386:Drivers/STM32WLxx_HAL_Driver/Src/stm32wlxx_hal_pwr_ex.c ****   * @note  Set the relevant PDy bits of PWR_PDCRx register to configure the I/O in
 387:Drivers/STM32WLxx_HAL_Driver/Src/stm32wlxx_hal_pwr_ex.c ****   *        pull-down state in Standby and Shutdown modes.
 388:Drivers/STM32WLxx_HAL_Driver/Src/stm32wlxx_hal_pwr_ex.c ****   * @note  This state is effective in Standby and Shutdown modes only if APC bit
ARM GAS  C:\Users\NATHAN~1\AppData\Local\Temp\ccSyVvP3.s 			page 43


 389:Drivers/STM32WLxx_HAL_Driver/Src/stm32wlxx_hal_pwr_ex.c ****   *        is set through HAL_PWREx_EnablePullUpPullDownConfig() API.
 390:Drivers/STM32WLxx_HAL_Driver/Src/stm32wlxx_hal_pwr_ex.c ****   * @note  The configuration is lost when exiting the Shutdown mode due to the
 391:Drivers/STM32WLxx_HAL_Driver/Src/stm32wlxx_hal_pwr_ex.c ****   *        power-on reset, maintained when exiting the Standby mode.
 392:Drivers/STM32WLxx_HAL_Driver/Src/stm32wlxx_hal_pwr_ex.c ****   * @note  To avoid any conflict at Standby and Shutdown modes exits, the corresponding
 393:Drivers/STM32WLxx_HAL_Driver/Src/stm32wlxx_hal_pwr_ex.c ****   *        PUy bit of PWR_PUCRx register is cleared unless it is reserved.
 394:Drivers/STM32WLxx_HAL_Driver/Src/stm32wlxx_hal_pwr_ex.c ****   * @note  Even if a PDy bit to set is reserved, the other PDy bits entered as input
 395:Drivers/STM32WLxx_HAL_Driver/Src/stm32wlxx_hal_pwr_ex.c ****   *        parameter at the same time are set.
 396:Drivers/STM32WLxx_HAL_Driver/Src/stm32wlxx_hal_pwr_ex.c ****   * @param GPIO Specify the IO port. This parameter can be PWR_GPIO_A..PWR_GPIO_H
 397:Drivers/STM32WLxx_HAL_Driver/Src/stm32wlxx_hal_pwr_ex.c ****   *         to select the GPIO peripheral.
 398:Drivers/STM32WLxx_HAL_Driver/Src/stm32wlxx_hal_pwr_ex.c ****   * @param GPIONumber Specify the I/O pins numbers.
 399:Drivers/STM32WLxx_HAL_Driver/Src/stm32wlxx_hal_pwr_ex.c ****   *         This parameter can be one of the following values:
 400:Drivers/STM32WLxx_HAL_Driver/Src/stm32wlxx_hal_pwr_ex.c ****   *         PWR_GPIO_BIT_0, ..., PWR_GPIO_BIT_15 (except for PORTH where less
 401:Drivers/STM32WLxx_HAL_Driver/Src/stm32wlxx_hal_pwr_ex.c ****   *         I/O pins are available) or the logical OR of several of them to set
 402:Drivers/STM32WLxx_HAL_Driver/Src/stm32wlxx_hal_pwr_ex.c ****   *         several bits for a given port in a single API call.
 403:Drivers/STM32WLxx_HAL_Driver/Src/stm32wlxx_hal_pwr_ex.c ****   * @retval HAL Status
 404:Drivers/STM32WLxx_HAL_Driver/Src/stm32wlxx_hal_pwr_ex.c ****   */
 405:Drivers/STM32WLxx_HAL_Driver/Src/stm32wlxx_hal_pwr_ex.c **** HAL_StatusTypeDef HAL_PWREx_EnableGPIOPullDown(uint32_t GPIO, uint32_t GPIONumber)
 406:Drivers/STM32WLxx_HAL_Driver/Src/stm32wlxx_hal_pwr_ex.c **** {
 669              		.loc 1 406 1 is_stmt 1 view -0
 670              		.cfi_startproc
 671              		@ args = 0, pretend = 0, frame = 0
 672              		@ frame_needed = 0, uses_anonymous_args = 0
 673              		@ link register save eliminated.
 407:Drivers/STM32WLxx_HAL_Driver/Src/stm32wlxx_hal_pwr_ex.c ****   HAL_StatusTypeDef status = HAL_OK;
 674              		.loc 1 407 3 view .LVU141
 408:Drivers/STM32WLxx_HAL_Driver/Src/stm32wlxx_hal_pwr_ex.c **** 
 409:Drivers/STM32WLxx_HAL_Driver/Src/stm32wlxx_hal_pwr_ex.c ****   assert_param(IS_PWR_GPIO(GPIO));
 675              		.loc 1 409 3 view .LVU142
 410:Drivers/STM32WLxx_HAL_Driver/Src/stm32wlxx_hal_pwr_ex.c ****   assert_param(IS_PWR_GPIO_BIT_NUMBER(GPIONumber));
 676              		.loc 1 410 3 view .LVU143
 411:Drivers/STM32WLxx_HAL_Driver/Src/stm32wlxx_hal_pwr_ex.c **** 
 412:Drivers/STM32WLxx_HAL_Driver/Src/stm32wlxx_hal_pwr_ex.c ****   switch (GPIO)
 677              		.loc 1 412 3 view .LVU144
 678 0000 0728     		cmp	r0, #7
 679 0002 33D8     		bhi	.L64
 680 0004 DFE800F0 		tbb	[pc, r0]
 681              	.L60:
 682 0008 04       		.byte	(.L63-.L60)/2
 683 0009 0E       		.byte	(.L62-.L60)/2
 684 000a 18       		.byte	(.L61-.L60)/2
 685 000b 32       		.byte	(.L64-.L60)/2
 686 000c 32       		.byte	(.L64-.L60)/2
 687 000d 32       		.byte	(.L64-.L60)/2
 688 000e 32       		.byte	(.L64-.L60)/2
 689 000f 26       		.byte	(.L59-.L60)/2
 690              		.p2align 1
 691              	.L63:
 413:Drivers/STM32WLxx_HAL_Driver/Src/stm32wlxx_hal_pwr_ex.c ****   {
 414:Drivers/STM32WLxx_HAL_Driver/Src/stm32wlxx_hal_pwr_ex.c ****     case PWR_GPIO_A:
 415:Drivers/STM32WLxx_HAL_Driver/Src/stm32wlxx_hal_pwr_ex.c ****       SET_BIT(PWR->PDCRA, GPIONumber);
 692              		.loc 1 415 7 view .LVU145
 693 0010 174B     		ldr	r3, .L65
 694 0012 5A6A     		ldr	r2, [r3, #36]
 695 0014 0A43     		orrs	r2, r2, r1
 696 0016 5A62     		str	r2, [r3, #36]
 416:Drivers/STM32WLxx_HAL_Driver/Src/stm32wlxx_hal_pwr_ex.c ****       CLEAR_BIT(PWR->PUCRA, GPIONumber);
 697              		.loc 1 416 7 view .LVU146
ARM GAS  C:\Users\NATHAN~1\AppData\Local\Temp\ccSyVvP3.s 			page 44


 698 0018 1A6A     		ldr	r2, [r3, #32]
 699 001a 22EA0101 		bic	r1, r2, r1
 700              	.LVL52:
 701              		.loc 1 416 7 is_stmt 0 view .LVU147
 702 001e 1962     		str	r1, [r3, #32]
 417:Drivers/STM32WLxx_HAL_Driver/Src/stm32wlxx_hal_pwr_ex.c ****       break;
 703              		.loc 1 417 7 is_stmt 1 view .LVU148
 407:Drivers/STM32WLxx_HAL_Driver/Src/stm32wlxx_hal_pwr_ex.c **** 
 704              		.loc 1 407 21 is_stmt 0 view .LVU149
 705 0020 0020     		movs	r0, #0
 706              	.LVL53:
 707              		.loc 1 417 7 view .LVU150
 708 0022 7047     		bx	lr
 709              	.LVL54:
 710              	.L62:
 418:Drivers/STM32WLxx_HAL_Driver/Src/stm32wlxx_hal_pwr_ex.c ****     case PWR_GPIO_B:
 419:Drivers/STM32WLxx_HAL_Driver/Src/stm32wlxx_hal_pwr_ex.c ****       SET_BIT(PWR->PDCRB, GPIONumber);
 711              		.loc 1 419 7 is_stmt 1 view .LVU151
 712 0024 124B     		ldr	r3, .L65
 713 0026 DA6A     		ldr	r2, [r3, #44]
 714 0028 0A43     		orrs	r2, r2, r1
 715 002a DA62     		str	r2, [r3, #44]
 420:Drivers/STM32WLxx_HAL_Driver/Src/stm32wlxx_hal_pwr_ex.c ****       CLEAR_BIT(PWR->PUCRB, GPIONumber);
 716              		.loc 1 420 7 view .LVU152
 717 002c 9A6A     		ldr	r2, [r3, #40]
 718 002e 22EA0101 		bic	r1, r2, r1
 719              	.LVL55:
 720              		.loc 1 420 7 is_stmt 0 view .LVU153
 721 0032 9962     		str	r1, [r3, #40]
 421:Drivers/STM32WLxx_HAL_Driver/Src/stm32wlxx_hal_pwr_ex.c ****       break;
 722              		.loc 1 421 7 is_stmt 1 view .LVU154
 407:Drivers/STM32WLxx_HAL_Driver/Src/stm32wlxx_hal_pwr_ex.c **** 
 723              		.loc 1 407 21 is_stmt 0 view .LVU155
 724 0034 0020     		movs	r0, #0
 725              	.LVL56:
 726              		.loc 1 421 7 view .LVU156
 727 0036 7047     		bx	lr
 728              	.LVL57:
 729              	.L61:
 422:Drivers/STM32WLxx_HAL_Driver/Src/stm32wlxx_hal_pwr_ex.c ****     case PWR_GPIO_C:
 423:Drivers/STM32WLxx_HAL_Driver/Src/stm32wlxx_hal_pwr_ex.c ****       SET_BIT(PWR->PDCRC, (GPIONumber & PWR_PORTC_AVAILABLE_PINS));
 730              		.loc 1 423 7 is_stmt 1 view .LVU157
 731 0038 0D4B     		ldr	r3, .L65
 732 003a 5A6B     		ldr	r2, [r3, #52]
 733 003c 21F4FC51 		bic	r1, r1, #8064
 734              	.LVL58:
 735              		.loc 1 423 7 is_stmt 0 view .LVU158
 736 0040 0904     		lsls	r1, r1, #16
 737 0042 090C     		lsrs	r1, r1, #16
 738 0044 0A43     		orrs	r2, r2, r1
 739 0046 5A63     		str	r2, [r3, #52]
 424:Drivers/STM32WLxx_HAL_Driver/Src/stm32wlxx_hal_pwr_ex.c ****       CLEAR_BIT(PWR->PUCRC, (GPIONumber & PWR_PORTC_AVAILABLE_PINS));
 740              		.loc 1 424 7 is_stmt 1 view .LVU159
 741 0048 1A6B     		ldr	r2, [r3, #48]
 742 004a 22EA0101 		bic	r1, r2, r1
 743 004e 1963     		str	r1, [r3, #48]
 425:Drivers/STM32WLxx_HAL_Driver/Src/stm32wlxx_hal_pwr_ex.c ****       break;
ARM GAS  C:\Users\NATHAN~1\AppData\Local\Temp\ccSyVvP3.s 			page 45


 744              		.loc 1 425 7 view .LVU160
 407:Drivers/STM32WLxx_HAL_Driver/Src/stm32wlxx_hal_pwr_ex.c **** 
 745              		.loc 1 407 21 is_stmt 0 view .LVU161
 746 0050 0020     		movs	r0, #0
 747              	.LVL59:
 748              		.loc 1 425 7 view .LVU162
 749 0052 7047     		bx	lr
 750              	.LVL60:
 751              	.L59:
 426:Drivers/STM32WLxx_HAL_Driver/Src/stm32wlxx_hal_pwr_ex.c ****     case PWR_GPIO_H:
 427:Drivers/STM32WLxx_HAL_Driver/Src/stm32wlxx_hal_pwr_ex.c ****       SET_BIT(PWR->PDCRH, (GPIONumber & PWR_PORTH_AVAILABLE_PINS));
 752              		.loc 1 427 7 is_stmt 1 view .LVU163
 753 0054 064B     		ldr	r3, .L65
 754 0056 DA6D     		ldr	r2, [r3, #92]
 755 0058 01F00801 		and	r1, r1, #8
 756              	.LVL61:
 757              		.loc 1 427 7 is_stmt 0 view .LVU164
 758 005c 0A43     		orrs	r2, r2, r1
 759 005e DA65     		str	r2, [r3, #92]
 428:Drivers/STM32WLxx_HAL_Driver/Src/stm32wlxx_hal_pwr_ex.c ****       CLEAR_BIT(PWR->PUCRH, (GPIONumber & PWR_PORTH_AVAILABLE_PINS));
 760              		.loc 1 428 7 is_stmt 1 view .LVU165
 761 0060 9A6D     		ldr	r2, [r3, #88]
 762 0062 22EA0101 		bic	r1, r2, r1
 763 0066 9965     		str	r1, [r3, #88]
 429:Drivers/STM32WLxx_HAL_Driver/Src/stm32wlxx_hal_pwr_ex.c ****       break;
 764              		.loc 1 429 7 view .LVU166
 407:Drivers/STM32WLxx_HAL_Driver/Src/stm32wlxx_hal_pwr_ex.c **** 
 765              		.loc 1 407 21 is_stmt 0 view .LVU167
 766 0068 0020     		movs	r0, #0
 767              	.LVL62:
 768              		.loc 1 429 7 view .LVU168
 769 006a 7047     		bx	lr
 770              	.LVL63:
 771              	.L64:
 412:Drivers/STM32WLxx_HAL_Driver/Src/stm32wlxx_hal_pwr_ex.c ****   {
 772              		.loc 1 412 3 view .LVU169
 773 006c 0120     		movs	r0, #1
 774              	.LVL64:
 430:Drivers/STM32WLxx_HAL_Driver/Src/stm32wlxx_hal_pwr_ex.c ****     default:
 431:Drivers/STM32WLxx_HAL_Driver/Src/stm32wlxx_hal_pwr_ex.c ****       status = HAL_ERROR;
 432:Drivers/STM32WLxx_HAL_Driver/Src/stm32wlxx_hal_pwr_ex.c ****       break;
 433:Drivers/STM32WLxx_HAL_Driver/Src/stm32wlxx_hal_pwr_ex.c ****   }
 434:Drivers/STM32WLxx_HAL_Driver/Src/stm32wlxx_hal_pwr_ex.c **** 
 435:Drivers/STM32WLxx_HAL_Driver/Src/stm32wlxx_hal_pwr_ex.c ****   return status;
 775              		.loc 1 435 3 is_stmt 1 view .LVU170
 436:Drivers/STM32WLxx_HAL_Driver/Src/stm32wlxx_hal_pwr_ex.c **** }
 776              		.loc 1 436 1 is_stmt 0 view .LVU171
 777 006e 7047     		bx	lr
 778              	.L66:
 779              		.align	2
 780              	.L65:
 781 0070 00040058 		.word	1476396032
 782              		.cfi_endproc
 783              	.LFE979:
 785              		.section	.text.HAL_PWREx_DisableGPIOPullDown,"ax",%progbits
 786              		.align	1
 787              		.global	HAL_PWREx_DisableGPIOPullDown
ARM GAS  C:\Users\NATHAN~1\AppData\Local\Temp\ccSyVvP3.s 			page 46


 788              		.syntax unified
 789              		.thumb
 790              		.thumb_func
 792              	HAL_PWREx_DisableGPIOPullDown:
 793              	.LVL65:
 794              	.LFB980:
 437:Drivers/STM32WLxx_HAL_Driver/Src/stm32wlxx_hal_pwr_ex.c **** 
 438:Drivers/STM32WLxx_HAL_Driver/Src/stm32wlxx_hal_pwr_ex.c **** /**
 439:Drivers/STM32WLxx_HAL_Driver/Src/stm32wlxx_hal_pwr_ex.c ****   * @brief Disable GPIO pull-down state in Standby and Shutdown modes.
 440:Drivers/STM32WLxx_HAL_Driver/Src/stm32wlxx_hal_pwr_ex.c ****   * @note  Reset the relevant PDy bits of PWR_PDCRx register used to configure the I/O
 441:Drivers/STM32WLxx_HAL_Driver/Src/stm32wlxx_hal_pwr_ex.c ****   *        in pull-down state in Standby and Shutdown modes.
 442:Drivers/STM32WLxx_HAL_Driver/Src/stm32wlxx_hal_pwr_ex.c ****   * @note  Even if a PDy bit to reset is reserved, the other PDy bits entered as input
 443:Drivers/STM32WLxx_HAL_Driver/Src/stm32wlxx_hal_pwr_ex.c ****   *        parameter at the same time are reset.
 444:Drivers/STM32WLxx_HAL_Driver/Src/stm32wlxx_hal_pwr_ex.c ****   * @param GPIO Specifies the IO port. This parameter can be PWR_GPIO_A..PWR_GPIO_H
 445:Drivers/STM32WLxx_HAL_Driver/Src/stm32wlxx_hal_pwr_ex.c ****   *         to select the GPIO peripheral.
 446:Drivers/STM32WLxx_HAL_Driver/Src/stm32wlxx_hal_pwr_ex.c ****   * @param GPIONumber Specify the I/O pins numbers.
 447:Drivers/STM32WLxx_HAL_Driver/Src/stm32wlxx_hal_pwr_ex.c ****   *         This parameter can be one of the following values:
 448:Drivers/STM32WLxx_HAL_Driver/Src/stm32wlxx_hal_pwr_ex.c ****   *         PWR_GPIO_BIT_0, ..., PWR_GPIO_BIT_15 (except for PORTH where less
 449:Drivers/STM32WLxx_HAL_Driver/Src/stm32wlxx_hal_pwr_ex.c ****   *         I/O pins are available) or the logical OR of several of them to reset
 450:Drivers/STM32WLxx_HAL_Driver/Src/stm32wlxx_hal_pwr_ex.c ****   *         several bits for a given port in a single API call.
 451:Drivers/STM32WLxx_HAL_Driver/Src/stm32wlxx_hal_pwr_ex.c ****   * @retval HAL Status
 452:Drivers/STM32WLxx_HAL_Driver/Src/stm32wlxx_hal_pwr_ex.c ****   */
 453:Drivers/STM32WLxx_HAL_Driver/Src/stm32wlxx_hal_pwr_ex.c **** HAL_StatusTypeDef HAL_PWREx_DisableGPIOPullDown(uint32_t GPIO, uint32_t GPIONumber)
 454:Drivers/STM32WLxx_HAL_Driver/Src/stm32wlxx_hal_pwr_ex.c **** {
 795              		.loc 1 454 1 is_stmt 1 view -0
 796              		.cfi_startproc
 797              		@ args = 0, pretend = 0, frame = 0
 798              		@ frame_needed = 0, uses_anonymous_args = 0
 799              		@ link register save eliminated.
 455:Drivers/STM32WLxx_HAL_Driver/Src/stm32wlxx_hal_pwr_ex.c ****   HAL_StatusTypeDef status = HAL_OK;
 800              		.loc 1 455 3 view .LVU173
 456:Drivers/STM32WLxx_HAL_Driver/Src/stm32wlxx_hal_pwr_ex.c **** 
 457:Drivers/STM32WLxx_HAL_Driver/Src/stm32wlxx_hal_pwr_ex.c ****   assert_param(IS_PWR_GPIO(GPIO));
 801              		.loc 1 457 3 view .LVU174
 458:Drivers/STM32WLxx_HAL_Driver/Src/stm32wlxx_hal_pwr_ex.c ****   assert_param(IS_PWR_GPIO_BIT_NUMBER(GPIONumber));
 802              		.loc 1 458 3 view .LVU175
 459:Drivers/STM32WLxx_HAL_Driver/Src/stm32wlxx_hal_pwr_ex.c **** 
 460:Drivers/STM32WLxx_HAL_Driver/Src/stm32wlxx_hal_pwr_ex.c ****   switch (GPIO)
 803              		.loc 1 460 3 view .LVU176
 804 0000 0728     		cmp	r0, #7
 805 0002 27D8     		bhi	.L74
 806 0004 DFE800F0 		tbb	[pc, r0]
 807              	.L70:
 808 0008 04       		.byte	(.L73-.L70)/2
 809 0009 0B       		.byte	(.L72-.L70)/2
 810 000a 12       		.byte	(.L71-.L70)/2
 811 000b 26       		.byte	(.L74-.L70)/2
 812 000c 26       		.byte	(.L74-.L70)/2
 813 000d 26       		.byte	(.L74-.L70)/2
 814 000e 26       		.byte	(.L74-.L70)/2
 815 000f 1D       		.byte	(.L69-.L70)/2
 816              		.p2align 1
 817              	.L73:
 461:Drivers/STM32WLxx_HAL_Driver/Src/stm32wlxx_hal_pwr_ex.c ****   {
 462:Drivers/STM32WLxx_HAL_Driver/Src/stm32wlxx_hal_pwr_ex.c ****     case PWR_GPIO_A:
 463:Drivers/STM32WLxx_HAL_Driver/Src/stm32wlxx_hal_pwr_ex.c ****       CLEAR_BIT(PWR->PDCRA, GPIONumber);
 818              		.loc 1 463 7 view .LVU177
ARM GAS  C:\Users\NATHAN~1\AppData\Local\Temp\ccSyVvP3.s 			page 47


 819 0010 114A     		ldr	r2, .L75
 820 0012 536A     		ldr	r3, [r2, #36]
 821 0014 23EA0101 		bic	r1, r3, r1
 822              	.LVL66:
 823              		.loc 1 463 7 is_stmt 0 view .LVU178
 824 0018 5162     		str	r1, [r2, #36]
 464:Drivers/STM32WLxx_HAL_Driver/Src/stm32wlxx_hal_pwr_ex.c ****       break;
 825              		.loc 1 464 7 is_stmt 1 view .LVU179
 455:Drivers/STM32WLxx_HAL_Driver/Src/stm32wlxx_hal_pwr_ex.c **** 
 826              		.loc 1 455 21 is_stmt 0 view .LVU180
 827 001a 0020     		movs	r0, #0
 828              	.LVL67:
 829              		.loc 1 464 7 view .LVU181
 830 001c 7047     		bx	lr
 831              	.LVL68:
 832              	.L72:
 465:Drivers/STM32WLxx_HAL_Driver/Src/stm32wlxx_hal_pwr_ex.c ****     case PWR_GPIO_B:
 466:Drivers/STM32WLxx_HAL_Driver/Src/stm32wlxx_hal_pwr_ex.c ****       CLEAR_BIT(PWR->PDCRB, GPIONumber);
 833              		.loc 1 466 7 is_stmt 1 view .LVU182
 834 001e 0E4A     		ldr	r2, .L75
 835 0020 D36A     		ldr	r3, [r2, #44]
 836 0022 23EA0101 		bic	r1, r3, r1
 837              	.LVL69:
 838              		.loc 1 466 7 is_stmt 0 view .LVU183
 839 0026 D162     		str	r1, [r2, #44]
 467:Drivers/STM32WLxx_HAL_Driver/Src/stm32wlxx_hal_pwr_ex.c ****       break;
 840              		.loc 1 467 7 is_stmt 1 view .LVU184
 455:Drivers/STM32WLxx_HAL_Driver/Src/stm32wlxx_hal_pwr_ex.c **** 
 841              		.loc 1 455 21 is_stmt 0 view .LVU185
 842 0028 0020     		movs	r0, #0
 843              	.LVL70:
 844              		.loc 1 467 7 view .LVU186
 845 002a 7047     		bx	lr
 846              	.LVL71:
 847              	.L71:
 468:Drivers/STM32WLxx_HAL_Driver/Src/stm32wlxx_hal_pwr_ex.c ****     case PWR_GPIO_C:
 469:Drivers/STM32WLxx_HAL_Driver/Src/stm32wlxx_hal_pwr_ex.c ****       CLEAR_BIT(PWR->PDCRC, (GPIONumber & PWR_PORTC_AVAILABLE_PINS));
 848              		.loc 1 469 7 is_stmt 1 view .LVU187
 849 002c 0A4A     		ldr	r2, .L75
 850 002e 536B     		ldr	r3, [r2, #52]
 851 0030 21F4FC51 		bic	r1, r1, #8064
 852              	.LVL72:
 853              		.loc 1 469 7 is_stmt 0 view .LVU188
 854 0034 0904     		lsls	r1, r1, #16
 855 0036 090C     		lsrs	r1, r1, #16
 856 0038 23EA0101 		bic	r1, r3, r1
 857 003c 5163     		str	r1, [r2, #52]
 470:Drivers/STM32WLxx_HAL_Driver/Src/stm32wlxx_hal_pwr_ex.c ****       break;
 858              		.loc 1 470 7 is_stmt 1 view .LVU189
 455:Drivers/STM32WLxx_HAL_Driver/Src/stm32wlxx_hal_pwr_ex.c **** 
 859              		.loc 1 455 21 is_stmt 0 view .LVU190
 860 003e 0020     		movs	r0, #0
 861              	.LVL73:
 862              		.loc 1 470 7 view .LVU191
 863 0040 7047     		bx	lr
 864              	.LVL74:
 865              	.L69:
ARM GAS  C:\Users\NATHAN~1\AppData\Local\Temp\ccSyVvP3.s 			page 48


 471:Drivers/STM32WLxx_HAL_Driver/Src/stm32wlxx_hal_pwr_ex.c ****     case PWR_GPIO_H:
 472:Drivers/STM32WLxx_HAL_Driver/Src/stm32wlxx_hal_pwr_ex.c ****       CLEAR_BIT(PWR->PDCRH, (GPIONumber & PWR_PORTH_AVAILABLE_PINS));
 866              		.loc 1 472 7 is_stmt 1 view .LVU192
 867 0042 054A     		ldr	r2, .L75
 868 0044 D36D     		ldr	r3, [r2, #92]
 869 0046 01F00801 		and	r1, r1, #8
 870              	.LVL75:
 871              		.loc 1 472 7 is_stmt 0 view .LVU193
 872 004a 23EA0101 		bic	r1, r3, r1
 873 004e D165     		str	r1, [r2, #92]
 473:Drivers/STM32WLxx_HAL_Driver/Src/stm32wlxx_hal_pwr_ex.c ****       break;
 874              		.loc 1 473 7 is_stmt 1 view .LVU194
 455:Drivers/STM32WLxx_HAL_Driver/Src/stm32wlxx_hal_pwr_ex.c **** 
 875              		.loc 1 455 21 is_stmt 0 view .LVU195
 876 0050 0020     		movs	r0, #0
 877              	.LVL76:
 878              		.loc 1 473 7 view .LVU196
 879 0052 7047     		bx	lr
 880              	.LVL77:
 881              	.L74:
 460:Drivers/STM32WLxx_HAL_Driver/Src/stm32wlxx_hal_pwr_ex.c ****   {
 882              		.loc 1 460 3 view .LVU197
 883 0054 0120     		movs	r0, #1
 884              	.LVL78:
 474:Drivers/STM32WLxx_HAL_Driver/Src/stm32wlxx_hal_pwr_ex.c ****     default:
 475:Drivers/STM32WLxx_HAL_Driver/Src/stm32wlxx_hal_pwr_ex.c ****       status = HAL_ERROR;
 476:Drivers/STM32WLxx_HAL_Driver/Src/stm32wlxx_hal_pwr_ex.c ****       break;
 477:Drivers/STM32WLxx_HAL_Driver/Src/stm32wlxx_hal_pwr_ex.c ****   }
 478:Drivers/STM32WLxx_HAL_Driver/Src/stm32wlxx_hal_pwr_ex.c **** 
 479:Drivers/STM32WLxx_HAL_Driver/Src/stm32wlxx_hal_pwr_ex.c ****   return status;
 885              		.loc 1 479 3 is_stmt 1 view .LVU198
 480:Drivers/STM32WLxx_HAL_Driver/Src/stm32wlxx_hal_pwr_ex.c **** }
 886              		.loc 1 480 1 is_stmt 0 view .LVU199
 887 0056 7047     		bx	lr
 888              	.L76:
 889              		.align	2
 890              	.L75:
 891 0058 00040058 		.word	1476396032
 892              		.cfi_endproc
 893              	.LFE980:
 895              		.section	.text.HAL_PWREx_EnablePullUpPullDownConfig,"ax",%progbits
 896              		.align	1
 897              		.global	HAL_PWREx_EnablePullUpPullDownConfig
 898              		.syntax unified
 899              		.thumb
 900              		.thumb_func
 902              	HAL_PWREx_EnablePullUpPullDownConfig:
 903              	.LFB981:
 481:Drivers/STM32WLxx_HAL_Driver/Src/stm32wlxx_hal_pwr_ex.c **** 
 482:Drivers/STM32WLxx_HAL_Driver/Src/stm32wlxx_hal_pwr_ex.c **** /**
 483:Drivers/STM32WLxx_HAL_Driver/Src/stm32wlxx_hal_pwr_ex.c ****   * @brief Enable pull-up and pull-down configuration.
 484:Drivers/STM32WLxx_HAL_Driver/Src/stm32wlxx_hal_pwr_ex.c ****   * @note  When APC bit is set, the I/O pull-up and pull-down configurations defined in
 485:Drivers/STM32WLxx_HAL_Driver/Src/stm32wlxx_hal_pwr_ex.c ****   *        PWR_PUCRx and PWR_PDCRx registers are applied in Standby and Shutdown modes.
 486:Drivers/STM32WLxx_HAL_Driver/Src/stm32wlxx_hal_pwr_ex.c ****   * @note  Pull-up set by PUy bit of PWR_PUCRx register is not activated if the corresponding
 487:Drivers/STM32WLxx_HAL_Driver/Src/stm32wlxx_hal_pwr_ex.c ****   *        PDy bit of PWR_PDCRx register is also set (pull-down configuration priority is higher).
 488:Drivers/STM32WLxx_HAL_Driver/Src/stm32wlxx_hal_pwr_ex.c ****   *        HAL_PWREx_EnableGPIOPullUp() and HAL_PWREx_EnableGPIOPullDown() API's ensure there
 489:Drivers/STM32WLxx_HAL_Driver/Src/stm32wlxx_hal_pwr_ex.c ****   *        is no conflict when setting PUy or PDy bit.
ARM GAS  C:\Users\NATHAN~1\AppData\Local\Temp\ccSyVvP3.s 			page 49


 490:Drivers/STM32WLxx_HAL_Driver/Src/stm32wlxx_hal_pwr_ex.c ****   * @retval None
 491:Drivers/STM32WLxx_HAL_Driver/Src/stm32wlxx_hal_pwr_ex.c ****   */
 492:Drivers/STM32WLxx_HAL_Driver/Src/stm32wlxx_hal_pwr_ex.c **** void HAL_PWREx_EnablePullUpPullDownConfig(void)
 493:Drivers/STM32WLxx_HAL_Driver/Src/stm32wlxx_hal_pwr_ex.c **** {
 904              		.loc 1 493 1 is_stmt 1 view -0
 905              		.cfi_startproc
 906              		@ args = 0, pretend = 0, frame = 0
 907              		@ frame_needed = 0, uses_anonymous_args = 0
 908              		@ link register save eliminated.
 494:Drivers/STM32WLxx_HAL_Driver/Src/stm32wlxx_hal_pwr_ex.c **** #ifdef CORE_CM0PLUS
 495:Drivers/STM32WLxx_HAL_Driver/Src/stm32wlxx_hal_pwr_ex.c ****   SET_BIT(PWR->C2CR3, PWR_C2CR3_APC);
 496:Drivers/STM32WLxx_HAL_Driver/Src/stm32wlxx_hal_pwr_ex.c **** #else
 497:Drivers/STM32WLxx_HAL_Driver/Src/stm32wlxx_hal_pwr_ex.c ****   SET_BIT(PWR->CR3, PWR_CR3_APC);
 909              		.loc 1 497 3 view .LVU201
 910 0000 024A     		ldr	r2, .L78
 911 0002 9368     		ldr	r3, [r2, #8]
 912 0004 43F48063 		orr	r3, r3, #1024
 913 0008 9360     		str	r3, [r2, #8]
 498:Drivers/STM32WLxx_HAL_Driver/Src/stm32wlxx_hal_pwr_ex.c **** #endif
 499:Drivers/STM32WLxx_HAL_Driver/Src/stm32wlxx_hal_pwr_ex.c **** }
 914              		.loc 1 499 1 is_stmt 0 view .LVU202
 915 000a 7047     		bx	lr
 916              	.L79:
 917              		.align	2
 918              	.L78:
 919 000c 00040058 		.word	1476396032
 920              		.cfi_endproc
 921              	.LFE981:
 923              		.section	.text.HAL_PWREx_DisablePullUpPullDownConfig,"ax",%progbits
 924              		.align	1
 925              		.global	HAL_PWREx_DisablePullUpPullDownConfig
 926              		.syntax unified
 927              		.thumb
 928              		.thumb_func
 930              	HAL_PWREx_DisablePullUpPullDownConfig:
 931              	.LFB982:
 500:Drivers/STM32WLxx_HAL_Driver/Src/stm32wlxx_hal_pwr_ex.c **** 
 501:Drivers/STM32WLxx_HAL_Driver/Src/stm32wlxx_hal_pwr_ex.c **** /**
 502:Drivers/STM32WLxx_HAL_Driver/Src/stm32wlxx_hal_pwr_ex.c ****   * @brief Disable pull-up and pull-down configuration.
 503:Drivers/STM32WLxx_HAL_Driver/Src/stm32wlxx_hal_pwr_ex.c ****   * @note  When APC bit is cleared, the I/O pull-up and pull-down configurations defined in
 504:Drivers/STM32WLxx_HAL_Driver/Src/stm32wlxx_hal_pwr_ex.c ****   *        PWR_PUCRx and PWR_PDCRx registers are not applied in Standby and Shutdown modes.
 505:Drivers/STM32WLxx_HAL_Driver/Src/stm32wlxx_hal_pwr_ex.c ****   * @retval None
 506:Drivers/STM32WLxx_HAL_Driver/Src/stm32wlxx_hal_pwr_ex.c ****   */
 507:Drivers/STM32WLxx_HAL_Driver/Src/stm32wlxx_hal_pwr_ex.c **** void HAL_PWREx_DisablePullUpPullDownConfig(void)
 508:Drivers/STM32WLxx_HAL_Driver/Src/stm32wlxx_hal_pwr_ex.c **** {
 932              		.loc 1 508 1 is_stmt 1 view -0
 933              		.cfi_startproc
 934              		@ args = 0, pretend = 0, frame = 0
 935              		@ frame_needed = 0, uses_anonymous_args = 0
 936              		@ link register save eliminated.
 509:Drivers/STM32WLxx_HAL_Driver/Src/stm32wlxx_hal_pwr_ex.c **** #ifdef CORE_CM0PLUS
 510:Drivers/STM32WLxx_HAL_Driver/Src/stm32wlxx_hal_pwr_ex.c ****   CLEAR_BIT(PWR->C2CR3, PWR_C2CR3_APC);
 511:Drivers/STM32WLxx_HAL_Driver/Src/stm32wlxx_hal_pwr_ex.c **** #else
 512:Drivers/STM32WLxx_HAL_Driver/Src/stm32wlxx_hal_pwr_ex.c ****   CLEAR_BIT(PWR->CR3, PWR_CR3_APC);
 937              		.loc 1 512 3 view .LVU204
 938 0000 024A     		ldr	r2, .L81
 939 0002 9368     		ldr	r3, [r2, #8]
ARM GAS  C:\Users\NATHAN~1\AppData\Local\Temp\ccSyVvP3.s 			page 50


 940 0004 23F48063 		bic	r3, r3, #1024
 941 0008 9360     		str	r3, [r2, #8]
 513:Drivers/STM32WLxx_HAL_Driver/Src/stm32wlxx_hal_pwr_ex.c **** #endif
 514:Drivers/STM32WLxx_HAL_Driver/Src/stm32wlxx_hal_pwr_ex.c **** }
 942              		.loc 1 514 1 is_stmt 0 view .LVU205
 943 000a 7047     		bx	lr
 944              	.L82:
 945              		.align	2
 946              	.L81:
 947 000c 00040058 		.word	1476396032
 948              		.cfi_endproc
 949              	.LFE982:
 951              		.section	.text.HAL_PWREx_EnableSRAMRetention,"ax",%progbits
 952              		.align	1
 953              		.global	HAL_PWREx_EnableSRAMRetention
 954              		.syntax unified
 955              		.thumb
 956              		.thumb_func
 958              	HAL_PWREx_EnableSRAMRetention:
 959              	.LFB983:
 515:Drivers/STM32WLxx_HAL_Driver/Src/stm32wlxx_hal_pwr_ex.c **** 
 516:Drivers/STM32WLxx_HAL_Driver/Src/stm32wlxx_hal_pwr_ex.c **** /****************************************************************************/
 517:Drivers/STM32WLxx_HAL_Driver/Src/stm32wlxx_hal_pwr_ex.c **** 
 518:Drivers/STM32WLxx_HAL_Driver/Src/stm32wlxx_hal_pwr_ex.c **** #if defined(DUAL_CORE)
 519:Drivers/STM32WLxx_HAL_Driver/Src/stm32wlxx_hal_pwr_ex.c **** /**
 520:Drivers/STM32WLxx_HAL_Driver/Src/stm32wlxx_hal_pwr_ex.c ****   * @brief  Hold CPU and allocated peripherals after reset or wakeup from Stop or Standby.
 521:Drivers/STM32WLxx_HAL_Driver/Src/stm32wlxx_hal_pwr_ex.c ****   * @param  CPU Specifies the core to be held.
 522:Drivers/STM32WLxx_HAL_Driver/Src/stm32wlxx_hal_pwr_ex.c ****   *             This parameter can be one of the following values:
 523:Drivers/STM32WLxx_HAL_Driver/Src/stm32wlxx_hal_pwr_ex.c ****   *             @arg PWR_CORE_CPU2: Hold CPU2.
 524:Drivers/STM32WLxx_HAL_Driver/Src/stm32wlxx_hal_pwr_ex.c ****   * @note   Hold CPU2 with CPU1 as master by default.
 525:Drivers/STM32WLxx_HAL_Driver/Src/stm32wlxx_hal_pwr_ex.c ****   * @retval None
 526:Drivers/STM32WLxx_HAL_Driver/Src/stm32wlxx_hal_pwr_ex.c ****   */
 527:Drivers/STM32WLxx_HAL_Driver/Src/stm32wlxx_hal_pwr_ex.c **** void HAL_PWREx_HoldCore(uint32_t CPU)
 528:Drivers/STM32WLxx_HAL_Driver/Src/stm32wlxx_hal_pwr_ex.c **** {
 529:Drivers/STM32WLxx_HAL_Driver/Src/stm32wlxx_hal_pwr_ex.c ****   /* Check the parameters */
 530:Drivers/STM32WLxx_HAL_Driver/Src/stm32wlxx_hal_pwr_ex.c ****   assert_param(IS_PWR_CORE_HOLD_RELEASE(CPU));
 531:Drivers/STM32WLxx_HAL_Driver/Src/stm32wlxx_hal_pwr_ex.c **** 
 532:Drivers/STM32WLxx_HAL_Driver/Src/stm32wlxx_hal_pwr_ex.c ****   LL_PWR_DisableBootC2();
 533:Drivers/STM32WLxx_HAL_Driver/Src/stm32wlxx_hal_pwr_ex.c **** }
 534:Drivers/STM32WLxx_HAL_Driver/Src/stm32wlxx_hal_pwr_ex.c **** 
 535:Drivers/STM32WLxx_HAL_Driver/Src/stm32wlxx_hal_pwr_ex.c **** /**
 536:Drivers/STM32WLxx_HAL_Driver/Src/stm32wlxx_hal_pwr_ex.c ****   * @brief  Release CPU and allocated peripherals after reset or wakeup from Stop or Standby.
 537:Drivers/STM32WLxx_HAL_Driver/Src/stm32wlxx_hal_pwr_ex.c ****   * @param  CPU Specifies the core to be released.
 538:Drivers/STM32WLxx_HAL_Driver/Src/stm32wlxx_hal_pwr_ex.c ****   *             This parameter can be one of the following values:
 539:Drivers/STM32WLxx_HAL_Driver/Src/stm32wlxx_hal_pwr_ex.c ****   *             @arg PWR_CORE_CPU2: Release the CPU2 from holding.
 540:Drivers/STM32WLxx_HAL_Driver/Src/stm32wlxx_hal_pwr_ex.c ****   * @retval None
 541:Drivers/STM32WLxx_HAL_Driver/Src/stm32wlxx_hal_pwr_ex.c ****   */
 542:Drivers/STM32WLxx_HAL_Driver/Src/stm32wlxx_hal_pwr_ex.c **** void HAL_PWREx_ReleaseCore(uint32_t CPU)
 543:Drivers/STM32WLxx_HAL_Driver/Src/stm32wlxx_hal_pwr_ex.c **** {
 544:Drivers/STM32WLxx_HAL_Driver/Src/stm32wlxx_hal_pwr_ex.c ****   /* Check the parameters */
 545:Drivers/STM32WLxx_HAL_Driver/Src/stm32wlxx_hal_pwr_ex.c ****   assert_param(IS_PWR_CORE_HOLD_RELEASE(CPU));
 546:Drivers/STM32WLxx_HAL_Driver/Src/stm32wlxx_hal_pwr_ex.c **** 
 547:Drivers/STM32WLxx_HAL_Driver/Src/stm32wlxx_hal_pwr_ex.c ****   LL_PWR_EnableBootC2();
 548:Drivers/STM32WLxx_HAL_Driver/Src/stm32wlxx_hal_pwr_ex.c **** }
 549:Drivers/STM32WLxx_HAL_Driver/Src/stm32wlxx_hal_pwr_ex.c **** 
 550:Drivers/STM32WLxx_HAL_Driver/Src/stm32wlxx_hal_pwr_ex.c **** /****************************************************************************/
 551:Drivers/STM32WLxx_HAL_Driver/Src/stm32wlxx_hal_pwr_ex.c **** #ifdef CORE_CM0PLUS
ARM GAS  C:\Users\NATHAN~1\AppData\Local\Temp\ccSyVvP3.s 			page 51


 552:Drivers/STM32WLxx_HAL_Driver/Src/stm32wlxx_hal_pwr_ex.c **** /**
 553:Drivers/STM32WLxx_HAL_Driver/Src/stm32wlxx_hal_pwr_ex.c ****   * @brief  Enable CPU2 wake-up from low-power mode on illegal access occurrence
 554:Drivers/STM32WLxx_HAL_Driver/Src/stm32wlxx_hal_pwr_ex.c ****   * @note   Can be configured from CPU2 only
 555:Drivers/STM32WLxx_HAL_Driver/Src/stm32wlxx_hal_pwr_ex.c ****   * @retval None
 556:Drivers/STM32WLxx_HAL_Driver/Src/stm32wlxx_hal_pwr_ex.c ****   */
 557:Drivers/STM32WLxx_HAL_Driver/Src/stm32wlxx_hal_pwr_ex.c **** void HAL_PWREx_EnableWakeUp_ILAC(void)
 558:Drivers/STM32WLxx_HAL_Driver/Src/stm32wlxx_hal_pwr_ex.c **** {
 559:Drivers/STM32WLxx_HAL_Driver/Src/stm32wlxx_hal_pwr_ex.c ****   LL_PWR_C2_EnableWakeUp_ILAC();
 560:Drivers/STM32WLxx_HAL_Driver/Src/stm32wlxx_hal_pwr_ex.c **** }
 561:Drivers/STM32WLxx_HAL_Driver/Src/stm32wlxx_hal_pwr_ex.c **** 
 562:Drivers/STM32WLxx_HAL_Driver/Src/stm32wlxx_hal_pwr_ex.c **** /**
 563:Drivers/STM32WLxx_HAL_Driver/Src/stm32wlxx_hal_pwr_ex.c ****   * @brief  Disable CPU2 wake-up from low-power mode on illegal access occurrence
 564:Drivers/STM32WLxx_HAL_Driver/Src/stm32wlxx_hal_pwr_ex.c ****   * @note   Can be configured from CPU2 only
 565:Drivers/STM32WLxx_HAL_Driver/Src/stm32wlxx_hal_pwr_ex.c ****   * @retval None
 566:Drivers/STM32WLxx_HAL_Driver/Src/stm32wlxx_hal_pwr_ex.c ****   */
 567:Drivers/STM32WLxx_HAL_Driver/Src/stm32wlxx_hal_pwr_ex.c **** void HAL_PWREx_DisableWakeUp_ILAC(void)
 568:Drivers/STM32WLxx_HAL_Driver/Src/stm32wlxx_hal_pwr_ex.c **** {
 569:Drivers/STM32WLxx_HAL_Driver/Src/stm32wlxx_hal_pwr_ex.c ****   LL_PWR_C2_DisableWakeUp_ILAC();
 570:Drivers/STM32WLxx_HAL_Driver/Src/stm32wlxx_hal_pwr_ex.c **** }
 571:Drivers/STM32WLxx_HAL_Driver/Src/stm32wlxx_hal_pwr_ex.c **** 
 572:Drivers/STM32WLxx_HAL_Driver/Src/stm32wlxx_hal_pwr_ex.c **** /**
 573:Drivers/STM32WLxx_HAL_Driver/Src/stm32wlxx_hal_pwr_ex.c ****   * @brief  Check if bit to wake-up CPU2 from low-power mode on illegal access
 574:Drivers/STM32WLxx_HAL_Driver/Src/stm32wlxx_hal_pwr_ex.c ****   *         occurrence is set
 575:Drivers/STM32WLxx_HAL_Driver/Src/stm32wlxx_hal_pwr_ex.c ****   * @note   Can be used from CPU2 only
 576:Drivers/STM32WLxx_HAL_Driver/Src/stm32wlxx_hal_pwr_ex.c ****   * @retval State of bit (1 or 0)
 577:Drivers/STM32WLxx_HAL_Driver/Src/stm32wlxx_hal_pwr_ex.c ****   */
 578:Drivers/STM32WLxx_HAL_Driver/Src/stm32wlxx_hal_pwr_ex.c **** uint32_t HAL_PWREx_IsEnabledWakeUp_ILAC(void)
 579:Drivers/STM32WLxx_HAL_Driver/Src/stm32wlxx_hal_pwr_ex.c **** {
 580:Drivers/STM32WLxx_HAL_Driver/Src/stm32wlxx_hal_pwr_ex.c ****   return LL_PWR_C2_IsEnabledWakeUp_ILAC();
 581:Drivers/STM32WLxx_HAL_Driver/Src/stm32wlxx_hal_pwr_ex.c **** }
 582:Drivers/STM32WLxx_HAL_Driver/Src/stm32wlxx_hal_pwr_ex.c **** #endif
 583:Drivers/STM32WLxx_HAL_Driver/Src/stm32wlxx_hal_pwr_ex.c **** #endif
 584:Drivers/STM32WLxx_HAL_Driver/Src/stm32wlxx_hal_pwr_ex.c **** 
 585:Drivers/STM32WLxx_HAL_Driver/Src/stm32wlxx_hal_pwr_ex.c **** /****************************************************************************/
 586:Drivers/STM32WLxx_HAL_Driver/Src/stm32wlxx_hal_pwr_ex.c **** /**
 587:Drivers/STM32WLxx_HAL_Driver/Src/stm32wlxx_hal_pwr_ex.c ****   * @brief Enable SRAM2 content retention in Standby mode.
 588:Drivers/STM32WLxx_HAL_Driver/Src/stm32wlxx_hal_pwr_ex.c ****   * @note  When RRS bit is set, SRAM is powered by the low-power regulator in
 589:Drivers/STM32WLxx_HAL_Driver/Src/stm32wlxx_hal_pwr_ex.c ****   *         Standby mode and its content is kept.
 590:Drivers/STM32WLxx_HAL_Driver/Src/stm32wlxx_hal_pwr_ex.c ****   * @retval None
 591:Drivers/STM32WLxx_HAL_Driver/Src/stm32wlxx_hal_pwr_ex.c ****   */
 592:Drivers/STM32WLxx_HAL_Driver/Src/stm32wlxx_hal_pwr_ex.c **** void HAL_PWREx_EnableSRAMRetention(void)
 593:Drivers/STM32WLxx_HAL_Driver/Src/stm32wlxx_hal_pwr_ex.c **** {
 960              		.loc 1 593 1 is_stmt 1 view -0
 961              		.cfi_startproc
 962              		@ args = 0, pretend = 0, frame = 0
 963              		@ frame_needed = 0, uses_anonymous_args = 0
 964              		@ link register save eliminated.
 594:Drivers/STM32WLxx_HAL_Driver/Src/stm32wlxx_hal_pwr_ex.c ****   LL_PWR_EnableSRAM2Retention();
 965              		.loc 1 594 3 view .LVU207
 966              	.LBB44:
 967              	.LBI44:
 706:Drivers/STM32WLxx_HAL_Driver/Inc/stm32wlxx_ll_pwr.h **** {
 968              		.loc 2 706 22 view .LVU208
 969              	.LBB45:
 708:Drivers/STM32WLxx_HAL_Driver/Inc/stm32wlxx_ll_pwr.h **** }
 970              		.loc 2 708 3 view .LVU209
 971 0000 024A     		ldr	r2, .L84
ARM GAS  C:\Users\NATHAN~1\AppData\Local\Temp\ccSyVvP3.s 			page 52


 972 0002 9368     		ldr	r3, [r2, #8]
 973 0004 43F40073 		orr	r3, r3, #512
 974 0008 9360     		str	r3, [r2, #8]
 975              	.LBE45:
 976              	.LBE44:
 595:Drivers/STM32WLxx_HAL_Driver/Src/stm32wlxx_hal_pwr_ex.c **** }
 977              		.loc 1 595 1 is_stmt 0 view .LVU210
 978 000a 7047     		bx	lr
 979              	.L85:
 980              		.align	2
 981              	.L84:
 982 000c 00040058 		.word	1476396032
 983              		.cfi_endproc
 984              	.LFE983:
 986              		.section	.text.HAL_PWREx_DisableSRAMRetention,"ax",%progbits
 987              		.align	1
 988              		.global	HAL_PWREx_DisableSRAMRetention
 989              		.syntax unified
 990              		.thumb
 991              		.thumb_func
 993              	HAL_PWREx_DisableSRAMRetention:
 994              	.LFB984:
 596:Drivers/STM32WLxx_HAL_Driver/Src/stm32wlxx_hal_pwr_ex.c **** 
 597:Drivers/STM32WLxx_HAL_Driver/Src/stm32wlxx_hal_pwr_ex.c **** /**
 598:Drivers/STM32WLxx_HAL_Driver/Src/stm32wlxx_hal_pwr_ex.c ****   * @brief Disable SRAM2 content retention in Standby mode.
 599:Drivers/STM32WLxx_HAL_Driver/Src/stm32wlxx_hal_pwr_ex.c ****   * @note  When RRS bit is reset, SRAM is powered off in Standby mode
 600:Drivers/STM32WLxx_HAL_Driver/Src/stm32wlxx_hal_pwr_ex.c ****   *        and its content is lost.
 601:Drivers/STM32WLxx_HAL_Driver/Src/stm32wlxx_hal_pwr_ex.c ****   * @retval None
 602:Drivers/STM32WLxx_HAL_Driver/Src/stm32wlxx_hal_pwr_ex.c ****   */
 603:Drivers/STM32WLxx_HAL_Driver/Src/stm32wlxx_hal_pwr_ex.c **** void HAL_PWREx_DisableSRAMRetention(void)
 604:Drivers/STM32WLxx_HAL_Driver/Src/stm32wlxx_hal_pwr_ex.c **** {
 995              		.loc 1 604 1 is_stmt 1 view -0
 996              		.cfi_startproc
 997              		@ args = 0, pretend = 0, frame = 0
 998              		@ frame_needed = 0, uses_anonymous_args = 0
 999              		@ link register save eliminated.
 605:Drivers/STM32WLxx_HAL_Driver/Src/stm32wlxx_hal_pwr_ex.c ****   LL_PWR_DisableSRAM2Retention();
 1000              		.loc 1 605 3 view .LVU212
 1001              	.LBB46:
 1002              	.LBI46:
 716:Drivers/STM32WLxx_HAL_Driver/Inc/stm32wlxx_ll_pwr.h **** {
 1003              		.loc 2 716 22 view .LVU213
 1004              	.LBB47:
 718:Drivers/STM32WLxx_HAL_Driver/Inc/stm32wlxx_ll_pwr.h **** }
 1005              		.loc 2 718 3 view .LVU214
 1006 0000 024A     		ldr	r2, .L87
 1007 0002 9368     		ldr	r3, [r2, #8]
 1008 0004 23F40073 		bic	r3, r3, #512
 1009 0008 9360     		str	r3, [r2, #8]
 1010              	.LBE47:
 1011              	.LBE46:
 606:Drivers/STM32WLxx_HAL_Driver/Src/stm32wlxx_hal_pwr_ex.c **** }
 1012              		.loc 1 606 1 is_stmt 0 view .LVU215
 1013 000a 7047     		bx	lr
 1014              	.L88:
 1015              		.align	2
 1016              	.L87:
ARM GAS  C:\Users\NATHAN~1\AppData\Local\Temp\ccSyVvP3.s 			page 53


 1017 000c 00040058 		.word	1476396032
 1018              		.cfi_endproc
 1019              	.LFE984:
 1021              		.section	.text.HAL_PWREx_EnableFlashPowerDown,"ax",%progbits
 1022              		.align	1
 1023              		.global	HAL_PWREx_EnableFlashPowerDown
 1024              		.syntax unified
 1025              		.thumb
 1026              		.thumb_func
 1028              	HAL_PWREx_EnableFlashPowerDown:
 1029              	.LVL79:
 1030              	.LFB985:
 607:Drivers/STM32WLxx_HAL_Driver/Src/stm32wlxx_hal_pwr_ex.c **** 
 608:Drivers/STM32WLxx_HAL_Driver/Src/stm32wlxx_hal_pwr_ex.c **** /****************************************************************************/
 609:Drivers/STM32WLxx_HAL_Driver/Src/stm32wlxx_hal_pwr_ex.c **** /**
 610:Drivers/STM32WLxx_HAL_Driver/Src/stm32wlxx_hal_pwr_ex.c ****   * @brief  Enable Flash Power Down.
 611:Drivers/STM32WLxx_HAL_Driver/Src/stm32wlxx_hal_pwr_ex.c ****   * @note   This API allows to enable flash power down capabilities in low power
 612:Drivers/STM32WLxx_HAL_Driver/Src/stm32wlxx_hal_pwr_ex.c ****   *         run and low power sleep modes.
 613:Drivers/STM32WLxx_HAL_Driver/Src/stm32wlxx_hal_pwr_ex.c ****   * @note   This configuration is effective when both CPU have selected it.
 614:Drivers/STM32WLxx_HAL_Driver/Src/stm32wlxx_hal_pwr_ex.c ****   * @param  PowerMode this can be a combination of following values:
 615:Drivers/STM32WLxx_HAL_Driver/Src/stm32wlxx_hal_pwr_ex.c ****   *           @arg @ref PWR_FLASHPD_LPRUN
 616:Drivers/STM32WLxx_HAL_Driver/Src/stm32wlxx_hal_pwr_ex.c ****   *           @arg @ref PWR_FLASHPD_LPSLEEP
 617:Drivers/STM32WLxx_HAL_Driver/Src/stm32wlxx_hal_pwr_ex.c ****   * @retval None
 618:Drivers/STM32WLxx_HAL_Driver/Src/stm32wlxx_hal_pwr_ex.c ****   */
 619:Drivers/STM32WLxx_HAL_Driver/Src/stm32wlxx_hal_pwr_ex.c **** void HAL_PWREx_EnableFlashPowerDown(uint32_t PowerMode)
 620:Drivers/STM32WLxx_HAL_Driver/Src/stm32wlxx_hal_pwr_ex.c **** {
 1031              		.loc 1 620 1 is_stmt 1 view -0
 1032              		.cfi_startproc
 1033              		@ args = 0, pretend = 0, frame = 0
 1034              		@ frame_needed = 0, uses_anonymous_args = 0
 1035              		@ link register save eliminated.
 621:Drivers/STM32WLxx_HAL_Driver/Src/stm32wlxx_hal_pwr_ex.c ****   assert_param(IS_PWR_FLASH_POWERDOWN(PowerMode));
 1036              		.loc 1 621 3 view .LVU217
 622:Drivers/STM32WLxx_HAL_Driver/Src/stm32wlxx_hal_pwr_ex.c **** 
 623:Drivers/STM32WLxx_HAL_Driver/Src/stm32wlxx_hal_pwr_ex.c **** #ifdef CORE_CM0PLUS
 624:Drivers/STM32WLxx_HAL_Driver/Src/stm32wlxx_hal_pwr_ex.c ****   if ((PowerMode & PWR_FLASHPD_LPRUN) != 0U)
 625:Drivers/STM32WLxx_HAL_Driver/Src/stm32wlxx_hal_pwr_ex.c ****   {
 626:Drivers/STM32WLxx_HAL_Driver/Src/stm32wlxx_hal_pwr_ex.c ****     /* Unlock bit FPDR */
 627:Drivers/STM32WLxx_HAL_Driver/Src/stm32wlxx_hal_pwr_ex.c ****     WRITE_REG(PWR->C2CR1, PWR_FLASH_POWER_MODE_UNLOCK_CODE);
 628:Drivers/STM32WLxx_HAL_Driver/Src/stm32wlxx_hal_pwr_ex.c ****   }
 629:Drivers/STM32WLxx_HAL_Driver/Src/stm32wlxx_hal_pwr_ex.c **** 
 630:Drivers/STM32WLxx_HAL_Driver/Src/stm32wlxx_hal_pwr_ex.c ****   /* Set flash power down mode */
 631:Drivers/STM32WLxx_HAL_Driver/Src/stm32wlxx_hal_pwr_ex.c ****   SET_BIT(PWR->C2CR1, PowerMode);
 632:Drivers/STM32WLxx_HAL_Driver/Src/stm32wlxx_hal_pwr_ex.c **** #else
 633:Drivers/STM32WLxx_HAL_Driver/Src/stm32wlxx_hal_pwr_ex.c ****   if ((PowerMode & PWR_FLASHPD_LPRUN) != 0U)
 1037              		.loc 1 633 3 view .LVU218
 1038              		.loc 1 633 6 is_stmt 0 view .LVU219
 1039 0000 10F0100F 		tst	r0, #16
 1040 0004 03D0     		beq	.L90
 634:Drivers/STM32WLxx_HAL_Driver/Src/stm32wlxx_hal_pwr_ex.c ****   {
 635:Drivers/STM32WLxx_HAL_Driver/Src/stm32wlxx_hal_pwr_ex.c ****     /* Unlock bit FPDR */
 636:Drivers/STM32WLxx_HAL_Driver/Src/stm32wlxx_hal_pwr_ex.c ****     WRITE_REG(PWR->CR1, PWR_FLASH_POWER_MODE_UNLOCK_CODE);
 1041              		.loc 1 636 5 is_stmt 1 view .LVU220
 1042 0006 044B     		ldr	r3, .L91
 1043 0008 4CF2B012 		movw	r2, #49584
 1044 000c 1A60     		str	r2, [r3]
 1045              	.L90:
ARM GAS  C:\Users\NATHAN~1\AppData\Local\Temp\ccSyVvP3.s 			page 54


 637:Drivers/STM32WLxx_HAL_Driver/Src/stm32wlxx_hal_pwr_ex.c ****   }
 638:Drivers/STM32WLxx_HAL_Driver/Src/stm32wlxx_hal_pwr_ex.c **** 
 639:Drivers/STM32WLxx_HAL_Driver/Src/stm32wlxx_hal_pwr_ex.c ****   /* Set flash power down mode */
 640:Drivers/STM32WLxx_HAL_Driver/Src/stm32wlxx_hal_pwr_ex.c ****   SET_BIT(PWR->CR1, PowerMode);
 1046              		.loc 1 640 3 view .LVU221
 1047 000e 024A     		ldr	r2, .L91
 1048 0010 1368     		ldr	r3, [r2]
 1049 0012 1843     		orrs	r0, r0, r3
 1050              	.LVL80:
 1051              		.loc 1 640 3 is_stmt 0 view .LVU222
 1052 0014 1060     		str	r0, [r2]
 641:Drivers/STM32WLxx_HAL_Driver/Src/stm32wlxx_hal_pwr_ex.c **** #endif
 642:Drivers/STM32WLxx_HAL_Driver/Src/stm32wlxx_hal_pwr_ex.c **** }
 1053              		.loc 1 642 1 view .LVU223
 1054 0016 7047     		bx	lr
 1055              	.L92:
 1056              		.align	2
 1057              	.L91:
 1058 0018 00040058 		.word	1476396032
 1059              		.cfi_endproc
 1060              	.LFE985:
 1062              		.section	.text.HAL_PWREx_DisableFlashPowerDown,"ax",%progbits
 1063              		.align	1
 1064              		.global	HAL_PWREx_DisableFlashPowerDown
 1065              		.syntax unified
 1066              		.thumb
 1067              		.thumb_func
 1069              	HAL_PWREx_DisableFlashPowerDown:
 1070              	.LVL81:
 1071              	.LFB986:
 643:Drivers/STM32WLxx_HAL_Driver/Src/stm32wlxx_hal_pwr_ex.c **** 
 644:Drivers/STM32WLxx_HAL_Driver/Src/stm32wlxx_hal_pwr_ex.c **** /**
 645:Drivers/STM32WLxx_HAL_Driver/Src/stm32wlxx_hal_pwr_ex.c ****   * @brief  Disable Flash Power Down.
 646:Drivers/STM32WLxx_HAL_Driver/Src/stm32wlxx_hal_pwr_ex.c ****   * @note   This API allows to disable flash power down capabilities in low power
 647:Drivers/STM32WLxx_HAL_Driver/Src/stm32wlxx_hal_pwr_ex.c ****   *         run and low power sleep modes.
 648:Drivers/STM32WLxx_HAL_Driver/Src/stm32wlxx_hal_pwr_ex.c ****   * @note   This configuration is effective when both CPU have selected it.
 649:Drivers/STM32WLxx_HAL_Driver/Src/stm32wlxx_hal_pwr_ex.c ****   * @param  PowerMode this can be a combination of following values:
 650:Drivers/STM32WLxx_HAL_Driver/Src/stm32wlxx_hal_pwr_ex.c ****   *           @arg @ref PWR_FLASHPD_LPRUN
 651:Drivers/STM32WLxx_HAL_Driver/Src/stm32wlxx_hal_pwr_ex.c ****   *           @arg @ref PWR_FLASHPD_LPSLEEP
 652:Drivers/STM32WLxx_HAL_Driver/Src/stm32wlxx_hal_pwr_ex.c ****   * @retval None
 653:Drivers/STM32WLxx_HAL_Driver/Src/stm32wlxx_hal_pwr_ex.c ****   */
 654:Drivers/STM32WLxx_HAL_Driver/Src/stm32wlxx_hal_pwr_ex.c **** void HAL_PWREx_DisableFlashPowerDown(uint32_t PowerMode)
 655:Drivers/STM32WLxx_HAL_Driver/Src/stm32wlxx_hal_pwr_ex.c **** {
 1072              		.loc 1 655 1 is_stmt 1 view -0
 1073              		.cfi_startproc
 1074              		@ args = 0, pretend = 0, frame = 0
 1075              		@ frame_needed = 0, uses_anonymous_args = 0
 1076              		@ link register save eliminated.
 656:Drivers/STM32WLxx_HAL_Driver/Src/stm32wlxx_hal_pwr_ex.c ****   assert_param(IS_PWR_FLASH_POWERDOWN(PowerMode));
 1077              		.loc 1 656 3 view .LVU225
 657:Drivers/STM32WLxx_HAL_Driver/Src/stm32wlxx_hal_pwr_ex.c **** 
 658:Drivers/STM32WLxx_HAL_Driver/Src/stm32wlxx_hal_pwr_ex.c **** #ifdef CORE_CM0PLUS
 659:Drivers/STM32WLxx_HAL_Driver/Src/stm32wlxx_hal_pwr_ex.c ****   /* Set flash power down mode */
 660:Drivers/STM32WLxx_HAL_Driver/Src/stm32wlxx_hal_pwr_ex.c ****   CLEAR_BIT(PWR->C2CR1, PowerMode);
 661:Drivers/STM32WLxx_HAL_Driver/Src/stm32wlxx_hal_pwr_ex.c **** #else
 662:Drivers/STM32WLxx_HAL_Driver/Src/stm32wlxx_hal_pwr_ex.c ****   /* Set flash power down mode */
 663:Drivers/STM32WLxx_HAL_Driver/Src/stm32wlxx_hal_pwr_ex.c ****   CLEAR_BIT(PWR->CR1, PowerMode);
ARM GAS  C:\Users\NATHAN~1\AppData\Local\Temp\ccSyVvP3.s 			page 55


 1078              		.loc 1 663 3 view .LVU226
 1079 0000 024A     		ldr	r2, .L94
 1080 0002 1368     		ldr	r3, [r2]
 1081 0004 23EA0003 		bic	r3, r3, r0
 1082 0008 1360     		str	r3, [r2]
 664:Drivers/STM32WLxx_HAL_Driver/Src/stm32wlxx_hal_pwr_ex.c **** #endif
 665:Drivers/STM32WLxx_HAL_Driver/Src/stm32wlxx_hal_pwr_ex.c **** }
 1083              		.loc 1 665 1 is_stmt 0 view .LVU227
 1084 000a 7047     		bx	lr
 1085              	.L95:
 1086              		.align	2
 1087              	.L94:
 1088 000c 00040058 		.word	1476396032
 1089              		.cfi_endproc
 1090              	.LFE986:
 1092              		.section	.text.HAL_PWREx_EnableWPVD,"ax",%progbits
 1093              		.align	1
 1094              		.global	HAL_PWREx_EnableWPVD
 1095              		.syntax unified
 1096              		.thumb
 1097              		.thumb_func
 1099              	HAL_PWREx_EnableWPVD:
 1100              	.LFB987:
 666:Drivers/STM32WLxx_HAL_Driver/Src/stm32wlxx_hal_pwr_ex.c **** 
 667:Drivers/STM32WLxx_HAL_Driver/Src/stm32wlxx_hal_pwr_ex.c **** /****************************************************************************/
 668:Drivers/STM32WLxx_HAL_Driver/Src/stm32wlxx_hal_pwr_ex.c **** /**
 669:Drivers/STM32WLxx_HAL_Driver/Src/stm32wlxx_hal_pwr_ex.c ****   * @brief  Enable wake-up power voltage detection
 670:Drivers/STM32WLxx_HAL_Driver/Src/stm32wlxx_hal_pwr_ex.c ****   * @note   Wake-up power voltage detection status can be checked
 671:Drivers/STM32WLxx_HAL_Driver/Src/stm32wlxx_hal_pwr_ex.c ****   *         using flag @ref PWR_FLAG_WPVD.
 672:Drivers/STM32WLxx_HAL_Driver/Src/stm32wlxx_hal_pwr_ex.c ****   * @retval None
 673:Drivers/STM32WLxx_HAL_Driver/Src/stm32wlxx_hal_pwr_ex.c ****   */
 674:Drivers/STM32WLxx_HAL_Driver/Src/stm32wlxx_hal_pwr_ex.c **** void HAL_PWREx_EnableWPVD(void)
 675:Drivers/STM32WLxx_HAL_Driver/Src/stm32wlxx_hal_pwr_ex.c **** {
 1101              		.loc 1 675 1 is_stmt 1 view -0
 1102              		.cfi_startproc
 1103              		@ args = 0, pretend = 0, frame = 0
 1104              		@ frame_needed = 0, uses_anonymous_args = 0
 1105              		@ link register save eliminated.
 676:Drivers/STM32WLxx_HAL_Driver/Src/stm32wlxx_hal_pwr_ex.c **** #ifdef CORE_CM0PLUS
 677:Drivers/STM32WLxx_HAL_Driver/Src/stm32wlxx_hal_pwr_ex.c ****   LL_C2_PWR_EnableWPVD();
 678:Drivers/STM32WLxx_HAL_Driver/Src/stm32wlxx_hal_pwr_ex.c **** #else
 679:Drivers/STM32WLxx_HAL_Driver/Src/stm32wlxx_hal_pwr_ex.c ****   LL_PWR_EnableWPVD();
 1106              		.loc 1 679 3 view .LVU229
 1107              	.LBB48:
 1108              	.LBI48:
 738:Drivers/STM32WLxx_HAL_Driver/Inc/stm32wlxx_ll_pwr.h **** {
 1109              		.loc 2 738 22 view .LVU230
 1110              	.LBB49:
 740:Drivers/STM32WLxx_HAL_Driver/Inc/stm32wlxx_ll_pwr.h **** }
 1111              		.loc 2 740 3 view .LVU231
 1112 0000 024A     		ldr	r2, .L97
 1113 0002 9368     		ldr	r3, [r2, #8]
 1114 0004 43F48073 		orr	r3, r3, #256
 1115 0008 9360     		str	r3, [r2, #8]
 1116              	.LBE49:
 1117              	.LBE48:
 680:Drivers/STM32WLxx_HAL_Driver/Src/stm32wlxx_hal_pwr_ex.c **** #endif
ARM GAS  C:\Users\NATHAN~1\AppData\Local\Temp\ccSyVvP3.s 			page 56


 681:Drivers/STM32WLxx_HAL_Driver/Src/stm32wlxx_hal_pwr_ex.c **** }
 1118              		.loc 1 681 1 is_stmt 0 view .LVU232
 1119 000a 7047     		bx	lr
 1120              	.L98:
 1121              		.align	2
 1122              	.L97:
 1123 000c 00040058 		.word	1476396032
 1124              		.cfi_endproc
 1125              	.LFE987:
 1127              		.section	.text.HAL_PWREx_DisableWPVD,"ax",%progbits
 1128              		.align	1
 1129              		.global	HAL_PWREx_DisableWPVD
 1130              		.syntax unified
 1131              		.thumb
 1132              		.thumb_func
 1134              	HAL_PWREx_DisableWPVD:
 1135              	.LFB988:
 682:Drivers/STM32WLxx_HAL_Driver/Src/stm32wlxx_hal_pwr_ex.c **** 
 683:Drivers/STM32WLxx_HAL_Driver/Src/stm32wlxx_hal_pwr_ex.c **** /**
 684:Drivers/STM32WLxx_HAL_Driver/Src/stm32wlxx_hal_pwr_ex.c ****   * @brief  Disable wake-up power voltage detection
 685:Drivers/STM32WLxx_HAL_Driver/Src/stm32wlxx_hal_pwr_ex.c ****   * @retval None
 686:Drivers/STM32WLxx_HAL_Driver/Src/stm32wlxx_hal_pwr_ex.c ****   */
 687:Drivers/STM32WLxx_HAL_Driver/Src/stm32wlxx_hal_pwr_ex.c **** void HAL_PWREx_DisableWPVD(void)
 688:Drivers/STM32WLxx_HAL_Driver/Src/stm32wlxx_hal_pwr_ex.c **** {
 1136              		.loc 1 688 1 is_stmt 1 view -0
 1137              		.cfi_startproc
 1138              		@ args = 0, pretend = 0, frame = 0
 1139              		@ frame_needed = 0, uses_anonymous_args = 0
 1140              		@ link register save eliminated.
 689:Drivers/STM32WLxx_HAL_Driver/Src/stm32wlxx_hal_pwr_ex.c **** #ifdef CORE_CM0PLUS
 690:Drivers/STM32WLxx_HAL_Driver/Src/stm32wlxx_hal_pwr_ex.c ****   LL_C2_PWR_DisableWPVD();
 691:Drivers/STM32WLxx_HAL_Driver/Src/stm32wlxx_hal_pwr_ex.c **** #else
 692:Drivers/STM32WLxx_HAL_Driver/Src/stm32wlxx_hal_pwr_ex.c ****   LL_PWR_DisableWPVD();
 1141              		.loc 1 692 3 view .LVU234
 1142              	.LBB50:
 1143              	.LBI50:
 748:Drivers/STM32WLxx_HAL_Driver/Inc/stm32wlxx_ll_pwr.h **** {
 1144              		.loc 2 748 22 view .LVU235
 1145              	.LBB51:
 750:Drivers/STM32WLxx_HAL_Driver/Inc/stm32wlxx_ll_pwr.h **** }
 1146              		.loc 2 750 3 view .LVU236
 1147 0000 024A     		ldr	r2, .L100
 1148 0002 9368     		ldr	r3, [r2, #8]
 1149 0004 23F48073 		bic	r3, r3, #256
 1150 0008 9360     		str	r3, [r2, #8]
 1151              	.LBE51:
 1152              	.LBE50:
 693:Drivers/STM32WLxx_HAL_Driver/Src/stm32wlxx_hal_pwr_ex.c **** #endif
 694:Drivers/STM32WLxx_HAL_Driver/Src/stm32wlxx_hal_pwr_ex.c **** }
 1153              		.loc 1 694 1 is_stmt 0 view .LVU237
 1154 000a 7047     		bx	lr
 1155              	.L101:
 1156              		.align	2
 1157              	.L100:
 1158 000c 00040058 		.word	1476396032
 1159              		.cfi_endproc
 1160              	.LFE988:
ARM GAS  C:\Users\NATHAN~1\AppData\Local\Temp\ccSyVvP3.s 			page 57


 1162              		.section	.text.HAL_PWREx_EnableBORPVD_ULP,"ax",%progbits
 1163              		.align	1
 1164              		.global	HAL_PWREx_EnableBORPVD_ULP
 1165              		.syntax unified
 1166              		.thumb
 1167              		.thumb_func
 1169              	HAL_PWREx_EnableBORPVD_ULP:
 1170              	.LFB989:
 695:Drivers/STM32WLxx_HAL_Driver/Src/stm32wlxx_hal_pwr_ex.c **** 
 696:Drivers/STM32WLxx_HAL_Driver/Src/stm32wlxx_hal_pwr_ex.c **** /**
 697:Drivers/STM32WLxx_HAL_Driver/Src/stm32wlxx_hal_pwr_ex.c ****   * @brief  Enable periodical sampling of supply voltage in Stop and Standby
 698:Drivers/STM32WLxx_HAL_Driver/Src/stm32wlxx_hal_pwr_ex.c ****   *         modes for detecting condition of PDR and BOR reset.
 699:Drivers/STM32WLxx_HAL_Driver/Src/stm32wlxx_hal_pwr_ex.c ****   * @note   Caution: When enabled, and if the supply voltage drops below
 700:Drivers/STM32WLxx_HAL_Driver/Src/stm32wlxx_hal_pwr_ex.c ****   *         the minimum operating condition between two supply voltage samples,
