ARM GAS  C:\Users\NATHAN~1\AppData\Local\Temp\ccImtOWI.s 			page 1


   1              		.cpu cortex-m4
   2              		.arch armv7e-m
   3              		.fpu softvfp
   4              		.eabi_attribute 20, 1
   5              		.eabi_attribute 21, 1
   6              		.eabi_attribute 23, 3
   7              		.eabi_attribute 24, 1
   8              		.eabi_attribute 25, 1
   9              		.eabi_attribute 26, 1
  10              		.eabi_attribute 30, 1
  11              		.eabi_attribute 34, 1
  12              		.eabi_attribute 18, 4
  13              		.file	"stm32_adv_trace.c"
  14              		.text
  15              	.Ltext0:
  16              		.cfi_sections	.debug_frame
  17              		.section	.text.TRACE_AllocateBufer,"ax",%progbits
  18              		.align	1
  19              		.syntax unified
  20              		.thumb
  21              		.thumb_func
  23              	TRACE_AllocateBufer:
  24              	.LVL0:
  25              	.LFB129:
  26              		.file 1 "Utilities/trace/adv_trace/stm32_adv_trace.c"
   1:Utilities/trace/adv_trace/stm32_adv_trace.c **** /**
   2:Utilities/trace/adv_trace/stm32_adv_trace.c ****  ******************************************************************************
   3:Utilities/trace/adv_trace/stm32_adv_trace.c ****  * @file    stm32_adv_trace.c
   4:Utilities/trace/adv_trace/stm32_adv_trace.c ****  * @author  MCD Application Team
   5:Utilities/trace/adv_trace/stm32_adv_trace.c ****  * @brief   This file contains the advanced trace utility functions.
   6:Utilities/trace/adv_trace/stm32_adv_trace.c ****  ******************************************************************************
   7:Utilities/trace/adv_trace/stm32_adv_trace.c ****  * @attention
   8:Utilities/trace/adv_trace/stm32_adv_trace.c ****  *
   9:Utilities/trace/adv_trace/stm32_adv_trace.c ****  * <h2><center>&copy; Copyright (c) 2019 STMicroelectronics.
  10:Utilities/trace/adv_trace/stm32_adv_trace.c ****  * All rights reserved.</center></h2>
  11:Utilities/trace/adv_trace/stm32_adv_trace.c ****  *
  12:Utilities/trace/adv_trace/stm32_adv_trace.c ****  * This software component is licensed by ST under BSD 3-Clause license,
  13:Utilities/trace/adv_trace/stm32_adv_trace.c ****  * the "License"; You may not use this file except in compliance with the
  14:Utilities/trace/adv_trace/stm32_adv_trace.c ****  * License. You may obtain a copy of the License at:
  15:Utilities/trace/adv_trace/stm32_adv_trace.c ****  *                        opensource.org/licenses/BSD-3-Clause
  16:Utilities/trace/adv_trace/stm32_adv_trace.c ****  *
  17:Utilities/trace/adv_trace/stm32_adv_trace.c ****  ******************************************************************************
  18:Utilities/trace/adv_trace/stm32_adv_trace.c ****  */
  19:Utilities/trace/adv_trace/stm32_adv_trace.c **** 
  20:Utilities/trace/adv_trace/stm32_adv_trace.c **** /* Includes ------------------------------------------------------------------*/
  21:Utilities/trace/adv_trace/stm32_adv_trace.c **** #include "stm32_adv_trace.h"
  22:Utilities/trace/adv_trace/stm32_adv_trace.c **** #include "stdarg.h"
  23:Utilities/trace/adv_trace/stm32_adv_trace.c **** #include "stdio.h"
  24:Utilities/trace/adv_trace/stm32_adv_trace.c **** 
  25:Utilities/trace/adv_trace/stm32_adv_trace.c **** /** @addtogroup ADV_TRACE
  26:Utilities/trace/adv_trace/stm32_adv_trace.c ****  * @{
  27:Utilities/trace/adv_trace/stm32_adv_trace.c ****  */
  28:Utilities/trace/adv_trace/stm32_adv_trace.c **** 
  29:Utilities/trace/adv_trace/stm32_adv_trace.c **** /* Private defines -----------------------------------------------------------*/
  30:Utilities/trace/adv_trace/stm32_adv_trace.c **** 
  31:Utilities/trace/adv_trace/stm32_adv_trace.c **** /** @defgroup ADV_TRACE_Private_defines ADV_TRACE Privates defines
  32:Utilities/trace/adv_trace/stm32_adv_trace.c ****  *  @{
ARM GAS  C:\Users\NATHAN~1\AppData\Local\Temp\ccImtOWI.s 			page 2


  33:Utilities/trace/adv_trace/stm32_adv_trace.c ****  */
  34:Utilities/trace/adv_trace/stm32_adv_trace.c **** 
  35:Utilities/trace/adv_trace/stm32_adv_trace.c **** /**
  36:Utilities/trace/adv_trace/stm32_adv_trace.c ****  *  @brief  memory address of the trace buffer location.
  37:Utilities/trace/adv_trace/stm32_adv_trace.c ****  *  This define can be used, to change the buffer location.
  38:Utilities/trace/adv_trace/stm32_adv_trace.c ****  *
  39:Utilities/trace/adv_trace/stm32_adv_trace.c ****  */
  40:Utilities/trace/adv_trace/stm32_adv_trace.c **** #if !defined(UTIL_ADV_TRACE_MEMLOCATION)
  41:Utilities/trace/adv_trace/stm32_adv_trace.c **** #define UTIL_ADV_TRACE_MEMLOCATION
  42:Utilities/trace/adv_trace/stm32_adv_trace.c **** #endif
  43:Utilities/trace/adv_trace/stm32_adv_trace.c **** 
  44:Utilities/trace/adv_trace/stm32_adv_trace.c **** #if defined(UTIL_ADV_TRACE_OVERRUN)
  45:Utilities/trace/adv_trace/stm32_adv_trace.c **** /**
  46:Utilities/trace/adv_trace/stm32_adv_trace.c ****  *  @brief  List the overrun status.
  47:Utilities/trace/adv_trace/stm32_adv_trace.c ****  *  list of the overrun status used to handle the overrun trace evacuation.
  48:Utilities/trace/adv_trace/stm32_adv_trace.c ****  *
  49:Utilities/trace/adv_trace/stm32_adv_trace.c ****  *  @note only valid if UTIL_ADV_TRACE_OVERRUN has been enabled inside utilities conf
  50:Utilities/trace/adv_trace/stm32_adv_trace.c ****  */
  51:Utilities/trace/adv_trace/stm32_adv_trace.c **** typedef enum {
  52:Utilities/trace/adv_trace/stm32_adv_trace.c ****   TRACE_OVERRUN_NONE = 0, /*!<overrun status none.                        */
  53:Utilities/trace/adv_trace/stm32_adv_trace.c ****   TRACE_OVERRUN_INDICATION, /*!<overrun status an indication shall be sent. */
  54:Utilities/trace/adv_trace/stm32_adv_trace.c ****   TRACE_OVERRUN_TRANSFERT, /*!<overrun status data transfer ongoing.       */
  55:Utilities/trace/adv_trace/stm32_adv_trace.c ****   TRACE_OVERRUN_EXECUTED, /*!<overrun status data transfer complete.      */
  56:Utilities/trace/adv_trace/stm32_adv_trace.c **** } TRACE_OVERRUN_STATUS;
  57:Utilities/trace/adv_trace/stm32_adv_trace.c **** #endif
  58:Utilities/trace/adv_trace/stm32_adv_trace.c **** 
  59:Utilities/trace/adv_trace/stm32_adv_trace.c **** #if defined(UTIL_ADV_TRACE_UNCHUNK_MODE)
  60:Utilities/trace/adv_trace/stm32_adv_trace.c **** /**
  61:Utilities/trace/adv_trace/stm32_adv_trace.c ****  *  @brief  List the unchunk status.
  62:Utilities/trace/adv_trace/stm32_adv_trace.c ****  *  list of the unchunk status used to handle the unchunk case.
  63:Utilities/trace/adv_trace/stm32_adv_trace.c ****  *
  64:Utilities/trace/adv_trace/stm32_adv_trace.c ****  *  @note only valid if UTIL_ADV_TRACE_UNCHUNK_MODE has been enabled inside utilities conf
  65:Utilities/trace/adv_trace/stm32_adv_trace.c ****  */
  66:Utilities/trace/adv_trace/stm32_adv_trace.c **** typedef enum {
  67:Utilities/trace/adv_trace/stm32_adv_trace.c ****   TRACE_UNCHUNK_NONE = 0,     /*!<unchunk status none.                            */
  68:Utilities/trace/adv_trace/stm32_adv_trace.c ****   TRACE_UNCHUNK_DETECTED,     /*!<unchunk status an unchunk has been detected.    */
  69:Utilities/trace/adv_trace/stm32_adv_trace.c ****   TRACE_UNCHUNK_TRANSFER      /*!<unchunk status an unchunk transfer is ongoing. */
  70:Utilities/trace/adv_trace/stm32_adv_trace.c **** } TRACE_UNCHUNK_STATUS;
  71:Utilities/trace/adv_trace/stm32_adv_trace.c **** #endif
  72:Utilities/trace/adv_trace/stm32_adv_trace.c **** /**
  73:Utilities/trace/adv_trace/stm32_adv_trace.c ****  * @}
  74:Utilities/trace/adv_trace/stm32_adv_trace.c ****  */
  75:Utilities/trace/adv_trace/stm32_adv_trace.c **** 
  76:Utilities/trace/adv_trace/stm32_adv_trace.c **** /**
  77:Utilities/trace/adv_trace/stm32_adv_trace.c ****  *  @brief  advanced macro to override to enable debug mode
  78:Utilities/trace/adv_trace/stm32_adv_trace.c ****  */
  79:Utilities/trace/adv_trace/stm32_adv_trace.c **** #ifndef UTIL_ADV_TRACE_DEBUG
  80:Utilities/trace/adv_trace/stm32_adv_trace.c **** #define UTIL_ADV_TRACE_DEBUG(...)
  81:Utilities/trace/adv_trace/stm32_adv_trace.c **** #endif
  82:Utilities/trace/adv_trace/stm32_adv_trace.c **** /* Private macros ------------------------------------------------------------*/
  83:Utilities/trace/adv_trace/stm32_adv_trace.c **** /* Private typedef -----------------------------------------------------------*/
  84:Utilities/trace/adv_trace/stm32_adv_trace.c **** 
  85:Utilities/trace/adv_trace/stm32_adv_trace.c **** /** @defgroup ADV_TRACE_private_typedef ADV_TRACE private typedef
  86:Utilities/trace/adv_trace/stm32_adv_trace.c ****  *  @{
  87:Utilities/trace/adv_trace/stm32_adv_trace.c ****  */
  88:Utilities/trace/adv_trace/stm32_adv_trace.c **** 
  89:Utilities/trace/adv_trace/stm32_adv_trace.c **** /**
ARM GAS  C:\Users\NATHAN~1\AppData\Local\Temp\ccImtOWI.s 			page 3


  90:Utilities/trace/adv_trace/stm32_adv_trace.c ****  *  @brief  ADV_TRACE_Context.
  91:Utilities/trace/adv_trace/stm32_adv_trace.c ****  *  this structure contains all the data to handle the trace context.
  92:Utilities/trace/adv_trace/stm32_adv_trace.c ****  *
  93:Utilities/trace/adv_trace/stm32_adv_trace.c ****  *  @note some part of the context are depend with the selected switch inside the configuration fil
  94:Utilities/trace/adv_trace/stm32_adv_trace.c ****  *  UTIL_ADV_TRACE_UNCHUNK_MODE, UTIL_ADV_TRACE_OVERRUN, UTIL_ADV_TRACE_CONDITIONNAL
  95:Utilities/trace/adv_trace/stm32_adv_trace.c ****  */
  96:Utilities/trace/adv_trace/stm32_adv_trace.c **** typedef struct {
  97:Utilities/trace/adv_trace/stm32_adv_trace.c **** #if defined(UTIL_ADV_TRACE_UNCHUNK_MODE)
  98:Utilities/trace/adv_trace/stm32_adv_trace.c ****   uint16_t unchunk_enabled;                              /*!<unchunk enable.                       
  99:Utilities/trace/adv_trace/stm32_adv_trace.c ****   TRACE_UNCHUNK_STATUS unchunk_status;                   /*!<unchunk transfer status.              
 100:Utilities/trace/adv_trace/stm32_adv_trace.c **** #endif
 101:Utilities/trace/adv_trace/stm32_adv_trace.c **** #if defined(UTIL_ADV_TRACE_OVERRUN)
 102:Utilities/trace/adv_trace/stm32_adv_trace.c ****   TRACE_OVERRUN_STATUS OverRunStatus;                    /*!<overrun status.                       
 103:Utilities/trace/adv_trace/stm32_adv_trace.c ****   cb_overrun *overrun_func;                               /*!<overrun function                     
 104:Utilities/trace/adv_trace/stm32_adv_trace.c **** #endif
 105:Utilities/trace/adv_trace/stm32_adv_trace.c **** #if defined(UTIL_ADV_TRACE_CONDITIONNAL)
 106:Utilities/trace/adv_trace/stm32_adv_trace.c ****   cb_timestamp *timestamp_func; /*!<ptr of function used to insert time stamp.        */
 107:Utilities/trace/adv_trace/stm32_adv_trace.c ****   uint8_t  CurrentVerboseLevel; /*!<verbose level used.                                */
 108:Utilities/trace/adv_trace/stm32_adv_trace.c ****   uint32_t RegionMask; /*!<mask of the enabled region.                                */
 109:Utilities/trace/adv_trace/stm32_adv_trace.c **** #endif
 110:Utilities/trace/adv_trace/stm32_adv_trace.c ****   uint16_t TraceRdPtr; /*!<read pointer the trace system.                             */
 111:Utilities/trace/adv_trace/stm32_adv_trace.c ****   uint16_t TraceWrPtr; /*!<write pointer the trace system.                            */
 112:Utilities/trace/adv_trace/stm32_adv_trace.c ****   uint16_t TraceSentSize; /*!<size of the latest transfer.                            */
 113:Utilities/trace/adv_trace/stm32_adv_trace.c ****   uint16_t TraceLock; /*!<lock counter of the trace system.                           */
 114:Utilities/trace/adv_trace/stm32_adv_trace.c **** } ADV_TRACE_Context;
 115:Utilities/trace/adv_trace/stm32_adv_trace.c **** 
 116:Utilities/trace/adv_trace/stm32_adv_trace.c **** /**
 117:Utilities/trace/adv_trace/stm32_adv_trace.c ****  *  @}
 118:Utilities/trace/adv_trace/stm32_adv_trace.c ****  */
 119:Utilities/trace/adv_trace/stm32_adv_trace.c **** 
 120:Utilities/trace/adv_trace/stm32_adv_trace.c **** /* Private variables ---------------------------------------------------------*/
 121:Utilities/trace/adv_trace/stm32_adv_trace.c **** /** @defgroup ADV_TRACE_private_variable ADV_TRACE private variable
 122:Utilities/trace/adv_trace/stm32_adv_trace.c ****  * private variable of the advanced trace system.
 123:Utilities/trace/adv_trace/stm32_adv_trace.c ****  *  @{
 124:Utilities/trace/adv_trace/stm32_adv_trace.c ****  */
 125:Utilities/trace/adv_trace/stm32_adv_trace.c **** 
 126:Utilities/trace/adv_trace/stm32_adv_trace.c **** /**
 127:Utilities/trace/adv_trace/stm32_adv_trace.c ****  * @brief trace context
 128:Utilities/trace/adv_trace/stm32_adv_trace.c ****  * this variable contains all the internal data of the advanced trace system.
 129:Utilities/trace/adv_trace/stm32_adv_trace.c ****  */
 130:Utilities/trace/adv_trace/stm32_adv_trace.c **** static ADV_TRACE_Context ADV_TRACE_Ctx;
 131:Utilities/trace/adv_trace/stm32_adv_trace.c **** static UTIL_ADV_TRACE_MEMLOCATION uint8_t ADV_TRACE_Buffer[UTIL_ADV_TRACE_FIFO_SIZE];
 132:Utilities/trace/adv_trace/stm32_adv_trace.c **** 
 133:Utilities/trace/adv_trace/stm32_adv_trace.c **** #if defined(UTIL_ADV_TRACE_CONDITIONNAL) && defined(UTIL_ADV_TRACE_UNCHUNK_MODE)
 134:Utilities/trace/adv_trace/stm32_adv_trace.c **** /**
 135:Utilities/trace/adv_trace/stm32_adv_trace.c ****  * @brief temporary buffer used by UTIL_ADV_TRACE_COND_FSend
 136:Utilities/trace/adv_trace/stm32_adv_trace.c ****  * a temporary buffers variable used to evaluate a formatted string size.
 137:Utilities/trace/adv_trace/stm32_adv_trace.c ****  */
 138:Utilities/trace/adv_trace/stm32_adv_trace.c **** static uint8_t sztmp[UTIL_ADV_TRACE_TMP_BUF_SIZE];
 139:Utilities/trace/adv_trace/stm32_adv_trace.c **** #endif
 140:Utilities/trace/adv_trace/stm32_adv_trace.c **** /**
 141:Utilities/trace/adv_trace/stm32_adv_trace.c ****  * @}
 142:Utilities/trace/adv_trace/stm32_adv_trace.c ****  */
 143:Utilities/trace/adv_trace/stm32_adv_trace.c **** 
 144:Utilities/trace/adv_trace/stm32_adv_trace.c **** /* Private function prototypes -----------------------------------------------*/
 145:Utilities/trace/adv_trace/stm32_adv_trace.c **** /** @defgroup ADV_TRACE_private_function ADV_TRACE private function
 146:Utilities/trace/adv_trace/stm32_adv_trace.c ****  *
ARM GAS  C:\Users\NATHAN~1\AppData\Local\Temp\ccImtOWI.s 			page 4


 147:Utilities/trace/adv_trace/stm32_adv_trace.c ****  *  @{
 148:Utilities/trace/adv_trace/stm32_adv_trace.c ****  */
 149:Utilities/trace/adv_trace/stm32_adv_trace.c **** static void TRACE_TxCpltCallback(void *Ptr);
 150:Utilities/trace/adv_trace/stm32_adv_trace.c **** static int16_t TRACE_AllocateBufer(uint16_t Size, uint16_t *Pos);
 151:Utilities/trace/adv_trace/stm32_adv_trace.c **** static UTIL_ADV_TRACE_Status_t TRACE_Send(void);
 152:Utilities/trace/adv_trace/stm32_adv_trace.c **** 
 153:Utilities/trace/adv_trace/stm32_adv_trace.c **** static void TRACE_Lock(void);
 154:Utilities/trace/adv_trace/stm32_adv_trace.c **** static void TRACE_UnLock(void);
 155:Utilities/trace/adv_trace/stm32_adv_trace.c **** static uint32_t TRACE_IsLocked(void);
 156:Utilities/trace/adv_trace/stm32_adv_trace.c **** 
 157:Utilities/trace/adv_trace/stm32_adv_trace.c **** /**
 158:Utilities/trace/adv_trace/stm32_adv_trace.c ****  * @}
 159:Utilities/trace/adv_trace/stm32_adv_trace.c ****  */
 160:Utilities/trace/adv_trace/stm32_adv_trace.c **** 
 161:Utilities/trace/adv_trace/stm32_adv_trace.c **** /* Functions Definition ------------------------------------------------------*/
 162:Utilities/trace/adv_trace/stm32_adv_trace.c **** 
 163:Utilities/trace/adv_trace/stm32_adv_trace.c **** /** @addtogroup ADV_TRACE_exported_function
 164:Utilities/trace/adv_trace/stm32_adv_trace.c ****  *  @{
 165:Utilities/trace/adv_trace/stm32_adv_trace.c ****  */
 166:Utilities/trace/adv_trace/stm32_adv_trace.c **** UTIL_ADV_TRACE_Status_t UTIL_ADV_TRACE_Init(void)
 167:Utilities/trace/adv_trace/stm32_adv_trace.c **** {
 168:Utilities/trace/adv_trace/stm32_adv_trace.c ****   /* initialize the Ptr for Read/Write */
 169:Utilities/trace/adv_trace/stm32_adv_trace.c ****   (void)UTIL_ADV_TRACE_MEMSET8(&ADV_TRACE_Ctx, 0x0, sizeof(ADV_TRACE_Context));
 170:Utilities/trace/adv_trace/stm32_adv_trace.c ****   (void)UTIL_ADV_TRACE_MEMSET8(&ADV_TRACE_Buffer, 0x0, sizeof(ADV_TRACE_Buffer));
 171:Utilities/trace/adv_trace/stm32_adv_trace.c **** 
 172:Utilities/trace/adv_trace/stm32_adv_trace.c **** #if defined(UTIL_ADV_TRACE_UNCHUNK_MODE)
 173:Utilities/trace/adv_trace/stm32_adv_trace.c ****   UTIL_ADV_TRACE_DEBUG("\nUNCHUNK_MODE\n");
 174:Utilities/trace/adv_trace/stm32_adv_trace.c **** #endif
 175:Utilities/trace/adv_trace/stm32_adv_trace.c ****   /* Allocate Lock resource */
 176:Utilities/trace/adv_trace/stm32_adv_trace.c ****   UTIL_ADV_TRACE_INIT_CRITICAL_SECTION();
 177:Utilities/trace/adv_trace/stm32_adv_trace.c **** 
 178:Utilities/trace/adv_trace/stm32_adv_trace.c ****   /* Initialize the Low Level interface */
 179:Utilities/trace/adv_trace/stm32_adv_trace.c ****   return UTIL_TraceDriver.Init(TRACE_TxCpltCallback);
 180:Utilities/trace/adv_trace/stm32_adv_trace.c **** }
 181:Utilities/trace/adv_trace/stm32_adv_trace.c **** 
 182:Utilities/trace/adv_trace/stm32_adv_trace.c **** UTIL_ADV_TRACE_Status_t UTIL_ADV_TRACE_DeInit(void)
 183:Utilities/trace/adv_trace/stm32_adv_trace.c **** {
 184:Utilities/trace/adv_trace/stm32_adv_trace.c ****   /* Un-initialize the Low Level interface */
 185:Utilities/trace/adv_trace/stm32_adv_trace.c ****   return UTIL_TraceDriver.DeInit();
 186:Utilities/trace/adv_trace/stm32_adv_trace.c **** }
 187:Utilities/trace/adv_trace/stm32_adv_trace.c **** 
 188:Utilities/trace/adv_trace/stm32_adv_trace.c **** uint8_t UTIL_ADV_TRACE_IsBufferEmpty(void)
 189:Utilities/trace/adv_trace/stm32_adv_trace.c **** {
 190:Utilities/trace/adv_trace/stm32_adv_trace.c ****   /* check of the buffer is empty */
 191:Utilities/trace/adv_trace/stm32_adv_trace.c ****   if(ADV_TRACE_Ctx.TraceWrPtr == ADV_TRACE_Ctx.TraceRdPtr)
 192:Utilities/trace/adv_trace/stm32_adv_trace.c ****     return 1;
 193:Utilities/trace/adv_trace/stm32_adv_trace.c ****   return 0;
 194:Utilities/trace/adv_trace/stm32_adv_trace.c **** }
 195:Utilities/trace/adv_trace/stm32_adv_trace.c **** 
 196:Utilities/trace/adv_trace/stm32_adv_trace.c **** UTIL_ADV_TRACE_Status_t UTIL_ADV_TRACE_StartRxProcess(void (*UserCallback)(uint8_t *PData, uint16_t
 197:Utilities/trace/adv_trace/stm32_adv_trace.c **** {
 198:Utilities/trace/adv_trace/stm32_adv_trace.c ****   /* start the RX process */
 199:Utilities/trace/adv_trace/stm32_adv_trace.c ****   return UTIL_TraceDriver.StartRx(UserCallback);
 200:Utilities/trace/adv_trace/stm32_adv_trace.c **** }
 201:Utilities/trace/adv_trace/stm32_adv_trace.c **** 
 202:Utilities/trace/adv_trace/stm32_adv_trace.c **** #if defined(UTIL_ADV_TRACE_CONDITIONNAL)
 203:Utilities/trace/adv_trace/stm32_adv_trace.c **** UTIL_ADV_TRACE_Status_t UTIL_ADV_TRACE_COND_FSend(uint32_t VerboseLevel, uint32_t Region, uint32_t 
ARM GAS  C:\Users\NATHAN~1\AppData\Local\Temp\ccImtOWI.s 			page 5


 204:Utilities/trace/adv_trace/stm32_adv_trace.c **** {
 205:Utilities/trace/adv_trace/stm32_adv_trace.c ****   va_list vaArgs;
 206:Utilities/trace/adv_trace/stm32_adv_trace.c **** #if defined(UTIL_ADV_TRACE_UNCHUNK_MODE)
 207:Utilities/trace/adv_trace/stm32_adv_trace.c ****   uint8_t buf[UTIL_ADV_TRACE_TMP_MAX_TIMESTMAP_SIZE];
 208:Utilities/trace/adv_trace/stm32_adv_trace.c ****   uint16_t timestamp_size = 0u;
 209:Utilities/trace/adv_trace/stm32_adv_trace.c ****   uint16_t writepos;
 210:Utilities/trace/adv_trace/stm32_adv_trace.c ****   uint16_t idx;
 211:Utilities/trace/adv_trace/stm32_adv_trace.c **** #else
 212:Utilities/trace/adv_trace/stm32_adv_trace.c ****   uint8_t buf[UTIL_ADV_TRACE_TMP_BUF_SIZE+UTIL_ADV_TRACE_TMP_MAX_TIMESTMAP_SIZE];
 213:Utilities/trace/adv_trace/stm32_adv_trace.c **** #endif
 214:Utilities/trace/adv_trace/stm32_adv_trace.c ****   uint16_t buff_size = 0u;
 215:Utilities/trace/adv_trace/stm32_adv_trace.c **** 
 216:Utilities/trace/adv_trace/stm32_adv_trace.c ****   /* check verbose level */
 217:Utilities/trace/adv_trace/stm32_adv_trace.c ****   if(!(ADV_TRACE_Ctx.CurrentVerboseLevel >= VerboseLevel))
 218:Utilities/trace/adv_trace/stm32_adv_trace.c ****   {
 219:Utilities/trace/adv_trace/stm32_adv_trace.c ****     return UTIL_ADV_TRACE_GIVEUP;
 220:Utilities/trace/adv_trace/stm32_adv_trace.c ****   }
 221:Utilities/trace/adv_trace/stm32_adv_trace.c **** 
 222:Utilities/trace/adv_trace/stm32_adv_trace.c ****   if((Region & ADV_TRACE_Ctx.RegionMask) != Region)
 223:Utilities/trace/adv_trace/stm32_adv_trace.c ****   {
 224:Utilities/trace/adv_trace/stm32_adv_trace.c ****     return UTIL_ADV_TRACE_REGIONMASKED;
 225:Utilities/trace/adv_trace/stm32_adv_trace.c ****   }
 226:Utilities/trace/adv_trace/stm32_adv_trace.c **** 
 227:Utilities/trace/adv_trace/stm32_adv_trace.c **** #if defined(UTIL_ADV_TRACE_UNCHUNK_MODE)
 228:Utilities/trace/adv_trace/stm32_adv_trace.c ****   if((ADV_TRACE_Ctx.timestamp_func != NULL) && (TimeStampState != 0u))
 229:Utilities/trace/adv_trace/stm32_adv_trace.c ****   {
 230:Utilities/trace/adv_trace/stm32_adv_trace.c ****     ADV_TRACE_Ctx.timestamp_func(buf,&timestamp_size);
 231:Utilities/trace/adv_trace/stm32_adv_trace.c ****   }
 232:Utilities/trace/adv_trace/stm32_adv_trace.c **** 
 233:Utilities/trace/adv_trace/stm32_adv_trace.c ****   va_start( vaArgs, strFormat);
 234:Utilities/trace/adv_trace/stm32_adv_trace.c ****   buff_size =(uint16_t)UTIL_ADV_TRACE_VSNPRINTF((char *)sztmp,UTIL_ADV_TRACE_TMP_BUF_SIZE, strForma
 235:Utilities/trace/adv_trace/stm32_adv_trace.c **** 
 236:Utilities/trace/adv_trace/stm32_adv_trace.c ****   TRACE_Lock();
 237:Utilities/trace/adv_trace/stm32_adv_trace.c **** 
 238:Utilities/trace/adv_trace/stm32_adv_trace.c ****   /* if allocation is ok, write data into the buffer */
 239:Utilities/trace/adv_trace/stm32_adv_trace.c ****   if (TRACE_AllocateBufer((buff_size+timestamp_size),&writepos) != -1)
 240:Utilities/trace/adv_trace/stm32_adv_trace.c ****   {
 241:Utilities/trace/adv_trace/stm32_adv_trace.c **** #if defined(UTIL_ADV_TRACE_OVERRUN)
 242:Utilities/trace/adv_trace/stm32_adv_trace.c ****     UTIL_ADV_TRACE_ENTER_CRITICAL_SECTION();
 243:Utilities/trace/adv_trace/stm32_adv_trace.c ****     if(ADV_TRACE_Ctx.OverRunStatus == TRACE_OVERRUN_EXECUTED)
 244:Utilities/trace/adv_trace/stm32_adv_trace.c ****     {
 245:Utilities/trace/adv_trace/stm32_adv_trace.c ****       /* clear the over run */
 246:Utilities/trace/adv_trace/stm32_adv_trace.c ****       ADV_TRACE_Ctx.OverRunStatus = TRACE_OVERRUN_NONE;
 247:Utilities/trace/adv_trace/stm32_adv_trace.c ****     }
 248:Utilities/trace/adv_trace/stm32_adv_trace.c ****     UTIL_ADV_TRACE_EXIT_CRITICAL_SECTION();
 249:Utilities/trace/adv_trace/stm32_adv_trace.c **** #endif
 250:Utilities/trace/adv_trace/stm32_adv_trace.c **** 
 251:Utilities/trace/adv_trace/stm32_adv_trace.c ****     /* copy the timestamp */
 252:Utilities/trace/adv_trace/stm32_adv_trace.c ****     for (idx = 0u; idx < timestamp_size; idx++)
 253:Utilities/trace/adv_trace/stm32_adv_trace.c ****     {
 254:Utilities/trace/adv_trace/stm32_adv_trace.c ****       ADV_TRACE_Buffer[writepos] = buf[idx];
 255:Utilities/trace/adv_trace/stm32_adv_trace.c ****       writepos = writepos + 1u;
 256:Utilities/trace/adv_trace/stm32_adv_trace.c ****     }
 257:Utilities/trace/adv_trace/stm32_adv_trace.c **** 
 258:Utilities/trace/adv_trace/stm32_adv_trace.c ****     /* copy the data */
 259:Utilities/trace/adv_trace/stm32_adv_trace.c ****     (void)UTIL_ADV_TRACE_VSNPRINTF((char *)(&ADV_TRACE_Buffer[writepos]), UTIL_ADV_TRACE_TMP_BUF_SI
 260:Utilities/trace/adv_trace/stm32_adv_trace.c ****     va_end(vaArgs);
ARM GAS  C:\Users\NATHAN~1\AppData\Local\Temp\ccImtOWI.s 			page 6


 261:Utilities/trace/adv_trace/stm32_adv_trace.c **** 
 262:Utilities/trace/adv_trace/stm32_adv_trace.c ****     TRACE_UnLock();
 263:Utilities/trace/adv_trace/stm32_adv_trace.c **** 
 264:Utilities/trace/adv_trace/stm32_adv_trace.c ****     return TRACE_Send();
 265:Utilities/trace/adv_trace/stm32_adv_trace.c ****   }
 266:Utilities/trace/adv_trace/stm32_adv_trace.c **** 
 267:Utilities/trace/adv_trace/stm32_adv_trace.c ****   va_end(vaArgs);
 268:Utilities/trace/adv_trace/stm32_adv_trace.c ****   TRACE_UnLock();
 269:Utilities/trace/adv_trace/stm32_adv_trace.c **** #if defined(UTIL_ADV_TRACE_OVERRUN)
 270:Utilities/trace/adv_trace/stm32_adv_trace.c ****   UTIL_ADV_TRACE_ENTER_CRITICAL_SECTION();
 271:Utilities/trace/adv_trace/stm32_adv_trace.c ****   if((ADV_TRACE_Ctx.OverRunStatus == TRACE_OVERRUN_NONE ) && (NULL != ADV_TRACE_Ctx.overrun_func))
 272:Utilities/trace/adv_trace/stm32_adv_trace.c ****   {
 273:Utilities/trace/adv_trace/stm32_adv_trace.c ****     UTIL_ADV_TRACE_DEBUG("UTIL_ADV_TRACE_Send:TRACE_OVERRUN_INDICATION");
 274:Utilities/trace/adv_trace/stm32_adv_trace.c ****     ADV_TRACE_Ctx.OverRunStatus = TRACE_OVERRUN_INDICATION;
 275:Utilities/trace/adv_trace/stm32_adv_trace.c ****   }
 276:Utilities/trace/adv_trace/stm32_adv_trace.c ****   UTIL_ADV_TRACE_EXIT_CRITICAL_SECTION();
 277:Utilities/trace/adv_trace/stm32_adv_trace.c **** #endif
 278:Utilities/trace/adv_trace/stm32_adv_trace.c **** 
 279:Utilities/trace/adv_trace/stm32_adv_trace.c ****   return UTIL_ADV_TRACE_MEM_FULL;
 280:Utilities/trace/adv_trace/stm32_adv_trace.c **** 
 281:Utilities/trace/adv_trace/stm32_adv_trace.c **** #else
 282:Utilities/trace/adv_trace/stm32_adv_trace.c ****   if((ADV_TRACE_Ctx.timestamp_func != NULL) && (TimeStampState != 0u))
 283:Utilities/trace/adv_trace/stm32_adv_trace.c ****   {
 284:Utilities/trace/adv_trace/stm32_adv_trace.c ****     ADV_TRACE_Ctx.timestamp_func(buf,&buff_size);
 285:Utilities/trace/adv_trace/stm32_adv_trace.c ****   }
 286:Utilities/trace/adv_trace/stm32_adv_trace.c **** 
 287:Utilities/trace/adv_trace/stm32_adv_trace.c ****   va_start(vaArgs, strFormat);
 288:Utilities/trace/adv_trace/stm32_adv_trace.c ****   buff_size += (uint16_t) UTIL_ADV_TRACE_VSNPRINTF((char* )(buf + buff_size), UTIL_ADV_TRACE_TMP_BU
 289:Utilities/trace/adv_trace/stm32_adv_trace.c ****   va_end(vaArgs);
 290:Utilities/trace/adv_trace/stm32_adv_trace.c **** 
 291:Utilities/trace/adv_trace/stm32_adv_trace.c ****   return UTIL_ADV_TRACE_Send(buf, buff_size);
 292:Utilities/trace/adv_trace/stm32_adv_trace.c **** #endif
 293:Utilities/trace/adv_trace/stm32_adv_trace.c **** }
 294:Utilities/trace/adv_trace/stm32_adv_trace.c **** #endif
 295:Utilities/trace/adv_trace/stm32_adv_trace.c **** 
 296:Utilities/trace/adv_trace/stm32_adv_trace.c **** UTIL_ADV_TRACE_Status_t UTIL_ADV_TRACE_FSend(const char *strFormat, ...)
 297:Utilities/trace/adv_trace/stm32_adv_trace.c **** {
 298:Utilities/trace/adv_trace/stm32_adv_trace.c ****   uint8_t buf[UTIL_ADV_TRACE_TMP_BUF_SIZE];
 299:Utilities/trace/adv_trace/stm32_adv_trace.c ****   va_list vaArgs;
 300:Utilities/trace/adv_trace/stm32_adv_trace.c **** 
 301:Utilities/trace/adv_trace/stm32_adv_trace.c ****   va_start(vaArgs, strFormat);
 302:Utilities/trace/adv_trace/stm32_adv_trace.c ****   uint16_t bufSize = (uint16_t) UTIL_ADV_TRACE_VSNPRINTF((char* )buf, UTIL_ADV_TRACE_TMP_BUF_SIZE, 
 303:Utilities/trace/adv_trace/stm32_adv_trace.c ****   va_end(vaArgs);
 304:Utilities/trace/adv_trace/stm32_adv_trace.c **** 
 305:Utilities/trace/adv_trace/stm32_adv_trace.c ****   return UTIL_ADV_TRACE_Send(buf, bufSize);
 306:Utilities/trace/adv_trace/stm32_adv_trace.c **** }
 307:Utilities/trace/adv_trace/stm32_adv_trace.c **** 
 308:Utilities/trace/adv_trace/stm32_adv_trace.c **** #if defined(UTIL_ADV_TRACE_CONDITIONNAL)
 309:Utilities/trace/adv_trace/stm32_adv_trace.c **** UTIL_ADV_TRACE_Status_t UTIL_ADV_TRACE_COND_ZCSend_Allocation(uint32_t VerboseLevel, uint32_t Regio
 310:Utilities/trace/adv_trace/stm32_adv_trace.c **** {
 311:Utilities/trace/adv_trace/stm32_adv_trace.c ****   UTIL_ADV_TRACE_Status_t ret = UTIL_ADV_TRACE_OK;
 312:Utilities/trace/adv_trace/stm32_adv_trace.c ****   uint16_t writepos;
 313:Utilities/trace/adv_trace/stm32_adv_trace.c ****   uint8_t timestamp_ptr[UTIL_ADV_TRACE_TMP_MAX_TIMESTMAP_SIZE];
 314:Utilities/trace/adv_trace/stm32_adv_trace.c ****   uint16_t timestamp_size = 0u;
 315:Utilities/trace/adv_trace/stm32_adv_trace.c **** 
 316:Utilities/trace/adv_trace/stm32_adv_trace.c ****   /* check verbose level */
 317:Utilities/trace/adv_trace/stm32_adv_trace.c ****   if(!(ADV_TRACE_Ctx.CurrentVerboseLevel >= VerboseLevel))
ARM GAS  C:\Users\NATHAN~1\AppData\Local\Temp\ccImtOWI.s 			page 7


 318:Utilities/trace/adv_trace/stm32_adv_trace.c ****   {
 319:Utilities/trace/adv_trace/stm32_adv_trace.c ****     return UTIL_ADV_TRACE_GIVEUP;
 320:Utilities/trace/adv_trace/stm32_adv_trace.c ****   }
 321:Utilities/trace/adv_trace/stm32_adv_trace.c **** 
 322:Utilities/trace/adv_trace/stm32_adv_trace.c ****   if((Region & ADV_TRACE_Ctx.RegionMask) != Region)
 323:Utilities/trace/adv_trace/stm32_adv_trace.c ****   {
 324:Utilities/trace/adv_trace/stm32_adv_trace.c ****     return UTIL_ADV_TRACE_REGIONMASKED;
 325:Utilities/trace/adv_trace/stm32_adv_trace.c ****   }
 326:Utilities/trace/adv_trace/stm32_adv_trace.c **** 
 327:Utilities/trace/adv_trace/stm32_adv_trace.c ****   if((ADV_TRACE_Ctx.timestamp_func != NULL) && (TimeStampState != 0u))
 328:Utilities/trace/adv_trace/stm32_adv_trace.c ****   {
 329:Utilities/trace/adv_trace/stm32_adv_trace.c ****     ADV_TRACE_Ctx.timestamp_func(timestamp_ptr, &timestamp_size);
 330:Utilities/trace/adv_trace/stm32_adv_trace.c ****   }
 331:Utilities/trace/adv_trace/stm32_adv_trace.c **** 
 332:Utilities/trace/adv_trace/stm32_adv_trace.c ****   TRACE_Lock();
 333:Utilities/trace/adv_trace/stm32_adv_trace.c ****   
 334:Utilities/trace/adv_trace/stm32_adv_trace.c ****   /* if allocation is ok, write data into the buffer */
 335:Utilities/trace/adv_trace/stm32_adv_trace.c ****   if (TRACE_AllocateBufer(length+timestamp_size, &writepos) != -1)
 336:Utilities/trace/adv_trace/stm32_adv_trace.c ****   {
 337:Utilities/trace/adv_trace/stm32_adv_trace.c ****     /* fill time stamp information */
 338:Utilities/trace/adv_trace/stm32_adv_trace.c ****     for (uint16_t index = 0u; index < timestamp_size; index++)
 339:Utilities/trace/adv_trace/stm32_adv_trace.c ****     {
 340:Utilities/trace/adv_trace/stm32_adv_trace.c ****       ADV_TRACE_Buffer[writepos] = timestamp_ptr[index];
 341:Utilities/trace/adv_trace/stm32_adv_trace.c ****       writepos = (uint16_t) ((writepos + 1u) % UTIL_ADV_TRACE_FIFO_SIZE);
 342:Utilities/trace/adv_trace/stm32_adv_trace.c ****     }
 343:Utilities/trace/adv_trace/stm32_adv_trace.c **** 
 344:Utilities/trace/adv_trace/stm32_adv_trace.c ****     /*user fill */
 345:Utilities/trace/adv_trace/stm32_adv_trace.c ****     *pData = ADV_TRACE_Buffer;
 346:Utilities/trace/adv_trace/stm32_adv_trace.c ****     *FifoSize = (uint16_t) UTIL_ADV_TRACE_FIFO_SIZE;
 347:Utilities/trace/adv_trace/stm32_adv_trace.c ****     *WritePos = writepos;
 348:Utilities/trace/adv_trace/stm32_adv_trace.c ****   }
 349:Utilities/trace/adv_trace/stm32_adv_trace.c ****   else
 350:Utilities/trace/adv_trace/stm32_adv_trace.c ****   {
 351:Utilities/trace/adv_trace/stm32_adv_trace.c ****     TRACE_UnLock();
 352:Utilities/trace/adv_trace/stm32_adv_trace.c ****     ret = UTIL_ADV_TRACE_MEM_FULL;
 353:Utilities/trace/adv_trace/stm32_adv_trace.c ****   }
 354:Utilities/trace/adv_trace/stm32_adv_trace.c ****   return ret;
 355:Utilities/trace/adv_trace/stm32_adv_trace.c **** }
 356:Utilities/trace/adv_trace/stm32_adv_trace.c **** 
 357:Utilities/trace/adv_trace/stm32_adv_trace.c **** UTIL_ADV_TRACE_Status_t UTIL_ADV_TRACE_COND_ZCSend_Finalize(void)
 358:Utilities/trace/adv_trace/stm32_adv_trace.c **** {
 359:Utilities/trace/adv_trace/stm32_adv_trace.c ****   return UTIL_ADV_TRACE_ZCSend_Finalize();
 360:Utilities/trace/adv_trace/stm32_adv_trace.c **** }
 361:Utilities/trace/adv_trace/stm32_adv_trace.c **** #endif
 362:Utilities/trace/adv_trace/stm32_adv_trace.c **** 
 363:Utilities/trace/adv_trace/stm32_adv_trace.c **** UTIL_ADV_TRACE_Status_t UTIL_ADV_TRACE_ZCSend_Allocation(uint16_t Length, uint8_t **pData, uint16_t
 364:Utilities/trace/adv_trace/stm32_adv_trace.c **** {
 365:Utilities/trace/adv_trace/stm32_adv_trace.c ****   UTIL_ADV_TRACE_Status_t ret = UTIL_ADV_TRACE_OK;
 366:Utilities/trace/adv_trace/stm32_adv_trace.c ****   uint16_t writepos;
 367:Utilities/trace/adv_trace/stm32_adv_trace.c **** 
 368:Utilities/trace/adv_trace/stm32_adv_trace.c ****   TRACE_Lock();
 369:Utilities/trace/adv_trace/stm32_adv_trace.c **** 
 370:Utilities/trace/adv_trace/stm32_adv_trace.c ****   /* if allocation is ok, write data into the buffer */
 371:Utilities/trace/adv_trace/stm32_adv_trace.c ****   if (TRACE_AllocateBufer(Length,&writepos)  != -1)
 372:Utilities/trace/adv_trace/stm32_adv_trace.c ****   {
 373:Utilities/trace/adv_trace/stm32_adv_trace.c ****     /*user fill */
 374:Utilities/trace/adv_trace/stm32_adv_trace.c ****     *pData = ADV_TRACE_Buffer;
ARM GAS  C:\Users\NATHAN~1\AppData\Local\Temp\ccImtOWI.s 			page 8


 375:Utilities/trace/adv_trace/stm32_adv_trace.c ****     *FifoSize = UTIL_ADV_TRACE_FIFO_SIZE;
 376:Utilities/trace/adv_trace/stm32_adv_trace.c ****     *WritePos = (uint16_t)writepos;
 377:Utilities/trace/adv_trace/stm32_adv_trace.c ****   }
 378:Utilities/trace/adv_trace/stm32_adv_trace.c ****   else
 379:Utilities/trace/adv_trace/stm32_adv_trace.c ****   {
 380:Utilities/trace/adv_trace/stm32_adv_trace.c ****     TRACE_UnLock();
 381:Utilities/trace/adv_trace/stm32_adv_trace.c ****     ret = UTIL_ADV_TRACE_MEM_FULL;
 382:Utilities/trace/adv_trace/stm32_adv_trace.c ****   }
 383:Utilities/trace/adv_trace/stm32_adv_trace.c **** 
 384:Utilities/trace/adv_trace/stm32_adv_trace.c ****   return ret;
 385:Utilities/trace/adv_trace/stm32_adv_trace.c **** }
 386:Utilities/trace/adv_trace/stm32_adv_trace.c **** 
 387:Utilities/trace/adv_trace/stm32_adv_trace.c **** UTIL_ADV_TRACE_Status_t UTIL_ADV_TRACE_ZCSend_Finalize(void)
 388:Utilities/trace/adv_trace/stm32_adv_trace.c **** {
 389:Utilities/trace/adv_trace/stm32_adv_trace.c ****   TRACE_UnLock();
 390:Utilities/trace/adv_trace/stm32_adv_trace.c ****   return TRACE_Send();
 391:Utilities/trace/adv_trace/stm32_adv_trace.c **** }
 392:Utilities/trace/adv_trace/stm32_adv_trace.c **** 
 393:Utilities/trace/adv_trace/stm32_adv_trace.c **** #if defined(UTIL_ADV_TRACE_CONDITIONNAL)
 394:Utilities/trace/adv_trace/stm32_adv_trace.c **** UTIL_ADV_TRACE_Status_t UTIL_ADV_TRACE_COND_Send(uint32_t VerboseLevel, uint32_t Region, uint32_t T
 395:Utilities/trace/adv_trace/stm32_adv_trace.c **** {
 396:Utilities/trace/adv_trace/stm32_adv_trace.c ****   UTIL_ADV_TRACE_Status_t ret;
 397:Utilities/trace/adv_trace/stm32_adv_trace.c ****   uint16_t writepos;
 398:Utilities/trace/adv_trace/stm32_adv_trace.c ****   uint32_t idx;
 399:Utilities/trace/adv_trace/stm32_adv_trace.c ****   uint8_t timestamp_ptr[UTIL_ADV_TRACE_TMP_MAX_TIMESTMAP_SIZE];
 400:Utilities/trace/adv_trace/stm32_adv_trace.c ****   uint16_t timestamp_size = 0u;
 401:Utilities/trace/adv_trace/stm32_adv_trace.c **** 
 402:Utilities/trace/adv_trace/stm32_adv_trace.c ****   /* check verbose level */
 403:Utilities/trace/adv_trace/stm32_adv_trace.c ****   if(!(ADV_TRACE_Ctx.CurrentVerboseLevel >= VerboseLevel))
 404:Utilities/trace/adv_trace/stm32_adv_trace.c ****   {
 405:Utilities/trace/adv_trace/stm32_adv_trace.c ****     return UTIL_ADV_TRACE_GIVEUP;
 406:Utilities/trace/adv_trace/stm32_adv_trace.c ****   }
 407:Utilities/trace/adv_trace/stm32_adv_trace.c **** 
 408:Utilities/trace/adv_trace/stm32_adv_trace.c ****   if((Region & ADV_TRACE_Ctx.RegionMask) != Region)
 409:Utilities/trace/adv_trace/stm32_adv_trace.c ****   {
 410:Utilities/trace/adv_trace/stm32_adv_trace.c ****     return UTIL_ADV_TRACE_REGIONMASKED;
 411:Utilities/trace/adv_trace/stm32_adv_trace.c ****   }
 412:Utilities/trace/adv_trace/stm32_adv_trace.c **** 
 413:Utilities/trace/adv_trace/stm32_adv_trace.c ****   if((ADV_TRACE_Ctx.timestamp_func != NULL) && (TimeStampState != 0u))
 414:Utilities/trace/adv_trace/stm32_adv_trace.c ****   {
 415:Utilities/trace/adv_trace/stm32_adv_trace.c ****     ADV_TRACE_Ctx.timestamp_func(timestamp_ptr, &timestamp_size);
 416:Utilities/trace/adv_trace/stm32_adv_trace.c ****   }
 417:Utilities/trace/adv_trace/stm32_adv_trace.c **** 
 418:Utilities/trace/adv_trace/stm32_adv_trace.c ****   TRACE_Lock();
 419:Utilities/trace/adv_trace/stm32_adv_trace.c **** 
 420:Utilities/trace/adv_trace/stm32_adv_trace.c ****   /* if allocation is ok, write data into the buffer */
 421:Utilities/trace/adv_trace/stm32_adv_trace.c ****   if (TRACE_AllocateBufer(Length + timestamp_size, &writepos) != -1)
 422:Utilities/trace/adv_trace/stm32_adv_trace.c ****   {
 423:Utilities/trace/adv_trace/stm32_adv_trace.c ****     /* fill time stamp information */
 424:Utilities/trace/adv_trace/stm32_adv_trace.c ****     for (idx = 0; idx < timestamp_size; idx++)
 425:Utilities/trace/adv_trace/stm32_adv_trace.c ****     {
 426:Utilities/trace/adv_trace/stm32_adv_trace.c ****       ADV_TRACE_Buffer[writepos] = timestamp_ptr[idx];
 427:Utilities/trace/adv_trace/stm32_adv_trace.c ****       writepos = (uint16_t) ((writepos + 1u) % UTIL_ADV_TRACE_FIFO_SIZE);
 428:Utilities/trace/adv_trace/stm32_adv_trace.c ****     }
 429:Utilities/trace/adv_trace/stm32_adv_trace.c **** 
 430:Utilities/trace/adv_trace/stm32_adv_trace.c ****     for (idx = 0u; idx < Length; idx++)
 431:Utilities/trace/adv_trace/stm32_adv_trace.c ****     {
ARM GAS  C:\Users\NATHAN~1\AppData\Local\Temp\ccImtOWI.s 			page 9


 432:Utilities/trace/adv_trace/stm32_adv_trace.c ****       ADV_TRACE_Buffer[writepos] = pData[idx];
 433:Utilities/trace/adv_trace/stm32_adv_trace.c ****       writepos = (uint16_t) ((writepos + 1u) % UTIL_ADV_TRACE_FIFO_SIZE);
 434:Utilities/trace/adv_trace/stm32_adv_trace.c ****     }
 435:Utilities/trace/adv_trace/stm32_adv_trace.c **** 
 436:Utilities/trace/adv_trace/stm32_adv_trace.c ****     TRACE_UnLock();
 437:Utilities/trace/adv_trace/stm32_adv_trace.c ****     ret = TRACE_Send();
 438:Utilities/trace/adv_trace/stm32_adv_trace.c ****   }
 439:Utilities/trace/adv_trace/stm32_adv_trace.c ****   else
 440:Utilities/trace/adv_trace/stm32_adv_trace.c ****   {
 441:Utilities/trace/adv_trace/stm32_adv_trace.c ****     TRACE_UnLock();
 442:Utilities/trace/adv_trace/stm32_adv_trace.c ****     ret = UTIL_ADV_TRACE_MEM_FULL;
 443:Utilities/trace/adv_trace/stm32_adv_trace.c ****   }
 444:Utilities/trace/adv_trace/stm32_adv_trace.c **** 
 445:Utilities/trace/adv_trace/stm32_adv_trace.c ****   return ret;
 446:Utilities/trace/adv_trace/stm32_adv_trace.c **** }
 447:Utilities/trace/adv_trace/stm32_adv_trace.c **** #endif
 448:Utilities/trace/adv_trace/stm32_adv_trace.c **** 
 449:Utilities/trace/adv_trace/stm32_adv_trace.c **** UTIL_ADV_TRACE_Status_t UTIL_ADV_TRACE_Send(const uint8_t *pData, uint16_t Length)
 450:Utilities/trace/adv_trace/stm32_adv_trace.c **** {
 451:Utilities/trace/adv_trace/stm32_adv_trace.c ****   UTIL_ADV_TRACE_Status_t ret;
 452:Utilities/trace/adv_trace/stm32_adv_trace.c ****   uint16_t writepos;
 453:Utilities/trace/adv_trace/stm32_adv_trace.c ****   uint32_t idx;
 454:Utilities/trace/adv_trace/stm32_adv_trace.c **** 
 455:Utilities/trace/adv_trace/stm32_adv_trace.c ****   TRACE_Lock();
 456:Utilities/trace/adv_trace/stm32_adv_trace.c **** 
 457:Utilities/trace/adv_trace/stm32_adv_trace.c ****   /* if allocation is ok, write data into the buffer */
 458:Utilities/trace/adv_trace/stm32_adv_trace.c ****   if (TRACE_AllocateBufer(Length,&writepos) != -1)
 459:Utilities/trace/adv_trace/stm32_adv_trace.c ****   {
 460:Utilities/trace/adv_trace/stm32_adv_trace.c ****     /* initialize the Ptr for Read/Write */
 461:Utilities/trace/adv_trace/stm32_adv_trace.c ****     for (idx = 0u; idx < Length; idx++)
 462:Utilities/trace/adv_trace/stm32_adv_trace.c ****     {
 463:Utilities/trace/adv_trace/stm32_adv_trace.c ****       ADV_TRACE_Buffer[writepos] = pData[idx];
 464:Utilities/trace/adv_trace/stm32_adv_trace.c ****       writepos = (uint16_t) ((writepos + 1u) % UTIL_ADV_TRACE_FIFO_SIZE);
 465:Utilities/trace/adv_trace/stm32_adv_trace.c ****     }
 466:Utilities/trace/adv_trace/stm32_adv_trace.c ****     TRACE_UnLock();
 467:Utilities/trace/adv_trace/stm32_adv_trace.c **** 
 468:Utilities/trace/adv_trace/stm32_adv_trace.c ****     ret = TRACE_Send();
 469:Utilities/trace/adv_trace/stm32_adv_trace.c ****   }
 470:Utilities/trace/adv_trace/stm32_adv_trace.c ****   else
 471:Utilities/trace/adv_trace/stm32_adv_trace.c ****   {
 472:Utilities/trace/adv_trace/stm32_adv_trace.c ****     TRACE_UnLock();
 473:Utilities/trace/adv_trace/stm32_adv_trace.c ****     ret = UTIL_ADV_TRACE_MEM_FULL;
 474:Utilities/trace/adv_trace/stm32_adv_trace.c ****   }
 475:Utilities/trace/adv_trace/stm32_adv_trace.c **** 
 476:Utilities/trace/adv_trace/stm32_adv_trace.c ****   return ret;
 477:Utilities/trace/adv_trace/stm32_adv_trace.c **** }
 478:Utilities/trace/adv_trace/stm32_adv_trace.c **** 
 479:Utilities/trace/adv_trace/stm32_adv_trace.c **** #if defined(UTIL_ADV_TRACE_OVERRUN)
 480:Utilities/trace/adv_trace/stm32_adv_trace.c **** void UTIL_ADV_TRACE_RegisterOverRunFunction(cb_overrun *cb)
 481:Utilities/trace/adv_trace/stm32_adv_trace.c **** {
 482:Utilities/trace/adv_trace/stm32_adv_trace.c ****   ADV_TRACE_Ctx.overrun_func = *cb;
 483:Utilities/trace/adv_trace/stm32_adv_trace.c **** }
 484:Utilities/trace/adv_trace/stm32_adv_trace.c **** #endif
 485:Utilities/trace/adv_trace/stm32_adv_trace.c **** 
 486:Utilities/trace/adv_trace/stm32_adv_trace.c **** #if defined(UTIL_ADV_TRACE_CONDITIONNAL)
 487:Utilities/trace/adv_trace/stm32_adv_trace.c **** void UTIL_ADV_TRACE_RegisterTimeStampFunction(cb_timestamp *cb)
 488:Utilities/trace/adv_trace/stm32_adv_trace.c **** {
ARM GAS  C:\Users\NATHAN~1\AppData\Local\Temp\ccImtOWI.s 			page 10


 489:Utilities/trace/adv_trace/stm32_adv_trace.c ****   ADV_TRACE_Ctx.timestamp_func = *cb;
 490:Utilities/trace/adv_trace/stm32_adv_trace.c **** }
 491:Utilities/trace/adv_trace/stm32_adv_trace.c **** 
 492:Utilities/trace/adv_trace/stm32_adv_trace.c **** void UTIL_ADV_TRACE_SetVerboseLevel(uint8_t Level)
 493:Utilities/trace/adv_trace/stm32_adv_trace.c **** {
 494:Utilities/trace/adv_trace/stm32_adv_trace.c ****   ADV_TRACE_Ctx.CurrentVerboseLevel = Level;
 495:Utilities/trace/adv_trace/stm32_adv_trace.c **** }
 496:Utilities/trace/adv_trace/stm32_adv_trace.c **** 
 497:Utilities/trace/adv_trace/stm32_adv_trace.c **** uint8_t UTIL_ADV_TRACE_GetVerboseLevel(void)
 498:Utilities/trace/adv_trace/stm32_adv_trace.c **** {
 499:Utilities/trace/adv_trace/stm32_adv_trace.c ****   return ADV_TRACE_Ctx.CurrentVerboseLevel;
 500:Utilities/trace/adv_trace/stm32_adv_trace.c **** }
 501:Utilities/trace/adv_trace/stm32_adv_trace.c **** 
 502:Utilities/trace/adv_trace/stm32_adv_trace.c **** void UTIL_ADV_TRACE_SetRegion(uint32_t Region)
 503:Utilities/trace/adv_trace/stm32_adv_trace.c **** {
 504:Utilities/trace/adv_trace/stm32_adv_trace.c ****   ADV_TRACE_Ctx.RegionMask |= Region;
 505:Utilities/trace/adv_trace/stm32_adv_trace.c **** }
 506:Utilities/trace/adv_trace/stm32_adv_trace.c **** 
 507:Utilities/trace/adv_trace/stm32_adv_trace.c **** uint32_t UTIL_ADV_TRACE_GetRegion(void)
 508:Utilities/trace/adv_trace/stm32_adv_trace.c **** {
 509:Utilities/trace/adv_trace/stm32_adv_trace.c ****   return ADV_TRACE_Ctx.RegionMask;
 510:Utilities/trace/adv_trace/stm32_adv_trace.c **** }
 511:Utilities/trace/adv_trace/stm32_adv_trace.c **** 
 512:Utilities/trace/adv_trace/stm32_adv_trace.c **** void UTIL_ADV_TRACE_ResetRegion(uint32_t Region)
 513:Utilities/trace/adv_trace/stm32_adv_trace.c **** {
 514:Utilities/trace/adv_trace/stm32_adv_trace.c ****   ADV_TRACE_Ctx.RegionMask &= ~Region;
 515:Utilities/trace/adv_trace/stm32_adv_trace.c **** }
 516:Utilities/trace/adv_trace/stm32_adv_trace.c **** #endif
 517:Utilities/trace/adv_trace/stm32_adv_trace.c **** 
 518:Utilities/trace/adv_trace/stm32_adv_trace.c **** __WEAK void UTIL_ADV_TRACE_PreSendHook(void)
 519:Utilities/trace/adv_trace/stm32_adv_trace.c **** {
 520:Utilities/trace/adv_trace/stm32_adv_trace.c **** }
 521:Utilities/trace/adv_trace/stm32_adv_trace.c **** 
 522:Utilities/trace/adv_trace/stm32_adv_trace.c **** __WEAK void UTIL_ADV_TRACE_PostSendHook(void)
 523:Utilities/trace/adv_trace/stm32_adv_trace.c **** {
 524:Utilities/trace/adv_trace/stm32_adv_trace.c **** }
 525:Utilities/trace/adv_trace/stm32_adv_trace.c **** 
 526:Utilities/trace/adv_trace/stm32_adv_trace.c **** /**
 527:Utilities/trace/adv_trace/stm32_adv_trace.c ****  * @}
 528:Utilities/trace/adv_trace/stm32_adv_trace.c ****  */
 529:Utilities/trace/adv_trace/stm32_adv_trace.c **** 
 530:Utilities/trace/adv_trace/stm32_adv_trace.c **** /** @addtogroup ADV_TRACE_private_function
 531:Utilities/trace/adv_trace/stm32_adv_trace.c ****  *  @{
 532:Utilities/trace/adv_trace/stm32_adv_trace.c ****  */
 533:Utilities/trace/adv_trace/stm32_adv_trace.c **** 
 534:Utilities/trace/adv_trace/stm32_adv_trace.c **** /**
 535:Utilities/trace/adv_trace/stm32_adv_trace.c ****  * @brief send the data of the trace to low layer
 536:Utilities/trace/adv_trace/stm32_adv_trace.c ****  * @retval Status based on @ref UTIL_ADV_TRACE_Status_t
 537:Utilities/trace/adv_trace/stm32_adv_trace.c ****  */
 538:Utilities/trace/adv_trace/stm32_adv_trace.c **** static UTIL_ADV_TRACE_Status_t TRACE_Send(void)
 539:Utilities/trace/adv_trace/stm32_adv_trace.c **** {
 540:Utilities/trace/adv_trace/stm32_adv_trace.c ****   UTIL_ADV_TRACE_Status_t ret = UTIL_ADV_TRACE_OK;
 541:Utilities/trace/adv_trace/stm32_adv_trace.c ****   uint8_t *ptr = NULL;
 542:Utilities/trace/adv_trace/stm32_adv_trace.c **** 
 543:Utilities/trace/adv_trace/stm32_adv_trace.c ****   UTIL_ADV_TRACE_ENTER_CRITICAL_SECTION();
 544:Utilities/trace/adv_trace/stm32_adv_trace.c **** 
 545:Utilities/trace/adv_trace/stm32_adv_trace.c ****   if(TRACE_IsLocked() == 0u)
ARM GAS  C:\Users\NATHAN~1\AppData\Local\Temp\ccImtOWI.s 			page 11


 546:Utilities/trace/adv_trace/stm32_adv_trace.c ****   {
 547:Utilities/trace/adv_trace/stm32_adv_trace.c ****     TRACE_Lock();
 548:Utilities/trace/adv_trace/stm32_adv_trace.c **** 
 549:Utilities/trace/adv_trace/stm32_adv_trace.c ****     if(ADV_TRACE_Ctx.TraceRdPtr != ADV_TRACE_Ctx.TraceWrPtr)
 550:Utilities/trace/adv_trace/stm32_adv_trace.c ****     {
 551:Utilities/trace/adv_trace/stm32_adv_trace.c **** #ifdef UTIL_ADV_TRACE_UNCHUNK_MODE
 552:Utilities/trace/adv_trace/stm32_adv_trace.c ****       if(TRACE_UNCHUNK_DETECTED == ADV_TRACE_Ctx.unchunk_status)
 553:Utilities/trace/adv_trace/stm32_adv_trace.c ****       {
 554:Utilities/trace/adv_trace/stm32_adv_trace.c ****         ADV_TRACE_Ctx.TraceSentSize = (uint16_t) (ADV_TRACE_Ctx.unchunk_enabled - ADV_TRACE_Ctx.Tra
 555:Utilities/trace/adv_trace/stm32_adv_trace.c ****         ADV_TRACE_Ctx.unchunk_status = TRACE_UNCHUNK_TRANSFER;
 556:Utilities/trace/adv_trace/stm32_adv_trace.c ****         ADV_TRACE_Ctx.unchunk_enabled = 0;
 557:Utilities/trace/adv_trace/stm32_adv_trace.c **** 
 558:Utilities/trace/adv_trace/stm32_adv_trace.c ****         UTIL_ADV_TRACE_DEBUG("\nTRACE_TxCpltCallback::unchunk start(%d,%d)\n", ADV_TRACE_Ctx.unchun
 559:Utilities/trace/adv_trace/stm32_adv_trace.c **** 
 560:Utilities/trace/adv_trace/stm32_adv_trace.c ****         if(0u == ADV_TRACE_Ctx.TraceSentSize)
 561:Utilities/trace/adv_trace/stm32_adv_trace.c ****         {
 562:Utilities/trace/adv_trace/stm32_adv_trace.c ****           ADV_TRACE_Ctx.unchunk_status = TRACE_UNCHUNK_NONE;
 563:Utilities/trace/adv_trace/stm32_adv_trace.c ****           ADV_TRACE_Ctx.TraceRdPtr = 0;
 564:Utilities/trace/adv_trace/stm32_adv_trace.c ****         }
 565:Utilities/trace/adv_trace/stm32_adv_trace.c ****       }
 566:Utilities/trace/adv_trace/stm32_adv_trace.c **** 
 567:Utilities/trace/adv_trace/stm32_adv_trace.c ****       if(TRACE_UNCHUNK_NONE == ADV_TRACE_Ctx.unchunk_status)
 568:Utilities/trace/adv_trace/stm32_adv_trace.c ****       {
 569:Utilities/trace/adv_trace/stm32_adv_trace.c **** #endif
 570:Utilities/trace/adv_trace/stm32_adv_trace.c ****         if(ADV_TRACE_Ctx.TraceWrPtr > ADV_TRACE_Ctx.TraceRdPtr)
 571:Utilities/trace/adv_trace/stm32_adv_trace.c ****         {
 572:Utilities/trace/adv_trace/stm32_adv_trace.c ****           ADV_TRACE_Ctx.TraceSentSize = ADV_TRACE_Ctx.TraceWrPtr - ADV_TRACE_Ctx.TraceRdPtr;
 573:Utilities/trace/adv_trace/stm32_adv_trace.c ****         }
 574:Utilities/trace/adv_trace/stm32_adv_trace.c ****         else /* TraceRdPtr > TraceWrPtr */
 575:Utilities/trace/adv_trace/stm32_adv_trace.c ****         {
 576:Utilities/trace/adv_trace/stm32_adv_trace.c ****           ADV_TRACE_Ctx.TraceSentSize = UTIL_ADV_TRACE_FIFO_SIZE - ADV_TRACE_Ctx.TraceRdPtr;
 577:Utilities/trace/adv_trace/stm32_adv_trace.c **** 
 578:Utilities/trace/adv_trace/stm32_adv_trace.c ****         }
 579:Utilities/trace/adv_trace/stm32_adv_trace.c **** #ifdef UTIL_ADV_TRACE_UNCHUNK_MODE
 580:Utilities/trace/adv_trace/stm32_adv_trace.c ****       }
 581:Utilities/trace/adv_trace/stm32_adv_trace.c **** #endif
 582:Utilities/trace/adv_trace/stm32_adv_trace.c ****       ptr = &ADV_TRACE_Buffer[ADV_TRACE_Ctx.TraceRdPtr];
 583:Utilities/trace/adv_trace/stm32_adv_trace.c **** 
 584:Utilities/trace/adv_trace/stm32_adv_trace.c ****       UTIL_ADV_TRACE_EXIT_CRITICAL_SECTION();
 585:Utilities/trace/adv_trace/stm32_adv_trace.c ****       UTIL_ADV_TRACE_PreSendHook();
 586:Utilities/trace/adv_trace/stm32_adv_trace.c **** 
 587:Utilities/trace/adv_trace/stm32_adv_trace.c ****       UTIL_ADV_TRACE_DEBUG("\n--TRACE_Send(%d-%d)--\n", ADV_TRACE_Ctx.TraceRdPtr, ADV_TRACE_Ctx.Tra
 588:Utilities/trace/adv_trace/stm32_adv_trace.c ****       ret = UTIL_TraceDriver.Send(ptr, ADV_TRACE_Ctx.TraceSentSize);
 589:Utilities/trace/adv_trace/stm32_adv_trace.c ****     }
 590:Utilities/trace/adv_trace/stm32_adv_trace.c ****     else
 591:Utilities/trace/adv_trace/stm32_adv_trace.c ****     {
 592:Utilities/trace/adv_trace/stm32_adv_trace.c ****       TRACE_UnLock();
 593:Utilities/trace/adv_trace/stm32_adv_trace.c ****       UTIL_ADV_TRACE_EXIT_CRITICAL_SECTION();
 594:Utilities/trace/adv_trace/stm32_adv_trace.c ****     }
 595:Utilities/trace/adv_trace/stm32_adv_trace.c ****   }
 596:Utilities/trace/adv_trace/stm32_adv_trace.c ****   else
 597:Utilities/trace/adv_trace/stm32_adv_trace.c ****   {
 598:Utilities/trace/adv_trace/stm32_adv_trace.c ****     UTIL_ADV_TRACE_EXIT_CRITICAL_SECTION();
 599:Utilities/trace/adv_trace/stm32_adv_trace.c ****   }
 600:Utilities/trace/adv_trace/stm32_adv_trace.c **** 
 601:Utilities/trace/adv_trace/stm32_adv_trace.c ****   return ret;
 602:Utilities/trace/adv_trace/stm32_adv_trace.c **** }
ARM GAS  C:\Users\NATHAN~1\AppData\Local\Temp\ccImtOWI.s 			page 12


 603:Utilities/trace/adv_trace/stm32_adv_trace.c **** 
 604:Utilities/trace/adv_trace/stm32_adv_trace.c **** /**
 605:Utilities/trace/adv_trace/stm32_adv_trace.c ****  * @brief Tx callback called by the low layer level to inform a transfer complete
 606:Utilities/trace/adv_trace/stm32_adv_trace.c ****  * @param Ptr pointer not used only for HAL compatibility
 607:Utilities/trace/adv_trace/stm32_adv_trace.c ****  * @retval none
 608:Utilities/trace/adv_trace/stm32_adv_trace.c ****  */
 609:Utilities/trace/adv_trace/stm32_adv_trace.c **** static void TRACE_TxCpltCallback(void *Ptr)
 610:Utilities/trace/adv_trace/stm32_adv_trace.c **** {
 611:Utilities/trace/adv_trace/stm32_adv_trace.c ****   uint8_t *ptr = NULL;
 612:Utilities/trace/adv_trace/stm32_adv_trace.c ****   UTIL_ADV_TRACE_ENTER_CRITICAL_SECTION();
 613:Utilities/trace/adv_trace/stm32_adv_trace.c **** 
 614:Utilities/trace/adv_trace/stm32_adv_trace.c **** #if defined(UTIL_ADV_TRACE_OVERRUN)
 615:Utilities/trace/adv_trace/stm32_adv_trace.c ****   if(ADV_TRACE_Ctx.OverRunStatus == TRACE_OVERRUN_TRANSFERT)
 616:Utilities/trace/adv_trace/stm32_adv_trace.c ****   {
 617:Utilities/trace/adv_trace/stm32_adv_trace.c ****     ADV_TRACE_Ctx.OverRunStatus = TRACE_OVERRUN_EXECUTED;
 618:Utilities/trace/adv_trace/stm32_adv_trace.c ****     UTIL_ADV_TRACE_DEBUG("\n--TRACE_Send overrun complete--\n");
 619:Utilities/trace/adv_trace/stm32_adv_trace.c ****     ADV_TRACE_Ctx.TraceSentSize = 0u;
 620:Utilities/trace/adv_trace/stm32_adv_trace.c ****   }
 621:Utilities/trace/adv_trace/stm32_adv_trace.c **** #endif
 622:Utilities/trace/adv_trace/stm32_adv_trace.c **** 
 623:Utilities/trace/adv_trace/stm32_adv_trace.c **** #if defined(UTIL_ADV_TRACE_UNCHUNK_MODE)
 624:Utilities/trace/adv_trace/stm32_adv_trace.c ****   if(TRACE_UNCHUNK_TRANSFER == ADV_TRACE_Ctx.unchunk_status)
 625:Utilities/trace/adv_trace/stm32_adv_trace.c ****   {
 626:Utilities/trace/adv_trace/stm32_adv_trace.c ****     ADV_TRACE_Ctx.unchunk_status = TRACE_UNCHUNK_NONE;
 627:Utilities/trace/adv_trace/stm32_adv_trace.c ****     ADV_TRACE_Ctx.TraceRdPtr = 0;
 628:Utilities/trace/adv_trace/stm32_adv_trace.c ****     UTIL_ADV_TRACE_DEBUG("\nTRACE_TxCpltCallback::unchunk complete\n");
 629:Utilities/trace/adv_trace/stm32_adv_trace.c ****   }
 630:Utilities/trace/adv_trace/stm32_adv_trace.c ****   else
 631:Utilities/trace/adv_trace/stm32_adv_trace.c ****   {
 632:Utilities/trace/adv_trace/stm32_adv_trace.c ****     ADV_TRACE_Ctx.TraceRdPtr = (ADV_TRACE_Ctx.TraceRdPtr + ADV_TRACE_Ctx.TraceSentSize) % UTIL_ADV_
 633:Utilities/trace/adv_trace/stm32_adv_trace.c ****   }
 634:Utilities/trace/adv_trace/stm32_adv_trace.c **** #else
 635:Utilities/trace/adv_trace/stm32_adv_trace.c ****   ADV_TRACE_Ctx.TraceRdPtr = (ADV_TRACE_Ctx.TraceRdPtr + ADV_TRACE_Ctx.TraceSentSize) % UTIL_ADV_TR
 636:Utilities/trace/adv_trace/stm32_adv_trace.c **** #endif
 637:Utilities/trace/adv_trace/stm32_adv_trace.c **** 
 638:Utilities/trace/adv_trace/stm32_adv_trace.c **** #if defined(UTIL_ADV_TRACE_OVERRUN)
 639:Utilities/trace/adv_trace/stm32_adv_trace.c ****   if(ADV_TRACE_Ctx.OverRunStatus == TRACE_OVERRUN_INDICATION)
 640:Utilities/trace/adv_trace/stm32_adv_trace.c ****   {
 641:Utilities/trace/adv_trace/stm32_adv_trace.c ****     uint8_t *ptr = NULL;
 642:Utilities/trace/adv_trace/stm32_adv_trace.c ****     ADV_TRACE_Ctx.OverRunStatus = TRACE_OVERRUN_TRANSFERT;
 643:Utilities/trace/adv_trace/stm32_adv_trace.c ****     UTIL_ADV_TRACE_EXIT_CRITICAL_SECTION();
 644:Utilities/trace/adv_trace/stm32_adv_trace.c ****     ADV_TRACE_Ctx.overrun_func(&ptr, &ADV_TRACE_Ctx.TraceSentSize);
 645:Utilities/trace/adv_trace/stm32_adv_trace.c ****     UTIL_ADV_TRACE_DEBUG("\n--Driver_Send overrun(%d)--\n", ADV_TRACE_Ctx.TraceSentSize);
 646:Utilities/trace/adv_trace/stm32_adv_trace.c ****     UTIL_TraceDriver.Send(ptr, ADV_TRACE_Ctx.TraceSentSize);
 647:Utilities/trace/adv_trace/stm32_adv_trace.c ****     return;
 648:Utilities/trace/adv_trace/stm32_adv_trace.c ****   }
 649:Utilities/trace/adv_trace/stm32_adv_trace.c **** #endif
 650:Utilities/trace/adv_trace/stm32_adv_trace.c **** 
 651:Utilities/trace/adv_trace/stm32_adv_trace.c ****   if((ADV_TRACE_Ctx.TraceRdPtr != ADV_TRACE_Ctx.TraceWrPtr) && (1u == ADV_TRACE_Ctx.TraceLock))
 652:Utilities/trace/adv_trace/stm32_adv_trace.c ****   {
 653:Utilities/trace/adv_trace/stm32_adv_trace.c **** #ifdef UTIL_ADV_TRACE_UNCHUNK_MODE
 654:Utilities/trace/adv_trace/stm32_adv_trace.c ****     if(TRACE_UNCHUNK_DETECTED == ADV_TRACE_Ctx.unchunk_status)
 655:Utilities/trace/adv_trace/stm32_adv_trace.c ****     {
 656:Utilities/trace/adv_trace/stm32_adv_trace.c ****       ADV_TRACE_Ctx.TraceSentSize = ADV_TRACE_Ctx.unchunk_enabled - ADV_TRACE_Ctx.TraceRdPtr;
 657:Utilities/trace/adv_trace/stm32_adv_trace.c ****       ADV_TRACE_Ctx.unchunk_status = TRACE_UNCHUNK_TRANSFER;
 658:Utilities/trace/adv_trace/stm32_adv_trace.c ****       ADV_TRACE_Ctx.unchunk_enabled = 0;
 659:Utilities/trace/adv_trace/stm32_adv_trace.c **** 
ARM GAS  C:\Users\NATHAN~1\AppData\Local\Temp\ccImtOWI.s 			page 13


 660:Utilities/trace/adv_trace/stm32_adv_trace.c ****       UTIL_ADV_TRACE_DEBUG("\nTRACE_TxCpltCallback::unchunk start(%d,%d)\n", ADV_TRACE_Ctx.unchunk_
 661:Utilities/trace/adv_trace/stm32_adv_trace.c **** 
 662:Utilities/trace/adv_trace/stm32_adv_trace.c ****       if(0u == ADV_TRACE_Ctx.TraceSentSize)
 663:Utilities/trace/adv_trace/stm32_adv_trace.c ****       {
 664:Utilities/trace/adv_trace/stm32_adv_trace.c ****         /* this case occurs when an ongoing write aligned the Rd position with chunk position */
 665:Utilities/trace/adv_trace/stm32_adv_trace.c ****         /* in that case the unchunk is forgot */
 666:Utilities/trace/adv_trace/stm32_adv_trace.c ****         ADV_TRACE_Ctx.unchunk_status = TRACE_UNCHUNK_NONE;
 667:Utilities/trace/adv_trace/stm32_adv_trace.c ****         ADV_TRACE_Ctx.TraceRdPtr = 0;
 668:Utilities/trace/adv_trace/stm32_adv_trace.c ****       }
 669:Utilities/trace/adv_trace/stm32_adv_trace.c ****     }
 670:Utilities/trace/adv_trace/stm32_adv_trace.c **** 
 671:Utilities/trace/adv_trace/stm32_adv_trace.c ****     if(TRACE_UNCHUNK_NONE == ADV_TRACE_Ctx.unchunk_status)
 672:Utilities/trace/adv_trace/stm32_adv_trace.c ****     {
 673:Utilities/trace/adv_trace/stm32_adv_trace.c **** #endif
 674:Utilities/trace/adv_trace/stm32_adv_trace.c ****       if(ADV_TRACE_Ctx.TraceWrPtr > ADV_TRACE_Ctx.TraceRdPtr)
 675:Utilities/trace/adv_trace/stm32_adv_trace.c ****       {
 676:Utilities/trace/adv_trace/stm32_adv_trace.c ****         ADV_TRACE_Ctx.TraceSentSize = ADV_TRACE_Ctx.TraceWrPtr - ADV_TRACE_Ctx.TraceRdPtr;
 677:Utilities/trace/adv_trace/stm32_adv_trace.c ****       }
 678:Utilities/trace/adv_trace/stm32_adv_trace.c ****       else /* TraceRdPtr > TraceWrPtr */
 679:Utilities/trace/adv_trace/stm32_adv_trace.c ****       {
 680:Utilities/trace/adv_trace/stm32_adv_trace.c ****         ADV_TRACE_Ctx.TraceSentSize = UTIL_ADV_TRACE_FIFO_SIZE - ADV_TRACE_Ctx.TraceRdPtr;
 681:Utilities/trace/adv_trace/stm32_adv_trace.c ****       }
 682:Utilities/trace/adv_trace/stm32_adv_trace.c **** #ifdef UTIL_ADV_TRACE_UNCHUNK_MODE
 683:Utilities/trace/adv_trace/stm32_adv_trace.c ****     }
 684:Utilities/trace/adv_trace/stm32_adv_trace.c **** #endif
 685:Utilities/trace/adv_trace/stm32_adv_trace.c ****     ptr = &ADV_TRACE_Buffer[ADV_TRACE_Ctx.TraceRdPtr];
 686:Utilities/trace/adv_trace/stm32_adv_trace.c ****     UTIL_ADV_TRACE_EXIT_CRITICAL_SECTION();
 687:Utilities/trace/adv_trace/stm32_adv_trace.c ****     UTIL_ADV_TRACE_DEBUG("\n--TRACE_Send(%d-%d)--\n", ADV_TRACE_Ctx.TraceRdPtr, ADV_TRACE_Ctx.Trace
 688:Utilities/trace/adv_trace/stm32_adv_trace.c ****     UTIL_TraceDriver.Send(ptr, ADV_TRACE_Ctx.TraceSentSize);
 689:Utilities/trace/adv_trace/stm32_adv_trace.c ****   }
 690:Utilities/trace/adv_trace/stm32_adv_trace.c ****   else
 691:Utilities/trace/adv_trace/stm32_adv_trace.c ****   {
 692:Utilities/trace/adv_trace/stm32_adv_trace.c ****     UTIL_ADV_TRACE_EXIT_CRITICAL_SECTION();
 693:Utilities/trace/adv_trace/stm32_adv_trace.c ****     UTIL_ADV_TRACE_PostSendHook();
 694:Utilities/trace/adv_trace/stm32_adv_trace.c ****     TRACE_UnLock();
 695:Utilities/trace/adv_trace/stm32_adv_trace.c ****   }
 696:Utilities/trace/adv_trace/stm32_adv_trace.c **** }
 697:Utilities/trace/adv_trace/stm32_adv_trace.c **** 
 698:Utilities/trace/adv_trace/stm32_adv_trace.c **** /**
 699:Utilities/trace/adv_trace/stm32_adv_trace.c ****  * @brief  allocate space inside the buffer to push data
 700:Utilities/trace/adv_trace/stm32_adv_trace.c ****  * @param  Size to allocate within fifo
 701:Utilities/trace/adv_trace/stm32_adv_trace.c ****  * @param  Pos position within the fifo
 702:Utilities/trace/adv_trace/stm32_adv_trace.c ****  * @retval write position inside the buffer is -1 no space available.
 703:Utilities/trace/adv_trace/stm32_adv_trace.c ****  */
 704:Utilities/trace/adv_trace/stm32_adv_trace.c **** static int16_t TRACE_AllocateBufer(uint16_t Size, uint16_t *Pos)
 705:Utilities/trace/adv_trace/stm32_adv_trace.c **** {
  27              		.loc 1 705 1 view -0
  28              		.cfi_startproc
  29              		@ args = 0, pretend = 0, frame = 0
  30              		@ frame_needed = 0, uses_anonymous_args = 0
  31              		.loc 1 705 1 is_stmt 0 view .LVU1
  32 0000 10B5     		push	{r4, lr}
  33              	.LCFI0:
  34              		.cfi_def_cfa_offset 8
  35              		.cfi_offset 4, -8
  36              		.cfi_offset 14, -4
 706:Utilities/trace/adv_trace/stm32_adv_trace.c ****   uint16_t freesize;
ARM GAS  C:\Users\NATHAN~1\AppData\Local\Temp\ccImtOWI.s 			page 14


  37              		.loc 1 706 3 is_stmt 1 view .LVU2
 707:Utilities/trace/adv_trace/stm32_adv_trace.c ****   int16_t ret = -1;
  38              		.loc 1 707 3 view .LVU3
  39              	.LVL1:
 708:Utilities/trace/adv_trace/stm32_adv_trace.c **** 
 709:Utilities/trace/adv_trace/stm32_adv_trace.c ****   UTIL_ADV_TRACE_ENTER_CRITICAL_SECTION();
  40              		.loc 1 709 3 view .LVU4
  41              	.LBB38:
  42              	.LBI38:
  43              		.file 2 "Drivers/CMSIS/Include/cmsis_gcc.h"
   1:Drivers/CMSIS/Include/cmsis_gcc.h **** /**************************************************************************//**
   2:Drivers/CMSIS/Include/cmsis_gcc.h ****  * @file     cmsis_gcc.h
   3:Drivers/CMSIS/Include/cmsis_gcc.h ****  * @brief    CMSIS compiler GCC header file
   4:Drivers/CMSIS/Include/cmsis_gcc.h ****  * @version  V5.2.0
   5:Drivers/CMSIS/Include/cmsis_gcc.h ****  * @date     08. May 2019
   6:Drivers/CMSIS/Include/cmsis_gcc.h ****  ******************************************************************************/
   7:Drivers/CMSIS/Include/cmsis_gcc.h **** /*
   8:Drivers/CMSIS/Include/cmsis_gcc.h ****  * Copyright (c) 2009-2019 Arm Limited. All rights reserved.
   9:Drivers/CMSIS/Include/cmsis_gcc.h ****  *
  10:Drivers/CMSIS/Include/cmsis_gcc.h ****  * SPDX-License-Identifier: Apache-2.0
  11:Drivers/CMSIS/Include/cmsis_gcc.h ****  *
  12:Drivers/CMSIS/Include/cmsis_gcc.h ****  * Licensed under the Apache License, Version 2.0 (the License); you may
  13:Drivers/CMSIS/Include/cmsis_gcc.h ****  * not use this file except in compliance with the License.
  14:Drivers/CMSIS/Include/cmsis_gcc.h ****  * You may obtain a copy of the License at
  15:Drivers/CMSIS/Include/cmsis_gcc.h ****  *
  16:Drivers/CMSIS/Include/cmsis_gcc.h ****  * www.apache.org/licenses/LICENSE-2.0
  17:Drivers/CMSIS/Include/cmsis_gcc.h ****  *
  18:Drivers/CMSIS/Include/cmsis_gcc.h ****  * Unless required by applicable law or agreed to in writing, software
  19:Drivers/CMSIS/Include/cmsis_gcc.h ****  * distributed under the License is distributed on an AS IS BASIS, WITHOUT
  20:Drivers/CMSIS/Include/cmsis_gcc.h ****  * WARRANTIES OR CONDITIONS OF ANY KIND, either express or implied.
  21:Drivers/CMSIS/Include/cmsis_gcc.h ****  * See the License for the specific language governing permissions and
  22:Drivers/CMSIS/Include/cmsis_gcc.h ****  * limitations under the License.
  23:Drivers/CMSIS/Include/cmsis_gcc.h ****  */
  24:Drivers/CMSIS/Include/cmsis_gcc.h **** 
  25:Drivers/CMSIS/Include/cmsis_gcc.h **** #ifndef __CMSIS_GCC_H
  26:Drivers/CMSIS/Include/cmsis_gcc.h **** #define __CMSIS_GCC_H
  27:Drivers/CMSIS/Include/cmsis_gcc.h **** 
  28:Drivers/CMSIS/Include/cmsis_gcc.h **** /* ignore some GCC warnings */
  29:Drivers/CMSIS/Include/cmsis_gcc.h **** #pragma GCC diagnostic push
  30:Drivers/CMSIS/Include/cmsis_gcc.h **** #pragma GCC diagnostic ignored "-Wsign-conversion"
  31:Drivers/CMSIS/Include/cmsis_gcc.h **** #pragma GCC diagnostic ignored "-Wconversion"
  32:Drivers/CMSIS/Include/cmsis_gcc.h **** #pragma GCC diagnostic ignored "-Wunused-parameter"
  33:Drivers/CMSIS/Include/cmsis_gcc.h **** 
  34:Drivers/CMSIS/Include/cmsis_gcc.h **** /* Fallback for __has_builtin */
  35:Drivers/CMSIS/Include/cmsis_gcc.h **** #ifndef __has_builtin
  36:Drivers/CMSIS/Include/cmsis_gcc.h ****   #define __has_builtin(x) (0)
  37:Drivers/CMSIS/Include/cmsis_gcc.h **** #endif
  38:Drivers/CMSIS/Include/cmsis_gcc.h **** 
  39:Drivers/CMSIS/Include/cmsis_gcc.h **** /* CMSIS compiler specific defines */
  40:Drivers/CMSIS/Include/cmsis_gcc.h **** #ifndef   __ASM
  41:Drivers/CMSIS/Include/cmsis_gcc.h ****   #define __ASM                                  __asm
  42:Drivers/CMSIS/Include/cmsis_gcc.h **** #endif
  43:Drivers/CMSIS/Include/cmsis_gcc.h **** #ifndef   __INLINE
  44:Drivers/CMSIS/Include/cmsis_gcc.h ****   #define __INLINE                               inline
  45:Drivers/CMSIS/Include/cmsis_gcc.h **** #endif
  46:Drivers/CMSIS/Include/cmsis_gcc.h **** #ifndef   __STATIC_INLINE
  47:Drivers/CMSIS/Include/cmsis_gcc.h ****   #define __STATIC_INLINE                        static inline
ARM GAS  C:\Users\NATHAN~1\AppData\Local\Temp\ccImtOWI.s 			page 15


  48:Drivers/CMSIS/Include/cmsis_gcc.h **** #endif
  49:Drivers/CMSIS/Include/cmsis_gcc.h **** #ifndef   __STATIC_FORCEINLINE                 
  50:Drivers/CMSIS/Include/cmsis_gcc.h ****   #define __STATIC_FORCEINLINE                   __attribute__((always_inline)) static inline
  51:Drivers/CMSIS/Include/cmsis_gcc.h **** #endif                                           
  52:Drivers/CMSIS/Include/cmsis_gcc.h **** #ifndef   __NO_RETURN
  53:Drivers/CMSIS/Include/cmsis_gcc.h ****   #define __NO_RETURN                            __attribute__((__noreturn__))
  54:Drivers/CMSIS/Include/cmsis_gcc.h **** #endif
  55:Drivers/CMSIS/Include/cmsis_gcc.h **** #ifndef   __USED
  56:Drivers/CMSIS/Include/cmsis_gcc.h ****   #define __USED                                 __attribute__((used))
  57:Drivers/CMSIS/Include/cmsis_gcc.h **** #endif
  58:Drivers/CMSIS/Include/cmsis_gcc.h **** #ifndef   __WEAK
  59:Drivers/CMSIS/Include/cmsis_gcc.h ****   #define __WEAK                                 __attribute__((weak))
  60:Drivers/CMSIS/Include/cmsis_gcc.h **** #endif
  61:Drivers/CMSIS/Include/cmsis_gcc.h **** #ifndef   __PACKED
  62:Drivers/CMSIS/Include/cmsis_gcc.h ****   #define __PACKED                               __attribute__((packed, aligned(1)))
  63:Drivers/CMSIS/Include/cmsis_gcc.h **** #endif
  64:Drivers/CMSIS/Include/cmsis_gcc.h **** #ifndef   __PACKED_STRUCT
  65:Drivers/CMSIS/Include/cmsis_gcc.h ****   #define __PACKED_STRUCT                        struct __attribute__((packed, aligned(1)))
  66:Drivers/CMSIS/Include/cmsis_gcc.h **** #endif
  67:Drivers/CMSIS/Include/cmsis_gcc.h **** #ifndef   __PACKED_UNION
  68:Drivers/CMSIS/Include/cmsis_gcc.h ****   #define __PACKED_UNION                         union __attribute__((packed, aligned(1)))
  69:Drivers/CMSIS/Include/cmsis_gcc.h **** #endif
  70:Drivers/CMSIS/Include/cmsis_gcc.h **** #ifndef   __UNALIGNED_UINT32        /* deprecated */
  71:Drivers/CMSIS/Include/cmsis_gcc.h ****   #pragma GCC diagnostic push
  72:Drivers/CMSIS/Include/cmsis_gcc.h ****   #pragma GCC diagnostic ignored "-Wpacked"
  73:Drivers/CMSIS/Include/cmsis_gcc.h ****   #pragma GCC diagnostic ignored "-Wattributes"
  74:Drivers/CMSIS/Include/cmsis_gcc.h ****   struct __attribute__((packed)) T_UINT32 { uint32_t v; };
  75:Drivers/CMSIS/Include/cmsis_gcc.h ****   #pragma GCC diagnostic pop
  76:Drivers/CMSIS/Include/cmsis_gcc.h ****   #define __UNALIGNED_UINT32(x)                  (((struct T_UINT32 *)(x))->v)
  77:Drivers/CMSIS/Include/cmsis_gcc.h **** #endif
  78:Drivers/CMSIS/Include/cmsis_gcc.h **** #ifndef   __UNALIGNED_UINT16_WRITE
  79:Drivers/CMSIS/Include/cmsis_gcc.h ****   #pragma GCC diagnostic push
  80:Drivers/CMSIS/Include/cmsis_gcc.h ****   #pragma GCC diagnostic ignored "-Wpacked"
  81:Drivers/CMSIS/Include/cmsis_gcc.h ****   #pragma GCC diagnostic ignored "-Wattributes"
  82:Drivers/CMSIS/Include/cmsis_gcc.h ****   __PACKED_STRUCT T_UINT16_WRITE { uint16_t v; };
  83:Drivers/CMSIS/Include/cmsis_gcc.h ****   #pragma GCC diagnostic pop
  84:Drivers/CMSIS/Include/cmsis_gcc.h ****   #define __UNALIGNED_UINT16_WRITE(addr, val)    (void)((((struct T_UINT16_WRITE *)(void *)(addr))-
  85:Drivers/CMSIS/Include/cmsis_gcc.h **** #endif
  86:Drivers/CMSIS/Include/cmsis_gcc.h **** #ifndef   __UNALIGNED_UINT16_READ
  87:Drivers/CMSIS/Include/cmsis_gcc.h ****   #pragma GCC diagnostic push
  88:Drivers/CMSIS/Include/cmsis_gcc.h ****   #pragma GCC diagnostic ignored "-Wpacked"
  89:Drivers/CMSIS/Include/cmsis_gcc.h ****   #pragma GCC diagnostic ignored "-Wattributes"
  90:Drivers/CMSIS/Include/cmsis_gcc.h ****   __PACKED_STRUCT T_UINT16_READ { uint16_t v; };
  91:Drivers/CMSIS/Include/cmsis_gcc.h ****   #pragma GCC diagnostic pop
  92:Drivers/CMSIS/Include/cmsis_gcc.h ****   #define __UNALIGNED_UINT16_READ(addr)          (((const struct T_UINT16_READ *)(const void *)(add
  93:Drivers/CMSIS/Include/cmsis_gcc.h **** #endif
  94:Drivers/CMSIS/Include/cmsis_gcc.h **** #ifndef   __UNALIGNED_UINT32_WRITE
  95:Drivers/CMSIS/Include/cmsis_gcc.h ****   #pragma GCC diagnostic push
  96:Drivers/CMSIS/Include/cmsis_gcc.h ****   #pragma GCC diagnostic ignored "-Wpacked"
  97:Drivers/CMSIS/Include/cmsis_gcc.h ****   #pragma GCC diagnostic ignored "-Wattributes"
  98:Drivers/CMSIS/Include/cmsis_gcc.h ****   __PACKED_STRUCT T_UINT32_WRITE { uint32_t v; };
  99:Drivers/CMSIS/Include/cmsis_gcc.h ****   #pragma GCC diagnostic pop
 100:Drivers/CMSIS/Include/cmsis_gcc.h ****   #define __UNALIGNED_UINT32_WRITE(addr, val)    (void)((((struct T_UINT32_WRITE *)(void *)(addr))-
 101:Drivers/CMSIS/Include/cmsis_gcc.h **** #endif
 102:Drivers/CMSIS/Include/cmsis_gcc.h **** #ifndef   __UNALIGNED_UINT32_READ
 103:Drivers/CMSIS/Include/cmsis_gcc.h ****   #pragma GCC diagnostic push
 104:Drivers/CMSIS/Include/cmsis_gcc.h ****   #pragma GCC diagnostic ignored "-Wpacked"
ARM GAS  C:\Users\NATHAN~1\AppData\Local\Temp\ccImtOWI.s 			page 16


 105:Drivers/CMSIS/Include/cmsis_gcc.h ****   #pragma GCC diagnostic ignored "-Wattributes"
 106:Drivers/CMSIS/Include/cmsis_gcc.h ****   __PACKED_STRUCT T_UINT32_READ { uint32_t v; };
 107:Drivers/CMSIS/Include/cmsis_gcc.h ****   #pragma GCC diagnostic pop
 108:Drivers/CMSIS/Include/cmsis_gcc.h ****   #define __UNALIGNED_UINT32_READ(addr)          (((const struct T_UINT32_READ *)(const void *)(add
 109:Drivers/CMSIS/Include/cmsis_gcc.h **** #endif
 110:Drivers/CMSIS/Include/cmsis_gcc.h **** #ifndef   __ALIGNED
 111:Drivers/CMSIS/Include/cmsis_gcc.h ****   #define __ALIGNED(x)                           __attribute__((aligned(x)))
 112:Drivers/CMSIS/Include/cmsis_gcc.h **** #endif
 113:Drivers/CMSIS/Include/cmsis_gcc.h **** #ifndef   __RESTRICT
 114:Drivers/CMSIS/Include/cmsis_gcc.h ****   #define __RESTRICT                             __restrict
 115:Drivers/CMSIS/Include/cmsis_gcc.h **** #endif
 116:Drivers/CMSIS/Include/cmsis_gcc.h **** #ifndef   __COMPILER_BARRIER
 117:Drivers/CMSIS/Include/cmsis_gcc.h ****   #define __COMPILER_BARRIER()                   __ASM volatile("":::"memory")
 118:Drivers/CMSIS/Include/cmsis_gcc.h **** #endif
 119:Drivers/CMSIS/Include/cmsis_gcc.h **** 
 120:Drivers/CMSIS/Include/cmsis_gcc.h **** /* #########################  Startup and Lowlevel Init  ######################## */
 121:Drivers/CMSIS/Include/cmsis_gcc.h **** 
 122:Drivers/CMSIS/Include/cmsis_gcc.h **** #ifndef __PROGRAM_START
 123:Drivers/CMSIS/Include/cmsis_gcc.h **** 
 124:Drivers/CMSIS/Include/cmsis_gcc.h **** /**
 125:Drivers/CMSIS/Include/cmsis_gcc.h ****   \brief   Initializes data and bss sections
 126:Drivers/CMSIS/Include/cmsis_gcc.h ****   \details This default implementations initialized all data and additional bss
 127:Drivers/CMSIS/Include/cmsis_gcc.h ****            sections relying on .copy.table and .zero.table specified properly
 128:Drivers/CMSIS/Include/cmsis_gcc.h ****            in the used linker script.
 129:Drivers/CMSIS/Include/cmsis_gcc.h ****   
 130:Drivers/CMSIS/Include/cmsis_gcc.h ****  */
 131:Drivers/CMSIS/Include/cmsis_gcc.h **** __STATIC_FORCEINLINE __NO_RETURN void __cmsis_start(void)
 132:Drivers/CMSIS/Include/cmsis_gcc.h **** {
 133:Drivers/CMSIS/Include/cmsis_gcc.h ****   extern void _start(void) __NO_RETURN;
 134:Drivers/CMSIS/Include/cmsis_gcc.h ****   
 135:Drivers/CMSIS/Include/cmsis_gcc.h ****   typedef struct {
 136:Drivers/CMSIS/Include/cmsis_gcc.h ****     uint32_t const* src;
 137:Drivers/CMSIS/Include/cmsis_gcc.h ****     uint32_t* dest;
 138:Drivers/CMSIS/Include/cmsis_gcc.h ****     uint32_t  wlen;
 139:Drivers/CMSIS/Include/cmsis_gcc.h ****   } __copy_table_t;
 140:Drivers/CMSIS/Include/cmsis_gcc.h ****   
 141:Drivers/CMSIS/Include/cmsis_gcc.h ****   typedef struct {
 142:Drivers/CMSIS/Include/cmsis_gcc.h ****     uint32_t* dest;
 143:Drivers/CMSIS/Include/cmsis_gcc.h ****     uint32_t  wlen;
 144:Drivers/CMSIS/Include/cmsis_gcc.h ****   } __zero_table_t;
 145:Drivers/CMSIS/Include/cmsis_gcc.h ****   
 146:Drivers/CMSIS/Include/cmsis_gcc.h ****   extern const __copy_table_t __copy_table_start__;
 147:Drivers/CMSIS/Include/cmsis_gcc.h ****   extern const __copy_table_t __copy_table_end__;
 148:Drivers/CMSIS/Include/cmsis_gcc.h ****   extern const __zero_table_t __zero_table_start__;
 149:Drivers/CMSIS/Include/cmsis_gcc.h ****   extern const __zero_table_t __zero_table_end__;
 150:Drivers/CMSIS/Include/cmsis_gcc.h **** 
 151:Drivers/CMSIS/Include/cmsis_gcc.h ****   for (__copy_table_t const* pTable = &__copy_table_start__; pTable < &__copy_table_end__; ++pTable
 152:Drivers/CMSIS/Include/cmsis_gcc.h ****     for(uint32_t i=0u; i<pTable->wlen; ++i) {
 153:Drivers/CMSIS/Include/cmsis_gcc.h ****       pTable->dest[i] = pTable->src[i];
 154:Drivers/CMSIS/Include/cmsis_gcc.h ****     }
 155:Drivers/CMSIS/Include/cmsis_gcc.h ****   }
 156:Drivers/CMSIS/Include/cmsis_gcc.h ****  
 157:Drivers/CMSIS/Include/cmsis_gcc.h ****   for (__zero_table_t const* pTable = &__zero_table_start__; pTable < &__zero_table_end__; ++pTable
 158:Drivers/CMSIS/Include/cmsis_gcc.h ****     for(uint32_t i=0u; i<pTable->wlen; ++i) {
 159:Drivers/CMSIS/Include/cmsis_gcc.h ****       pTable->dest[i] = 0u;
 160:Drivers/CMSIS/Include/cmsis_gcc.h ****     }
 161:Drivers/CMSIS/Include/cmsis_gcc.h ****   }
ARM GAS  C:\Users\NATHAN~1\AppData\Local\Temp\ccImtOWI.s 			page 17


 162:Drivers/CMSIS/Include/cmsis_gcc.h ****  
 163:Drivers/CMSIS/Include/cmsis_gcc.h ****   _start();
 164:Drivers/CMSIS/Include/cmsis_gcc.h **** }
 165:Drivers/CMSIS/Include/cmsis_gcc.h ****   
 166:Drivers/CMSIS/Include/cmsis_gcc.h **** #define __PROGRAM_START           __cmsis_start
 167:Drivers/CMSIS/Include/cmsis_gcc.h **** #endif
 168:Drivers/CMSIS/Include/cmsis_gcc.h **** 
 169:Drivers/CMSIS/Include/cmsis_gcc.h **** #ifndef __INITIAL_SP
 170:Drivers/CMSIS/Include/cmsis_gcc.h **** #define __INITIAL_SP              __StackTop
 171:Drivers/CMSIS/Include/cmsis_gcc.h **** #endif
 172:Drivers/CMSIS/Include/cmsis_gcc.h **** 
 173:Drivers/CMSIS/Include/cmsis_gcc.h **** #ifndef __STACK_LIMIT
 174:Drivers/CMSIS/Include/cmsis_gcc.h **** #define __STACK_LIMIT             __StackLimit
 175:Drivers/CMSIS/Include/cmsis_gcc.h **** #endif
 176:Drivers/CMSIS/Include/cmsis_gcc.h **** 
 177:Drivers/CMSIS/Include/cmsis_gcc.h **** #ifndef __VECTOR_TABLE
 178:Drivers/CMSIS/Include/cmsis_gcc.h **** #define __VECTOR_TABLE            __Vectors
 179:Drivers/CMSIS/Include/cmsis_gcc.h **** #endif
 180:Drivers/CMSIS/Include/cmsis_gcc.h **** 
 181:Drivers/CMSIS/Include/cmsis_gcc.h **** #ifndef __VECTOR_TABLE_ATTRIBUTE
 182:Drivers/CMSIS/Include/cmsis_gcc.h **** #define __VECTOR_TABLE_ATTRIBUTE  __attribute((used, section(".vectors")))
 183:Drivers/CMSIS/Include/cmsis_gcc.h **** #endif
 184:Drivers/CMSIS/Include/cmsis_gcc.h **** 
 185:Drivers/CMSIS/Include/cmsis_gcc.h **** /* ###########################  Core Function Access  ########################### */
 186:Drivers/CMSIS/Include/cmsis_gcc.h **** /** \ingroup  CMSIS_Core_FunctionInterface
 187:Drivers/CMSIS/Include/cmsis_gcc.h ****     \defgroup CMSIS_Core_RegAccFunctions CMSIS Core Register Access Functions
 188:Drivers/CMSIS/Include/cmsis_gcc.h ****   @{
 189:Drivers/CMSIS/Include/cmsis_gcc.h ****  */
 190:Drivers/CMSIS/Include/cmsis_gcc.h **** 
 191:Drivers/CMSIS/Include/cmsis_gcc.h **** /**
 192:Drivers/CMSIS/Include/cmsis_gcc.h ****   \brief   Enable IRQ Interrupts
 193:Drivers/CMSIS/Include/cmsis_gcc.h ****   \details Enables IRQ interrupts by clearing the I-bit in the CPSR.
 194:Drivers/CMSIS/Include/cmsis_gcc.h ****            Can only be executed in Privileged modes.
 195:Drivers/CMSIS/Include/cmsis_gcc.h ****  */
 196:Drivers/CMSIS/Include/cmsis_gcc.h **** __STATIC_FORCEINLINE void __enable_irq(void)
 197:Drivers/CMSIS/Include/cmsis_gcc.h **** {
 198:Drivers/CMSIS/Include/cmsis_gcc.h ****   __ASM volatile ("cpsie i" : : : "memory");
 199:Drivers/CMSIS/Include/cmsis_gcc.h **** }
 200:Drivers/CMSIS/Include/cmsis_gcc.h **** 
 201:Drivers/CMSIS/Include/cmsis_gcc.h **** 
 202:Drivers/CMSIS/Include/cmsis_gcc.h **** /**
 203:Drivers/CMSIS/Include/cmsis_gcc.h ****   \brief   Disable IRQ Interrupts
 204:Drivers/CMSIS/Include/cmsis_gcc.h ****   \details Disables IRQ interrupts by setting the I-bit in the CPSR.
 205:Drivers/CMSIS/Include/cmsis_gcc.h ****            Can only be executed in Privileged modes.
 206:Drivers/CMSIS/Include/cmsis_gcc.h ****  */
 207:Drivers/CMSIS/Include/cmsis_gcc.h **** __STATIC_FORCEINLINE void __disable_irq(void)
 208:Drivers/CMSIS/Include/cmsis_gcc.h **** {
 209:Drivers/CMSIS/Include/cmsis_gcc.h ****   __ASM volatile ("cpsid i" : : : "memory");
 210:Drivers/CMSIS/Include/cmsis_gcc.h **** }
 211:Drivers/CMSIS/Include/cmsis_gcc.h **** 
 212:Drivers/CMSIS/Include/cmsis_gcc.h **** 
 213:Drivers/CMSIS/Include/cmsis_gcc.h **** /**
 214:Drivers/CMSIS/Include/cmsis_gcc.h ****   \brief   Get Control Register
 215:Drivers/CMSIS/Include/cmsis_gcc.h ****   \details Returns the content of the Control Register.
 216:Drivers/CMSIS/Include/cmsis_gcc.h ****   \return               Control Register value
 217:Drivers/CMSIS/Include/cmsis_gcc.h ****  */
 218:Drivers/CMSIS/Include/cmsis_gcc.h **** __STATIC_FORCEINLINE uint32_t __get_CONTROL(void)
ARM GAS  C:\Users\NATHAN~1\AppData\Local\Temp\ccImtOWI.s 			page 18


 219:Drivers/CMSIS/Include/cmsis_gcc.h **** {
 220:Drivers/CMSIS/Include/cmsis_gcc.h ****   uint32_t result;
 221:Drivers/CMSIS/Include/cmsis_gcc.h **** 
 222:Drivers/CMSIS/Include/cmsis_gcc.h ****   __ASM volatile ("MRS %0, control" : "=r" (result) );
 223:Drivers/CMSIS/Include/cmsis_gcc.h ****   return(result);
 224:Drivers/CMSIS/Include/cmsis_gcc.h **** }
 225:Drivers/CMSIS/Include/cmsis_gcc.h **** 
 226:Drivers/CMSIS/Include/cmsis_gcc.h **** 
 227:Drivers/CMSIS/Include/cmsis_gcc.h **** #if (defined (__ARM_FEATURE_CMSE ) && (__ARM_FEATURE_CMSE == 3))
 228:Drivers/CMSIS/Include/cmsis_gcc.h **** /**
 229:Drivers/CMSIS/Include/cmsis_gcc.h ****   \brief   Get Control Register (non-secure)
 230:Drivers/CMSIS/Include/cmsis_gcc.h ****   \details Returns the content of the non-secure Control Register when in secure mode.
 231:Drivers/CMSIS/Include/cmsis_gcc.h ****   \return               non-secure Control Register value
 232:Drivers/CMSIS/Include/cmsis_gcc.h ****  */
 233:Drivers/CMSIS/Include/cmsis_gcc.h **** __STATIC_FORCEINLINE uint32_t __TZ_get_CONTROL_NS(void)
 234:Drivers/CMSIS/Include/cmsis_gcc.h **** {
 235:Drivers/CMSIS/Include/cmsis_gcc.h ****   uint32_t result;
 236:Drivers/CMSIS/Include/cmsis_gcc.h **** 
 237:Drivers/CMSIS/Include/cmsis_gcc.h ****   __ASM volatile ("MRS %0, control_ns" : "=r" (result) );
 238:Drivers/CMSIS/Include/cmsis_gcc.h ****   return(result);
 239:Drivers/CMSIS/Include/cmsis_gcc.h **** }
 240:Drivers/CMSIS/Include/cmsis_gcc.h **** #endif
 241:Drivers/CMSIS/Include/cmsis_gcc.h **** 
 242:Drivers/CMSIS/Include/cmsis_gcc.h **** 
 243:Drivers/CMSIS/Include/cmsis_gcc.h **** /**
 244:Drivers/CMSIS/Include/cmsis_gcc.h ****   \brief   Set Control Register
 245:Drivers/CMSIS/Include/cmsis_gcc.h ****   \details Writes the given value to the Control Register.
 246:Drivers/CMSIS/Include/cmsis_gcc.h ****   \param [in]    control  Control Register value to set
 247:Drivers/CMSIS/Include/cmsis_gcc.h ****  */
 248:Drivers/CMSIS/Include/cmsis_gcc.h **** __STATIC_FORCEINLINE void __set_CONTROL(uint32_t control)
 249:Drivers/CMSIS/Include/cmsis_gcc.h **** {
 250:Drivers/CMSIS/Include/cmsis_gcc.h ****   __ASM volatile ("MSR control, %0" : : "r" (control) : "memory");
 251:Drivers/CMSIS/Include/cmsis_gcc.h **** }
 252:Drivers/CMSIS/Include/cmsis_gcc.h **** 
 253:Drivers/CMSIS/Include/cmsis_gcc.h **** 
 254:Drivers/CMSIS/Include/cmsis_gcc.h **** #if (defined (__ARM_FEATURE_CMSE ) && (__ARM_FEATURE_CMSE == 3))
 255:Drivers/CMSIS/Include/cmsis_gcc.h **** /**
 256:Drivers/CMSIS/Include/cmsis_gcc.h ****   \brief   Set Control Register (non-secure)
 257:Drivers/CMSIS/Include/cmsis_gcc.h ****   \details Writes the given value to the non-secure Control Register when in secure state.
 258:Drivers/CMSIS/Include/cmsis_gcc.h ****   \param [in]    control  Control Register value to set
 259:Drivers/CMSIS/Include/cmsis_gcc.h ****  */
 260:Drivers/CMSIS/Include/cmsis_gcc.h **** __STATIC_FORCEINLINE void __TZ_set_CONTROL_NS(uint32_t control)
 261:Drivers/CMSIS/Include/cmsis_gcc.h **** {
 262:Drivers/CMSIS/Include/cmsis_gcc.h ****   __ASM volatile ("MSR control_ns, %0" : : "r" (control) : "memory");
 263:Drivers/CMSIS/Include/cmsis_gcc.h **** }
 264:Drivers/CMSIS/Include/cmsis_gcc.h **** #endif
 265:Drivers/CMSIS/Include/cmsis_gcc.h **** 
 266:Drivers/CMSIS/Include/cmsis_gcc.h **** 
 267:Drivers/CMSIS/Include/cmsis_gcc.h **** /**
 268:Drivers/CMSIS/Include/cmsis_gcc.h ****   \brief   Get IPSR Register
 269:Drivers/CMSIS/Include/cmsis_gcc.h ****   \details Returns the content of the IPSR Register.
 270:Drivers/CMSIS/Include/cmsis_gcc.h ****   \return               IPSR Register value
 271:Drivers/CMSIS/Include/cmsis_gcc.h ****  */
 272:Drivers/CMSIS/Include/cmsis_gcc.h **** __STATIC_FORCEINLINE uint32_t __get_IPSR(void)
 273:Drivers/CMSIS/Include/cmsis_gcc.h **** {
 274:Drivers/CMSIS/Include/cmsis_gcc.h ****   uint32_t result;
 275:Drivers/CMSIS/Include/cmsis_gcc.h **** 
ARM GAS  C:\Users\NATHAN~1\AppData\Local\Temp\ccImtOWI.s 			page 19


 276:Drivers/CMSIS/Include/cmsis_gcc.h ****   __ASM volatile ("MRS %0, ipsr" : "=r" (result) );
 277:Drivers/CMSIS/Include/cmsis_gcc.h ****   return(result);
 278:Drivers/CMSIS/Include/cmsis_gcc.h **** }
 279:Drivers/CMSIS/Include/cmsis_gcc.h **** 
 280:Drivers/CMSIS/Include/cmsis_gcc.h **** 
 281:Drivers/CMSIS/Include/cmsis_gcc.h **** /**
 282:Drivers/CMSIS/Include/cmsis_gcc.h ****   \brief   Get APSR Register
 283:Drivers/CMSIS/Include/cmsis_gcc.h ****   \details Returns the content of the APSR Register.
 284:Drivers/CMSIS/Include/cmsis_gcc.h ****   \return               APSR Register value
 285:Drivers/CMSIS/Include/cmsis_gcc.h ****  */
 286:Drivers/CMSIS/Include/cmsis_gcc.h **** __STATIC_FORCEINLINE uint32_t __get_APSR(void)
 287:Drivers/CMSIS/Include/cmsis_gcc.h **** {
 288:Drivers/CMSIS/Include/cmsis_gcc.h ****   uint32_t result;
 289:Drivers/CMSIS/Include/cmsis_gcc.h **** 
 290:Drivers/CMSIS/Include/cmsis_gcc.h ****   __ASM volatile ("MRS %0, apsr" : "=r" (result) );
 291:Drivers/CMSIS/Include/cmsis_gcc.h ****   return(result);
 292:Drivers/CMSIS/Include/cmsis_gcc.h **** }
 293:Drivers/CMSIS/Include/cmsis_gcc.h **** 
 294:Drivers/CMSIS/Include/cmsis_gcc.h **** 
 295:Drivers/CMSIS/Include/cmsis_gcc.h **** /**
 296:Drivers/CMSIS/Include/cmsis_gcc.h ****   \brief   Get xPSR Register
 297:Drivers/CMSIS/Include/cmsis_gcc.h ****   \details Returns the content of the xPSR Register.
 298:Drivers/CMSIS/Include/cmsis_gcc.h ****   \return               xPSR Register value
 299:Drivers/CMSIS/Include/cmsis_gcc.h ****  */
 300:Drivers/CMSIS/Include/cmsis_gcc.h **** __STATIC_FORCEINLINE uint32_t __get_xPSR(void)
 301:Drivers/CMSIS/Include/cmsis_gcc.h **** {
 302:Drivers/CMSIS/Include/cmsis_gcc.h ****   uint32_t result;
 303:Drivers/CMSIS/Include/cmsis_gcc.h **** 
 304:Drivers/CMSIS/Include/cmsis_gcc.h ****   __ASM volatile ("MRS %0, xpsr" : "=r" (result) );
 305:Drivers/CMSIS/Include/cmsis_gcc.h ****   return(result);
 306:Drivers/CMSIS/Include/cmsis_gcc.h **** }
 307:Drivers/CMSIS/Include/cmsis_gcc.h **** 
 308:Drivers/CMSIS/Include/cmsis_gcc.h **** 
 309:Drivers/CMSIS/Include/cmsis_gcc.h **** /**
 310:Drivers/CMSIS/Include/cmsis_gcc.h ****   \brief   Get Process Stack Pointer
 311:Drivers/CMSIS/Include/cmsis_gcc.h ****   \details Returns the current value of the Process Stack Pointer (PSP).
 312:Drivers/CMSIS/Include/cmsis_gcc.h ****   \return               PSP Register value
 313:Drivers/CMSIS/Include/cmsis_gcc.h ****  */
 314:Drivers/CMSIS/Include/cmsis_gcc.h **** __STATIC_FORCEINLINE uint32_t __get_PSP(void)
 315:Drivers/CMSIS/Include/cmsis_gcc.h **** {
 316:Drivers/CMSIS/Include/cmsis_gcc.h ****   uint32_t result;
 317:Drivers/CMSIS/Include/cmsis_gcc.h **** 
 318:Drivers/CMSIS/Include/cmsis_gcc.h ****   __ASM volatile ("MRS %0, psp"  : "=r" (result) );
 319:Drivers/CMSIS/Include/cmsis_gcc.h ****   return(result);
 320:Drivers/CMSIS/Include/cmsis_gcc.h **** }
 321:Drivers/CMSIS/Include/cmsis_gcc.h **** 
 322:Drivers/CMSIS/Include/cmsis_gcc.h **** 
 323:Drivers/CMSIS/Include/cmsis_gcc.h **** #if (defined (__ARM_FEATURE_CMSE ) && (__ARM_FEATURE_CMSE == 3))
 324:Drivers/CMSIS/Include/cmsis_gcc.h **** /**
 325:Drivers/CMSIS/Include/cmsis_gcc.h ****   \brief   Get Process Stack Pointer (non-secure)
 326:Drivers/CMSIS/Include/cmsis_gcc.h ****   \details Returns the current value of the non-secure Process Stack Pointer (PSP) when in secure s
 327:Drivers/CMSIS/Include/cmsis_gcc.h ****   \return               PSP Register value
 328:Drivers/CMSIS/Include/cmsis_gcc.h ****  */
 329:Drivers/CMSIS/Include/cmsis_gcc.h **** __STATIC_FORCEINLINE uint32_t __TZ_get_PSP_NS(void)
 330:Drivers/CMSIS/Include/cmsis_gcc.h **** {
 331:Drivers/CMSIS/Include/cmsis_gcc.h ****   uint32_t result;
 332:Drivers/CMSIS/Include/cmsis_gcc.h **** 
ARM GAS  C:\Users\NATHAN~1\AppData\Local\Temp\ccImtOWI.s 			page 20


 333:Drivers/CMSIS/Include/cmsis_gcc.h ****   __ASM volatile ("MRS %0, psp_ns"  : "=r" (result) );
 334:Drivers/CMSIS/Include/cmsis_gcc.h ****   return(result);
 335:Drivers/CMSIS/Include/cmsis_gcc.h **** }
 336:Drivers/CMSIS/Include/cmsis_gcc.h **** #endif
 337:Drivers/CMSIS/Include/cmsis_gcc.h **** 
 338:Drivers/CMSIS/Include/cmsis_gcc.h **** 
 339:Drivers/CMSIS/Include/cmsis_gcc.h **** /**
 340:Drivers/CMSIS/Include/cmsis_gcc.h ****   \brief   Set Process Stack Pointer
 341:Drivers/CMSIS/Include/cmsis_gcc.h ****   \details Assigns the given value to the Process Stack Pointer (PSP).
 342:Drivers/CMSIS/Include/cmsis_gcc.h ****   \param [in]    topOfProcStack  Process Stack Pointer value to set
 343:Drivers/CMSIS/Include/cmsis_gcc.h ****  */
 344:Drivers/CMSIS/Include/cmsis_gcc.h **** __STATIC_FORCEINLINE void __set_PSP(uint32_t topOfProcStack)
 345:Drivers/CMSIS/Include/cmsis_gcc.h **** {
 346:Drivers/CMSIS/Include/cmsis_gcc.h ****   __ASM volatile ("MSR psp, %0" : : "r" (topOfProcStack) : );
 347:Drivers/CMSIS/Include/cmsis_gcc.h **** }
 348:Drivers/CMSIS/Include/cmsis_gcc.h **** 
 349:Drivers/CMSIS/Include/cmsis_gcc.h **** 
 350:Drivers/CMSIS/Include/cmsis_gcc.h **** #if (defined (__ARM_FEATURE_CMSE ) && (__ARM_FEATURE_CMSE == 3))
 351:Drivers/CMSIS/Include/cmsis_gcc.h **** /**
 352:Drivers/CMSIS/Include/cmsis_gcc.h ****   \brief   Set Process Stack Pointer (non-secure)
 353:Drivers/CMSIS/Include/cmsis_gcc.h ****   \details Assigns the given value to the non-secure Process Stack Pointer (PSP) when in secure sta
 354:Drivers/CMSIS/Include/cmsis_gcc.h ****   \param [in]    topOfProcStack  Process Stack Pointer value to set
 355:Drivers/CMSIS/Include/cmsis_gcc.h ****  */
 356:Drivers/CMSIS/Include/cmsis_gcc.h **** __STATIC_FORCEINLINE void __TZ_set_PSP_NS(uint32_t topOfProcStack)
 357:Drivers/CMSIS/Include/cmsis_gcc.h **** {
 358:Drivers/CMSIS/Include/cmsis_gcc.h ****   __ASM volatile ("MSR psp_ns, %0" : : "r" (topOfProcStack) : );
 359:Drivers/CMSIS/Include/cmsis_gcc.h **** }
 360:Drivers/CMSIS/Include/cmsis_gcc.h **** #endif
 361:Drivers/CMSIS/Include/cmsis_gcc.h **** 
 362:Drivers/CMSIS/Include/cmsis_gcc.h **** 
 363:Drivers/CMSIS/Include/cmsis_gcc.h **** /**
 364:Drivers/CMSIS/Include/cmsis_gcc.h ****   \brief   Get Main Stack Pointer
 365:Drivers/CMSIS/Include/cmsis_gcc.h ****   \details Returns the current value of the Main Stack Pointer (MSP).
 366:Drivers/CMSIS/Include/cmsis_gcc.h ****   \return               MSP Register value
 367:Drivers/CMSIS/Include/cmsis_gcc.h ****  */
 368:Drivers/CMSIS/Include/cmsis_gcc.h **** __STATIC_FORCEINLINE uint32_t __get_MSP(void)
 369:Drivers/CMSIS/Include/cmsis_gcc.h **** {
 370:Drivers/CMSIS/Include/cmsis_gcc.h ****   uint32_t result;
 371:Drivers/CMSIS/Include/cmsis_gcc.h **** 
 372:Drivers/CMSIS/Include/cmsis_gcc.h ****   __ASM volatile ("MRS %0, msp" : "=r" (result) );
 373:Drivers/CMSIS/Include/cmsis_gcc.h ****   return(result);
 374:Drivers/CMSIS/Include/cmsis_gcc.h **** }
 375:Drivers/CMSIS/Include/cmsis_gcc.h **** 
 376:Drivers/CMSIS/Include/cmsis_gcc.h **** 
 377:Drivers/CMSIS/Include/cmsis_gcc.h **** #if (defined (__ARM_FEATURE_CMSE ) && (__ARM_FEATURE_CMSE == 3))
 378:Drivers/CMSIS/Include/cmsis_gcc.h **** /**
 379:Drivers/CMSIS/Include/cmsis_gcc.h ****   \brief   Get Main Stack Pointer (non-secure)
 380:Drivers/CMSIS/Include/cmsis_gcc.h ****   \details Returns the current value of the non-secure Main Stack Pointer (MSP) when in secure stat
 381:Drivers/CMSIS/Include/cmsis_gcc.h ****   \return               MSP Register value
 382:Drivers/CMSIS/Include/cmsis_gcc.h ****  */
 383:Drivers/CMSIS/Include/cmsis_gcc.h **** __STATIC_FORCEINLINE uint32_t __TZ_get_MSP_NS(void)
 384:Drivers/CMSIS/Include/cmsis_gcc.h **** {
 385:Drivers/CMSIS/Include/cmsis_gcc.h ****   uint32_t result;
 386:Drivers/CMSIS/Include/cmsis_gcc.h **** 
 387:Drivers/CMSIS/Include/cmsis_gcc.h ****   __ASM volatile ("MRS %0, msp_ns" : "=r" (result) );
 388:Drivers/CMSIS/Include/cmsis_gcc.h ****   return(result);
 389:Drivers/CMSIS/Include/cmsis_gcc.h **** }
ARM GAS  C:\Users\NATHAN~1\AppData\Local\Temp\ccImtOWI.s 			page 21


 390:Drivers/CMSIS/Include/cmsis_gcc.h **** #endif
 391:Drivers/CMSIS/Include/cmsis_gcc.h **** 
 392:Drivers/CMSIS/Include/cmsis_gcc.h **** 
 393:Drivers/CMSIS/Include/cmsis_gcc.h **** /**
 394:Drivers/CMSIS/Include/cmsis_gcc.h ****   \brief   Set Main Stack Pointer
 395:Drivers/CMSIS/Include/cmsis_gcc.h ****   \details Assigns the given value to the Main Stack Pointer (MSP).
 396:Drivers/CMSIS/Include/cmsis_gcc.h ****   \param [in]    topOfMainStack  Main Stack Pointer value to set
 397:Drivers/CMSIS/Include/cmsis_gcc.h ****  */
 398:Drivers/CMSIS/Include/cmsis_gcc.h **** __STATIC_FORCEINLINE void __set_MSP(uint32_t topOfMainStack)
 399:Drivers/CMSIS/Include/cmsis_gcc.h **** {
 400:Drivers/CMSIS/Include/cmsis_gcc.h ****   __ASM volatile ("MSR msp, %0" : : "r" (topOfMainStack) : );
 401:Drivers/CMSIS/Include/cmsis_gcc.h **** }
 402:Drivers/CMSIS/Include/cmsis_gcc.h **** 
 403:Drivers/CMSIS/Include/cmsis_gcc.h **** 
 404:Drivers/CMSIS/Include/cmsis_gcc.h **** #if (defined (__ARM_FEATURE_CMSE ) && (__ARM_FEATURE_CMSE == 3))
 405:Drivers/CMSIS/Include/cmsis_gcc.h **** /**
 406:Drivers/CMSIS/Include/cmsis_gcc.h ****   \brief   Set Main Stack Pointer (non-secure)
 407:Drivers/CMSIS/Include/cmsis_gcc.h ****   \details Assigns the given value to the non-secure Main Stack Pointer (MSP) when in secure state.
 408:Drivers/CMSIS/Include/cmsis_gcc.h ****   \param [in]    topOfMainStack  Main Stack Pointer value to set
 409:Drivers/CMSIS/Include/cmsis_gcc.h ****  */
 410:Drivers/CMSIS/Include/cmsis_gcc.h **** __STATIC_FORCEINLINE void __TZ_set_MSP_NS(uint32_t topOfMainStack)
 411:Drivers/CMSIS/Include/cmsis_gcc.h **** {
 412:Drivers/CMSIS/Include/cmsis_gcc.h ****   __ASM volatile ("MSR msp_ns, %0" : : "r" (topOfMainStack) : );
 413:Drivers/CMSIS/Include/cmsis_gcc.h **** }
 414:Drivers/CMSIS/Include/cmsis_gcc.h **** #endif
 415:Drivers/CMSIS/Include/cmsis_gcc.h **** 
 416:Drivers/CMSIS/Include/cmsis_gcc.h **** 
 417:Drivers/CMSIS/Include/cmsis_gcc.h **** #if (defined (__ARM_FEATURE_CMSE ) && (__ARM_FEATURE_CMSE == 3))
 418:Drivers/CMSIS/Include/cmsis_gcc.h **** /**
 419:Drivers/CMSIS/Include/cmsis_gcc.h ****   \brief   Get Stack Pointer (non-secure)
 420:Drivers/CMSIS/Include/cmsis_gcc.h ****   \details Returns the current value of the non-secure Stack Pointer (SP) when in secure state.
 421:Drivers/CMSIS/Include/cmsis_gcc.h ****   \return               SP Register value
 422:Drivers/CMSIS/Include/cmsis_gcc.h ****  */
 423:Drivers/CMSIS/Include/cmsis_gcc.h **** __STATIC_FORCEINLINE uint32_t __TZ_get_SP_NS(void)
 424:Drivers/CMSIS/Include/cmsis_gcc.h **** {
 425:Drivers/CMSIS/Include/cmsis_gcc.h ****   uint32_t result;
 426:Drivers/CMSIS/Include/cmsis_gcc.h **** 
 427:Drivers/CMSIS/Include/cmsis_gcc.h ****   __ASM volatile ("MRS %0, sp_ns" : "=r" (result) );
 428:Drivers/CMSIS/Include/cmsis_gcc.h ****   return(result);
 429:Drivers/CMSIS/Include/cmsis_gcc.h **** }
 430:Drivers/CMSIS/Include/cmsis_gcc.h **** 
 431:Drivers/CMSIS/Include/cmsis_gcc.h **** 
 432:Drivers/CMSIS/Include/cmsis_gcc.h **** /**
 433:Drivers/CMSIS/Include/cmsis_gcc.h ****   \brief   Set Stack Pointer (non-secure)
 434:Drivers/CMSIS/Include/cmsis_gcc.h ****   \details Assigns the given value to the non-secure Stack Pointer (SP) when in secure state.
 435:Drivers/CMSIS/Include/cmsis_gcc.h ****   \param [in]    topOfStack  Stack Pointer value to set
 436:Drivers/CMSIS/Include/cmsis_gcc.h ****  */
 437:Drivers/CMSIS/Include/cmsis_gcc.h **** __STATIC_FORCEINLINE void __TZ_set_SP_NS(uint32_t topOfStack)
 438:Drivers/CMSIS/Include/cmsis_gcc.h **** {
 439:Drivers/CMSIS/Include/cmsis_gcc.h ****   __ASM volatile ("MSR sp_ns, %0" : : "r" (topOfStack) : );
 440:Drivers/CMSIS/Include/cmsis_gcc.h **** }
 441:Drivers/CMSIS/Include/cmsis_gcc.h **** #endif
 442:Drivers/CMSIS/Include/cmsis_gcc.h **** 
 443:Drivers/CMSIS/Include/cmsis_gcc.h **** 
 444:Drivers/CMSIS/Include/cmsis_gcc.h **** /**
 445:Drivers/CMSIS/Include/cmsis_gcc.h ****   \brief   Get Priority Mask
 446:Drivers/CMSIS/Include/cmsis_gcc.h ****   \details Returns the current state of the priority mask bit from the Priority Mask Register.
ARM GAS  C:\Users\NATHAN~1\AppData\Local\Temp\ccImtOWI.s 			page 22


 447:Drivers/CMSIS/Include/cmsis_gcc.h ****   \return               Priority Mask value
 448:Drivers/CMSIS/Include/cmsis_gcc.h ****  */
 449:Drivers/CMSIS/Include/cmsis_gcc.h **** __STATIC_FORCEINLINE uint32_t __get_PRIMASK(void)
  44              		.loc 2 449 31 view .LVU5
  45              	.LBB39:
 450:Drivers/CMSIS/Include/cmsis_gcc.h **** {
 451:Drivers/CMSIS/Include/cmsis_gcc.h ****   uint32_t result;
  46              		.loc 2 451 3 view .LVU6
 452:Drivers/CMSIS/Include/cmsis_gcc.h **** 
 453:Drivers/CMSIS/Include/cmsis_gcc.h ****   __ASM volatile ("MRS %0, primask" : "=r" (result) :: "memory");
  47              		.loc 2 453 3 view .LVU7
  48              		.syntax unified
  49              	@ 453 "Drivers/CMSIS/Include/cmsis_gcc.h" 1
  50 0002 EFF3108E 		MRS lr, primask
  51              	@ 0 "" 2
  52              	.LVL2:
 454:Drivers/CMSIS/Include/cmsis_gcc.h ****   return(result);
  53              		.loc 2 454 3 view .LVU8
  54              		.loc 2 454 3 is_stmt 0 view .LVU9
  55              		.thumb
  56              		.syntax unified
  57              	.LBE39:
  58              	.LBE38:
  59              		.loc 1 709 3 is_stmt 1 view .LVU10
  60              	.LBB40:
  61              	.LBI40:
 207:Drivers/CMSIS/Include/cmsis_gcc.h **** {
  62              		.loc 2 207 27 view .LVU11
  63              	.LBB41:
 209:Drivers/CMSIS/Include/cmsis_gcc.h **** }
  64              		.loc 2 209 3 view .LVU12
  65              		.syntax unified
  66              	@ 209 "Drivers/CMSIS/Include/cmsis_gcc.h" 1
  67 0006 72B6     		cpsid i
  68              	@ 0 "" 2
  69              		.thumb
  70              		.syntax unified
  71              	.LBE41:
  72              	.LBE40:
 710:Utilities/trace/adv_trace/stm32_adv_trace.c **** 
 711:Utilities/trace/adv_trace/stm32_adv_trace.c ****   if(ADV_TRACE_Ctx.TraceWrPtr == ADV_TRACE_Ctx.TraceRdPtr)
  73              		.loc 1 711 3 view .LVU13
  74              		.loc 1 711 19 is_stmt 0 view .LVU14
  75 0008 1E4B     		ldr	r3, .L9
  76 000a B3F812C0 		ldrh	ip, [r3, #18]
  77              		.loc 1 711 47 view .LVU15
  78 000e 1A8A     		ldrh	r2, [r3, #16]
  79              		.loc 1 711 5 view .LVU16
  80 0010 9445     		cmp	ip, r2
  81 0012 11D0     		beq	.L8
 712:Utilities/trace/adv_trace/stm32_adv_trace.c ****   {
 713:Utilities/trace/adv_trace/stm32_adv_trace.c **** #ifdef UTIL_ADV_TRACE_UNCHUNK_MODE
 714:Utilities/trace/adv_trace/stm32_adv_trace.c ****     freesize = (uint16_t)(UTIL_ADV_TRACE_FIFO_SIZE - ADV_TRACE_Ctx.TraceWrPtr);
 715:Utilities/trace/adv_trace/stm32_adv_trace.c ****     if((Size >= freesize) && (ADV_TRACE_Ctx.TraceRdPtr > Size))
 716:Utilities/trace/adv_trace/stm32_adv_trace.c ****     {
 717:Utilities/trace/adv_trace/stm32_adv_trace.c ****       ADV_TRACE_Ctx.unchunk_status = TRACE_UNCHUNK_DETECTED;
 718:Utilities/trace/adv_trace/stm32_adv_trace.c ****       ADV_TRACE_Ctx.unchunk_enabled = ADV_TRACE_Ctx.TraceWrPtr;
ARM GAS  C:\Users\NATHAN~1\AppData\Local\Temp\ccImtOWI.s 			page 23


 719:Utilities/trace/adv_trace/stm32_adv_trace.c ****       freesize = ADV_TRACE_Ctx.TraceRdPtr;
 720:Utilities/trace/adv_trace/stm32_adv_trace.c ****       ADV_TRACE_Ctx.TraceWrPtr = 0;
 721:Utilities/trace/adv_trace/stm32_adv_trace.c ****     }
 722:Utilities/trace/adv_trace/stm32_adv_trace.c **** #else
 723:Utilities/trace/adv_trace/stm32_adv_trace.c ****     /* need to add buffer full management*/
 724:Utilities/trace/adv_trace/stm32_adv_trace.c ****     freesize = (int16_t)UTIL_ADV_TRACE_FIFO_SIZE;
 725:Utilities/trace/adv_trace/stm32_adv_trace.c **** #endif
 726:Utilities/trace/adv_trace/stm32_adv_trace.c ****   }
 727:Utilities/trace/adv_trace/stm32_adv_trace.c ****   else
 728:Utilities/trace/adv_trace/stm32_adv_trace.c ****   {
 729:Utilities/trace/adv_trace/stm32_adv_trace.c **** #ifdef UTIL_ADV_TRACE_UNCHUNK_MODE
 730:Utilities/trace/adv_trace/stm32_adv_trace.c ****     if (ADV_TRACE_Ctx.TraceWrPtr > ADV_TRACE_Ctx.TraceRdPtr)
  82              		.loc 1 730 5 is_stmt 1 view .LVU17
  83              		.loc 1 730 8 is_stmt 0 view .LVU18
  84 0014 9445     		cmp	ip, r2
  85 0016 21D9     		bls	.L4
 731:Utilities/trace/adv_trace/stm32_adv_trace.c ****     {
 732:Utilities/trace/adv_trace/stm32_adv_trace.c ****       freesize = (uint16_t)(UTIL_ADV_TRACE_FIFO_SIZE - ADV_TRACE_Ctx.TraceWrPtr);
  86              		.loc 1 732 7 is_stmt 1 view .LVU19
  87              		.loc 1 732 16 is_stmt 0 view .LVU20
  88 0018 CCF58063 		rsb	r3, ip, #1024
  89 001c 9BB2     		uxth	r3, r3
  90              	.LVL3:
 733:Utilities/trace/adv_trace/stm32_adv_trace.c ****       if((Size >= freesize) && (ADV_TRACE_Ctx.TraceRdPtr > Size)) 
  91              		.loc 1 733 7 is_stmt 1 view .LVU21
  92              		.loc 1 733 9 is_stmt 0 view .LVU22
  93 001e 8342     		cmp	r3, r0
  94 0020 1FD8     		bhi	.L3
  95              		.loc 1 733 29 discriminator 1 view .LVU23
  96 0022 8242     		cmp	r2, r0
  97 0024 1DD9     		bls	.L3
 734:Utilities/trace/adv_trace/stm32_adv_trace.c ****       {
 735:Utilities/trace/adv_trace/stm32_adv_trace.c ****         ADV_TRACE_Ctx.unchunk_status = TRACE_UNCHUNK_DETECTED;
  98              		.loc 1 735 9 is_stmt 1 view .LVU24
  99              		.loc 1 735 38 is_stmt 0 view .LVU25
 100 0026 174B     		ldr	r3, .L9
 101              	.LVL4:
 102              		.loc 1 735 38 view .LVU26
 103 0028 0124     		movs	r4, #1
 104 002a 9C70     		strb	r4, [r3, #2]
 736:Utilities/trace/adv_trace/stm32_adv_trace.c ****         ADV_TRACE_Ctx.unchunk_enabled = ADV_TRACE_Ctx.TraceWrPtr;
 105              		.loc 1 736 9 is_stmt 1 view .LVU27
 106              		.loc 1 736 39 is_stmt 0 view .LVU28
 107 002c A3F800C0 		strh	ip, [r3]	@ movhi
 737:Utilities/trace/adv_trace/stm32_adv_trace.c ****         freesize = ADV_TRACE_Ctx.TraceRdPtr;
 108              		.loc 1 737 9 is_stmt 1 view .LVU29
 109              	.LVL5:
 738:Utilities/trace/adv_trace/stm32_adv_trace.c ****         ADV_TRACE_Ctx.TraceWrPtr = 0;
 110              		.loc 1 738 9 view .LVU30
 111              		.loc 1 738 34 is_stmt 0 view .LVU31
 112 0030 0024     		movs	r4, #0
 113 0032 5C82     		strh	r4, [r3, #18]	@ movhi
 737:Utilities/trace/adv_trace/stm32_adv_trace.c ****         freesize = ADV_TRACE_Ctx.TraceRdPtr;
 114              		.loc 1 737 18 view .LVU32
 115 0034 1346     		mov	r3, r2
 116 0036 14E0     		b	.L3
 117              	.LVL6:
ARM GAS  C:\Users\NATHAN~1\AppData\Local\Temp\ccImtOWI.s 			page 24


 118              	.L8:
 714:Utilities/trace/adv_trace/stm32_adv_trace.c ****     if((Size >= freesize) && (ADV_TRACE_Ctx.TraceRdPtr > Size))
 119              		.loc 1 714 5 is_stmt 1 view .LVU33
 714:Utilities/trace/adv_trace/stm32_adv_trace.c ****     if((Size >= freesize) && (ADV_TRACE_Ctx.TraceRdPtr > Size))
 120              		.loc 1 714 14 is_stmt 0 view .LVU34
 121 0038 CCF58063 		rsb	r3, ip, #1024
 122 003c 9BB2     		uxth	r3, r3
 123              	.LVL7:
 715:Utilities/trace/adv_trace/stm32_adv_trace.c ****     {
 124              		.loc 1 715 5 is_stmt 1 view .LVU35
 715:Utilities/trace/adv_trace/stm32_adv_trace.c ****     {
 125              		.loc 1 715 7 is_stmt 0 view .LVU36
 126 003e 9842     		cmp	r0, r3
 127 0040 0FD3     		bcc	.L3
 715:Utilities/trace/adv_trace/stm32_adv_trace.c ****     {
 128              		.loc 1 715 27 discriminator 1 view .LVU37
 129 0042 8242     		cmp	r2, r0
 130 0044 0DD9     		bls	.L3
 717:Utilities/trace/adv_trace/stm32_adv_trace.c ****       ADV_TRACE_Ctx.unchunk_enabled = ADV_TRACE_Ctx.TraceWrPtr;
 131              		.loc 1 717 7 is_stmt 1 view .LVU38
 717:Utilities/trace/adv_trace/stm32_adv_trace.c ****       ADV_TRACE_Ctx.unchunk_enabled = ADV_TRACE_Ctx.TraceWrPtr;
 132              		.loc 1 717 36 is_stmt 0 view .LVU39
 133 0046 0F4B     		ldr	r3, .L9
 134              	.LVL8:
 717:Utilities/trace/adv_trace/stm32_adv_trace.c ****       ADV_TRACE_Ctx.unchunk_enabled = ADV_TRACE_Ctx.TraceWrPtr;
 135              		.loc 1 717 36 view .LVU40
 136 0048 0124     		movs	r4, #1
 137 004a 9C70     		strb	r4, [r3, #2]
 718:Utilities/trace/adv_trace/stm32_adv_trace.c ****       freesize = ADV_TRACE_Ctx.TraceRdPtr;
 138              		.loc 1 718 7 is_stmt 1 view .LVU41
 718:Utilities/trace/adv_trace/stm32_adv_trace.c ****       freesize = ADV_TRACE_Ctx.TraceRdPtr;
 139              		.loc 1 718 37 is_stmt 0 view .LVU42
 140 004c A3F800C0 		strh	ip, [r3]	@ movhi
 719:Utilities/trace/adv_trace/stm32_adv_trace.c ****       ADV_TRACE_Ctx.TraceWrPtr = 0;
 141              		.loc 1 719 7 is_stmt 1 view .LVU43
 142              	.LVL9:
 720:Utilities/trace/adv_trace/stm32_adv_trace.c ****     }
 143              		.loc 1 720 7 view .LVU44
 720:Utilities/trace/adv_trace/stm32_adv_trace.c ****     }
 144              		.loc 1 720 32 is_stmt 0 view .LVU45
 145 0050 4FF0000C 		mov	ip, #0
 146 0054 A3F812C0 		strh	ip, [r3, #18]	@ movhi
 719:Utilities/trace/adv_trace/stm32_adv_trace.c ****       ADV_TRACE_Ctx.TraceWrPtr = 0;
 147              		.loc 1 719 16 view .LVU46
 148 0058 1346     		mov	r3, r2
 149 005a 02E0     		b	.L3
 150              	.LVL10:
 151              	.L4:
 739:Utilities/trace/adv_trace/stm32_adv_trace.c ****       }
 740:Utilities/trace/adv_trace/stm32_adv_trace.c ****     }
 741:Utilities/trace/adv_trace/stm32_adv_trace.c ****     else
 742:Utilities/trace/adv_trace/stm32_adv_trace.c ****     {
 743:Utilities/trace/adv_trace/stm32_adv_trace.c ****       freesize = (uint16_t)(ADV_TRACE_Ctx.TraceRdPtr - ADV_TRACE_Ctx.TraceWrPtr);
 152              		.loc 1 743 7 is_stmt 1 view .LVU47
 153              		.loc 1 743 16 is_stmt 0 view .LVU48
 154 005c A2EB0C03 		sub	r3, r2, ip
 155 0060 9BB2     		uxth	r3, r3
ARM GAS  C:\Users\NATHAN~1\AppData\Local\Temp\ccImtOWI.s 			page 25


 156              	.LVL11:
 157              	.L3:
 744:Utilities/trace/adv_trace/stm32_adv_trace.c ****       }
 745:Utilities/trace/adv_trace/stm32_adv_trace.c **** #else
 746:Utilities/trace/adv_trace/stm32_adv_trace.c ****     if (ADV_TRACE_Ctx.TraceWrPtr > ADV_TRACE_Ctx.TraceRdPtr)
 747:Utilities/trace/adv_trace/stm32_adv_trace.c ****     {
 748:Utilities/trace/adv_trace/stm32_adv_trace.c ****       freesize = UTIL_ADV_TRACE_FIFO_SIZE - ADV_TRACE_Ctx.TraceWrPtr + ADV_TRACE_Ctx.TraceRdPtr;
 749:Utilities/trace/adv_trace/stm32_adv_trace.c ****     }
 750:Utilities/trace/adv_trace/stm32_adv_trace.c ****     else
 751:Utilities/trace/adv_trace/stm32_adv_trace.c ****     {
 752:Utilities/trace/adv_trace/stm32_adv_trace.c ****       freesize = ADV_TRACE_Ctx.TraceRdPtr - ADV_TRACE_Ctx.TraceWrPtr;
 753:Utilities/trace/adv_trace/stm32_adv_trace.c ****     }
 754:Utilities/trace/adv_trace/stm32_adv_trace.c **** #endif
 755:Utilities/trace/adv_trace/stm32_adv_trace.c ****   }
 756:Utilities/trace/adv_trace/stm32_adv_trace.c **** 
 757:Utilities/trace/adv_trace/stm32_adv_trace.c ****   if(freesize > Size)
 158              		.loc 1 757 3 is_stmt 1 view .LVU49
 159              		.loc 1 757 5 is_stmt 0 view .LVU50
 160 0062 8342     		cmp	r3, r0
 161 0064 0AD9     		bls	.L6
 758:Utilities/trace/adv_trace/stm32_adv_trace.c ****   {
 759:Utilities/trace/adv_trace/stm32_adv_trace.c ****     *Pos = ADV_TRACE_Ctx.TraceWrPtr;
 162              		.loc 1 759 5 is_stmt 1 view .LVU51
 163              		.loc 1 759 25 is_stmt 0 view .LVU52
 164 0066 074A     		ldr	r2, .L9
 165 0068 538A     		ldrh	r3, [r2, #18]
 166              	.LVL12:
 167              		.loc 1 759 10 view .LVU53
 168 006a 0B80     		strh	r3, [r1]	@ movhi
 760:Utilities/trace/adv_trace/stm32_adv_trace.c ****     ADV_TRACE_Ctx.TraceWrPtr = (ADV_TRACE_Ctx.TraceWrPtr + Size) % UTIL_ADV_TRACE_FIFO_SIZE;
 169              		.loc 1 760 5 is_stmt 1 view .LVU54
 170              		.loc 1 760 58 is_stmt 0 view .LVU55
 171 006c 0344     		add	r3, r3, r0
 172              		.loc 1 760 66 view .LVU56
 173 006e C3F30903 		ubfx	r3, r3, #0, #10
 174              		.loc 1 760 30 view .LVU57
 175 0072 5382     		strh	r3, [r2, #18]	@ movhi
 761:Utilities/trace/adv_trace/stm32_adv_trace.c ****     ret = 0;
 176              		.loc 1 761 5 is_stmt 1 view .LVU58
 177              	.LVL13:
 178              		.loc 1 761 9 is_stmt 0 view .LVU59
 179 0074 0020     		movs	r0, #0
 180              	.LVL14:
 181              	.L5:
 762:Utilities/trace/adv_trace/stm32_adv_trace.c **** #if defined(UTIL_ADV_TRACE_OVERRUN)
 763:Utilities/trace/adv_trace/stm32_adv_trace.c ****     if(ADV_TRACE_Ctx.OverRunStatus == TRACE_OVERRUN_EXECUTED)
 764:Utilities/trace/adv_trace/stm32_adv_trace.c ****     {
 765:Utilities/trace/adv_trace/stm32_adv_trace.c ****       /* clear the over run */
 766:Utilities/trace/adv_trace/stm32_adv_trace.c ****       ADV_TRACE_Ctx.OverRunStatus = TRACE_OVERRUN_NONE;
 767:Utilities/trace/adv_trace/stm32_adv_trace.c ****     }
 768:Utilities/trace/adv_trace/stm32_adv_trace.c **** #endif
 769:Utilities/trace/adv_trace/stm32_adv_trace.c **** 
 770:Utilities/trace/adv_trace/stm32_adv_trace.c **** #ifdef UTIL_ADV_TRACE_UNCHUNK_MODE
 771:Utilities/trace/adv_trace/stm32_adv_trace.c ****     UTIL_ADV_TRACE_DEBUG("\n--TRACE_AllocateBufer(%d-%d-%d::%d-%d)--\n", freesize - Size, Size, ADV
 182              		.loc 1 771 179 is_stmt 1 view .LVU60
 772:Utilities/trace/adv_trace/stm32_adv_trace.c **** #else
 773:Utilities/trace/adv_trace/stm32_adv_trace.c ****     UTIL_ADV_TRACE_DEBUG("\n--TRACE_AllocateBufer(%d-%d::%d-%d)--\n",freesize - Size, Size, ADV_TRA
ARM GAS  C:\Users\NATHAN~1\AppData\Local\Temp\ccImtOWI.s 			page 26


 774:Utilities/trace/adv_trace/stm32_adv_trace.c **** #endif
 775:Utilities/trace/adv_trace/stm32_adv_trace.c ****   }
 776:Utilities/trace/adv_trace/stm32_adv_trace.c **** #if defined(UTIL_ADV_TRACE_OVERRUN)
 777:Utilities/trace/adv_trace/stm32_adv_trace.c ****   else
 778:Utilities/trace/adv_trace/stm32_adv_trace.c ****   {
 779:Utilities/trace/adv_trace/stm32_adv_trace.c ****     if((ADV_TRACE_Ctx.OverRunStatus == TRACE_OVERRUN_NONE) && (NULL != ADV_TRACE_Ctx.overrun_func))
 780:Utilities/trace/adv_trace/stm32_adv_trace.c ****     {
 781:Utilities/trace/adv_trace/stm32_adv_trace.c ****       UTIL_ADV_TRACE_DEBUG(":TRACE_OVERRUN_INDICATION");
 782:Utilities/trace/adv_trace/stm32_adv_trace.c ****       ADV_TRACE_Ctx.OverRunStatus = TRACE_OVERRUN_INDICATION;
 783:Utilities/trace/adv_trace/stm32_adv_trace.c ****     }
 784:Utilities/trace/adv_trace/stm32_adv_trace.c ****   }
 785:Utilities/trace/adv_trace/stm32_adv_trace.c **** #endif
 786:Utilities/trace/adv_trace/stm32_adv_trace.c **** 
 787:Utilities/trace/adv_trace/stm32_adv_trace.c ****   UTIL_ADV_TRACE_EXIT_CRITICAL_SECTION();
 183              		.loc 1 787 3 view .LVU61
 184              	.LBB42:
 185              	.LBI42:
 455:Drivers/CMSIS/Include/cmsis_gcc.h **** }
 456:Drivers/CMSIS/Include/cmsis_gcc.h **** 
 457:Drivers/CMSIS/Include/cmsis_gcc.h **** 
 458:Drivers/CMSIS/Include/cmsis_gcc.h **** #if (defined (__ARM_FEATURE_CMSE ) && (__ARM_FEATURE_CMSE == 3))
 459:Drivers/CMSIS/Include/cmsis_gcc.h **** /**
 460:Drivers/CMSIS/Include/cmsis_gcc.h ****   \brief   Get Priority Mask (non-secure)
 461:Drivers/CMSIS/Include/cmsis_gcc.h ****   \details Returns the current state of the non-secure priority mask bit from the Priority Mask Reg
 462:Drivers/CMSIS/Include/cmsis_gcc.h ****   \return               Priority Mask value
 463:Drivers/CMSIS/Include/cmsis_gcc.h ****  */
 464:Drivers/CMSIS/Include/cmsis_gcc.h **** __STATIC_FORCEINLINE uint32_t __TZ_get_PRIMASK_NS(void)
 465:Drivers/CMSIS/Include/cmsis_gcc.h **** {
 466:Drivers/CMSIS/Include/cmsis_gcc.h ****   uint32_t result;
 467:Drivers/CMSIS/Include/cmsis_gcc.h **** 
 468:Drivers/CMSIS/Include/cmsis_gcc.h ****   __ASM volatile ("MRS %0, primask_ns" : "=r" (result) :: "memory");
 469:Drivers/CMSIS/Include/cmsis_gcc.h ****   return(result);
 470:Drivers/CMSIS/Include/cmsis_gcc.h **** }
 471:Drivers/CMSIS/Include/cmsis_gcc.h **** #endif
 472:Drivers/CMSIS/Include/cmsis_gcc.h **** 
 473:Drivers/CMSIS/Include/cmsis_gcc.h **** 
 474:Drivers/CMSIS/Include/cmsis_gcc.h **** /**
 475:Drivers/CMSIS/Include/cmsis_gcc.h ****   \brief   Set Priority Mask
 476:Drivers/CMSIS/Include/cmsis_gcc.h ****   \details Assigns the given value to the Priority Mask Register.
 477:Drivers/CMSIS/Include/cmsis_gcc.h ****   \param [in]    priMask  Priority Mask
 478:Drivers/CMSIS/Include/cmsis_gcc.h ****  */
 479:Drivers/CMSIS/Include/cmsis_gcc.h **** __STATIC_FORCEINLINE void __set_PRIMASK(uint32_t priMask)
 186              		.loc 2 479 27 view .LVU62
 187              	.LBB43:
 480:Drivers/CMSIS/Include/cmsis_gcc.h **** {
 481:Drivers/CMSIS/Include/cmsis_gcc.h ****   __ASM volatile ("MSR primask, %0" : : "r" (priMask) : "memory");
 188              		.loc 2 481 3 view .LVU63
 189              		.syntax unified
 190              	@ 481 "Drivers/CMSIS/Include/cmsis_gcc.h" 1
 191 0076 8EF31088 		MSR primask, lr
 192              	@ 0 "" 2
 193              	.LVL15:
 194              		.loc 2 481 3 is_stmt 0 view .LVU64
 195              		.thumb
 196              		.syntax unified
 197              	.LBE43:
 198              	.LBE42:
ARM GAS  C:\Users\NATHAN~1\AppData\Local\Temp\ccImtOWI.s 			page 27


 788:Utilities/trace/adv_trace/stm32_adv_trace.c ****   return ret;
 199              		.loc 1 788 3 is_stmt 1 view .LVU65
 789:Utilities/trace/adv_trace/stm32_adv_trace.c **** }
 200              		.loc 1 789 1 is_stmt 0 view .LVU66
 201 007a 10BD     		pop	{r4, pc}
 202              	.LVL16:
 203              	.L6:
 707:Utilities/trace/adv_trace/stm32_adv_trace.c **** 
 204              		.loc 1 707 11 view .LVU67
 205 007c 4FF0FF30 		mov	r0, #-1
 206              	.LVL17:
 707:Utilities/trace/adv_trace/stm32_adv_trace.c **** 
 207              		.loc 1 707 11 view .LVU68
 208 0080 F9E7     		b	.L5
 209              	.L10:
 210 0082 00BF     		.align	2
 211              	.L9:
 212 0084 00000000 		.word	.LANCHOR0
 213              		.cfi_endproc
 214              	.LFE129:
 216              		.section	.text.TRACE_Lock,"ax",%progbits
 217              		.align	1
 218              		.syntax unified
 219              		.thumb
 220              		.thumb_func
 222              	TRACE_Lock:
 223              	.LFB130:
 790:Utilities/trace/adv_trace/stm32_adv_trace.c **** 
 791:Utilities/trace/adv_trace/stm32_adv_trace.c **** /**
 792:Utilities/trace/adv_trace/stm32_adv_trace.c ****  * @brief  Lock the trace buffer.
 793:Utilities/trace/adv_trace/stm32_adv_trace.c ****  * @retval None.
 794:Utilities/trace/adv_trace/stm32_adv_trace.c ****  */
 795:Utilities/trace/adv_trace/stm32_adv_trace.c **** static void TRACE_Lock(void)
 796:Utilities/trace/adv_trace/stm32_adv_trace.c **** {
 224              		.loc 1 796 1 is_stmt 1 view -0
 225              		.cfi_startproc
 226              		@ args = 0, pretend = 0, frame = 0
 227              		@ frame_needed = 0, uses_anonymous_args = 0
 228              		@ link register save eliminated.
 797:Utilities/trace/adv_trace/stm32_adv_trace.c ****   UTIL_ADV_TRACE_ENTER_CRITICAL_SECTION();
 229              		.loc 1 797 3 view .LVU70
 230              	.LBB44:
 231              	.LBI44:
 449:Drivers/CMSIS/Include/cmsis_gcc.h **** {
 232              		.loc 2 449 31 view .LVU71
 233              	.LBB45:
 451:Drivers/CMSIS/Include/cmsis_gcc.h **** 
 234              		.loc 2 451 3 view .LVU72
 453:Drivers/CMSIS/Include/cmsis_gcc.h ****   return(result);
 235              		.loc 2 453 3 view .LVU73
 236              		.syntax unified
 237              	@ 453 "Drivers/CMSIS/Include/cmsis_gcc.h" 1
 238 0000 EFF31081 		MRS r1, primask
 239              	@ 0 "" 2
 240              	.LVL18:
 454:Drivers/CMSIS/Include/cmsis_gcc.h **** }
 241              		.loc 2 454 3 view .LVU74
ARM GAS  C:\Users\NATHAN~1\AppData\Local\Temp\ccImtOWI.s 			page 28


 454:Drivers/CMSIS/Include/cmsis_gcc.h **** }
 242              		.loc 2 454 3 is_stmt 0 view .LVU75
 243              		.thumb
 244              		.syntax unified
 245              	.LBE45:
 246              	.LBE44:
 247              		.loc 1 797 3 is_stmt 1 view .LVU76
 248              	.LBB46:
 249              	.LBI46:
 207:Drivers/CMSIS/Include/cmsis_gcc.h **** {
 250              		.loc 2 207 27 view .LVU77
 251              	.LBB47:
 209:Drivers/CMSIS/Include/cmsis_gcc.h **** }
 252              		.loc 2 209 3 view .LVU78
 253              		.syntax unified
 254              	@ 209 "Drivers/CMSIS/Include/cmsis_gcc.h" 1
 255 0004 72B6     		cpsid i
 256              	@ 0 "" 2
 257              		.thumb
 258              		.syntax unified
 259              	.LBE47:
 260              	.LBE46:
 798:Utilities/trace/adv_trace/stm32_adv_trace.c ****   ADV_TRACE_Ctx.TraceLock++;
 261              		.loc 1 798 3 view .LVU79
 262              		.loc 1 798 16 is_stmt 0 view .LVU80
 263 0006 034A     		ldr	r2, .L12
 264 0008 D38A     		ldrh	r3, [r2, #22]
 265              		.loc 1 798 26 view .LVU81
 266 000a 0133     		adds	r3, r3, #1
 267 000c D382     		strh	r3, [r2, #22]	@ movhi
 799:Utilities/trace/adv_trace/stm32_adv_trace.c ****   UTIL_ADV_TRACE_EXIT_CRITICAL_SECTION();
 268              		.loc 1 799 3 is_stmt 1 view .LVU82
 269              	.LVL19:
 270              	.LBB48:
 271              	.LBI48:
 479:Drivers/CMSIS/Include/cmsis_gcc.h **** {
 272              		.loc 2 479 27 view .LVU83
 273              	.LBB49:
 274              		.loc 2 481 3 view .LVU84
 275              		.syntax unified
 276              	@ 481 "Drivers/CMSIS/Include/cmsis_gcc.h" 1
 277 000e 81F31088 		MSR primask, r1
 278              	@ 0 "" 2
 279              	.LVL20:
 280              		.loc 2 481 3 is_stmt 0 view .LVU85
 281              		.thumb
 282              		.syntax unified
 283              	.LBE49:
 284              	.LBE48:
 800:Utilities/trace/adv_trace/stm32_adv_trace.c **** }
 285              		.loc 1 800 1 view .LVU86
 286 0012 7047     		bx	lr
 287              	.L13:
 288              		.align	2
 289              	.L12:
 290 0014 00000000 		.word	.LANCHOR0
 291              		.cfi_endproc
ARM GAS  C:\Users\NATHAN~1\AppData\Local\Temp\ccImtOWI.s 			page 29


 292              	.LFE130:
 294              		.section	.text.TRACE_UnLock,"ax",%progbits
 295              		.align	1
 296              		.syntax unified
 297              		.thumb
 298              		.thumb_func
 300              	TRACE_UnLock:
 301              	.LFB131:
 801:Utilities/trace/adv_trace/stm32_adv_trace.c **** 
 802:Utilities/trace/adv_trace/stm32_adv_trace.c **** /**
 803:Utilities/trace/adv_trace/stm32_adv_trace.c ****  * @brief  UnLock the trace buffer.
 804:Utilities/trace/adv_trace/stm32_adv_trace.c ****  * @retval None.
 805:Utilities/trace/adv_trace/stm32_adv_trace.c ****  */
 806:Utilities/trace/adv_trace/stm32_adv_trace.c **** static void TRACE_UnLock(void)
 807:Utilities/trace/adv_trace/stm32_adv_trace.c **** {
 302              		.loc 1 807 1 is_stmt 1 view -0
 303              		.cfi_startproc
 304              		@ args = 0, pretend = 0, frame = 0
 305              		@ frame_needed = 0, uses_anonymous_args = 0
 306              		@ link register save eliminated.
 808:Utilities/trace/adv_trace/stm32_adv_trace.c ****   UTIL_ADV_TRACE_ENTER_CRITICAL_SECTION();
 307              		.loc 1 808 3 view .LVU88
 308              	.LBB50:
 309              	.LBI50:
 449:Drivers/CMSIS/Include/cmsis_gcc.h **** {
 310              		.loc 2 449 31 view .LVU89
 311              	.LBB51:
 451:Drivers/CMSIS/Include/cmsis_gcc.h **** 
 312              		.loc 2 451 3 view .LVU90
 453:Drivers/CMSIS/Include/cmsis_gcc.h ****   return(result);
 313              		.loc 2 453 3 view .LVU91
 314              		.syntax unified
 315              	@ 453 "Drivers/CMSIS/Include/cmsis_gcc.h" 1
 316 0000 EFF31081 		MRS r1, primask
 317              	@ 0 "" 2
 318              	.LVL21:
 454:Drivers/CMSIS/Include/cmsis_gcc.h **** }
 319              		.loc 2 454 3 view .LVU92
 454:Drivers/CMSIS/Include/cmsis_gcc.h **** }
 320              		.loc 2 454 3 is_stmt 0 view .LVU93
 321              		.thumb
 322              		.syntax unified
 323              	.LBE51:
 324              	.LBE50:
 325              		.loc 1 808 3 is_stmt 1 view .LVU94
 326              	.LBB52:
 327              	.LBI52:
 207:Drivers/CMSIS/Include/cmsis_gcc.h **** {
 328              		.loc 2 207 27 view .LVU95
 329              	.LBB53:
 209:Drivers/CMSIS/Include/cmsis_gcc.h **** }
 330              		.loc 2 209 3 view .LVU96
 331              		.syntax unified
 332              	@ 209 "Drivers/CMSIS/Include/cmsis_gcc.h" 1
 333 0004 72B6     		cpsid i
 334              	@ 0 "" 2
 335              		.thumb
ARM GAS  C:\Users\NATHAN~1\AppData\Local\Temp\ccImtOWI.s 			page 30


 336              		.syntax unified
 337              	.LBE53:
 338              	.LBE52:
 809:Utilities/trace/adv_trace/stm32_adv_trace.c ****   ADV_TRACE_Ctx.TraceLock--;
 339              		.loc 1 809 3 view .LVU97
 340              		.loc 1 809 16 is_stmt 0 view .LVU98
 341 0006 034A     		ldr	r2, .L15
 342 0008 D38A     		ldrh	r3, [r2, #22]
 343              		.loc 1 809 26 view .LVU99
 344 000a 013B     		subs	r3, r3, #1
 345 000c D382     		strh	r3, [r2, #22]	@ movhi
 810:Utilities/trace/adv_trace/stm32_adv_trace.c ****   UTIL_ADV_TRACE_EXIT_CRITICAL_SECTION();
 346              		.loc 1 810 3 is_stmt 1 view .LVU100
 347              	.LVL22:
 348              	.LBB54:
 349              	.LBI54:
 479:Drivers/CMSIS/Include/cmsis_gcc.h **** {
 350              		.loc 2 479 27 view .LVU101
 351              	.LBB55:
 352              		.loc 2 481 3 view .LVU102
 353              		.syntax unified
 354              	@ 481 "Drivers/CMSIS/Include/cmsis_gcc.h" 1
 355 000e 81F31088 		MSR primask, r1
 356              	@ 0 "" 2
 357              	.LVL23:
 358              		.loc 2 481 3 is_stmt 0 view .LVU103
 359              		.thumb
 360              		.syntax unified
 361              	.LBE55:
 362              	.LBE54:
 811:Utilities/trace/adv_trace/stm32_adv_trace.c **** }
 363              		.loc 1 811 1 view .LVU104
 364 0012 7047     		bx	lr
 365              	.L16:
 366              		.align	2
 367              	.L15:
 368 0014 00000000 		.word	.LANCHOR0
 369              		.cfi_endproc
 370              	.LFE131:
 372              		.section	.text.TRACE_IsLocked,"ax",%progbits
 373              		.align	1
 374              		.syntax unified
 375              		.thumb
 376              		.thumb_func
 378              	TRACE_IsLocked:
 379              	.LFB132:
 812:Utilities/trace/adv_trace/stm32_adv_trace.c **** 
 813:Utilities/trace/adv_trace/stm32_adv_trace.c **** /**
 814:Utilities/trace/adv_trace/stm32_adv_trace.c ****  * @brief  UnLock the trace buffer.
 815:Utilities/trace/adv_trace/stm32_adv_trace.c ****  * @retval None.
 816:Utilities/trace/adv_trace/stm32_adv_trace.c ****  */
 817:Utilities/trace/adv_trace/stm32_adv_trace.c **** static uint32_t TRACE_IsLocked(void)
 818:Utilities/trace/adv_trace/stm32_adv_trace.c **** {
 380              		.loc 1 818 1 is_stmt 1 view -0
 381              		.cfi_startproc
 382              		@ args = 0, pretend = 0, frame = 0
 383              		@ frame_needed = 0, uses_anonymous_args = 0
ARM GAS  C:\Users\NATHAN~1\AppData\Local\Temp\ccImtOWI.s 			page 31


 384              		@ link register save eliminated.
 819:Utilities/trace/adv_trace/stm32_adv_trace.c ****   return (ADV_TRACE_Ctx.TraceLock == 0u? 0u: 1u);
 385              		.loc 1 819 3 view .LVU106
 386              		.loc 1 819 24 is_stmt 0 view .LVU107
 387 0000 024B     		ldr	r3, .L18
 388 0002 D88A     		ldrh	r0, [r3, #22]
 820:Utilities/trace/adv_trace/stm32_adv_trace.c **** }
 389              		.loc 1 820 1 view .LVU108
 390 0004 0038     		subs	r0, r0, #0
 391 0006 18BF     		it	ne
 392 0008 0120     		movne	r0, #1
 393 000a 7047     		bx	lr
 394              	.L19:
 395              		.align	2
 396              	.L18:
 397 000c 00000000 		.word	.LANCHOR0
 398              		.cfi_endproc
 399              	.LFE132:
 401              		.section	.text.UTIL_ADV_TRACE_Init,"ax",%progbits
 402              		.align	1
 403              		.global	UTIL_ADV_TRACE_Init
 404              		.syntax unified
 405              		.thumb
 406              		.thumb_func
 408              	UTIL_ADV_TRACE_Init:
 409              	.LFB107:
 167:Utilities/trace/adv_trace/stm32_adv_trace.c ****   /* initialize the Ptr for Read/Write */
 410              		.loc 1 167 1 is_stmt 1 view -0
 411              		.cfi_startproc
 412              		@ args = 0, pretend = 0, frame = 0
 413              		@ frame_needed = 0, uses_anonymous_args = 0
 414 0000 08B5     		push	{r3, lr}
 415              	.LCFI1:
 416              		.cfi_def_cfa_offset 8
 417              		.cfi_offset 3, -8
 418              		.cfi_offset 14, -4
 169:Utilities/trace/adv_trace/stm32_adv_trace.c ****   (void)UTIL_ADV_TRACE_MEMSET8(&ADV_TRACE_Buffer, 0x0, sizeof(ADV_TRACE_Buffer));
 419              		.loc 1 169 3 view .LVU110
 420 0002 1822     		movs	r2, #24
 421 0004 0021     		movs	r1, #0
 422 0006 0748     		ldr	r0, .L22
 423 0008 FFF7FEFF 		bl	UTIL_MEM_set_8
 424              	.LVL24:
 170:Utilities/trace/adv_trace/stm32_adv_trace.c **** 
 425              		.loc 1 170 3 view .LVU111
 426 000c 4FF48062 		mov	r2, #1024
 427 0010 0021     		movs	r1, #0
 428 0012 0548     		ldr	r0, .L22+4
 429 0014 FFF7FEFF 		bl	UTIL_MEM_set_8
 430              	.LVL25:
 173:Utilities/trace/adv_trace/stm32_adv_trace.c **** #endif
 431              		.loc 1 173 43 view .LVU112
 176:Utilities/trace/adv_trace/stm32_adv_trace.c **** 
 432              		.loc 1 176 41 view .LVU113
 179:Utilities/trace/adv_trace/stm32_adv_trace.c **** }
 433              		.loc 1 179 3 view .LVU114
 179:Utilities/trace/adv_trace/stm32_adv_trace.c **** }
ARM GAS  C:\Users\NATHAN~1\AppData\Local\Temp\ccImtOWI.s 			page 32


 434              		.loc 1 179 26 is_stmt 0 view .LVU115
 435 0018 044B     		ldr	r3, .L22+8
 436 001a 1B68     		ldr	r3, [r3]
 179:Utilities/trace/adv_trace/stm32_adv_trace.c **** }
 437              		.loc 1 179 10 view .LVU116
 438 001c 0448     		ldr	r0, .L22+12
 439 001e 9847     		blx	r3
 440              	.LVL26:
 180:Utilities/trace/adv_trace/stm32_adv_trace.c **** 
 441              		.loc 1 180 1 view .LVU117
 442 0020 08BD     		pop	{r3, pc}
 443              	.L23:
 444 0022 00BF     		.align	2
 445              	.L22:
 446 0024 00000000 		.word	.LANCHOR0
 447 0028 00000000 		.word	.LANCHOR1
 448 002c 00000000 		.word	UTIL_TraceDriver
 449 0030 00000000 		.word	TRACE_TxCpltCallback
 450              		.cfi_endproc
 451              	.LFE107:
 453              		.section	.text.UTIL_ADV_TRACE_DeInit,"ax",%progbits
 454              		.align	1
 455              		.global	UTIL_ADV_TRACE_DeInit
 456              		.syntax unified
 457              		.thumb
 458              		.thumb_func
 460              	UTIL_ADV_TRACE_DeInit:
 461              	.LFB108:
 183:Utilities/trace/adv_trace/stm32_adv_trace.c ****   /* Un-initialize the Low Level interface */
 462              		.loc 1 183 1 is_stmt 1 view -0
 463              		.cfi_startproc
 464              		@ args = 0, pretend = 0, frame = 0
 465              		@ frame_needed = 0, uses_anonymous_args = 0
 466 0000 08B5     		push	{r3, lr}
 467              	.LCFI2:
 468              		.cfi_def_cfa_offset 8
 469              		.cfi_offset 3, -8
 470              		.cfi_offset 14, -4
 185:Utilities/trace/adv_trace/stm32_adv_trace.c **** }
 471              		.loc 1 185 3 view .LVU119
 185:Utilities/trace/adv_trace/stm32_adv_trace.c **** }
 472              		.loc 1 185 26 is_stmt 0 view .LVU120
 473 0002 024B     		ldr	r3, .L26
 474 0004 5B68     		ldr	r3, [r3, #4]
 185:Utilities/trace/adv_trace/stm32_adv_trace.c **** }
 475              		.loc 1 185 10 view .LVU121
 476 0006 9847     		blx	r3
 477              	.LVL27:
 186:Utilities/trace/adv_trace/stm32_adv_trace.c **** 
 478              		.loc 1 186 1 view .LVU122
 479 0008 08BD     		pop	{r3, pc}
 480              	.L27:
 481 000a 00BF     		.align	2
 482              	.L26:
 483 000c 00000000 		.word	UTIL_TraceDriver
 484              		.cfi_endproc
 485              	.LFE108:
ARM GAS  C:\Users\NATHAN~1\AppData\Local\Temp\ccImtOWI.s 			page 33


 487              		.section	.text.UTIL_ADV_TRACE_IsBufferEmpty,"ax",%progbits
 488              		.align	1
 489              		.global	UTIL_ADV_TRACE_IsBufferEmpty
 490              		.syntax unified
 491              		.thumb
 492              		.thumb_func
 494              	UTIL_ADV_TRACE_IsBufferEmpty:
 495              	.LFB109:
 189:Utilities/trace/adv_trace/stm32_adv_trace.c ****   /* check of the buffer is empty */
 496              		.loc 1 189 1 is_stmt 1 view -0
 497              		.cfi_startproc
 498              		@ args = 0, pretend = 0, frame = 0
 499              		@ frame_needed = 0, uses_anonymous_args = 0
 500              		@ link register save eliminated.
 191:Utilities/trace/adv_trace/stm32_adv_trace.c ****     return 1;
 501              		.loc 1 191 3 view .LVU124
 191:Utilities/trace/adv_trace/stm32_adv_trace.c ****     return 1;
 502              		.loc 1 191 19 is_stmt 0 view .LVU125
 503 0000 044B     		ldr	r3, .L31
 504 0002 5A8A     		ldrh	r2, [r3, #18]
 191:Utilities/trace/adv_trace/stm32_adv_trace.c ****     return 1;
 505              		.loc 1 191 47 view .LVU126
 506 0004 1B8A     		ldrh	r3, [r3, #16]
 191:Utilities/trace/adv_trace/stm32_adv_trace.c ****     return 1;
 507              		.loc 1 191 5 view .LVU127
 508 0006 9A42     		cmp	r2, r3
 509 0008 01D0     		beq	.L30
 193:Utilities/trace/adv_trace/stm32_adv_trace.c **** }
 510              		.loc 1 193 10 view .LVU128
 511 000a 0020     		movs	r0, #0
 512 000c 7047     		bx	lr
 513              	.L30:
 192:Utilities/trace/adv_trace/stm32_adv_trace.c ****   return 0;
 514              		.loc 1 192 12 view .LVU129
 515 000e 0120     		movs	r0, #1
 194:Utilities/trace/adv_trace/stm32_adv_trace.c **** 
 516              		.loc 1 194 1 view .LVU130
 517 0010 7047     		bx	lr
 518              	.L32:
 519 0012 00BF     		.align	2
 520              	.L31:
 521 0014 00000000 		.word	.LANCHOR0
 522              		.cfi_endproc
 523              	.LFE109:
 525              		.section	.text.UTIL_ADV_TRACE_StartRxProcess,"ax",%progbits
 526              		.align	1
 527              		.global	UTIL_ADV_TRACE_StartRxProcess
 528              		.syntax unified
 529              		.thumb
 530              		.thumb_func
 532              	UTIL_ADV_TRACE_StartRxProcess:
 533              	.LVL28:
 534              	.LFB110:
 197:Utilities/trace/adv_trace/stm32_adv_trace.c ****   /* start the RX process */
 535              		.loc 1 197 1 is_stmt 1 view -0
 536              		.cfi_startproc
 537              		@ args = 0, pretend = 0, frame = 0
ARM GAS  C:\Users\NATHAN~1\AppData\Local\Temp\ccImtOWI.s 			page 34


 538              		@ frame_needed = 0, uses_anonymous_args = 0
 197:Utilities/trace/adv_trace/stm32_adv_trace.c ****   /* start the RX process */
 539              		.loc 1 197 1 is_stmt 0 view .LVU132
 540 0000 08B5     		push	{r3, lr}
 541              	.LCFI3:
 542              		.cfi_def_cfa_offset 8
 543              		.cfi_offset 3, -8
 544              		.cfi_offset 14, -4
 199:Utilities/trace/adv_trace/stm32_adv_trace.c **** }
 545              		.loc 1 199 3 is_stmt 1 view .LVU133
 199:Utilities/trace/adv_trace/stm32_adv_trace.c **** }
 546              		.loc 1 199 26 is_stmt 0 view .LVU134
 547 0002 024B     		ldr	r3, .L35
 548 0004 9B68     		ldr	r3, [r3, #8]
 199:Utilities/trace/adv_trace/stm32_adv_trace.c **** }
 549              		.loc 1 199 10 view .LVU135
 550 0006 9847     		blx	r3
 551              	.LVL29:
 200:Utilities/trace/adv_trace/stm32_adv_trace.c **** 
 552              		.loc 1 200 1 view .LVU136
 553 0008 08BD     		pop	{r3, pc}
 554              	.L36:
 555 000a 00BF     		.align	2
 556              	.L35:
 557 000c 00000000 		.word	UTIL_TraceDriver
 558              		.cfi_endproc
 559              	.LFE110:
 561              		.section	.text.UTIL_ADV_TRACE_COND_ZCSend_Allocation,"ax",%progbits
 562              		.align	1
 563              		.global	UTIL_ADV_TRACE_COND_ZCSend_Allocation
 564              		.syntax unified
 565              		.thumb
 566              		.thumb_func
 568              	UTIL_ADV_TRACE_COND_ZCSend_Allocation:
 569              	.LVL30:
 570              	.LFB113:
 310:Utilities/trace/adv_trace/stm32_adv_trace.c ****   UTIL_ADV_TRACE_Status_t ret = UTIL_ADV_TRACE_OK;
 571              		.loc 1 310 1 is_stmt 1 view -0
 572              		.cfi_startproc
 573              		@ args = 12, pretend = 0, frame = 24
 574              		@ frame_needed = 0, uses_anonymous_args = 0
 310:Utilities/trace/adv_trace/stm32_adv_trace.c ****   UTIL_ADV_TRACE_Status_t ret = UTIL_ADV_TRACE_OK;
 575              		.loc 1 310 1 is_stmt 0 view .LVU138
 576 0000 30B5     		push	{r4, r5, lr}
 577              	.LCFI4:
 578              		.cfi_def_cfa_offset 12
 579              		.cfi_offset 4, -12
 580              		.cfi_offset 5, -8
 581              		.cfi_offset 14, -4
 582 0002 87B0     		sub	sp, sp, #28
 583              	.LCFI5:
 584              		.cfi_def_cfa_offset 40
 311:Utilities/trace/adv_trace/stm32_adv_trace.c ****   uint16_t writepos;
 585              		.loc 1 311 3 is_stmt 1 view .LVU139
 586              	.LVL31:
 312:Utilities/trace/adv_trace/stm32_adv_trace.c ****   uint8_t timestamp_ptr[UTIL_ADV_TRACE_TMP_MAX_TIMESTMAP_SIZE];
 587              		.loc 1 312 3 view .LVU140
ARM GAS  C:\Users\NATHAN~1\AppData\Local\Temp\ccImtOWI.s 			page 35


 313:Utilities/trace/adv_trace/stm32_adv_trace.c ****   uint16_t timestamp_size = 0u;
 588              		.loc 1 313 3 view .LVU141
 314:Utilities/trace/adv_trace/stm32_adv_trace.c **** 
 589              		.loc 1 314 3 view .LVU142
 314:Utilities/trace/adv_trace/stm32_adv_trace.c **** 
 590              		.loc 1 314 12 is_stmt 0 view .LVU143
 591 0004 0024     		movs	r4, #0
 592 0006 ADF80240 		strh	r4, [sp, #2]	@ movhi
 317:Utilities/trace/adv_trace/stm32_adv_trace.c ****   {
 593              		.loc 1 317 3 is_stmt 1 view .LVU144
 317:Utilities/trace/adv_trace/stm32_adv_trace.c ****   {
 594              		.loc 1 317 21 is_stmt 0 view .LVU145
 595 000a 274C     		ldr	r4, .L49
 596 000c 247A     		ldrb	r4, [r4, #8]	@ zero_extendqisi2
 317:Utilities/trace/adv_trace/stm32_adv_trace.c ****   {
 597              		.loc 1 317 5 view .LVU146
 598 000e 8442     		cmp	r4, r0
 599 0010 43D3     		bcc	.L43
 600 0012 1D46     		mov	r5, r3
 322:Utilities/trace/adv_trace/stm32_adv_trace.c ****   {
 601              		.loc 1 322 3 is_stmt 1 view .LVU147
 322:Utilities/trace/adv_trace/stm32_adv_trace.c ****   {
 602              		.loc 1 322 29 is_stmt 0 view .LVU148
 603 0014 244B     		ldr	r3, .L49
 604              	.LVL32:
 322:Utilities/trace/adv_trace/stm32_adv_trace.c ****   {
 605              		.loc 1 322 29 view .LVU149
 606 0016 DB68     		ldr	r3, [r3, #12]
 322:Utilities/trace/adv_trace/stm32_adv_trace.c ****   {
 607              		.loc 1 322 5 view .LVU150
 608 0018 31EA0303 		bics	r3, r1, r3
 609 001c 40D1     		bne	.L44
 327:Utilities/trace/adv_trace/stm32_adv_trace.c ****   {
 610              		.loc 1 327 3 is_stmt 1 view .LVU151
 327:Utilities/trace/adv_trace/stm32_adv_trace.c ****   {
 611              		.loc 1 327 20 is_stmt 0 view .LVU152
 612 001e 224B     		ldr	r3, .L49
 613 0020 5C68     		ldr	r4, [r3, #4]
 327:Utilities/trace/adv_trace/stm32_adv_trace.c ****   {
 614              		.loc 1 327 5 view .LVU153
 615 0022 24B1     		cbz	r4, .L39
 327:Utilities/trace/adv_trace/stm32_adv_trace.c ****   {
 616              		.loc 1 327 45 discriminator 1 view .LVU154
 617 0024 1AB1     		cbz	r2, .L39
 329:Utilities/trace/adv_trace/stm32_adv_trace.c ****   }
 618              		.loc 1 329 5 is_stmt 1 view .LVU155
 619 0026 0DF10201 		add	r1, sp, #2
 620              	.LVL33:
 329:Utilities/trace/adv_trace/stm32_adv_trace.c ****   }
 621              		.loc 1 329 5 is_stmt 0 view .LVU156
 622 002a 01A8     		add	r0, sp, #4
 623              	.LVL34:
 329:Utilities/trace/adv_trace/stm32_adv_trace.c ****   }
 624              		.loc 1 329 5 view .LVU157
 625 002c A047     		blx	r4
 626              	.LVL35:
 627              	.L39:
ARM GAS  C:\Users\NATHAN~1\AppData\Local\Temp\ccImtOWI.s 			page 36


 332:Utilities/trace/adv_trace/stm32_adv_trace.c ****   
 628              		.loc 1 332 3 is_stmt 1 view .LVU158
 629 002e FFF7FEFF 		bl	TRACE_Lock
 630              	.LVL36:
 335:Utilities/trace/adv_trace/stm32_adv_trace.c ****   {
 631              		.loc 1 335 3 view .LVU159
 335:Utilities/trace/adv_trace/stm32_adv_trace.c ****   {
 632              		.loc 1 335 7 is_stmt 0 view .LVU160
 633 0032 BDF80200 		ldrh	r0, [sp, #2]
 634 0036 2844     		add	r0, r0, r5
 635 0038 0DF11601 		add	r1, sp, #22
 636 003c 80B2     		uxth	r0, r0
 637 003e FFF7FEFF 		bl	TRACE_AllocateBufer
 638              	.LVL37:
 335:Utilities/trace/adv_trace/stm32_adv_trace.c ****   {
 639              		.loc 1 335 6 view .LVU161
 640 0042 B0F1FF3F 		cmp	r0, #-1
 641 0046 23D0     		beq	.L48
 642              	.LBB56:
 338:Utilities/trace/adv_trace/stm32_adv_trace.c ****     {
 643              		.loc 1 338 19 view .LVU162
 644 0048 0022     		movs	r2, #0
 645 004a 0FE0     		b	.L40
 646              	.LVL38:
 647              	.L42:
 340:Utilities/trace/adv_trace/stm32_adv_trace.c ****       writepos = (uint16_t) ((writepos + 1u) % UTIL_ADV_TRACE_FIFO_SIZE);
 648              		.loc 1 340 7 is_stmt 1 discriminator 3 view .LVU163
 340:Utilities/trace/adv_trace/stm32_adv_trace.c ****       writepos = (uint16_t) ((writepos + 1u) % UTIL_ADV_TRACE_FIFO_SIZE);
 649              		.loc 1 340 23 is_stmt 0 discriminator 3 view .LVU164
 650 004c BDF81630 		ldrh	r3, [sp, #22]
 340:Utilities/trace/adv_trace/stm32_adv_trace.c ****       writepos = (uint16_t) ((writepos + 1u) % UTIL_ADV_TRACE_FIFO_SIZE);
 651              		.loc 1 340 49 discriminator 3 view .LVU165
 652 0050 02F11801 		add	r1, r2, #24
 653 0054 6944     		add	r1, sp, r1
 654 0056 11F8140C 		ldrb	r0, [r1, #-20]	@ zero_extendqisi2
 340:Utilities/trace/adv_trace/stm32_adv_trace.c ****       writepos = (uint16_t) ((writepos + 1u) % UTIL_ADV_TRACE_FIFO_SIZE);
 655              		.loc 1 340 34 discriminator 3 view .LVU166
 656 005a 1449     		ldr	r1, .L49+4
 657 005c C854     		strb	r0, [r1, r3]
 341:Utilities/trace/adv_trace/stm32_adv_trace.c ****     }
 658              		.loc 1 341 7 is_stmt 1 discriminator 3 view .LVU167
 341:Utilities/trace/adv_trace/stm32_adv_trace.c ****     }
 659              		.loc 1 341 18 is_stmt 0 discriminator 3 view .LVU168
 660 005e 0133     		adds	r3, r3, #1
 661 0060 C3F30903 		ubfx	r3, r3, #0, #10
 341:Utilities/trace/adv_trace/stm32_adv_trace.c ****     }
 662              		.loc 1 341 16 discriminator 3 view .LVU169
 663 0064 ADF81630 		strh	r3, [sp, #22]	@ movhi
 338:Utilities/trace/adv_trace/stm32_adv_trace.c ****     {
 664              		.loc 1 338 55 is_stmt 1 discriminator 3 view .LVU170
 338:Utilities/trace/adv_trace/stm32_adv_trace.c ****     {
 665              		.loc 1 338 60 is_stmt 0 discriminator 3 view .LVU171
 666 0068 0132     		adds	r2, r2, #1
 667              	.LVL39:
 338:Utilities/trace/adv_trace/stm32_adv_trace.c ****     {
 668              		.loc 1 338 60 discriminator 3 view .LVU172
 669 006a 92B2     		uxth	r2, r2
ARM GAS  C:\Users\NATHAN~1\AppData\Local\Temp\ccImtOWI.s 			page 37


 670              	.LVL40:
 671              	.L40:
 338:Utilities/trace/adv_trace/stm32_adv_trace.c ****     {
 672              		.loc 1 338 31 is_stmt 1 discriminator 1 view .LVU173
 338:Utilities/trace/adv_trace/stm32_adv_trace.c ****     {
 673              		.loc 1 338 37 is_stmt 0 discriminator 1 view .LVU174
 674 006c BDF80230 		ldrh	r3, [sp, #2]
 338:Utilities/trace/adv_trace/stm32_adv_trace.c ****     {
 675              		.loc 1 338 5 discriminator 1 view .LVU175
 676 0070 9342     		cmp	r3, r2
 677 0072 EBD8     		bhi	.L42
 678              	.LBE56:
 345:Utilities/trace/adv_trace/stm32_adv_trace.c ****     *FifoSize = (uint16_t) UTIL_ADV_TRACE_FIFO_SIZE;
 679              		.loc 1 345 5 is_stmt 1 view .LVU176
 345:Utilities/trace/adv_trace/stm32_adv_trace.c ****     *FifoSize = (uint16_t) UTIL_ADV_TRACE_FIFO_SIZE;
 680              		.loc 1 345 12 is_stmt 0 view .LVU177
 681 0074 0A9B     		ldr	r3, [sp, #40]
 682 0076 0D4A     		ldr	r2, .L49+4
 683              	.LVL41:
 345:Utilities/trace/adv_trace/stm32_adv_trace.c ****     *FifoSize = (uint16_t) UTIL_ADV_TRACE_FIFO_SIZE;
 684              		.loc 1 345 12 view .LVU178
 685 0078 1A60     		str	r2, [r3]
 346:Utilities/trace/adv_trace/stm32_adv_trace.c ****     *WritePos = writepos;
 686              		.loc 1 346 5 is_stmt 1 view .LVU179
 346:Utilities/trace/adv_trace/stm32_adv_trace.c ****     *WritePos = writepos;
 687              		.loc 1 346 15 is_stmt 0 view .LVU180
 688 007a 0B9B     		ldr	r3, [sp, #44]
 689 007c 4FF48062 		mov	r2, #1024
 690 0080 1A80     		strh	r2, [r3]	@ movhi
 347:Utilities/trace/adv_trace/stm32_adv_trace.c ****   }
 691              		.loc 1 347 5 is_stmt 1 view .LVU181
 347:Utilities/trace/adv_trace/stm32_adv_trace.c ****   }
 692              		.loc 1 347 15 is_stmt 0 view .LVU182
 693 0082 BDF81620 		ldrh	r2, [sp, #22]
 694 0086 0C9B     		ldr	r3, [sp, #48]
 695 0088 1A80     		strh	r2, [r3]	@ movhi
 311:Utilities/trace/adv_trace/stm32_adv_trace.c ****   uint16_t writepos;
 696              		.loc 1 311 27 view .LVU183
 697 008a 0020     		movs	r0, #0
 698              	.LVL42:
 699              	.L38:
 355:Utilities/trace/adv_trace/stm32_adv_trace.c **** 
 700              		.loc 1 355 1 view .LVU184
 701 008c 07B0     		add	sp, sp, #28
 702              	.LCFI6:
 703              		.cfi_remember_state
 704              		.cfi_def_cfa_offset 12
 705              		@ sp needed
 706 008e 30BD     		pop	{r4, r5, pc}
 707              	.LVL43:
 708              	.L48:
 709              	.LCFI7:
 710              		.cfi_restore_state
 351:Utilities/trace/adv_trace/stm32_adv_trace.c ****     ret = UTIL_ADV_TRACE_MEM_FULL;
 711              		.loc 1 351 5 is_stmt 1 view .LVU185
 712 0090 FFF7FEFF 		bl	TRACE_UnLock
 713              	.LVL44:
ARM GAS  C:\Users\NATHAN~1\AppData\Local\Temp\ccImtOWI.s 			page 38


 352:Utilities/trace/adv_trace/stm32_adv_trace.c ****   }
 714              		.loc 1 352 5 view .LVU186
 352:Utilities/trace/adv_trace/stm32_adv_trace.c ****   }
 715              		.loc 1 352 9 is_stmt 0 view .LVU187
 716 0094 6FF00200 		mvn	r0, #2
 717 0098 F8E7     		b	.L38
 718              	.LVL45:
 719              	.L43:
 319:Utilities/trace/adv_trace/stm32_adv_trace.c ****   }
 720              		.loc 1 319 12 view .LVU188
 721 009a 6FF00400 		mvn	r0, #4
 722              	.LVL46:
 319:Utilities/trace/adv_trace/stm32_adv_trace.c ****   }
 723              		.loc 1 319 12 view .LVU189
 724 009e F5E7     		b	.L38
 725              	.LVL47:
 726              	.L44:
 324:Utilities/trace/adv_trace/stm32_adv_trace.c ****   }
 727              		.loc 1 324 12 view .LVU190
 728 00a0 6FF00500 		mvn	r0, #5
 729              	.LVL48:
 324:Utilities/trace/adv_trace/stm32_adv_trace.c ****   }
 730              		.loc 1 324 12 view .LVU191
 731 00a4 F2E7     		b	.L38
 732              	.L50:
 733 00a6 00BF     		.align	2
 734              	.L49:
 735 00a8 00000000 		.word	.LANCHOR0
 736 00ac 00000000 		.word	.LANCHOR1
 737              		.cfi_endproc
 738              	.LFE113:
 740              		.section	.text.UTIL_ADV_TRACE_ZCSend_Allocation,"ax",%progbits
 741              		.align	1
 742              		.global	UTIL_ADV_TRACE_ZCSend_Allocation
 743              		.syntax unified
 744              		.thumb
 745              		.thumb_func
 747              	UTIL_ADV_TRACE_ZCSend_Allocation:
 748              	.LVL49:
 749              	.LFB115:
 364:Utilities/trace/adv_trace/stm32_adv_trace.c ****   UTIL_ADV_TRACE_Status_t ret = UTIL_ADV_TRACE_OK;
 750              		.loc 1 364 1 is_stmt 1 view -0
 751              		.cfi_startproc
 752              		@ args = 0, pretend = 0, frame = 8
 753              		@ frame_needed = 0, uses_anonymous_args = 0
 364:Utilities/trace/adv_trace/stm32_adv_trace.c ****   UTIL_ADV_TRACE_Status_t ret = UTIL_ADV_TRACE_OK;
 754              		.loc 1 364 1 is_stmt 0 view .LVU193
 755 0000 F0B5     		push	{r4, r5, r6, r7, lr}
 756              	.LCFI8:
 757              		.cfi_def_cfa_offset 20
 758              		.cfi_offset 4, -20
 759              		.cfi_offset 5, -16
 760              		.cfi_offset 6, -12
 761              		.cfi_offset 7, -8
 762              		.cfi_offset 14, -4
 763 0002 83B0     		sub	sp, sp, #12
 764              	.LCFI9:
ARM GAS  C:\Users\NATHAN~1\AppData\Local\Temp\ccImtOWI.s 			page 39


 765              		.cfi_def_cfa_offset 32
 766 0004 0446     		mov	r4, r0
 767 0006 0F46     		mov	r7, r1
 768 0008 1646     		mov	r6, r2
 769 000a 1D46     		mov	r5, r3
 365:Utilities/trace/adv_trace/stm32_adv_trace.c ****   uint16_t writepos;
 770              		.loc 1 365 3 is_stmt 1 view .LVU194
 771              	.LVL50:
 366:Utilities/trace/adv_trace/stm32_adv_trace.c **** 
 772              		.loc 1 366 3 view .LVU195
 368:Utilities/trace/adv_trace/stm32_adv_trace.c **** 
 773              		.loc 1 368 3 view .LVU196
 774 000c FFF7FEFF 		bl	TRACE_Lock
 775              	.LVL51:
 371:Utilities/trace/adv_trace/stm32_adv_trace.c ****   {
 776              		.loc 1 371 3 view .LVU197
 371:Utilities/trace/adv_trace/stm32_adv_trace.c ****   {
 777              		.loc 1 371 7 is_stmt 0 view .LVU198
 778 0010 0DF10601 		add	r1, sp, #6
 779 0014 2046     		mov	r0, r4
 780 0016 FFF7FEFF 		bl	TRACE_AllocateBufer
 781              	.LVL52:
 371:Utilities/trace/adv_trace/stm32_adv_trace.c ****   {
 782              		.loc 1 371 6 view .LVU199
 783 001a B0F1FF3F 		cmp	r0, #-1
 784 001e 0AD0     		beq	.L52
 374:Utilities/trace/adv_trace/stm32_adv_trace.c ****     *FifoSize = UTIL_ADV_TRACE_FIFO_SIZE;
 785              		.loc 1 374 5 is_stmt 1 view .LVU200
 374:Utilities/trace/adv_trace/stm32_adv_trace.c ****     *FifoSize = UTIL_ADV_TRACE_FIFO_SIZE;
 786              		.loc 1 374 12 is_stmt 0 view .LVU201
 787 0020 074B     		ldr	r3, .L55
 788 0022 3B60     		str	r3, [r7]
 375:Utilities/trace/adv_trace/stm32_adv_trace.c ****     *WritePos = (uint16_t)writepos;
 789              		.loc 1 375 5 is_stmt 1 view .LVU202
 375:Utilities/trace/adv_trace/stm32_adv_trace.c ****     *WritePos = (uint16_t)writepos;
 790              		.loc 1 375 15 is_stmt 0 view .LVU203
 791 0024 4FF48063 		mov	r3, #1024
 792 0028 3380     		strh	r3, [r6]	@ movhi
 376:Utilities/trace/adv_trace/stm32_adv_trace.c ****   }
 793              		.loc 1 376 5 is_stmt 1 view .LVU204
 376:Utilities/trace/adv_trace/stm32_adv_trace.c ****   }
 794              		.loc 1 376 15 is_stmt 0 view .LVU205
 795 002a BDF80630 		ldrh	r3, [sp, #6]
 796 002e 2B80     		strh	r3, [r5]	@ movhi
 365:Utilities/trace/adv_trace/stm32_adv_trace.c ****   uint16_t writepos;
 797              		.loc 1 365 27 view .LVU206
 798 0030 0020     		movs	r0, #0
 799              	.LVL53:
 800              	.L53:
 384:Utilities/trace/adv_trace/stm32_adv_trace.c **** }
 801              		.loc 1 384 3 is_stmt 1 view .LVU207
 385:Utilities/trace/adv_trace/stm32_adv_trace.c **** 
 802              		.loc 1 385 1 is_stmt 0 view .LVU208
 803 0032 03B0     		add	sp, sp, #12
 804              	.LCFI10:
 805              		.cfi_remember_state
 806              		.cfi_def_cfa_offset 20
ARM GAS  C:\Users\NATHAN~1\AppData\Local\Temp\ccImtOWI.s 			page 40


 807              		@ sp needed
 808 0034 F0BD     		pop	{r4, r5, r6, r7, pc}
 809              	.LVL54:
 810              	.L52:
 811              	.LCFI11:
 812              		.cfi_restore_state
 380:Utilities/trace/adv_trace/stm32_adv_trace.c ****     ret = UTIL_ADV_TRACE_MEM_FULL;
 813              		.loc 1 380 5 is_stmt 1 view .LVU209
 814 0036 FFF7FEFF 		bl	TRACE_UnLock
 815              	.LVL55:
 381:Utilities/trace/adv_trace/stm32_adv_trace.c ****   }
 816              		.loc 1 381 5 view .LVU210
 381:Utilities/trace/adv_trace/stm32_adv_trace.c ****   }
 817              		.loc 1 381 9 is_stmt 0 view .LVU211
 818 003a 6FF00200 		mvn	r0, #2
 819 003e F8E7     		b	.L53
 820              	.L56:
 821              		.align	2
 822              	.L55:
 823 0040 00000000 		.word	.LANCHOR1
 824              		.cfi_endproc
 825              	.LFE115:
 827              		.section	.text.UTIL_ADV_TRACE_RegisterTimeStampFunction,"ax",%progbits
 828              		.align	1
 829              		.global	UTIL_ADV_TRACE_RegisterTimeStampFunction
 830              		.syntax unified
 831              		.thumb
 832              		.thumb_func
 834              	UTIL_ADV_TRACE_RegisterTimeStampFunction:
 835              	.LVL56:
 836              	.LFB119:
 488:Utilities/trace/adv_trace/stm32_adv_trace.c ****   ADV_TRACE_Ctx.timestamp_func = *cb;
 837              		.loc 1 488 1 is_stmt 1 view -0
 838              		.cfi_startproc
 839              		@ args = 0, pretend = 0, frame = 0
 840              		@ frame_needed = 0, uses_anonymous_args = 0
 841              		@ link register save eliminated.
 489:Utilities/trace/adv_trace/stm32_adv_trace.c **** }
 842              		.loc 1 489 3 view .LVU213
 489:Utilities/trace/adv_trace/stm32_adv_trace.c **** }
 843              		.loc 1 489 32 is_stmt 0 view .LVU214
 844 0000 014B     		ldr	r3, .L58
 845 0002 5860     		str	r0, [r3, #4]
 490:Utilities/trace/adv_trace/stm32_adv_trace.c **** 
 846              		.loc 1 490 1 view .LVU215
 847 0004 7047     		bx	lr
 848              	.L59:
 849 0006 00BF     		.align	2
 850              	.L58:
 851 0008 00000000 		.word	.LANCHOR0
 852              		.cfi_endproc
 853              	.LFE119:
 855              		.section	.text.UTIL_ADV_TRACE_SetVerboseLevel,"ax",%progbits
 856              		.align	1
 857              		.global	UTIL_ADV_TRACE_SetVerboseLevel
 858              		.syntax unified
 859              		.thumb
ARM GAS  C:\Users\NATHAN~1\AppData\Local\Temp\ccImtOWI.s 			page 41


 860              		.thumb_func
 862              	UTIL_ADV_TRACE_SetVerboseLevel:
 863              	.LVL57:
 864              	.LFB120:
 493:Utilities/trace/adv_trace/stm32_adv_trace.c ****   ADV_TRACE_Ctx.CurrentVerboseLevel = Level;
 865              		.loc 1 493 1 is_stmt 1 view -0
 866              		.cfi_startproc
 867              		@ args = 0, pretend = 0, frame = 0
 868              		@ frame_needed = 0, uses_anonymous_args = 0
 869              		@ link register save eliminated.
 494:Utilities/trace/adv_trace/stm32_adv_trace.c **** }
 870              		.loc 1 494 3 view .LVU217
 494:Utilities/trace/adv_trace/stm32_adv_trace.c **** }
 871              		.loc 1 494 37 is_stmt 0 view .LVU218
 872 0000 014B     		ldr	r3, .L61
 873 0002 1872     		strb	r0, [r3, #8]
 495:Utilities/trace/adv_trace/stm32_adv_trace.c **** 
 874              		.loc 1 495 1 view .LVU219
 875 0004 7047     		bx	lr
 876              	.L62:
 877 0006 00BF     		.align	2
 878              	.L61:
 879 0008 00000000 		.word	.LANCHOR0
 880              		.cfi_endproc
 881              	.LFE120:
 883              		.section	.text.UTIL_ADV_TRACE_GetVerboseLevel,"ax",%progbits
 884              		.align	1
 885              		.global	UTIL_ADV_TRACE_GetVerboseLevel
 886              		.syntax unified
 887              		.thumb
 888              		.thumb_func
 890              	UTIL_ADV_TRACE_GetVerboseLevel:
 891              	.LFB121:
 498:Utilities/trace/adv_trace/stm32_adv_trace.c ****   return ADV_TRACE_Ctx.CurrentVerboseLevel;
 892              		.loc 1 498 1 is_stmt 1 view -0
 893              		.cfi_startproc
 894              		@ args = 0, pretend = 0, frame = 0
 895              		@ frame_needed = 0, uses_anonymous_args = 0
 896              		@ link register save eliminated.
 499:Utilities/trace/adv_trace/stm32_adv_trace.c **** }
 897              		.loc 1 499 3 view .LVU221
 500:Utilities/trace/adv_trace/stm32_adv_trace.c **** 
 898              		.loc 1 500 1 is_stmt 0 view .LVU222
 899 0000 014B     		ldr	r3, .L64
 900 0002 187A     		ldrb	r0, [r3, #8]	@ zero_extendqisi2
 901 0004 7047     		bx	lr
 902              	.L65:
 903 0006 00BF     		.align	2
 904              	.L64:
 905 0008 00000000 		.word	.LANCHOR0
 906              		.cfi_endproc
 907              	.LFE121:
 909              		.section	.text.UTIL_ADV_TRACE_SetRegion,"ax",%progbits
 910              		.align	1
 911              		.global	UTIL_ADV_TRACE_SetRegion
 912              		.syntax unified
 913              		.thumb
ARM GAS  C:\Users\NATHAN~1\AppData\Local\Temp\ccImtOWI.s 			page 42


 914              		.thumb_func
 916              	UTIL_ADV_TRACE_SetRegion:
 917              	.LVL58:
 918              	.LFB122:
 503:Utilities/trace/adv_trace/stm32_adv_trace.c ****   ADV_TRACE_Ctx.RegionMask |= Region;
 919              		.loc 1 503 1 is_stmt 1 view -0
 920              		.cfi_startproc
 921              		@ args = 0, pretend = 0, frame = 0
 922              		@ frame_needed = 0, uses_anonymous_args = 0
 923              		@ link register save eliminated.
 504:Utilities/trace/adv_trace/stm32_adv_trace.c **** }
 924              		.loc 1 504 3 view .LVU224
 504:Utilities/trace/adv_trace/stm32_adv_trace.c **** }
 925              		.loc 1 504 28 is_stmt 0 view .LVU225
 926 0000 024A     		ldr	r2, .L67
 927 0002 D368     		ldr	r3, [r2, #12]
 928 0004 0343     		orrs	r3, r3, r0
 929 0006 D360     		str	r3, [r2, #12]
 505:Utilities/trace/adv_trace/stm32_adv_trace.c **** 
 930              		.loc 1 505 1 view .LVU226
 931 0008 7047     		bx	lr
 932              	.L68:
 933 000a 00BF     		.align	2
 934              	.L67:
 935 000c 00000000 		.word	.LANCHOR0
 936              		.cfi_endproc
 937              	.LFE122:
 939              		.section	.text.UTIL_ADV_TRACE_GetRegion,"ax",%progbits
 940              		.align	1
 941              		.global	UTIL_ADV_TRACE_GetRegion
 942              		.syntax unified
 943              		.thumb
 944              		.thumb_func
 946              	UTIL_ADV_TRACE_GetRegion:
 947              	.LFB123:
 508:Utilities/trace/adv_trace/stm32_adv_trace.c ****   return ADV_TRACE_Ctx.RegionMask;
 948              		.loc 1 508 1 is_stmt 1 view -0
 949              		.cfi_startproc
 950              		@ args = 0, pretend = 0, frame = 0
 951              		@ frame_needed = 0, uses_anonymous_args = 0
 952              		@ link register save eliminated.
 509:Utilities/trace/adv_trace/stm32_adv_trace.c **** }
 953              		.loc 1 509 3 view .LVU228
 510:Utilities/trace/adv_trace/stm32_adv_trace.c **** 
 954              		.loc 1 510 1 is_stmt 0 view .LVU229
 955 0000 014B     		ldr	r3, .L70
 956 0002 D868     		ldr	r0, [r3, #12]
 957 0004 7047     		bx	lr
 958              	.L71:
 959 0006 00BF     		.align	2
 960              	.L70:
 961 0008 00000000 		.word	.LANCHOR0
 962              		.cfi_endproc
 963              	.LFE123:
 965              		.section	.text.UTIL_ADV_TRACE_ResetRegion,"ax",%progbits
 966              		.align	1
 967              		.global	UTIL_ADV_TRACE_ResetRegion
ARM GAS  C:\Users\NATHAN~1\AppData\Local\Temp\ccImtOWI.s 			page 43


 968              		.syntax unified
 969              		.thumb
 970              		.thumb_func
 972              	UTIL_ADV_TRACE_ResetRegion:
 973              	.LVL59:
 974              	.LFB124:
 513:Utilities/trace/adv_trace/stm32_adv_trace.c ****   ADV_TRACE_Ctx.RegionMask &= ~Region;
 975              		.loc 1 513 1 is_stmt 1 view -0
 976              		.cfi_startproc
 977              		@ args = 0, pretend = 0, frame = 0
 978              		@ frame_needed = 0, uses_anonymous_args = 0
 979              		@ link register save eliminated.
 514:Utilities/trace/adv_trace/stm32_adv_trace.c **** }
 980              		.loc 1 514 3 view .LVU231
 514:Utilities/trace/adv_trace/stm32_adv_trace.c **** }
 981              		.loc 1 514 28 is_stmt 0 view .LVU232
 982 0000 024A     		ldr	r2, .L73
 983 0002 D368     		ldr	r3, [r2, #12]
 984 0004 23EA0003 		bic	r3, r3, r0
 985 0008 D360     		str	r3, [r2, #12]
 515:Utilities/trace/adv_trace/stm32_adv_trace.c **** #endif
 986              		.loc 1 515 1 view .LVU233
 987 000a 7047     		bx	lr
 988              	.L74:
 989              		.align	2
 990              	.L73:
 991 000c 00000000 		.word	.LANCHOR0
 992              		.cfi_endproc
 993              	.LFE124:
 995              		.section	.text.UTIL_ADV_TRACE_PreSendHook,"ax",%progbits
 996              		.align	1
 997              		.weak	UTIL_ADV_TRACE_PreSendHook
 998              		.syntax unified
 999              		.thumb
 1000              		.thumb_func
 1002              	UTIL_ADV_TRACE_PreSendHook:
 1003              	.LFB125:
 519:Utilities/trace/adv_trace/stm32_adv_trace.c **** }
 1004              		.loc 1 519 1 is_stmt 1 view -0
 1005              		.cfi_startproc
 1006              		@ args = 0, pretend = 0, frame = 0
 1007              		@ frame_needed = 0, uses_anonymous_args = 0
 1008              		@ link register save eliminated.
 520:Utilities/trace/adv_trace/stm32_adv_trace.c **** 
 1009              		.loc 1 520 1 view .LVU235
 1010 0000 7047     		bx	lr
 1011              		.cfi_endproc
 1012              	.LFE125:
 1014              		.section	.text.TRACE_Send,"ax",%progbits
 1015              		.align	1
 1016              		.syntax unified
 1017              		.thumb
 1018              		.thumb_func
 1020              	TRACE_Send:
 1021              	.LFB127:
 539:Utilities/trace/adv_trace/stm32_adv_trace.c ****   UTIL_ADV_TRACE_Status_t ret = UTIL_ADV_TRACE_OK;
 1022              		.loc 1 539 1 view -0
ARM GAS  C:\Users\NATHAN~1\AppData\Local\Temp\ccImtOWI.s 			page 44


 1023              		.cfi_startproc
 1024              		@ args = 0, pretend = 0, frame = 0
 1025              		@ frame_needed = 0, uses_anonymous_args = 0
 1026 0000 70B5     		push	{r4, r5, r6, lr}
 1027              	.LCFI12:
 1028              		.cfi_def_cfa_offset 16
 1029              		.cfi_offset 4, -16
 1030              		.cfi_offset 5, -12
 1031              		.cfi_offset 6, -8
 1032              		.cfi_offset 14, -4
 540:Utilities/trace/adv_trace/stm32_adv_trace.c ****   uint8_t *ptr = NULL;
 1033              		.loc 1 540 3 view .LVU237
 1034              	.LVL60:
 541:Utilities/trace/adv_trace/stm32_adv_trace.c **** 
 1035              		.loc 1 541 3 view .LVU238
 543:Utilities/trace/adv_trace/stm32_adv_trace.c **** 
 1036              		.loc 1 543 3 view .LVU239
 1037              	.LBB57:
 1038              	.LBI57:
 449:Drivers/CMSIS/Include/cmsis_gcc.h **** {
 1039              		.loc 2 449 31 view .LVU240
 1040              	.LBB58:
 451:Drivers/CMSIS/Include/cmsis_gcc.h **** 
 1041              		.loc 2 451 3 view .LVU241
 453:Drivers/CMSIS/Include/cmsis_gcc.h ****   return(result);
 1042              		.loc 2 453 3 view .LVU242
 1043              		.syntax unified
 1044              	@ 453 "Drivers/CMSIS/Include/cmsis_gcc.h" 1
 1045 0002 EFF31084 		MRS r4, primask
 1046              	@ 0 "" 2
 1047              	.LVL61:
 454:Drivers/CMSIS/Include/cmsis_gcc.h **** }
 1048              		.loc 2 454 3 view .LVU243
 454:Drivers/CMSIS/Include/cmsis_gcc.h **** }
 1049              		.loc 2 454 3 is_stmt 0 view .LVU244
 1050              		.thumb
 1051              		.syntax unified
 1052              	.LBE58:
 1053              	.LBE57:
 543:Utilities/trace/adv_trace/stm32_adv_trace.c **** 
 1054              		.loc 1 543 3 is_stmt 1 view .LVU245
 1055              	.LBB59:
 1056              	.LBI59:
 207:Drivers/CMSIS/Include/cmsis_gcc.h **** {
 1057              		.loc 2 207 27 view .LVU246
 1058              	.LBB60:
 209:Drivers/CMSIS/Include/cmsis_gcc.h **** }
 1059              		.loc 2 209 3 view .LVU247
 1060              		.syntax unified
 1061              	@ 209 "Drivers/CMSIS/Include/cmsis_gcc.h" 1
 1062 0006 72B6     		cpsid i
 1063              	@ 0 "" 2
 1064              		.thumb
 1065              		.syntax unified
 1066              	.LBE60:
 1067              	.LBE59:
 545:Utilities/trace/adv_trace/stm32_adv_trace.c ****   {
ARM GAS  C:\Users\NATHAN~1\AppData\Local\Temp\ccImtOWI.s 			page 45


 1068              		.loc 1 545 3 view .LVU248
 545:Utilities/trace/adv_trace/stm32_adv_trace.c ****   {
 1069              		.loc 1 545 6 is_stmt 0 view .LVU249
 1070 0008 FFF7FEFF 		bl	TRACE_IsLocked
 1071              	.LVL62:
 545:Utilities/trace/adv_trace/stm32_adv_trace.c ****   {
 1072              		.loc 1 545 5 view .LVU250
 1073 000c 18B1     		cbz	r0, .L84
 598:Utilities/trace/adv_trace/stm32_adv_trace.c ****   }
 1074              		.loc 1 598 5 is_stmt 1 view .LVU251
 1075              	.LVL63:
 1076              	.LBB61:
 1077              	.LBI61:
 479:Drivers/CMSIS/Include/cmsis_gcc.h **** {
 1078              		.loc 2 479 27 view .LVU252
 1079              	.LBB62:
 1080              		.loc 2 481 3 view .LVU253
 1081              		.syntax unified
 1082              	@ 481 "Drivers/CMSIS/Include/cmsis_gcc.h" 1
 1083 000e 84F31088 		MSR primask, r4
 1084              	@ 0 "" 2
 1085              		.thumb
 1086              		.syntax unified
 1087              	.LBE62:
 1088              	.LBE61:
 540:Utilities/trace/adv_trace/stm32_adv_trace.c ****   uint8_t *ptr = NULL;
 1089              		.loc 1 540 27 is_stmt 0 view .LVU254
 1090 0012 0020     		movs	r0, #0
 1091              	.LVL64:
 1092              	.L82:
 601:Utilities/trace/adv_trace/stm32_adv_trace.c **** }
 1093              		.loc 1 601 3 is_stmt 1 view .LVU255
 602:Utilities/trace/adv_trace/stm32_adv_trace.c **** 
 1094              		.loc 1 602 1 is_stmt 0 view .LVU256
 1095 0014 70BD     		pop	{r4, r5, r6, pc}
 1096              	.LVL65:
 1097              	.L84:
 547:Utilities/trace/adv_trace/stm32_adv_trace.c **** 
 1098              		.loc 1 547 5 is_stmt 1 view .LVU257
 1099 0016 FFF7FEFF 		bl	TRACE_Lock
 1100              	.LVL66:
 549:Utilities/trace/adv_trace/stm32_adv_trace.c ****     {
 1101              		.loc 1 549 5 view .LVU258
 549:Utilities/trace/adv_trace/stm32_adv_trace.c ****     {
 1102              		.loc 1 549 21 is_stmt 0 view .LVU259
 1103 001a 1D4B     		ldr	r3, .L86
 1104 001c 1A8A     		ldrh	r2, [r3, #16]
 549:Utilities/trace/adv_trace/stm32_adv_trace.c ****     {
 1105              		.loc 1 549 49 view .LVU260
 1106 001e 5B8A     		ldrh	r3, [r3, #18]
 549:Utilities/trace/adv_trace/stm32_adv_trace.c ****     {
 1107              		.loc 1 549 7 view .LVU261
 1108 0020 9A42     		cmp	r2, r3
 1109 0022 2ED0     		beq	.L78
 552:Utilities/trace/adv_trace/stm32_adv_trace.c ****       {
 1110              		.loc 1 552 7 is_stmt 1 view .LVU262
 552:Utilities/trace/adv_trace/stm32_adv_trace.c ****       {
ARM GAS  C:\Users\NATHAN~1\AppData\Local\Temp\ccImtOWI.s 			page 46


 1111              		.loc 1 552 49 is_stmt 0 view .LVU263
 1112 0024 1A49     		ldr	r1, .L86
 1113 0026 8978     		ldrb	r1, [r1, #2]	@ zero_extendqisi2
 552:Utilities/trace/adv_trace/stm32_adv_trace.c ****       {
 1114              		.loc 1 552 9 view .LVU264
 1115 0028 0129     		cmp	r1, #1
 1116 002a 17D0     		beq	.L85
 1117              	.L79:
 567:Utilities/trace/adv_trace/stm32_adv_trace.c ****       {
 1118              		.loc 1 567 7 is_stmt 1 view .LVU265
 567:Utilities/trace/adv_trace/stm32_adv_trace.c ****       {
 1119              		.loc 1 567 45 is_stmt 0 view .LVU266
 1120 002c 184A     		ldr	r2, .L86
 1121 002e 9278     		ldrb	r2, [r2, #2]	@ zero_extendqisi2
 567:Utilities/trace/adv_trace/stm32_adv_trace.c ****       {
 1122              		.loc 1 567 9 view .LVU267
 1123 0030 32B9     		cbnz	r2, .L80
 570:Utilities/trace/adv_trace/stm32_adv_trace.c ****         {
 1124              		.loc 1 570 9 is_stmt 1 view .LVU268
 570:Utilities/trace/adv_trace/stm32_adv_trace.c ****         {
 1125              		.loc 1 570 52 is_stmt 0 view .LVU269
 1126 0032 174A     		ldr	r2, .L86
 1127 0034 128A     		ldrh	r2, [r2, #16]
 570:Utilities/trace/adv_trace/stm32_adv_trace.c ****         {
 1128              		.loc 1 570 11 view .LVU270
 1129 0036 9342     		cmp	r3, r2
 1130 0038 1ED9     		bls	.L81
 572:Utilities/trace/adv_trace/stm32_adv_trace.c ****         }
 1131              		.loc 1 572 11 is_stmt 1 view .LVU271
 572:Utilities/trace/adv_trace/stm32_adv_trace.c ****         }
 1132              		.loc 1 572 66 is_stmt 0 view .LVU272
 1133 003a 9B1A     		subs	r3, r3, r2
 572:Utilities/trace/adv_trace/stm32_adv_trace.c ****         }
 1134              		.loc 1 572 39 view .LVU273
 1135 003c 144A     		ldr	r2, .L86
 1136 003e 9382     		strh	r3, [r2, #20]	@ movhi
 1137              	.L80:
 582:Utilities/trace/adv_trace/stm32_adv_trace.c **** 
 1138              		.loc 1 582 7 is_stmt 1 view .LVU274
 582:Utilities/trace/adv_trace/stm32_adv_trace.c **** 
 1139              		.loc 1 582 44 is_stmt 0 view .LVU275
 1140 0040 134E     		ldr	r6, .L86
 1141 0042 338A     		ldrh	r3, [r6, #16]
 582:Utilities/trace/adv_trace/stm32_adv_trace.c **** 
 1142              		.loc 1 582 11 view .LVU276
 1143 0044 134D     		ldr	r5, .L86+4
 1144 0046 1D44     		add	r5, r5, r3
 1145              	.LVL67:
 584:Utilities/trace/adv_trace/stm32_adv_trace.c ****       UTIL_ADV_TRACE_PreSendHook();
 1146              		.loc 1 584 7 is_stmt 1 view .LVU277
 1147              	.LBB63:
 1148              	.LBI63:
 479:Drivers/CMSIS/Include/cmsis_gcc.h **** {
 1149              		.loc 2 479 27 view .LVU278
 1150              	.LBB64:
 1151              		.loc 2 481 3 view .LVU279
 1152              		.syntax unified
ARM GAS  C:\Users\NATHAN~1\AppData\Local\Temp\ccImtOWI.s 			page 47


 1153              	@ 481 "Drivers/CMSIS/Include/cmsis_gcc.h" 1
 1154 0048 84F31088 		MSR primask, r4
 1155              	@ 0 "" 2
 1156              	.LVL68:
 1157              		.loc 2 481 3 is_stmt 0 view .LVU280
 1158              		.thumb
 1159              		.syntax unified
 1160              	.LBE64:
 1161              	.LBE63:
 585:Utilities/trace/adv_trace/stm32_adv_trace.c **** 
 1162              		.loc 1 585 7 is_stmt 1 view .LVU281
 1163 004c FFF7FEFF 		bl	UTIL_ADV_TRACE_PreSendHook
 1164              	.LVL69:
 587:Utilities/trace/adv_trace/stm32_adv_trace.c ****       ret = UTIL_TraceDriver.Send(ptr, ADV_TRACE_Ctx.TraceSentSize);
 1165              		.loc 1 587 111 view .LVU282
 588:Utilities/trace/adv_trace/stm32_adv_trace.c ****     }
 1166              		.loc 1 588 7 view .LVU283
 588:Utilities/trace/adv_trace/stm32_adv_trace.c ****     }
 1167              		.loc 1 588 29 is_stmt 0 view .LVU284
 1168 0050 114B     		ldr	r3, .L86+8
 1169 0052 DB68     		ldr	r3, [r3, #12]
 588:Utilities/trace/adv_trace/stm32_adv_trace.c ****     }
 1170              		.loc 1 588 13 view .LVU285
 1171 0054 B18A     		ldrh	r1, [r6, #20]
 1172 0056 2846     		mov	r0, r5
 1173 0058 9847     		blx	r3
 1174              	.LVL70:
 588:Utilities/trace/adv_trace/stm32_adv_trace.c ****     }
 1175              		.loc 1 588 13 view .LVU286
 1176 005a DBE7     		b	.L82
 1177              	.LVL71:
 1178              	.L85:
 554:Utilities/trace/adv_trace/stm32_adv_trace.c ****         ADV_TRACE_Ctx.unchunk_status = TRACE_UNCHUNK_TRANSFER;
 1179              		.loc 1 554 9 is_stmt 1 view .LVU287
 554:Utilities/trace/adv_trace/stm32_adv_trace.c ****         ADV_TRACE_Ctx.unchunk_status = TRACE_UNCHUNK_TRANSFER;
 1180              		.loc 1 554 64 is_stmt 0 view .LVU288
 1181 005c 0C48     		ldr	r0, .L86
 1182 005e 0188     		ldrh	r1, [r0]
 554:Utilities/trace/adv_trace/stm32_adv_trace.c ****         ADV_TRACE_Ctx.unchunk_status = TRACE_UNCHUNK_TRANSFER;
 1183              		.loc 1 554 39 view .LVU289
 1184 0060 8A1A     		subs	r2, r1, r2
 1185 0062 92B2     		uxth	r2, r2
 554:Utilities/trace/adv_trace/stm32_adv_trace.c ****         ADV_TRACE_Ctx.unchunk_status = TRACE_UNCHUNK_TRANSFER;
 1186              		.loc 1 554 37 view .LVU290
 1187 0064 8282     		strh	r2, [r0, #20]	@ movhi
 555:Utilities/trace/adv_trace/stm32_adv_trace.c ****         ADV_TRACE_Ctx.unchunk_enabled = 0;
 1188              		.loc 1 555 9 is_stmt 1 view .LVU291
 555:Utilities/trace/adv_trace/stm32_adv_trace.c ****         ADV_TRACE_Ctx.unchunk_enabled = 0;
 1189              		.loc 1 555 38 is_stmt 0 view .LVU292
 1190 0066 0221     		movs	r1, #2
 1191 0068 8170     		strb	r1, [r0, #2]
 556:Utilities/trace/adv_trace/stm32_adv_trace.c **** 
 1192              		.loc 1 556 9 is_stmt 1 view .LVU293
 556:Utilities/trace/adv_trace/stm32_adv_trace.c **** 
 1193              		.loc 1 556 39 is_stmt 0 view .LVU294
 1194 006a 0021     		movs	r1, #0
 1195 006c 0180     		strh	r1, [r0]	@ movhi
ARM GAS  C:\Users\NATHAN~1\AppData\Local\Temp\ccImtOWI.s 			page 48


 558:Utilities/trace/adv_trace/stm32_adv_trace.c **** 
 1196              		.loc 1 558 136 is_stmt 1 view .LVU295
 560:Utilities/trace/adv_trace/stm32_adv_trace.c ****         {
 1197              		.loc 1 560 9 view .LVU296
 560:Utilities/trace/adv_trace/stm32_adv_trace.c ****         {
 1198              		.loc 1 560 11 is_stmt 0 view .LVU297
 1199 006e 002A     		cmp	r2, #0
 1200 0070 DCD1     		bne	.L79
 562:Utilities/trace/adv_trace/stm32_adv_trace.c ****           ADV_TRACE_Ctx.TraceRdPtr = 0;
 1201              		.loc 1 562 11 is_stmt 1 view .LVU298
 562:Utilities/trace/adv_trace/stm32_adv_trace.c ****           ADV_TRACE_Ctx.TraceRdPtr = 0;
 1202              		.loc 1 562 40 is_stmt 0 view .LVU299
 1203 0072 8170     		strb	r1, [r0, #2]
 563:Utilities/trace/adv_trace/stm32_adv_trace.c ****         }
 1204              		.loc 1 563 11 is_stmt 1 view .LVU300
 563:Utilities/trace/adv_trace/stm32_adv_trace.c ****         }
 1205              		.loc 1 563 36 is_stmt 0 view .LVU301
 1206 0074 0182     		strh	r1, [r0, #16]	@ movhi
 1207 0076 D9E7     		b	.L79
 1208              	.L81:
 576:Utilities/trace/adv_trace/stm32_adv_trace.c **** 
 1209              		.loc 1 576 11 is_stmt 1 view .LVU302
 576:Utilities/trace/adv_trace/stm32_adv_trace.c **** 
 1210              		.loc 1 576 66 is_stmt 0 view .LVU303
 1211 0078 C2F58063 		rsb	r3, r2, #1024
 576:Utilities/trace/adv_trace/stm32_adv_trace.c **** 
 1212              		.loc 1 576 39 view .LVU304
 1213 007c 044A     		ldr	r2, .L86
 1214 007e 9382     		strh	r3, [r2, #20]	@ movhi
 1215 0080 DEE7     		b	.L80
 1216              	.L78:
 592:Utilities/trace/adv_trace/stm32_adv_trace.c ****       UTIL_ADV_TRACE_EXIT_CRITICAL_SECTION();
 1217              		.loc 1 592 7 is_stmt 1 view .LVU305
 1218 0082 FFF7FEFF 		bl	TRACE_UnLock
 1219              	.LVL72:
 593:Utilities/trace/adv_trace/stm32_adv_trace.c ****     }
 1220              		.loc 1 593 7 view .LVU306
 1221              	.LBB65:
 1222              	.LBI65:
 479:Drivers/CMSIS/Include/cmsis_gcc.h **** {
 1223              		.loc 2 479 27 view .LVU307
 1224              	.LBB66:
 1225              		.loc 2 481 3 view .LVU308
 1226              		.syntax unified
 1227              	@ 481 "Drivers/CMSIS/Include/cmsis_gcc.h" 1
 1228 0086 84F31088 		MSR primask, r4
 1229              	@ 0 "" 2
 1230              		.thumb
 1231              		.syntax unified
 1232              	.LBE66:
 1233              	.LBE65:
 540:Utilities/trace/adv_trace/stm32_adv_trace.c ****   uint8_t *ptr = NULL;
 1234              		.loc 1 540 27 is_stmt 0 view .LVU309
 1235 008a 0020     		movs	r0, #0
 1236              	.LBB68:
 1237              	.LBB67:
 482:Drivers/CMSIS/Include/cmsis_gcc.h **** }
ARM GAS  C:\Users\NATHAN~1\AppData\Local\Temp\ccImtOWI.s 			page 49


 1238              		.loc 2 482 1 view .LVU310
 1239 008c C2E7     		b	.L82
 1240              	.L87:
 1241 008e 00BF     		.align	2
 1242              	.L86:
 1243 0090 00000000 		.word	.LANCHOR0
 1244 0094 00000000 		.word	.LANCHOR1
 1245 0098 00000000 		.word	UTIL_TraceDriver
 1246              	.LBE67:
 1247              	.LBE68:
 1248              		.cfi_endproc
 1249              	.LFE127:
 1251              		.section	.text.UTIL_ADV_TRACE_COND_FSend,"ax",%progbits
 1252              		.align	1
 1253              		.global	UTIL_ADV_TRACE_COND_FSend
 1254              		.syntax unified
 1255              		.thumb
 1256              		.thumb_func
 1258              	UTIL_ADV_TRACE_COND_FSend:
 1259              	.LVL73:
 1260              	.LFB111:
 204:Utilities/trace/adv_trace/stm32_adv_trace.c ****   va_list vaArgs;
 1261              		.loc 1 204 1 is_stmt 1 view -0
 1262              		.cfi_startproc
 1263              		@ args = 4, pretend = 4, frame = 24
 1264              		@ frame_needed = 0, uses_anonymous_args = 1
 204:Utilities/trace/adv_trace/stm32_adv_trace.c ****   va_list vaArgs;
 1265              		.loc 1 204 1 is_stmt 0 view .LVU312
 1266 0000 08B4     		push	{r3}
 1267              	.LCFI13:
 1268              		.cfi_def_cfa_offset 4
 1269              		.cfi_offset 3, -4
 1270 0002 30B5     		push	{r4, r5, lr}
 1271              	.LCFI14:
 1272              		.cfi_def_cfa_offset 16
 1273              		.cfi_offset 4, -16
 1274              		.cfi_offset 5, -12
 1275              		.cfi_offset 14, -8
 1276 0004 86B0     		sub	sp, sp, #24
 1277              	.LCFI15:
 1278              		.cfi_def_cfa_offset 40
 1279 0006 099C     		ldr	r4, [sp, #36]
 205:Utilities/trace/adv_trace/stm32_adv_trace.c **** #if defined(UTIL_ADV_TRACE_UNCHUNK_MODE)
 1280              		.loc 1 205 3 is_stmt 1 view .LVU313
 207:Utilities/trace/adv_trace/stm32_adv_trace.c ****   uint16_t timestamp_size = 0u;
 1281              		.loc 1 207 3 view .LVU314
 208:Utilities/trace/adv_trace/stm32_adv_trace.c ****   uint16_t writepos;
 1282              		.loc 1 208 3 view .LVU315
 208:Utilities/trace/adv_trace/stm32_adv_trace.c ****   uint16_t writepos;
 1283              		.loc 1 208 12 is_stmt 0 view .LVU316
 1284 0008 0023     		movs	r3, #0
 1285 000a ADF80230 		strh	r3, [sp, #2]	@ movhi
 209:Utilities/trace/adv_trace/stm32_adv_trace.c ****   uint16_t idx;
 1286              		.loc 1 209 3 is_stmt 1 view .LVU317
 210:Utilities/trace/adv_trace/stm32_adv_trace.c **** #else
 1287              		.loc 1 210 3 view .LVU318
 214:Utilities/trace/adv_trace/stm32_adv_trace.c **** 
ARM GAS  C:\Users\NATHAN~1\AppData\Local\Temp\ccImtOWI.s 			page 50


 1288              		.loc 1 214 3 view .LVU319
 1289              	.LVL74:
 217:Utilities/trace/adv_trace/stm32_adv_trace.c ****   {
 1290              		.loc 1 217 3 view .LVU320
 217:Utilities/trace/adv_trace/stm32_adv_trace.c ****   {
 1291              		.loc 1 217 21 is_stmt 0 view .LVU321
 1292 000e 2C4B     		ldr	r3, .L100
 1293 0010 1B7A     		ldrb	r3, [r3, #8]	@ zero_extendqisi2
 217:Utilities/trace/adv_trace/stm32_adv_trace.c ****   {
 1294              		.loc 1 217 5 view .LVU322
 1295 0012 8342     		cmp	r3, r0
 1296 0014 4DD3     		bcc	.L94
 222:Utilities/trace/adv_trace/stm32_adv_trace.c ****   {
 1297              		.loc 1 222 3 is_stmt 1 view .LVU323
 222:Utilities/trace/adv_trace/stm32_adv_trace.c ****   {
 1298              		.loc 1 222 29 is_stmt 0 view .LVU324
 1299 0016 2A4B     		ldr	r3, .L100
 1300 0018 DB68     		ldr	r3, [r3, #12]
 222:Utilities/trace/adv_trace/stm32_adv_trace.c ****   {
 1301              		.loc 1 222 5 view .LVU325
 1302 001a 31EA0303 		bics	r3, r1, r3
 1303 001e 4BD1     		bne	.L95
 228:Utilities/trace/adv_trace/stm32_adv_trace.c ****   {
 1304              		.loc 1 228 3 is_stmt 1 view .LVU326
 228:Utilities/trace/adv_trace/stm32_adv_trace.c ****   {
 1305              		.loc 1 228 20 is_stmt 0 view .LVU327
 1306 0020 274B     		ldr	r3, .L100
 1307 0022 5B68     		ldr	r3, [r3, #4]
 228:Utilities/trace/adv_trace/stm32_adv_trace.c ****   {
 1308              		.loc 1 228 5 view .LVU328
 1309 0024 23B1     		cbz	r3, .L90
 228:Utilities/trace/adv_trace/stm32_adv_trace.c ****   {
 1310              		.loc 1 228 45 discriminator 1 view .LVU329
 1311 0026 1AB1     		cbz	r2, .L90
 230:Utilities/trace/adv_trace/stm32_adv_trace.c ****   }
 1312              		.loc 1 230 5 is_stmt 1 view .LVU330
 1313 0028 0DF10201 		add	r1, sp, #2
 1314 002c 01A8     		add	r0, sp, #4
 1315 002e 9847     		blx	r3
 1316              	.LVL75:
 1317              	.L90:
 233:Utilities/trace/adv_trace/stm32_adv_trace.c ****   buff_size =(uint16_t)UTIL_ADV_TRACE_VSNPRINTF((char *)sztmp,UTIL_ADV_TRACE_TMP_BUF_SIZE, strForma
 1318              		.loc 1 233 3 view .LVU331
 1319 0030 0AAB     		add	r3, sp, #40
 1320 0032 0593     		str	r3, [sp, #20]
 234:Utilities/trace/adv_trace/stm32_adv_trace.c **** 
 1321              		.loc 1 234 3 view .LVU332
 234:Utilities/trace/adv_trace/stm32_adv_trace.c **** 
 1322              		.loc 1 234 24 is_stmt 0 view .LVU333
 1323 0034 2246     		mov	r2, r4
 1324 0036 4FF40071 		mov	r1, #512
 1325 003a 2248     		ldr	r0, .L100+4
 1326 003c FFF7FEFF 		bl	tiny_vsnprintf_like
 1327              	.LVL76:
 234:Utilities/trace/adv_trace/stm32_adv_trace.c **** 
 1328              		.loc 1 234 13 view .LVU334
 1329 0040 85B2     		uxth	r5, r0
ARM GAS  C:\Users\NATHAN~1\AppData\Local\Temp\ccImtOWI.s 			page 51


 1330              	.LVL77:
 236:Utilities/trace/adv_trace/stm32_adv_trace.c **** 
 1331              		.loc 1 236 3 is_stmt 1 view .LVU335
 1332 0042 FFF7FEFF 		bl	TRACE_Lock
 1333              	.LVL78:
 239:Utilities/trace/adv_trace/stm32_adv_trace.c ****   {
 1334              		.loc 1 239 3 view .LVU336
 239:Utilities/trace/adv_trace/stm32_adv_trace.c ****   {
 1335              		.loc 1 239 7 is_stmt 0 view .LVU337
 1336 0046 BDF80200 		ldrh	r0, [sp, #2]
 1337 004a 2844     		add	r0, r0, r5
 1338 004c 6946     		mov	r1, sp
 1339 004e 80B2     		uxth	r0, r0
 1340 0050 FFF7FEFF 		bl	TRACE_AllocateBufer
 1341              	.LVL79:
 239:Utilities/trace/adv_trace/stm32_adv_trace.c ****   {
 1342              		.loc 1 239 6 view .LVU338
 1343 0054 B0F1FF3F 		cmp	r0, #-1
 1344 0058 26D0     		beq	.L99
 252:Utilities/trace/adv_trace/stm32_adv_trace.c ****     {
 1345              		.loc 1 252 14 view .LVU339
 1346 005a 0023     		movs	r3, #0
 1347 005c 0DE0     		b	.L91
 1348              	.LVL80:
 1349              	.L93:
 254:Utilities/trace/adv_trace/stm32_adv_trace.c ****       writepos = writepos + 1u;
 1350              		.loc 1 254 7 is_stmt 1 discriminator 3 view .LVU340
 254:Utilities/trace/adv_trace/stm32_adv_trace.c ****       writepos = writepos + 1u;
 1351              		.loc 1 254 23 is_stmt 0 discriminator 3 view .LVU341
 1352 005e BDF80020 		ldrh	r2, [sp]
 254:Utilities/trace/adv_trace/stm32_adv_trace.c ****       writepos = writepos + 1u;
 1353              		.loc 1 254 39 discriminator 3 view .LVU342
 1354 0062 03F11801 		add	r1, r3, #24
 1355 0066 6944     		add	r1, sp, r1
 1356 0068 11F8140C 		ldrb	r0, [r1, #-20]	@ zero_extendqisi2
 254:Utilities/trace/adv_trace/stm32_adv_trace.c ****       writepos = writepos + 1u;
 1357              		.loc 1 254 34 discriminator 3 view .LVU343
 1358 006c 1649     		ldr	r1, .L100+8
 1359 006e 8854     		strb	r0, [r1, r2]
 255:Utilities/trace/adv_trace/stm32_adv_trace.c ****     }
 1360              		.loc 1 255 7 is_stmt 1 discriminator 3 view .LVU344
 255:Utilities/trace/adv_trace/stm32_adv_trace.c ****     }
 1361              		.loc 1 255 27 is_stmt 0 discriminator 3 view .LVU345
 1362 0070 0132     		adds	r2, r2, #1
 255:Utilities/trace/adv_trace/stm32_adv_trace.c ****     }
 1363              		.loc 1 255 16 discriminator 3 view .LVU346
 1364 0072 ADF80020 		strh	r2, [sp]	@ movhi
 252:Utilities/trace/adv_trace/stm32_adv_trace.c ****     {
 1365              		.loc 1 252 42 is_stmt 1 discriminator 3 view .LVU347
 252:Utilities/trace/adv_trace/stm32_adv_trace.c ****     {
 1366              		.loc 1 252 45 is_stmt 0 discriminator 3 view .LVU348
 1367 0076 0133     		adds	r3, r3, #1
 1368              	.LVL81:
 252:Utilities/trace/adv_trace/stm32_adv_trace.c ****     {
 1369              		.loc 1 252 45 discriminator 3 view .LVU349
 1370 0078 9BB2     		uxth	r3, r3
 1371              	.LVL82:
ARM GAS  C:\Users\NATHAN~1\AppData\Local\Temp\ccImtOWI.s 			page 52


 1372              	.L91:
 252:Utilities/trace/adv_trace/stm32_adv_trace.c ****     {
 1373              		.loc 1 252 20 is_stmt 1 discriminator 1 view .LVU350
 252:Utilities/trace/adv_trace/stm32_adv_trace.c ****     {
 1374              		.loc 1 252 24 is_stmt 0 discriminator 1 view .LVU351
 1375 007a BDF80220 		ldrh	r2, [sp, #2]
 252:Utilities/trace/adv_trace/stm32_adv_trace.c ****     {
 1376              		.loc 1 252 5 discriminator 1 view .LVU352
 1377 007e 9A42     		cmp	r2, r3
 1378 0080 EDD8     		bhi	.L93
 259:Utilities/trace/adv_trace/stm32_adv_trace.c ****     va_end(vaArgs);
 1379              		.loc 1 259 5 is_stmt 1 view .LVU353
 259:Utilities/trace/adv_trace/stm32_adv_trace.c ****     va_end(vaArgs);
 1380              		.loc 1 259 11 is_stmt 0 view .LVU354
 1381 0082 BDF80000 		ldrh	r0, [sp]
 1382 0086 059B     		ldr	r3, [sp, #20]
 1383              	.LVL83:
 259:Utilities/trace/adv_trace/stm32_adv_trace.c ****     va_end(vaArgs);
 1384              		.loc 1 259 11 view .LVU355
 1385 0088 2246     		mov	r2, r4
 1386 008a 4FF40071 		mov	r1, #512
 1387 008e 0E4C     		ldr	r4, .L100+8
 1388 0090 2044     		add	r0, r0, r4
 1389 0092 FFF7FEFF 		bl	tiny_vsnprintf_like
 1390              	.LVL84:
 260:Utilities/trace/adv_trace/stm32_adv_trace.c **** 
 1391              		.loc 1 260 5 is_stmt 1 view .LVU356
 262:Utilities/trace/adv_trace/stm32_adv_trace.c **** 
 1392              		.loc 1 262 5 view .LVU357
 1393 0096 FFF7FEFF 		bl	TRACE_UnLock
 1394              	.LVL85:
 264:Utilities/trace/adv_trace/stm32_adv_trace.c ****   }
 1395              		.loc 1 264 5 view .LVU358
 264:Utilities/trace/adv_trace/stm32_adv_trace.c ****   }
 1396              		.loc 1 264 12 is_stmt 0 view .LVU359
 1397 009a FFF7FEFF 		bl	TRACE_Send
 1398              	.LVL86:
 1399              	.L89:
 293:Utilities/trace/adv_trace/stm32_adv_trace.c **** #endif
 1400              		.loc 1 293 1 view .LVU360
 1401 009e 06B0     		add	sp, sp, #24
 1402              	.LCFI16:
 1403              		.cfi_remember_state
 1404              		.cfi_def_cfa_offset 16
 1405              		@ sp needed
 1406 00a0 BDE83040 		pop	{r4, r5, lr}
 1407              	.LCFI17:
 1408              		.cfi_restore 14
 1409              		.cfi_restore 5
 1410              		.cfi_restore 4
 1411              		.cfi_def_cfa_offset 4
 1412 00a4 01B0     		add	sp, sp, #4
 1413              	.LCFI18:
 1414              		.cfi_restore 3
 1415              		.cfi_def_cfa_offset 0
 1416 00a6 7047     		bx	lr
 1417              	.LVL87:
ARM GAS  C:\Users\NATHAN~1\AppData\Local\Temp\ccImtOWI.s 			page 53


 1418              	.L99:
 1419              	.LCFI19:
 1420              		.cfi_restore_state
 267:Utilities/trace/adv_trace/stm32_adv_trace.c ****   TRACE_UnLock();
 1421              		.loc 1 267 3 is_stmt 1 view .LVU361
 268:Utilities/trace/adv_trace/stm32_adv_trace.c **** #if defined(UTIL_ADV_TRACE_OVERRUN)
 1422              		.loc 1 268 3 view .LVU362
 1423 00a8 FFF7FEFF 		bl	TRACE_UnLock
 1424              	.LVL88:
 279:Utilities/trace/adv_trace/stm32_adv_trace.c **** 
 1425              		.loc 1 279 3 view .LVU363
 279:Utilities/trace/adv_trace/stm32_adv_trace.c **** 
 1426              		.loc 1 279 10 is_stmt 0 view .LVU364
 1427 00ac 6FF00200 		mvn	r0, #2
 1428 00b0 F5E7     		b	.L89
 1429              	.LVL89:
 1430              	.L94:
 219:Utilities/trace/adv_trace/stm32_adv_trace.c ****   }
 1431              		.loc 1 219 12 view .LVU365
 1432 00b2 6FF00400 		mvn	r0, #4
 1433              	.LVL90:
 219:Utilities/trace/adv_trace/stm32_adv_trace.c ****   }
 1434              		.loc 1 219 12 view .LVU366
 1435 00b6 F2E7     		b	.L89
 1436              	.LVL91:
 1437              	.L95:
 224:Utilities/trace/adv_trace/stm32_adv_trace.c ****   }
 1438              		.loc 1 224 12 view .LVU367
 1439 00b8 6FF00500 		mvn	r0, #5
 1440              	.LVL92:
 224:Utilities/trace/adv_trace/stm32_adv_trace.c ****   }
 1441              		.loc 1 224 12 view .LVU368
 1442 00bc EFE7     		b	.L89
 1443              	.L101:
 1444 00be 00BF     		.align	2
 1445              	.L100:
 1446 00c0 00000000 		.word	.LANCHOR0
 1447 00c4 00000000 		.word	.LANCHOR2
 1448 00c8 00000000 		.word	.LANCHOR1
 1449              		.cfi_endproc
 1450              	.LFE111:
 1452              		.section	.text.UTIL_ADV_TRACE_ZCSend_Finalize,"ax",%progbits
 1453              		.align	1
 1454              		.global	UTIL_ADV_TRACE_ZCSend_Finalize
 1455              		.syntax unified
 1456              		.thumb
 1457              		.thumb_func
 1459              	UTIL_ADV_TRACE_ZCSend_Finalize:
 1460              	.LFB116:
 388:Utilities/trace/adv_trace/stm32_adv_trace.c ****   TRACE_UnLock();
 1461              		.loc 1 388 1 is_stmt 1 view -0
 1462              		.cfi_startproc
 1463              		@ args = 0, pretend = 0, frame = 0
 1464              		@ frame_needed = 0, uses_anonymous_args = 0
 1465 0000 08B5     		push	{r3, lr}
 1466              	.LCFI20:
 1467              		.cfi_def_cfa_offset 8
ARM GAS  C:\Users\NATHAN~1\AppData\Local\Temp\ccImtOWI.s 			page 54


 1468              		.cfi_offset 3, -8
 1469              		.cfi_offset 14, -4
 389:Utilities/trace/adv_trace/stm32_adv_trace.c ****   return TRACE_Send();
 1470              		.loc 1 389 3 view .LVU370
 1471 0002 FFF7FEFF 		bl	TRACE_UnLock
 1472              	.LVL93:
 390:Utilities/trace/adv_trace/stm32_adv_trace.c **** }
 1473              		.loc 1 390 3 view .LVU371
 390:Utilities/trace/adv_trace/stm32_adv_trace.c **** }
 1474              		.loc 1 390 10 is_stmt 0 view .LVU372
 1475 0006 FFF7FEFF 		bl	TRACE_Send
 1476              	.LVL94:
 391:Utilities/trace/adv_trace/stm32_adv_trace.c **** 
 1477              		.loc 1 391 1 view .LVU373
 1478 000a 08BD     		pop	{r3, pc}
 1479              		.cfi_endproc
 1480              	.LFE116:
 1482              		.section	.text.UTIL_ADV_TRACE_COND_ZCSend_Finalize,"ax",%progbits
 1483              		.align	1
 1484              		.global	UTIL_ADV_TRACE_COND_ZCSend_Finalize
 1485              		.syntax unified
 1486              		.thumb
 1487              		.thumb_func
 1489              	UTIL_ADV_TRACE_COND_ZCSend_Finalize:
 1490              	.LFB114:
 358:Utilities/trace/adv_trace/stm32_adv_trace.c ****   return UTIL_ADV_TRACE_ZCSend_Finalize();
 1491              		.loc 1 358 1 is_stmt 1 view -0
 1492              		.cfi_startproc
 1493              		@ args = 0, pretend = 0, frame = 0
 1494              		@ frame_needed = 0, uses_anonymous_args = 0
 1495 0000 08B5     		push	{r3, lr}
 1496              	.LCFI21:
 1497              		.cfi_def_cfa_offset 8
 1498              		.cfi_offset 3, -8
 1499              		.cfi_offset 14, -4
 359:Utilities/trace/adv_trace/stm32_adv_trace.c **** }
 1500              		.loc 1 359 3 view .LVU375
 359:Utilities/trace/adv_trace/stm32_adv_trace.c **** }
 1501              		.loc 1 359 10 is_stmt 0 view .LVU376
 1502 0002 FFF7FEFF 		bl	UTIL_ADV_TRACE_ZCSend_Finalize
 1503              	.LVL95:
 360:Utilities/trace/adv_trace/stm32_adv_trace.c **** #endif
 1504              		.loc 1 360 1 view .LVU377
 1505 0006 08BD     		pop	{r3, pc}
 1506              		.cfi_endproc
 1507              	.LFE114:
 1509              		.section	.text.UTIL_ADV_TRACE_COND_Send,"ax",%progbits
 1510              		.align	1
 1511              		.global	UTIL_ADV_TRACE_COND_Send
 1512              		.syntax unified
 1513              		.thumb
 1514              		.thumb_func
 1516              	UTIL_ADV_TRACE_COND_Send:
 1517              	.LVL96:
 1518              	.LFB117:
 395:Utilities/trace/adv_trace/stm32_adv_trace.c ****   UTIL_ADV_TRACE_Status_t ret;
 1519              		.loc 1 395 1 is_stmt 1 view -0
ARM GAS  C:\Users\NATHAN~1\AppData\Local\Temp\ccImtOWI.s 			page 55


 1520              		.cfi_startproc
 1521              		@ args = 4, pretend = 0, frame = 24
 1522              		@ frame_needed = 0, uses_anonymous_args = 0
 395:Utilities/trace/adv_trace/stm32_adv_trace.c ****   UTIL_ADV_TRACE_Status_t ret;
 1523              		.loc 1 395 1 is_stmt 0 view .LVU379
 1524 0000 30B5     		push	{r4, r5, lr}
 1525              	.LCFI22:
 1526              		.cfi_def_cfa_offset 12
 1527              		.cfi_offset 4, -12
 1528              		.cfi_offset 5, -8
 1529              		.cfi_offset 14, -4
 1530 0002 87B0     		sub	sp, sp, #28
 1531              	.LCFI23:
 1532              		.cfi_def_cfa_offset 40
 1533 0004 1C46     		mov	r4, r3
 1534 0006 BDF82850 		ldrh	r5, [sp, #40]
 396:Utilities/trace/adv_trace/stm32_adv_trace.c ****   uint16_t writepos;
 1535              		.loc 1 396 3 is_stmt 1 view .LVU380
 397:Utilities/trace/adv_trace/stm32_adv_trace.c ****   uint32_t idx;
 1536              		.loc 1 397 3 view .LVU381
 398:Utilities/trace/adv_trace/stm32_adv_trace.c ****   uint8_t timestamp_ptr[UTIL_ADV_TRACE_TMP_MAX_TIMESTMAP_SIZE];
 1537              		.loc 1 398 3 view .LVU382
 399:Utilities/trace/adv_trace/stm32_adv_trace.c ****   uint16_t timestamp_size = 0u;
 1538              		.loc 1 399 3 view .LVU383
 400:Utilities/trace/adv_trace/stm32_adv_trace.c **** 
 1539              		.loc 1 400 3 view .LVU384
 400:Utilities/trace/adv_trace/stm32_adv_trace.c **** 
 1540              		.loc 1 400 12 is_stmt 0 view .LVU385
 1541 000a 0023     		movs	r3, #0
 1542              	.LVL97:
 400:Utilities/trace/adv_trace/stm32_adv_trace.c **** 
 1543              		.loc 1 400 12 view .LVU386
 1544 000c ADF80230 		strh	r3, [sp, #2]	@ movhi
 403:Utilities/trace/adv_trace/stm32_adv_trace.c ****   {
 1545              		.loc 1 403 3 is_stmt 1 view .LVU387
 403:Utilities/trace/adv_trace/stm32_adv_trace.c ****   {
 1546              		.loc 1 403 21 is_stmt 0 view .LVU388
 1547 0010 294B     		ldr	r3, .L120
 1548 0012 1B7A     		ldrb	r3, [r3, #8]	@ zero_extendqisi2
 403:Utilities/trace/adv_trace/stm32_adv_trace.c ****   {
 1549              		.loc 1 403 5 view .LVU389
 1550 0014 8342     		cmp	r3, r0
 1551 0016 48D3     		bcc	.L114
 408:Utilities/trace/adv_trace/stm32_adv_trace.c ****   {
 1552              		.loc 1 408 3 is_stmt 1 view .LVU390
 408:Utilities/trace/adv_trace/stm32_adv_trace.c ****   {
 1553              		.loc 1 408 29 is_stmt 0 view .LVU391
 1554 0018 274B     		ldr	r3, .L120
 1555 001a DB68     		ldr	r3, [r3, #12]
 408:Utilities/trace/adv_trace/stm32_adv_trace.c ****   {
 1556              		.loc 1 408 5 view .LVU392
 1557 001c 31EA0303 		bics	r3, r1, r3
 1558 0020 46D1     		bne	.L115
 413:Utilities/trace/adv_trace/stm32_adv_trace.c ****   {
 1559              		.loc 1 413 3 is_stmt 1 view .LVU393
 413:Utilities/trace/adv_trace/stm32_adv_trace.c ****   {
 1560              		.loc 1 413 20 is_stmt 0 view .LVU394
ARM GAS  C:\Users\NATHAN~1\AppData\Local\Temp\ccImtOWI.s 			page 56


 1561 0022 254B     		ldr	r3, .L120
 1562 0024 5B68     		ldr	r3, [r3, #4]
 413:Utilities/trace/adv_trace/stm32_adv_trace.c ****   {
 1563              		.loc 1 413 5 view .LVU395
 1564 0026 23B1     		cbz	r3, .L108
 413:Utilities/trace/adv_trace/stm32_adv_trace.c ****   {
 1565              		.loc 1 413 45 discriminator 1 view .LVU396
 1566 0028 1AB1     		cbz	r2, .L108
 415:Utilities/trace/adv_trace/stm32_adv_trace.c ****   }
 1567              		.loc 1 415 5 is_stmt 1 view .LVU397
 1568 002a 0DF10201 		add	r1, sp, #2
 1569              	.LVL98:
 415:Utilities/trace/adv_trace/stm32_adv_trace.c ****   }
 1570              		.loc 1 415 5 is_stmt 0 view .LVU398
 1571 002e 01A8     		add	r0, sp, #4
 1572              	.LVL99:
 415:Utilities/trace/adv_trace/stm32_adv_trace.c ****   }
 1573              		.loc 1 415 5 view .LVU399
 1574 0030 9847     		blx	r3
 1575              	.LVL100:
 1576              	.L108:
 418:Utilities/trace/adv_trace/stm32_adv_trace.c **** 
 1577              		.loc 1 418 3 is_stmt 1 view .LVU400
 1578 0032 FFF7FEFF 		bl	TRACE_Lock
 1579              	.LVL101:
 421:Utilities/trace/adv_trace/stm32_adv_trace.c ****   {
 1580              		.loc 1 421 3 view .LVU401
 421:Utilities/trace/adv_trace/stm32_adv_trace.c ****   {
 1581              		.loc 1 421 7 is_stmt 0 view .LVU402
 1582 0036 BDF80200 		ldrh	r0, [sp, #2]
 1583 003a 2844     		add	r0, r0, r5
 1584 003c 0DF11601 		add	r1, sp, #22
 1585 0040 80B2     		uxth	r0, r0
 1586 0042 FFF7FEFF 		bl	TRACE_AllocateBufer
 1587              	.LVL102:
 421:Utilities/trace/adv_trace/stm32_adv_trace.c ****   {
 1588              		.loc 1 421 6 view .LVU403
 1589 0046 B0F1FF3F 		cmp	r0, #-1
 1590 004a 29D0     		beq	.L119
 424:Utilities/trace/adv_trace/stm32_adv_trace.c ****     {
 1591              		.loc 1 424 14 view .LVU404
 1592 004c 0023     		movs	r3, #0
 1593 004e 0EE0     		b	.L109
 1594              	.LVL103:
 1595              	.L111:
 426:Utilities/trace/adv_trace/stm32_adv_trace.c ****       writepos = (uint16_t) ((writepos + 1u) % UTIL_ADV_TRACE_FIFO_SIZE);
 1596              		.loc 1 426 7 is_stmt 1 discriminator 3 view .LVU405
 426:Utilities/trace/adv_trace/stm32_adv_trace.c ****       writepos = (uint16_t) ((writepos + 1u) % UTIL_ADV_TRACE_FIFO_SIZE);
 1597              		.loc 1 426 23 is_stmt 0 discriminator 3 view .LVU406
 1598 0050 BDF81620 		ldrh	r2, [sp, #22]
 426:Utilities/trace/adv_trace/stm32_adv_trace.c ****       writepos = (uint16_t) ((writepos + 1u) % UTIL_ADV_TRACE_FIFO_SIZE);
 1599              		.loc 1 426 49 discriminator 3 view .LVU407
 1600 0054 03F11801 		add	r1, r3, #24
 1601 0058 6944     		add	r1, sp, r1
 1602 005a 11F8140C 		ldrb	r0, [r1, #-20]	@ zero_extendqisi2
 426:Utilities/trace/adv_trace/stm32_adv_trace.c ****       writepos = (uint16_t) ((writepos + 1u) % UTIL_ADV_TRACE_FIFO_SIZE);
 1603              		.loc 1 426 34 discriminator 3 view .LVU408
ARM GAS  C:\Users\NATHAN~1\AppData\Local\Temp\ccImtOWI.s 			page 57


 1604 005e 1749     		ldr	r1, .L120+4
 1605 0060 8854     		strb	r0, [r1, r2]
 427:Utilities/trace/adv_trace/stm32_adv_trace.c ****     }
 1606              		.loc 1 427 7 is_stmt 1 discriminator 3 view .LVU409
 427:Utilities/trace/adv_trace/stm32_adv_trace.c ****     }
 1607              		.loc 1 427 18 is_stmt 0 discriminator 3 view .LVU410
 1608 0062 0132     		adds	r2, r2, #1
 1609 0064 C2F30902 		ubfx	r2, r2, #0, #10
 427:Utilities/trace/adv_trace/stm32_adv_trace.c ****     }
 1610              		.loc 1 427 16 discriminator 3 view .LVU411
 1611 0068 ADF81620 		strh	r2, [sp, #22]	@ movhi
 424:Utilities/trace/adv_trace/stm32_adv_trace.c ****     {
 1612              		.loc 1 424 41 is_stmt 1 discriminator 3 view .LVU412
 424:Utilities/trace/adv_trace/stm32_adv_trace.c ****     {
 1613              		.loc 1 424 44 is_stmt 0 discriminator 3 view .LVU413
 1614 006c 0133     		adds	r3, r3, #1
 1615              	.LVL104:
 1616              	.L109:
 424:Utilities/trace/adv_trace/stm32_adv_trace.c ****     {
 1617              		.loc 1 424 19 is_stmt 1 discriminator 1 view .LVU414
 424:Utilities/trace/adv_trace/stm32_adv_trace.c ****     {
 1618              		.loc 1 424 23 is_stmt 0 discriminator 1 view .LVU415
 1619 006e BDF80220 		ldrh	r2, [sp, #2]
 424:Utilities/trace/adv_trace/stm32_adv_trace.c ****     {
 1620              		.loc 1 424 5 discriminator 1 view .LVU416
 1621 0072 9A42     		cmp	r2, r3
 1622 0074 ECD8     		bhi	.L111
 430:Utilities/trace/adv_trace/stm32_adv_trace.c ****     {
 1623              		.loc 1 430 14 view .LVU417
 1624 0076 0023     		movs	r3, #0
 1625              	.LVL105:
 430:Utilities/trace/adv_trace/stm32_adv_trace.c ****     {
 1626              		.loc 1 430 14 view .LVU418
 1627 0078 0AE0     		b	.L112
 1628              	.LVL106:
 1629              	.L113:
 432:Utilities/trace/adv_trace/stm32_adv_trace.c ****       writepos = (uint16_t) ((writepos + 1u) % UTIL_ADV_TRACE_FIFO_SIZE);
 1630              		.loc 1 432 7 is_stmt 1 discriminator 3 view .LVU419
 432:Utilities/trace/adv_trace/stm32_adv_trace.c ****       writepos = (uint16_t) ((writepos + 1u) % UTIL_ADV_TRACE_FIFO_SIZE);
 1631              		.loc 1 432 23 is_stmt 0 discriminator 3 view .LVU420
 1632 007a BDF81620 		ldrh	r2, [sp, #22]
 432:Utilities/trace/adv_trace/stm32_adv_trace.c ****       writepos = (uint16_t) ((writepos + 1u) % UTIL_ADV_TRACE_FIFO_SIZE);
 1633              		.loc 1 432 41 discriminator 3 view .LVU421
 1634 007e E05C     		ldrb	r0, [r4, r3]	@ zero_extendqisi2
 432:Utilities/trace/adv_trace/stm32_adv_trace.c ****       writepos = (uint16_t) ((writepos + 1u) % UTIL_ADV_TRACE_FIFO_SIZE);
 1635              		.loc 1 432 34 discriminator 3 view .LVU422
 1636 0080 0E49     		ldr	r1, .L120+4
 1637 0082 8854     		strb	r0, [r1, r2]
 433:Utilities/trace/adv_trace/stm32_adv_trace.c ****     }
 1638              		.loc 1 433 7 is_stmt 1 discriminator 3 view .LVU423
 433:Utilities/trace/adv_trace/stm32_adv_trace.c ****     }
 1639              		.loc 1 433 18 is_stmt 0 discriminator 3 view .LVU424
 1640 0084 0132     		adds	r2, r2, #1
 1641 0086 C2F30902 		ubfx	r2, r2, #0, #10
 433:Utilities/trace/adv_trace/stm32_adv_trace.c ****     }
 1642              		.loc 1 433 16 discriminator 3 view .LVU425
 1643 008a ADF81620 		strh	r2, [sp, #22]	@ movhi
ARM GAS  C:\Users\NATHAN~1\AppData\Local\Temp\ccImtOWI.s 			page 58


 430:Utilities/trace/adv_trace/stm32_adv_trace.c ****     {
 1644              		.loc 1 430 34 is_stmt 1 discriminator 3 view .LVU426
 430:Utilities/trace/adv_trace/stm32_adv_trace.c ****     {
 1645              		.loc 1 430 37 is_stmt 0 discriminator 3 view .LVU427
 1646 008e 0133     		adds	r3, r3, #1
 1647              	.LVL107:
 1648              	.L112:
 430:Utilities/trace/adv_trace/stm32_adv_trace.c ****     {
 1649              		.loc 1 430 20 is_stmt 1 discriminator 1 view .LVU428
 430:Utilities/trace/adv_trace/stm32_adv_trace.c ****     {
 1650              		.loc 1 430 5 is_stmt 0 discriminator 1 view .LVU429
 1651 0090 9D42     		cmp	r5, r3
 1652 0092 F2D8     		bhi	.L113
 436:Utilities/trace/adv_trace/stm32_adv_trace.c ****     ret = TRACE_Send();
 1653              		.loc 1 436 5 is_stmt 1 view .LVU430
 1654 0094 FFF7FEFF 		bl	TRACE_UnLock
 1655              	.LVL108:
 437:Utilities/trace/adv_trace/stm32_adv_trace.c ****   }
 1656              		.loc 1 437 5 view .LVU431
 437:Utilities/trace/adv_trace/stm32_adv_trace.c ****   }
 1657              		.loc 1 437 11 is_stmt 0 view .LVU432
 1658 0098 FFF7FEFF 		bl	TRACE_Send
 1659              	.LVL109:
 1660              	.L107:
 446:Utilities/trace/adv_trace/stm32_adv_trace.c **** #endif
 1661              		.loc 1 446 1 view .LVU433
 1662 009c 07B0     		add	sp, sp, #28
 1663              	.LCFI24:
 1664              		.cfi_remember_state
 1665              		.cfi_def_cfa_offset 12
 1666              		@ sp needed
 1667 009e 30BD     		pop	{r4, r5, pc}
 1668              	.LVL110:
 1669              	.L119:
 1670              	.LCFI25:
 1671              		.cfi_restore_state
 441:Utilities/trace/adv_trace/stm32_adv_trace.c ****     ret = UTIL_ADV_TRACE_MEM_FULL;
 1672              		.loc 1 441 5 is_stmt 1 view .LVU434
 1673 00a0 FFF7FEFF 		bl	TRACE_UnLock
 1674              	.LVL111:
 442:Utilities/trace/adv_trace/stm32_adv_trace.c ****   }
 1675              		.loc 1 442 5 view .LVU435
 442:Utilities/trace/adv_trace/stm32_adv_trace.c ****   }
 1676              		.loc 1 442 9 is_stmt 0 view .LVU436
 1677 00a4 6FF00200 		mvn	r0, #2
 1678 00a8 F8E7     		b	.L107
 1679              	.LVL112:
 1680              	.L114:
 405:Utilities/trace/adv_trace/stm32_adv_trace.c ****   }
 1681              		.loc 1 405 12 view .LVU437
 1682 00aa 6FF00400 		mvn	r0, #4
 1683              	.LVL113:
 405:Utilities/trace/adv_trace/stm32_adv_trace.c ****   }
 1684              		.loc 1 405 12 view .LVU438
 1685 00ae F5E7     		b	.L107
 1686              	.LVL114:
 1687              	.L115:
ARM GAS  C:\Users\NATHAN~1\AppData\Local\Temp\ccImtOWI.s 			page 59


 410:Utilities/trace/adv_trace/stm32_adv_trace.c ****   }
 1688              		.loc 1 410 12 view .LVU439
 1689 00b0 6FF00500 		mvn	r0, #5
 1690              	.LVL115:
 410:Utilities/trace/adv_trace/stm32_adv_trace.c ****   }
 1691              		.loc 1 410 12 view .LVU440
 1692 00b4 F2E7     		b	.L107
 1693              	.L121:
 1694 00b6 00BF     		.align	2
 1695              	.L120:
 1696 00b8 00000000 		.word	.LANCHOR0
 1697 00bc 00000000 		.word	.LANCHOR1
 1698              		.cfi_endproc
 1699              	.LFE117:
 1701              		.section	.text.UTIL_ADV_TRACE_Send,"ax",%progbits
 1702              		.align	1
 1703              		.global	UTIL_ADV_TRACE_Send
 1704              		.syntax unified
 1705              		.thumb
 1706              		.thumb_func
 1708              	UTIL_ADV_TRACE_Send:
 1709              	.LVL116:
 1710              	.LFB118:
 450:Utilities/trace/adv_trace/stm32_adv_trace.c ****   UTIL_ADV_TRACE_Status_t ret;
 1711              		.loc 1 450 1 is_stmt 1 view -0
 1712              		.cfi_startproc
 1713              		@ args = 0, pretend = 0, frame = 8
 1714              		@ frame_needed = 0, uses_anonymous_args = 0
 450:Utilities/trace/adv_trace/stm32_adv_trace.c ****   UTIL_ADV_TRACE_Status_t ret;
 1715              		.loc 1 450 1 is_stmt 0 view .LVU442
 1716 0000 70B5     		push	{r4, r5, r6, lr}
 1717              	.LCFI26:
 1718              		.cfi_def_cfa_offset 16
 1719              		.cfi_offset 4, -16
 1720              		.cfi_offset 5, -12
 1721              		.cfi_offset 6, -8
 1722              		.cfi_offset 14, -4
 1723 0002 82B0     		sub	sp, sp, #8
 1724              	.LCFI27:
 1725              		.cfi_def_cfa_offset 24
 1726 0004 0646     		mov	r6, r0
 1727 0006 0D46     		mov	r5, r1
 451:Utilities/trace/adv_trace/stm32_adv_trace.c ****   uint16_t writepos;
 1728              		.loc 1 451 3 is_stmt 1 view .LVU443
 452:Utilities/trace/adv_trace/stm32_adv_trace.c ****   uint32_t idx;
 1729              		.loc 1 452 3 view .LVU444
 453:Utilities/trace/adv_trace/stm32_adv_trace.c **** 
 1730              		.loc 1 453 3 view .LVU445
 455:Utilities/trace/adv_trace/stm32_adv_trace.c **** 
 1731              		.loc 1 455 3 view .LVU446
 1732 0008 FFF7FEFF 		bl	TRACE_Lock
 1733              	.LVL117:
 458:Utilities/trace/adv_trace/stm32_adv_trace.c ****   {
 1734              		.loc 1 458 3 view .LVU447
 458:Utilities/trace/adv_trace/stm32_adv_trace.c ****   {
 1735              		.loc 1 458 7 is_stmt 0 view .LVU448
 1736 000c 0DF10601 		add	r1, sp, #6
ARM GAS  C:\Users\NATHAN~1\AppData\Local\Temp\ccImtOWI.s 			page 60


 1737 0010 2846     		mov	r0, r5
 1738 0012 FFF7FEFF 		bl	TRACE_AllocateBufer
 1739              	.LVL118:
 458:Utilities/trace/adv_trace/stm32_adv_trace.c ****   {
 1740              		.loc 1 458 6 view .LVU449
 1741 0016 B0F1FF3F 		cmp	r0, #-1
 1742 001a 16D0     		beq	.L130
 461:Utilities/trace/adv_trace/stm32_adv_trace.c ****     {
 1743              		.loc 1 461 14 view .LVU450
 1744 001c 0022     		movs	r2, #0
 1745 001e 0CE0     		b	.L123
 1746              	.LVL119:
 1747              	.L125:
 463:Utilities/trace/adv_trace/stm32_adv_trace.c ****       writepos = (uint16_t) ((writepos + 1u) % UTIL_ADV_TRACE_FIFO_SIZE);
 1748              		.loc 1 463 7 is_stmt 1 discriminator 3 view .LVU451
 463:Utilities/trace/adv_trace/stm32_adv_trace.c ****       writepos = (uint16_t) ((writepos + 1u) % UTIL_ADV_TRACE_FIFO_SIZE);
 1749              		.loc 1 463 23 is_stmt 0 discriminator 3 view .LVU452
 1750 0020 BDF80630 		ldrh	r3, [sp, #6]
 463:Utilities/trace/adv_trace/stm32_adv_trace.c ****       writepos = (uint16_t) ((writepos + 1u) % UTIL_ADV_TRACE_FIFO_SIZE);
 1751              		.loc 1 463 41 discriminator 3 view .LVU453
 1752 0024 16F802C0 		ldrb	ip, [r6, r2]	@ zero_extendqisi2
 463:Utilities/trace/adv_trace/stm32_adv_trace.c ****       writepos = (uint16_t) ((writepos + 1u) % UTIL_ADV_TRACE_FIFO_SIZE);
 1753              		.loc 1 463 34 discriminator 3 view .LVU454
 1754 0028 0A4C     		ldr	r4, .L131
 1755 002a 04F803C0 		strb	ip, [r4, r3]
 464:Utilities/trace/adv_trace/stm32_adv_trace.c ****     }
 1756              		.loc 1 464 7 is_stmt 1 discriminator 3 view .LVU455
 464:Utilities/trace/adv_trace/stm32_adv_trace.c ****     }
 1757              		.loc 1 464 18 is_stmt 0 discriminator 3 view .LVU456
 1758 002e 0133     		adds	r3, r3, #1
 1759 0030 C3F30903 		ubfx	r3, r3, #0, #10
 464:Utilities/trace/adv_trace/stm32_adv_trace.c ****     }
 1760              		.loc 1 464 16 discriminator 3 view .LVU457
 1761 0034 ADF80630 		strh	r3, [sp, #6]	@ movhi
 461:Utilities/trace/adv_trace/stm32_adv_trace.c ****     {
 1762              		.loc 1 461 34 is_stmt 1 discriminator 3 view .LVU458
 461:Utilities/trace/adv_trace/stm32_adv_trace.c ****     {
 1763              		.loc 1 461 37 is_stmt 0 discriminator 3 view .LVU459
 1764 0038 0132     		adds	r2, r2, #1
 1765              	.LVL120:
 1766              	.L123:
 461:Utilities/trace/adv_trace/stm32_adv_trace.c ****     {
 1767              		.loc 1 461 20 is_stmt 1 discriminator 1 view .LVU460
 461:Utilities/trace/adv_trace/stm32_adv_trace.c ****     {
 1768              		.loc 1 461 5 is_stmt 0 discriminator 1 view .LVU461
 1769 003a 9542     		cmp	r5, r2
 1770 003c F0D8     		bhi	.L125
 466:Utilities/trace/adv_trace/stm32_adv_trace.c **** 
 1771              		.loc 1 466 5 is_stmt 1 view .LVU462
 1772 003e FFF7FEFF 		bl	TRACE_UnLock
 1773              	.LVL121:
 468:Utilities/trace/adv_trace/stm32_adv_trace.c ****   }
 1774              		.loc 1 468 5 view .LVU463
 468:Utilities/trace/adv_trace/stm32_adv_trace.c ****   }
 1775              		.loc 1 468 11 is_stmt 0 view .LVU464
 1776 0042 FFF7FEFF 		bl	TRACE_Send
 1777              	.LVL122:
ARM GAS  C:\Users\NATHAN~1\AppData\Local\Temp\ccImtOWI.s 			page 61


 1778              	.L126:
 476:Utilities/trace/adv_trace/stm32_adv_trace.c **** }
 1779              		.loc 1 476 3 is_stmt 1 view .LVU465
 477:Utilities/trace/adv_trace/stm32_adv_trace.c **** 
 1780              		.loc 1 477 1 is_stmt 0 view .LVU466
 1781 0046 02B0     		add	sp, sp, #8
 1782              	.LCFI28:
 1783              		.cfi_remember_state
 1784              		.cfi_def_cfa_offset 16
 1785              		@ sp needed
 1786 0048 70BD     		pop	{r4, r5, r6, pc}
 1787              	.LVL123:
 1788              	.L130:
 1789              	.LCFI29:
 1790              		.cfi_restore_state
 472:Utilities/trace/adv_trace/stm32_adv_trace.c ****     ret = UTIL_ADV_TRACE_MEM_FULL;
 1791              		.loc 1 472 5 is_stmt 1 view .LVU467
 1792 004a FFF7FEFF 		bl	TRACE_UnLock
 1793              	.LVL124:
 473:Utilities/trace/adv_trace/stm32_adv_trace.c ****   }
 1794              		.loc 1 473 5 view .LVU468
 473:Utilities/trace/adv_trace/stm32_adv_trace.c ****   }
 1795              		.loc 1 473 9 is_stmt 0 view .LVU469
 1796 004e 6FF00200 		mvn	r0, #2
 1797 0052 F8E7     		b	.L126
 1798              	.L132:
 1799              		.align	2
 1800              	.L131:
 1801 0054 00000000 		.word	.LANCHOR1
 1802              		.cfi_endproc
 1803              	.LFE118:
 1805              		.section	.text.UTIL_ADV_TRACE_FSend,"ax",%progbits
 1806              		.align	1
 1807              		.global	UTIL_ADV_TRACE_FSend
 1808              		.syntax unified
 1809              		.thumb
 1810              		.thumb_func
 1812              	UTIL_ADV_TRACE_FSend:
 1813              	.LVL125:
 1814              	.LFB112:
 297:Utilities/trace/adv_trace/stm32_adv_trace.c ****   uint8_t buf[UTIL_ADV_TRACE_TMP_BUF_SIZE];
 1815              		.loc 1 297 1 is_stmt 1 view -0
 1816              		.cfi_startproc
 1817              		@ args = 4, pretend = 16, frame = 520
 1818              		@ frame_needed = 0, uses_anonymous_args = 1
 297:Utilities/trace/adv_trace/stm32_adv_trace.c ****   uint8_t buf[UTIL_ADV_TRACE_TMP_BUF_SIZE];
 1819              		.loc 1 297 1 is_stmt 0 view .LVU471
 1820 0000 0FB4     		push	{r0, r1, r2, r3}
 1821              	.LCFI30:
 1822              		.cfi_def_cfa_offset 16
 1823              		.cfi_offset 0, -16
 1824              		.cfi_offset 1, -12
 1825              		.cfi_offset 2, -8
 1826              		.cfi_offset 3, -4
 1827 0002 00B5     		push	{lr}
 1828              	.LCFI31:
 1829              		.cfi_def_cfa_offset 20
ARM GAS  C:\Users\NATHAN~1\AppData\Local\Temp\ccImtOWI.s 			page 62


 1830              		.cfi_offset 14, -20
 1831 0004 ADF5037D 		sub	sp, sp, #524
 1832              	.LCFI32:
 1833              		.cfi_def_cfa_offset 544
 1834 0008 84AB     		add	r3, sp, #528
 1835 000a 53F8042B 		ldr	r2, [r3], #4
 298:Utilities/trace/adv_trace/stm32_adv_trace.c ****   va_list vaArgs;
 1836              		.loc 1 298 3 is_stmt 1 view .LVU472
 299:Utilities/trace/adv_trace/stm32_adv_trace.c **** 
 1837              		.loc 1 299 3 view .LVU473
 301:Utilities/trace/adv_trace/stm32_adv_trace.c ****   uint16_t bufSize = (uint16_t) UTIL_ADV_TRACE_VSNPRINTF((char* )buf, UTIL_ADV_TRACE_TMP_BUF_SIZE, 
 1838              		.loc 1 301 3 view .LVU474
 1839 000e 0193     		str	r3, [sp, #4]
 302:Utilities/trace/adv_trace/stm32_adv_trace.c ****   va_end(vaArgs);
 1840              		.loc 1 302 3 view .LVU475
 302:Utilities/trace/adv_trace/stm32_adv_trace.c ****   va_end(vaArgs);
 1841              		.loc 1 302 33 is_stmt 0 view .LVU476
 1842 0010 4FF40071 		mov	r1, #512
 1843 0014 02A8     		add	r0, sp, #8
 1844 0016 FFF7FEFF 		bl	tiny_vsnprintf_like
 1845              	.LVL126:
 303:Utilities/trace/adv_trace/stm32_adv_trace.c **** 
 1846              		.loc 1 303 3 is_stmt 1 view .LVU477
 305:Utilities/trace/adv_trace/stm32_adv_trace.c **** }
 1847              		.loc 1 305 3 view .LVU478
 305:Utilities/trace/adv_trace/stm32_adv_trace.c **** }
 1848              		.loc 1 305 10 is_stmt 0 view .LVU479
 1849 001a 81B2     		uxth	r1, r0
 1850 001c 02A8     		add	r0, sp, #8
 1851 001e FFF7FEFF 		bl	UTIL_ADV_TRACE_Send
 1852              	.LVL127:
 306:Utilities/trace/adv_trace/stm32_adv_trace.c **** 
 1853              		.loc 1 306 1 view .LVU480
 1854 0022 0DF5037D 		add	sp, sp, #524
 1855              	.LCFI33:
 1856              		.cfi_def_cfa_offset 20
 1857              		@ sp needed
 1858 0026 5DF804EB 		ldr	lr, [sp], #4
 1859              	.LCFI34:
 1860              		.cfi_restore 14
 1861              		.cfi_def_cfa_offset 16
 1862 002a 04B0     		add	sp, sp, #16
 1863              	.LCFI35:
 1864              		.cfi_restore 3
 1865              		.cfi_restore 2
 1866              		.cfi_restore 1
 1867              		.cfi_restore 0
 1868              		.cfi_def_cfa_offset 0
 1869 002c 7047     		bx	lr
 1870              		.cfi_endproc
 1871              	.LFE112:
 1873              		.section	.text.UTIL_ADV_TRACE_PostSendHook,"ax",%progbits
 1874              		.align	1
 1875              		.weak	UTIL_ADV_TRACE_PostSendHook
 1876              		.syntax unified
 1877              		.thumb
 1878              		.thumb_func
ARM GAS  C:\Users\NATHAN~1\AppData\Local\Temp\ccImtOWI.s 			page 63


 1880              	UTIL_ADV_TRACE_PostSendHook:
 1881              	.LFB126:
 523:Utilities/trace/adv_trace/stm32_adv_trace.c **** }
 1882              		.loc 1 523 1 is_stmt 1 view -0
 1883              		.cfi_startproc
 1884              		@ args = 0, pretend = 0, frame = 0
 1885              		@ frame_needed = 0, uses_anonymous_args = 0
 1886              		@ link register save eliminated.
 524:Utilities/trace/adv_trace/stm32_adv_trace.c **** 
 1887              		.loc 1 524 1 view .LVU482
 1888 0000 7047     		bx	lr
 1889              		.cfi_endproc
 1890              	.LFE126:
 1892              		.section	.text.TRACE_TxCpltCallback,"ax",%progbits
 1893              		.align	1
 1894              		.syntax unified
 1895              		.thumb
 1896              		.thumb_func
 1898              	TRACE_TxCpltCallback:
 1899              	.LVL128:
 1900              	.LFB128:
 610:Utilities/trace/adv_trace/stm32_adv_trace.c ****   uint8_t *ptr = NULL;
 1901              		.loc 1 610 1 view -0
 1902              		.cfi_startproc
 1903              		@ args = 0, pretend = 0, frame = 0
 1904              		@ frame_needed = 0, uses_anonymous_args = 0
 610:Utilities/trace/adv_trace/stm32_adv_trace.c ****   uint8_t *ptr = NULL;
 1905              		.loc 1 610 1 is_stmt 0 view .LVU484
 1906 0000 10B5     		push	{r4, lr}
 1907              	.LCFI36:
 1908              		.cfi_def_cfa_offset 8
 1909              		.cfi_offset 4, -8
 1910              		.cfi_offset 14, -4
 611:Utilities/trace/adv_trace/stm32_adv_trace.c ****   UTIL_ADV_TRACE_ENTER_CRITICAL_SECTION();
 1911              		.loc 1 611 3 is_stmt 1 view .LVU485
 1912              	.LVL129:
 612:Utilities/trace/adv_trace/stm32_adv_trace.c **** 
 1913              		.loc 1 612 3 view .LVU486
 1914              	.LBB69:
 1915              	.LBI69:
 449:Drivers/CMSIS/Include/cmsis_gcc.h **** {
 1916              		.loc 2 449 31 view .LVU487
 1917              	.LBB70:
 451:Drivers/CMSIS/Include/cmsis_gcc.h **** 
 1918              		.loc 2 451 3 view .LVU488
 453:Drivers/CMSIS/Include/cmsis_gcc.h ****   return(result);
 1919              		.loc 2 453 3 view .LVU489
 1920              		.syntax unified
 1921              	@ 453 "Drivers/CMSIS/Include/cmsis_gcc.h" 1
 1922 0002 EFF31081 		MRS r1, primask
 1923              	@ 0 "" 2
 1924              	.LVL130:
 454:Drivers/CMSIS/Include/cmsis_gcc.h **** }
 1925              		.loc 2 454 3 view .LVU490
 454:Drivers/CMSIS/Include/cmsis_gcc.h **** }
 1926              		.loc 2 454 3 is_stmt 0 view .LVU491
 1927              		.thumb
ARM GAS  C:\Users\NATHAN~1\AppData\Local\Temp\ccImtOWI.s 			page 64


 1928              		.syntax unified
 1929              	.LBE70:
 1930              	.LBE69:
 612:Utilities/trace/adv_trace/stm32_adv_trace.c **** 
 1931              		.loc 1 612 3 is_stmt 1 view .LVU492
 1932              	.LBB71:
 1933              	.LBI71:
 207:Drivers/CMSIS/Include/cmsis_gcc.h **** {
 1934              		.loc 2 207 27 view .LVU493
 1935              	.LBB72:
 209:Drivers/CMSIS/Include/cmsis_gcc.h **** }
 1936              		.loc 2 209 3 view .LVU494
 1937              		.syntax unified
 1938              	@ 209 "Drivers/CMSIS/Include/cmsis_gcc.h" 1
 1939 0006 72B6     		cpsid i
 1940              	@ 0 "" 2
 1941              		.thumb
 1942              		.syntax unified
 1943              	.LBE72:
 1944              	.LBE71:
 624:Utilities/trace/adv_trace/stm32_adv_trace.c ****   {
 1945              		.loc 1 624 3 view .LVU495
 624:Utilities/trace/adv_trace/stm32_adv_trace.c ****   {
 1946              		.loc 1 624 45 is_stmt 0 view .LVU496
 1947 0008 254B     		ldr	r3, .L148
 1948 000a 9B78     		ldrb	r3, [r3, #2]	@ zero_extendqisi2
 624:Utilities/trace/adv_trace/stm32_adv_trace.c ****   {
 1949              		.loc 1 624 5 view .LVU497
 1950 000c 022B     		cmp	r3, #2
 1951 000e 16D0     		beq	.L145
 632:Utilities/trace/adv_trace/stm32_adv_trace.c ****   }
 1952              		.loc 1 632 5 is_stmt 1 view .LVU498
 632:Utilities/trace/adv_trace/stm32_adv_trace.c ****   }
 1953              		.loc 1 632 46 is_stmt 0 view .LVU499
 1954 0010 234A     		ldr	r2, .L148
 1955 0012 138A     		ldrh	r3, [r2, #16]
 632:Utilities/trace/adv_trace/stm32_adv_trace.c ****   }
 1956              		.loc 1 632 73 view .LVU500
 1957 0014 908A     		ldrh	r0, [r2, #20]
 1958              	.LVL131:
 632:Utilities/trace/adv_trace/stm32_adv_trace.c ****   }
 1959              		.loc 1 632 58 view .LVU501
 1960 0016 0344     		add	r3, r3, r0
 632:Utilities/trace/adv_trace/stm32_adv_trace.c ****   }
 1961              		.loc 1 632 89 view .LVU502
 1962 0018 C3F30903 		ubfx	r3, r3, #0, #10
 632:Utilities/trace/adv_trace/stm32_adv_trace.c ****   }
 1963              		.loc 1 632 30 view .LVU503
 1964 001c 1382     		strh	r3, [r2, #16]	@ movhi
 1965              	.L138:
 651:Utilities/trace/adv_trace/stm32_adv_trace.c ****   {
 1966              		.loc 1 651 3 is_stmt 1 view .LVU504
 651:Utilities/trace/adv_trace/stm32_adv_trace.c ****   {
 1967              		.loc 1 651 20 is_stmt 0 view .LVU505
 1968 001e 204B     		ldr	r3, .L148
 1969 0020 1A8A     		ldrh	r2, [r3, #16]
 651:Utilities/trace/adv_trace/stm32_adv_trace.c ****   {
ARM GAS  C:\Users\NATHAN~1\AppData\Local\Temp\ccImtOWI.s 			page 65


 1970              		.loc 1 651 48 view .LVU506
 1971 0022 5B8A     		ldrh	r3, [r3, #18]
 651:Utilities/trace/adv_trace/stm32_adv_trace.c ****   {
 1972              		.loc 1 651 5 view .LVU507
 1973 0024 9A42     		cmp	r2, r3
 1974 0026 03D0     		beq	.L139
 651:Utilities/trace/adv_trace/stm32_adv_trace.c ****   {
 1975              		.loc 1 651 84 discriminator 1 view .LVU508
 1976 0028 1D48     		ldr	r0, .L148
 1977 002a C08A     		ldrh	r0, [r0, #22]
 651:Utilities/trace/adv_trace/stm32_adv_trace.c ****   {
 1978              		.loc 1 651 61 discriminator 1 view .LVU509
 1979 002c 0128     		cmp	r0, #1
 1980 002e 0BD0     		beq	.L146
 1981              	.L139:
 692:Utilities/trace/adv_trace/stm32_adv_trace.c ****     UTIL_ADV_TRACE_PostSendHook();
 1982              		.loc 1 692 5 is_stmt 1 view .LVU510
 1983              	.LVL132:
 1984              	.LBB73:
 1985              	.LBI73:
 479:Drivers/CMSIS/Include/cmsis_gcc.h **** {
 1986              		.loc 2 479 27 view .LVU511
 1987              	.LBB74:
 481:Drivers/CMSIS/Include/cmsis_gcc.h **** }
 1988              		.loc 2 481 3 view .LVU512
 1989              		.syntax unified
 1990              	@ 481 "Drivers/CMSIS/Include/cmsis_gcc.h" 1
 1991 0030 81F31088 		MSR primask, r1
 1992              	@ 0 "" 2
 1993              	.LVL133:
 481:Drivers/CMSIS/Include/cmsis_gcc.h **** }
 1994              		.loc 2 481 3 is_stmt 0 view .LVU513
 1995              		.thumb
 1996              		.syntax unified
 1997              	.LBE74:
 1998              	.LBE73:
 693:Utilities/trace/adv_trace/stm32_adv_trace.c ****     TRACE_UnLock();
 1999              		.loc 1 693 5 is_stmt 1 view .LVU514
 2000 0034 FFF7FEFF 		bl	UTIL_ADV_TRACE_PostSendHook
 2001              	.LVL134:
 694:Utilities/trace/adv_trace/stm32_adv_trace.c ****   }
 2002              		.loc 1 694 5 view .LVU515
 2003 0038 FFF7FEFF 		bl	TRACE_UnLock
 2004              	.LVL135:
 2005              	.L136:
 696:Utilities/trace/adv_trace/stm32_adv_trace.c **** 
 2006              		.loc 1 696 1 is_stmt 0 view .LVU516
 2007 003c 10BD     		pop	{r4, pc}
 2008              	.LVL136:
 2009              	.L145:
 626:Utilities/trace/adv_trace/stm32_adv_trace.c ****     ADV_TRACE_Ctx.TraceRdPtr = 0;
 2010              		.loc 1 626 5 is_stmt 1 view .LVU517
 626:Utilities/trace/adv_trace/stm32_adv_trace.c ****     ADV_TRACE_Ctx.TraceRdPtr = 0;
 2011              		.loc 1 626 34 is_stmt 0 view .LVU518
 2012 003e 184B     		ldr	r3, .L148
 2013 0040 0022     		movs	r2, #0
 2014 0042 9A70     		strb	r2, [r3, #2]
ARM GAS  C:\Users\NATHAN~1\AppData\Local\Temp\ccImtOWI.s 			page 66


 627:Utilities/trace/adv_trace/stm32_adv_trace.c ****     UTIL_ADV_TRACE_DEBUG("\nTRACE_TxCpltCallback::unchunk complete\n");
 2015              		.loc 1 627 5 is_stmt 1 view .LVU519
 627:Utilities/trace/adv_trace/stm32_adv_trace.c ****     UTIL_ADV_TRACE_DEBUG("\nTRACE_TxCpltCallback::unchunk complete\n");
 2016              		.loc 1 627 30 is_stmt 0 view .LVU520
 2017 0044 1A82     		strh	r2, [r3, #16]	@ movhi
 628:Utilities/trace/adv_trace/stm32_adv_trace.c ****   }
 2018              		.loc 1 628 71 is_stmt 1 view .LVU521
 2019 0046 EAE7     		b	.L138
 2020              	.LVL137:
 2021              	.L146:
 654:Utilities/trace/adv_trace/stm32_adv_trace.c ****     {
 2022              		.loc 1 654 5 view .LVU522
 654:Utilities/trace/adv_trace/stm32_adv_trace.c ****     {
 2023              		.loc 1 654 47 is_stmt 0 view .LVU523
 2024 0048 1548     		ldr	r0, .L148
 2025 004a 8078     		ldrb	r0, [r0, #2]	@ zero_extendqisi2
 654:Utilities/trace/adv_trace/stm32_adv_trace.c ****     {
 2026              		.loc 1 654 7 view .LVU524
 2027 004c 0128     		cmp	r0, #1
 2028 004e 14D0     		beq	.L147
 2029              	.L140:
 671:Utilities/trace/adv_trace/stm32_adv_trace.c ****     {
 2030              		.loc 1 671 5 is_stmt 1 view .LVU525
 671:Utilities/trace/adv_trace/stm32_adv_trace.c ****     {
 2031              		.loc 1 671 43 is_stmt 0 view .LVU526
 2032 0050 134A     		ldr	r2, .L148
 2033 0052 9278     		ldrb	r2, [r2, #2]	@ zero_extendqisi2
 671:Utilities/trace/adv_trace/stm32_adv_trace.c ****     {
 2034              		.loc 1 671 7 view .LVU527
 2035 0054 32B9     		cbnz	r2, .L141
 674:Utilities/trace/adv_trace/stm32_adv_trace.c ****       {
 2036              		.loc 1 674 7 is_stmt 1 view .LVU528
 674:Utilities/trace/adv_trace/stm32_adv_trace.c ****       {
 2037              		.loc 1 674 50 is_stmt 0 view .LVU529
 2038 0056 124A     		ldr	r2, .L148
 2039 0058 128A     		ldrh	r2, [r2, #16]
 674:Utilities/trace/adv_trace/stm32_adv_trace.c ****       {
 2040              		.loc 1 674 9 view .LVU530
 2041 005a 9342     		cmp	r3, r2
 2042 005c 1BD9     		bls	.L142
 676:Utilities/trace/adv_trace/stm32_adv_trace.c ****       }
 2043              		.loc 1 676 9 is_stmt 1 view .LVU531
 676:Utilities/trace/adv_trace/stm32_adv_trace.c ****       }
 2044              		.loc 1 676 64 is_stmt 0 view .LVU532
 2045 005e 9B1A     		subs	r3, r3, r2
 676:Utilities/trace/adv_trace/stm32_adv_trace.c ****       }
 2046              		.loc 1 676 37 view .LVU533
 2047 0060 0F4A     		ldr	r2, .L148
 2048 0062 9382     		strh	r3, [r2, #20]	@ movhi
 2049              	.L141:
 685:Utilities/trace/adv_trace/stm32_adv_trace.c ****     UTIL_ADV_TRACE_EXIT_CRITICAL_SECTION();
 2050              		.loc 1 685 5 is_stmt 1 view .LVU534
 685:Utilities/trace/adv_trace/stm32_adv_trace.c ****     UTIL_ADV_TRACE_EXIT_CRITICAL_SECTION();
 2051              		.loc 1 685 42 is_stmt 0 view .LVU535
 2052 0064 0E4B     		ldr	r3, .L148
 2053 0066 1A8A     		ldrh	r2, [r3, #16]
 685:Utilities/trace/adv_trace/stm32_adv_trace.c ****     UTIL_ADV_TRACE_EXIT_CRITICAL_SECTION();
ARM GAS  C:\Users\NATHAN~1\AppData\Local\Temp\ccImtOWI.s 			page 67


 2054              		.loc 1 685 9 view .LVU536
 2055 0068 0E48     		ldr	r0, .L148+4
 2056 006a 1044     		add	r0, r0, r2
 2057              	.LVL138:
 686:Utilities/trace/adv_trace/stm32_adv_trace.c ****     UTIL_ADV_TRACE_DEBUG("\n--TRACE_Send(%d-%d)--\n", ADV_TRACE_Ctx.TraceRdPtr, ADV_TRACE_Ctx.Trace
 2058              		.loc 1 686 5 is_stmt 1 view .LVU537
 2059              	.LBB75:
 2060              	.LBI75:
 479:Drivers/CMSIS/Include/cmsis_gcc.h **** {
 2061              		.loc 2 479 27 view .LVU538
 2062              	.LBB76:
 481:Drivers/CMSIS/Include/cmsis_gcc.h **** }
 2063              		.loc 2 481 3 view .LVU539
 2064              		.syntax unified
 2065              	@ 481 "Drivers/CMSIS/Include/cmsis_gcc.h" 1
 2066 006c 81F31088 		MSR primask, r1
 2067              	@ 0 "" 2
 2068              	.LVL139:
 481:Drivers/CMSIS/Include/cmsis_gcc.h **** }
 2069              		.loc 2 481 3 is_stmt 0 view .LVU540
 2070              		.thumb
 2071              		.syntax unified
 2072              	.LBE76:
 2073              	.LBE75:
 687:Utilities/trace/adv_trace/stm32_adv_trace.c ****     UTIL_TraceDriver.Send(ptr, ADV_TRACE_Ctx.TraceSentSize);
 2074              		.loc 1 687 109 is_stmt 1 view .LVU541
 688:Utilities/trace/adv_trace/stm32_adv_trace.c ****   }
 2075              		.loc 1 688 5 view .LVU542
 688:Utilities/trace/adv_trace/stm32_adv_trace.c ****   }
 2076              		.loc 1 688 21 is_stmt 0 view .LVU543
 2077 0070 0D4A     		ldr	r2, .L148+8
 2078 0072 D268     		ldr	r2, [r2, #12]
 688:Utilities/trace/adv_trace/stm32_adv_trace.c ****   }
 2079              		.loc 1 688 5 view .LVU544
 2080 0074 998A     		ldrh	r1, [r3, #20]
 2081              	.LVL140:
 688:Utilities/trace/adv_trace/stm32_adv_trace.c ****   }
 2082              		.loc 1 688 5 view .LVU545
 2083 0076 9047     		blx	r2
 2084              	.LVL141:
 688:Utilities/trace/adv_trace/stm32_adv_trace.c ****   }
 2085              		.loc 1 688 5 view .LVU546
 2086 0078 E0E7     		b	.L136
 2087              	.LVL142:
 2088              	.L147:
 656:Utilities/trace/adv_trace/stm32_adv_trace.c ****       ADV_TRACE_Ctx.unchunk_status = TRACE_UNCHUNK_TRANSFER;
 2089              		.loc 1 656 7 is_stmt 1 view .LVU547
 656:Utilities/trace/adv_trace/stm32_adv_trace.c ****       ADV_TRACE_Ctx.unchunk_status = TRACE_UNCHUNK_TRANSFER;
 2090              		.loc 1 656 50 is_stmt 0 view .LVU548
 2091 007a 094C     		ldr	r4, .L148
 2092 007c 2088     		ldrh	r0, [r4]
 656:Utilities/trace/adv_trace/stm32_adv_trace.c ****       ADV_TRACE_Ctx.unchunk_status = TRACE_UNCHUNK_TRANSFER;
 2093              		.loc 1 656 67 view .LVU549
 2094 007e 821A     		subs	r2, r0, r2
 2095 0080 92B2     		uxth	r2, r2
 656:Utilities/trace/adv_trace/stm32_adv_trace.c ****       ADV_TRACE_Ctx.unchunk_status = TRACE_UNCHUNK_TRANSFER;
 2096              		.loc 1 656 35 view .LVU550
ARM GAS  C:\Users\NATHAN~1\AppData\Local\Temp\ccImtOWI.s 			page 68


 2097 0082 A282     		strh	r2, [r4, #20]	@ movhi
 657:Utilities/trace/adv_trace/stm32_adv_trace.c ****       ADV_TRACE_Ctx.unchunk_enabled = 0;
 2098              		.loc 1 657 7 is_stmt 1 view .LVU551
 657:Utilities/trace/adv_trace/stm32_adv_trace.c ****       ADV_TRACE_Ctx.unchunk_enabled = 0;
 2099              		.loc 1 657 36 is_stmt 0 view .LVU552
 2100 0084 0220     		movs	r0, #2
 2101 0086 A070     		strb	r0, [r4, #2]
 658:Utilities/trace/adv_trace/stm32_adv_trace.c **** 
 2102              		.loc 1 658 7 is_stmt 1 view .LVU553
 658:Utilities/trace/adv_trace/stm32_adv_trace.c **** 
 2103              		.loc 1 658 37 is_stmt 0 view .LVU554
 2104 0088 0020     		movs	r0, #0
 2105 008a 2080     		strh	r0, [r4]	@ movhi
 660:Utilities/trace/adv_trace/stm32_adv_trace.c **** 
 2106              		.loc 1 660 134 is_stmt 1 view .LVU555
 662:Utilities/trace/adv_trace/stm32_adv_trace.c ****       {
 2107              		.loc 1 662 7 view .LVU556
 662:Utilities/trace/adv_trace/stm32_adv_trace.c ****       {
 2108              		.loc 1 662 9 is_stmt 0 view .LVU557
 2109 008c 002A     		cmp	r2, #0
 2110 008e DFD1     		bne	.L140
 666:Utilities/trace/adv_trace/stm32_adv_trace.c ****         ADV_TRACE_Ctx.TraceRdPtr = 0;
 2111              		.loc 1 666 9 is_stmt 1 view .LVU558
 666:Utilities/trace/adv_trace/stm32_adv_trace.c ****         ADV_TRACE_Ctx.TraceRdPtr = 0;
 2112              		.loc 1 666 38 is_stmt 0 view .LVU559
 2113 0090 A070     		strb	r0, [r4, #2]
 667:Utilities/trace/adv_trace/stm32_adv_trace.c ****       }
 2114              		.loc 1 667 9 is_stmt 1 view .LVU560
 667:Utilities/trace/adv_trace/stm32_adv_trace.c ****       }
 2115              		.loc 1 667 34 is_stmt 0 view .LVU561
 2116 0092 2082     		strh	r0, [r4, #16]	@ movhi
 2117 0094 DCE7     		b	.L140
 2118              	.L142:
 680:Utilities/trace/adv_trace/stm32_adv_trace.c ****       }
 2119              		.loc 1 680 9 is_stmt 1 view .LVU562
 680:Utilities/trace/adv_trace/stm32_adv_trace.c ****       }
 2120              		.loc 1 680 64 is_stmt 0 view .LVU563
 2121 0096 C2F58063 		rsb	r3, r2, #1024
 680:Utilities/trace/adv_trace/stm32_adv_trace.c ****       }
 2122              		.loc 1 680 37 view .LVU564
 2123 009a 014A     		ldr	r2, .L148
 2124 009c 9382     		strh	r3, [r2, #20]	@ movhi
 2125 009e E1E7     		b	.L141
 2126              	.L149:
 2127              		.align	2
 2128              	.L148:
 2129 00a0 00000000 		.word	.LANCHOR0
 2130 00a4 00000000 		.word	.LANCHOR1
 2131 00a8 00000000 		.word	UTIL_TraceDriver
 2132              		.cfi_endproc
 2133              	.LFE128:
 2135              		.section	.bss.ADV_TRACE_Buffer,"aw",%nobits
 2136              		.align	2
 2137              		.set	.LANCHOR1,. + 0
 2140              	ADV_TRACE_Buffer:
 2141 0000 00000000 		.space	1024
 2141      00000000 
ARM GAS  C:\Users\NATHAN~1\AppData\Local\Temp\ccImtOWI.s 			page 69


 2141      00000000 
 2141      00000000 
 2141      00000000 
 2142              		.section	.bss.ADV_TRACE_Ctx,"aw",%nobits
 2143              		.align	2
 2144              		.set	.LANCHOR0,. + 0
 2147              	ADV_TRACE_Ctx:
 2148 0000 00000000 		.space	24
 2148      00000000 
 2148      00000000 
 2148      00000000 
 2148      00000000 
 2149              		.section	.bss.sztmp,"aw",%nobits
 2150              		.align	2
 2151              		.set	.LANCHOR2,. + 0
 2154              	sztmp:
 2155 0000 00000000 		.space	512
 2155      00000000 
 2155      00000000 
 2155      00000000 
 2155      00000000 
 2156              		.text
 2157              	.Letext0:
 2158              		.file 3 "c:\\program files (x86)\\gnu arm embedded toolchain\\10 2021.10\\arm-none-eabi\\include\\
 2159              		.file 4 "c:\\program files (x86)\\gnu arm embedded toolchain\\10 2021.10\\arm-none-eabi\\include\\
 2160              		.file 5 "c:\\program files (x86)\\gnu arm embedded toolchain\\10 2021.10\\lib\\gcc\\arm-none-eabi\
 2161              		.file 6 "Utilities/trace/adv_trace/stm32_adv_trace.h"
 2162              		.file 7 "Utilities/misc/stm32_tiny_vsnprintf.h"
 2163              		.file 8 "Utilities/misc/stm32_mem.h"
 2164              		.file 9 "<built-in>"
ARM GAS  C:\Users\NATHAN~1\AppData\Local\Temp\ccImtOWI.s 			page 70


DEFINED SYMBOLS
                            *ABS*:00000000 stm32_adv_trace.c
C:\Users\NATHAN~1\AppData\Local\Temp\ccImtOWI.s:18     .text.TRACE_AllocateBufer:00000000 $t
C:\Users\NATHAN~1\AppData\Local\Temp\ccImtOWI.s:23     .text.TRACE_AllocateBufer:00000000 TRACE_AllocateBufer
C:\Users\NATHAN~1\AppData\Local\Temp\ccImtOWI.s:212    .text.TRACE_AllocateBufer:00000084 $d
C:\Users\NATHAN~1\AppData\Local\Temp\ccImtOWI.s:217    .text.TRACE_Lock:00000000 $t
C:\Users\NATHAN~1\AppData\Local\Temp\ccImtOWI.s:222    .text.TRACE_Lock:00000000 TRACE_Lock
C:\Users\NATHAN~1\AppData\Local\Temp\ccImtOWI.s:290    .text.TRACE_Lock:00000014 $d
C:\Users\NATHAN~1\AppData\Local\Temp\ccImtOWI.s:295    .text.TRACE_UnLock:00000000 $t
C:\Users\NATHAN~1\AppData\Local\Temp\ccImtOWI.s:300    .text.TRACE_UnLock:00000000 TRACE_UnLock
C:\Users\NATHAN~1\AppData\Local\Temp\ccImtOWI.s:368    .text.TRACE_UnLock:00000014 $d
C:\Users\NATHAN~1\AppData\Local\Temp\ccImtOWI.s:373    .text.TRACE_IsLocked:00000000 $t
C:\Users\NATHAN~1\AppData\Local\Temp\ccImtOWI.s:378    .text.TRACE_IsLocked:00000000 TRACE_IsLocked
C:\Users\NATHAN~1\AppData\Local\Temp\ccImtOWI.s:397    .text.TRACE_IsLocked:0000000c $d
C:\Users\NATHAN~1\AppData\Local\Temp\ccImtOWI.s:402    .text.UTIL_ADV_TRACE_Init:00000000 $t
C:\Users\NATHAN~1\AppData\Local\Temp\ccImtOWI.s:408    .text.UTIL_ADV_TRACE_Init:00000000 UTIL_ADV_TRACE_Init
C:\Users\NATHAN~1\AppData\Local\Temp\ccImtOWI.s:446    .text.UTIL_ADV_TRACE_Init:00000024 $d
C:\Users\NATHAN~1\AppData\Local\Temp\ccImtOWI.s:1898   .text.TRACE_TxCpltCallback:00000000 TRACE_TxCpltCallback
C:\Users\NATHAN~1\AppData\Local\Temp\ccImtOWI.s:454    .text.UTIL_ADV_TRACE_DeInit:00000000 $t
C:\Users\NATHAN~1\AppData\Local\Temp\ccImtOWI.s:460    .text.UTIL_ADV_TRACE_DeInit:00000000 UTIL_ADV_TRACE_DeInit
C:\Users\NATHAN~1\AppData\Local\Temp\ccImtOWI.s:483    .text.UTIL_ADV_TRACE_DeInit:0000000c $d
C:\Users\NATHAN~1\AppData\Local\Temp\ccImtOWI.s:488    .text.UTIL_ADV_TRACE_IsBufferEmpty:00000000 $t
C:\Users\NATHAN~1\AppData\Local\Temp\ccImtOWI.s:494    .text.UTIL_ADV_TRACE_IsBufferEmpty:00000000 UTIL_ADV_TRACE_IsBufferEmpty
C:\Users\NATHAN~1\AppData\Local\Temp\ccImtOWI.s:521    .text.UTIL_ADV_TRACE_IsBufferEmpty:00000014 $d
C:\Users\NATHAN~1\AppData\Local\Temp\ccImtOWI.s:526    .text.UTIL_ADV_TRACE_StartRxProcess:00000000 $t
C:\Users\NATHAN~1\AppData\Local\Temp\ccImtOWI.s:532    .text.UTIL_ADV_TRACE_StartRxProcess:00000000 UTIL_ADV_TRACE_StartRxProcess
C:\Users\NATHAN~1\AppData\Local\Temp\ccImtOWI.s:557    .text.UTIL_ADV_TRACE_StartRxProcess:0000000c $d
C:\Users\NATHAN~1\AppData\Local\Temp\ccImtOWI.s:562    .text.UTIL_ADV_TRACE_COND_ZCSend_Allocation:00000000 $t
C:\Users\NATHAN~1\AppData\Local\Temp\ccImtOWI.s:568    .text.UTIL_ADV_TRACE_COND_ZCSend_Allocation:00000000 UTIL_ADV_TRACE_COND_ZCSend_Allocation
C:\Users\NATHAN~1\AppData\Local\Temp\ccImtOWI.s:735    .text.UTIL_ADV_TRACE_COND_ZCSend_Allocation:000000a8 $d
C:\Users\NATHAN~1\AppData\Local\Temp\ccImtOWI.s:741    .text.UTIL_ADV_TRACE_ZCSend_Allocation:00000000 $t
C:\Users\NATHAN~1\AppData\Local\Temp\ccImtOWI.s:747    .text.UTIL_ADV_TRACE_ZCSend_Allocation:00000000 UTIL_ADV_TRACE_ZCSend_Allocation
C:\Users\NATHAN~1\AppData\Local\Temp\ccImtOWI.s:823    .text.UTIL_ADV_TRACE_ZCSend_Allocation:00000040 $d
C:\Users\NATHAN~1\AppData\Local\Temp\ccImtOWI.s:828    .text.UTIL_ADV_TRACE_RegisterTimeStampFunction:00000000 $t
C:\Users\NATHAN~1\AppData\Local\Temp\ccImtOWI.s:834    .text.UTIL_ADV_TRACE_RegisterTimeStampFunction:00000000 UTIL_ADV_TRACE_RegisterTimeStampFunction
C:\Users\NATHAN~1\AppData\Local\Temp\ccImtOWI.s:851    .text.UTIL_ADV_TRACE_RegisterTimeStampFunction:00000008 $d
C:\Users\NATHAN~1\AppData\Local\Temp\ccImtOWI.s:856    .text.UTIL_ADV_TRACE_SetVerboseLevel:00000000 $t
C:\Users\NATHAN~1\AppData\Local\Temp\ccImtOWI.s:862    .text.UTIL_ADV_TRACE_SetVerboseLevel:00000000 UTIL_ADV_TRACE_SetVerboseLevel
C:\Users\NATHAN~1\AppData\Local\Temp\ccImtOWI.s:879    .text.UTIL_ADV_TRACE_SetVerboseLevel:00000008 $d
C:\Users\NATHAN~1\AppData\Local\Temp\ccImtOWI.s:884    .text.UTIL_ADV_TRACE_GetVerboseLevel:00000000 $t
C:\Users\NATHAN~1\AppData\Local\Temp\ccImtOWI.s:890    .text.UTIL_ADV_TRACE_GetVerboseLevel:00000000 UTIL_ADV_TRACE_GetVerboseLevel
C:\Users\NATHAN~1\AppData\Local\Temp\ccImtOWI.s:905    .text.UTIL_ADV_TRACE_GetVerboseLevel:00000008 $d
C:\Users\NATHAN~1\AppData\Local\Temp\ccImtOWI.s:910    .text.UTIL_ADV_TRACE_SetRegion:00000000 $t
C:\Users\NATHAN~1\AppData\Local\Temp\ccImtOWI.s:916    .text.UTIL_ADV_TRACE_SetRegion:00000000 UTIL_ADV_TRACE_SetRegion
C:\Users\NATHAN~1\AppData\Local\Temp\ccImtOWI.s:935    .text.UTIL_ADV_TRACE_SetRegion:0000000c $d
C:\Users\NATHAN~1\AppData\Local\Temp\ccImtOWI.s:940    .text.UTIL_ADV_TRACE_GetRegion:00000000 $t
C:\Users\NATHAN~1\AppData\Local\Temp\ccImtOWI.s:946    .text.UTIL_ADV_TRACE_GetRegion:00000000 UTIL_ADV_TRACE_GetRegion
C:\Users\NATHAN~1\AppData\Local\Temp\ccImtOWI.s:961    .text.UTIL_ADV_TRACE_GetRegion:00000008 $d
C:\Users\NATHAN~1\AppData\Local\Temp\ccImtOWI.s:966    .text.UTIL_ADV_TRACE_ResetRegion:00000000 $t
C:\Users\NATHAN~1\AppData\Local\Temp\ccImtOWI.s:972    .text.UTIL_ADV_TRACE_ResetRegion:00000000 UTIL_ADV_TRACE_ResetRegion
C:\Users\NATHAN~1\AppData\Local\Temp\ccImtOWI.s:991    .text.UTIL_ADV_TRACE_ResetRegion:0000000c $d
C:\Users\NATHAN~1\AppData\Local\Temp\ccImtOWI.s:996    .text.UTIL_ADV_TRACE_PreSendHook:00000000 $t
C:\Users\NATHAN~1\AppData\Local\Temp\ccImtOWI.s:1002   .text.UTIL_ADV_TRACE_PreSendHook:00000000 UTIL_ADV_TRACE_PreSendHook
C:\Users\NATHAN~1\AppData\Local\Temp\ccImtOWI.s:1015   .text.TRACE_Send:00000000 $t
C:\Users\NATHAN~1\AppData\Local\Temp\ccImtOWI.s:1020   .text.TRACE_Send:00000000 TRACE_Send
C:\Users\NATHAN~1\AppData\Local\Temp\ccImtOWI.s:1243   .text.TRACE_Send:00000090 $d
C:\Users\NATHAN~1\AppData\Local\Temp\ccImtOWI.s:1252   .text.UTIL_ADV_TRACE_COND_FSend:00000000 $t
ARM GAS  C:\Users\NATHAN~1\AppData\Local\Temp\ccImtOWI.s 			page 71


C:\Users\NATHAN~1\AppData\Local\Temp\ccImtOWI.s:1258   .text.UTIL_ADV_TRACE_COND_FSend:00000000 UTIL_ADV_TRACE_COND_FSend
C:\Users\NATHAN~1\AppData\Local\Temp\ccImtOWI.s:1446   .text.UTIL_ADV_TRACE_COND_FSend:000000c0 $d
C:\Users\NATHAN~1\AppData\Local\Temp\ccImtOWI.s:1453   .text.UTIL_ADV_TRACE_ZCSend_Finalize:00000000 $t
C:\Users\NATHAN~1\AppData\Local\Temp\ccImtOWI.s:1459   .text.UTIL_ADV_TRACE_ZCSend_Finalize:00000000 UTIL_ADV_TRACE_ZCSend_Finalize
C:\Users\NATHAN~1\AppData\Local\Temp\ccImtOWI.s:1483   .text.UTIL_ADV_TRACE_COND_ZCSend_Finalize:00000000 $t
C:\Users\NATHAN~1\AppData\Local\Temp\ccImtOWI.s:1489   .text.UTIL_ADV_TRACE_COND_ZCSend_Finalize:00000000 UTIL_ADV_TRACE_COND_ZCSend_Finalize
C:\Users\NATHAN~1\AppData\Local\Temp\ccImtOWI.s:1510   .text.UTIL_ADV_TRACE_COND_Send:00000000 $t
C:\Users\NATHAN~1\AppData\Local\Temp\ccImtOWI.s:1516   .text.UTIL_ADV_TRACE_COND_Send:00000000 UTIL_ADV_TRACE_COND_Send
C:\Users\NATHAN~1\AppData\Local\Temp\ccImtOWI.s:1696   .text.UTIL_ADV_TRACE_COND_Send:000000b8 $d
C:\Users\NATHAN~1\AppData\Local\Temp\ccImtOWI.s:1702   .text.UTIL_ADV_TRACE_Send:00000000 $t
C:\Users\NATHAN~1\AppData\Local\Temp\ccImtOWI.s:1708   .text.UTIL_ADV_TRACE_Send:00000000 UTIL_ADV_TRACE_Send
C:\Users\NATHAN~1\AppData\Local\Temp\ccImtOWI.s:1801   .text.UTIL_ADV_TRACE_Send:00000054 $d
C:\Users\NATHAN~1\AppData\Local\Temp\ccImtOWI.s:1806   .text.UTIL_ADV_TRACE_FSend:00000000 $t
C:\Users\NATHAN~1\AppData\Local\Temp\ccImtOWI.s:1812   .text.UTIL_ADV_TRACE_FSend:00000000 UTIL_ADV_TRACE_FSend
C:\Users\NATHAN~1\AppData\Local\Temp\ccImtOWI.s:1874   .text.UTIL_ADV_TRACE_PostSendHook:00000000 $t
C:\Users\NATHAN~1\AppData\Local\Temp\ccImtOWI.s:1880   .text.UTIL_ADV_TRACE_PostSendHook:00000000 UTIL_ADV_TRACE_PostSendHook
C:\Users\NATHAN~1\AppData\Local\Temp\ccImtOWI.s:1893   .text.TRACE_TxCpltCallback:00000000 $t
C:\Users\NATHAN~1\AppData\Local\Temp\ccImtOWI.s:2129   .text.TRACE_TxCpltCallback:000000a0 $d
C:\Users\NATHAN~1\AppData\Local\Temp\ccImtOWI.s:2136   .bss.ADV_TRACE_Buffer:00000000 $d
C:\Users\NATHAN~1\AppData\Local\Temp\ccImtOWI.s:2140   .bss.ADV_TRACE_Buffer:00000000 ADV_TRACE_Buffer
C:\Users\NATHAN~1\AppData\Local\Temp\ccImtOWI.s:2143   .bss.ADV_TRACE_Ctx:00000000 $d
C:\Users\NATHAN~1\AppData\Local\Temp\ccImtOWI.s:2147   .bss.ADV_TRACE_Ctx:00000000 ADV_TRACE_Ctx
C:\Users\NATHAN~1\AppData\Local\Temp\ccImtOWI.s:2150   .bss.sztmp:00000000 $d
C:\Users\NATHAN~1\AppData\Local\Temp\ccImtOWI.s:2154   .bss.sztmp:00000000 sztmp

UNDEFINED SYMBOLS
UTIL_MEM_set_8
UTIL_TraceDriver
tiny_vsnprintf_like
